; HYPEX DLCP Firmware V2.3 Disassembly
; Architecture: PIC18F2550/4550 (Microchip)
; Generated by analysis script
;
; Memory Map:
;   0x0000-0x0FFF: Bootloader (not in this file)
;   0x1000-0x5FFF: Application
;

0x1000: EF0A F008  GOTO 0x1014
0x1004: FFFF       DW 0xFFFF
0x1006: FFFF       DW 0xFFFF
0x1008: CFD9 F001  MOVFF 0xFD9, 0x001
0x100C: CFDA F002  MOVFF 0xFDA, 0x002
0x1010: ED8F       DW 0xED8F
0x1012: F01D       DW 0xF01D
0x1014: EFA7 F01E  GOTO 0x3D4E
0x1018: 3000       DW 0x3000
0x101A: 3231       DW 0x3231
0x101C: 3433       DW 0x3433
0x101E: 3635       DW 0x3635
0x1020: 3837       DW 0x3837
0x1022: 4139       DW 0x4139
0x1024: 4342       DW 0x4342
0x1026: 4544       DW 0x4544
0x1028: A646       BTFSS 0x46, 3, ACCESS
0x102A: 9A72       BCF 0x72, 5, ACCESS
0x102C: 0209       DW 0x0209
0x102E: 0029       DW 0x0029
0x1030: 0101       MOVLB 0x1
0x1032: 8000       BSF 0x00, 0, ACCESS
0x1034: 0932       IORLW 0x32
0x1036: 0004       CLRWDT
0x1038: 0200       DW 0x0200
0x103A: 0003       SLEEP
0x103C: 0000       NOP
0x103E: 2109       DW 0x2109
0x1040: 0111       MOVLB 0x1
0x1042: 0100       MOVLB 0x0
0x1044: 1D22       DW 0x1D22
0x1046: 0700       DECF 0x00, F, BSR
0x1048: 8105       BSF 0x05, 0, BSR
0x104A: 4003       DW 0x4003
0x104C: 0100       MOVLB 0x0
0x104E: 0507       DECF 0x07, W, BSR
0x1050: 0301       DW 0x0301
0x1052: 0040       DW 0x0040
0x1054: 0601       DECF 0x01, F, ACCESS
0x1056: FF00       DW 0xFF00
0x1058: 0109       MOVLB 0x9
0x105A: 01A1       MOVLB 0x1
0x105C: 0119       MOVLB 0x9
0x105E: 4029       DW 0x4029
0x1060: 0015       DW 0x0015
0x1062: FF26       DW 0xFF26
0x1064: 7500       DW 0x7500
0x1066: 9508       BCF 0x08, 2, BSR
0x1068: 8140       BSF 0x40, 0, BSR
0x106A: 1900       XORWF 0x00, W, BSR
0x106C: 2901       INCF 0x01, W, BSR
0x106E: 9140       BCF 0x40, 0, BSR
0x1070: C000       DW 0xC000
0x1072: 0316       DW 0x0316
0x1074: 0048       DW 0x0048
0x1076: 0079       DW 0x0079
0x1078: 0070       DW 0x0070
0x107A: 0065       DW 0x0065
0x107C: 0078       DW 0x0078
0x107E: 0020       DW 0x0020
0x1080: 0042       DW 0x0042
0x1082: 0056       DW 0x0056
0x1084: 0000       NOP
0x1086: 0000       NOP
0x1088: 0112       MOVLB 0x2
0x108A: 0200       DW 0x0200
0x108C: 0000       NOP
0x108E: 0800       SUBLW 0x00
0x1090: 04D8       DECF 0xD8, W, ACCESS
0x1092: FF89       DW 0xFF89
0x1094: 0001       DW 0x0001
0x1096: 0201       DW 0x0201
0x1098: 0100       MOVLB 0x0
0x109A: 030C       DW 0x030C
0x109C: 0044       DW 0x0044
0x109E: 004C       DW 0x004C
0x10A0: 0043       DW 0x0043
0x10A2: 0050       DW 0x0050
0x10A4: 0000       NOP
0x10A6: 0304       DW 0x0304
0x10A8: 0409       DECF 0x09, W, ACCESS
0x10AA: 0000       NOP
0x10AC: CFE8 F057  MOVFF 0xFE8, 0x057
0x10B0: EE21       DW 0xEE21
0x10B2: F0ED       DW 0xF0ED
0x10B4: EE10       DW 0xEE10
0x10B6: F04D       DW 0xF04D
0x10B8: 0E07       MOVLW 0x07
0x10BA: CFDE       DW 0xCFDE
0x10BC: FFE6       DW 0xFFE6
0x10BE: 2EE8       DECFSZ 0xE8, F, ACCESS
0x10C0: D7FC       BRA 0x10BA
0x10C2: 5057       DW 0x5057
0x10C4: 0A42       XORLW 0x42
0x10C6: E101       BNZ 0x10CA
0x10C8: D244       BRA 0x1552
0x10CA: 0100       MOVLB 0x0
0x10CC: 6BCB       MOVWF 0xCB, BSR
0x10CE: D241       BRA 0x1552
0x10D0: C11B F097  MOVFF 0x11B, 0x097
0x10D4: 0100       MOVLB 0x0
0x10D6: 5197       DW 0x5197
0x10D8: 0A09       XORLW 0x09
0x10DA: E114       BNZ 0x1104
0x10DC: 0E02       MOVLW 0x02
0x10DE: 6E58       DW 0x6E58
0x10E0: DA67       RCALL 0x15B0
0x10E2: 50DF       DW 0x50DF
0x10E4: E00A       BZ 0x10FA
0x10E6: DA64       RCALL 0x15B0
0x10E8: 0EBE       MOVLW 0xBE
0x10EA: 2458       DW 0x2458
0x10EC: 6EE1       DW 0x6EE1
0x10EE: 6AE2       MOVWF 0xE2, ACCESS
0x10F0: 0E02       MOVLW 0x02
0x10F2: 22E2       DW 0x22E2
0x10F4: CFDF       DW 0xCFDF
0x10F6: FFE7       DW 0xFFE7
0x10F8: D001       BRA 0x10FC
0x10FA: DA61       RCALL 0x15BE
0x10FC: 2A58       INCF 0x58, F, ACCESS
0x10FE: 0E1F       MOVLW 0x1F
0x1100: 6458       DW 0x6458
0x1102: D7EE       BRA 0x10E0
0x1104: 0100       MOVLB 0x0
0x1106: 5197       DW 0x5197
0x1108: 0A0A       XORLW 0x0A
0x110A: E107       BNZ 0x111A
0x110C: 0E02       MOVLW 0x02
0x110E: 6E58       DW 0x6E58
0x1110: DA56       RCALL 0x15BE
0x1112: 2A58       INCF 0x58, F, ACCESS
0x1114: 0E1F       MOVLW 0x1F
0x1116: 6458       DW 0x6458
0x1118: D7FB       BRA 0x1110
0x111A: 0E03       MOVLW 0x03
0x111C: 0100       MOVLB 0x0
0x111E: 6FC1       DW 0x6FC1
0x1120: C11B F0C2  MOVFF 0x11B, 0x0C2
0x1124: 8BBD       BSF 0xBD, 5, BSR
0x1126: EC53 F024  CALL 0x48A6, 0
0x112A: EC97 F024  CALL 0x492E, 0
0x112E: EC94 F011  CALL 0x2328, 0
0x1132: D23B       BRA 0x15AA
0x1134: 0101       MOVLB 0x1
0x1136: 051B       DECF 0x1B, W, BSR
0x1138: E118       BNZ 0x116A
0x113A: C11C F0B7  MOVFF 0x11C, 0x0B7
0x113E: D00E       BRA 0x115C
0x1140: 0E04       MOVLW 0x04
0x1142: 6FC1       DW 0x6FC1
0x1144: 0E01       MOVLW 0x01
0x1146: 6FC2       DW 0x6FC2
0x1148: D7F0       BRA 0x112A
0x114A: C11D F0B8  MOVFF 0x11D, 0x0B8
0x114E: 0E04       MOVLW 0x04
0x1150: 6FC1       DW 0x6FC1
0x1152: 0E01       MOVLW 0x01
0x1154: 6FC2       DW 0x6FC2
0x1156: 817F       BSF 0x7F, 0, BSR
0x1158: 8994       BSF 0x94, 4, BSR
0x115A: D7E7       BRA 0x112A
0x115C: 0100       MOVLB 0x0
0x115E: 51B7       DW 0x51B7
0x1160: 0A01       XORLW 0x01
0x1162: E0EE       BZ 0x1140
0x1164: 0A03       XORLW 0x03
0x1166: E0F1       BZ 0x114A
0x1168: D220       BRA 0x15AA
0x116A: 511B       DW 0x511B
0x116C: 0A02       XORLW 0x02
0x116E: E001       BZ 0x1172
0x1170: D21C       BRA 0x15AA
0x1172: C11E F0B5  MOVFF 0x11E, 0x0B5
0x1176: 0E04       MOVLW 0x04
0x1178: 0100       MOVLB 0x0
0x117A: 6FC1       DW 0x6FC1
0x117C: 0E02       MOVLW 0x02
0x117E: 6FC2       DW 0x6FC2
0x1180: 51B5       DW 0x51B5
0x1182: 0A06       XORLW 0x06
0x1184: E11D       BNZ 0x11C0
0x1186: 0E05       MOVLW 0x05
0x1188: 6E58       DW 0x6E58
0x118A: DA12       RCALL 0x15B0
0x118C: 50DF       DW 0x50DF
0x118E: E00A       BZ 0x11A4
0x1190: DA0F       RCALL 0x15B0
0x1192: 0EFB       MOVLW 0xFB
0x1194: 2458       DW 0x2458
0x1196: 6EE1       DW 0x6EE1
0x1198: 6AE2       MOVWF 0xE2, ACCESS
0x119A: 0E00       MOVLW 0x00
0x119C: 22E2       DW 0x22E2
0x119E: CFDF       DW 0xCFDF
0x11A0: FFE7       DW 0xFFE7
0x11A2: D007       BRA 0x11B2
0x11A4: 0EFB       MOVLW 0xFB
0x11A6: 2458       DW 0x2458
0x11A8: 6ED9       DW 0x6ED9
0x11AA: 6ADA       MOVWF 0xDA, ACCESS
0x11AC: 0E00       MOVLW 0x00
0x11AE: 22DA       DW 0x22DA
0x11B0: 68DF       CLRF 0xDF, ACCESS
0x11B2: 2A58       INCF 0x58, F, ACCESS
0x11B4: 0E13       MOVLW 0x13
0x11B6: 6458       DW 0x6458
0x11B8: D7E8       BRA 0x118A
0x11BA: 0100       MOVLB 0x0
0x11BC: 89BD       BSF 0xBD, 4, BSR
0x11BE: D7B3       BRA 0x1126
0x11C0: 51B5       DW 0x51B5
0x11C2: 0A05       XORLW 0x05
0x11C4: E0B2       BZ 0x112A
0x11C6: 51B5       DW 0x51B5
0x11C8: 0A07       XORLW 0x07
0x11CA: E0AF       BZ 0x112A
0x11CC: D1EE       BRA 0x15AA
0x11CE: C11B F099  MOVFF 0x11B, 0x099
0x11D2: C11F F071  MOVFF 0x11F, 0x071
0x11D6: C120 F070  MOVFF 0x120, 0x070
0x11DA: C121 F06F  MOVFF 0x121, 0x06F
0x11DE: C122 F06E  MOVFF 0x122, 0x06E
0x11E2: 0101       MOVLB 0x1
0x11E4: B123       BTFSC 0x23, 0, BSR
0x11E6: D002       BRA 0x11EC
0x11E8: 985E       BCF 0x5E, 4, ACCESS
0x11EA: D001       BRA 0x11EE
0x11EC: 885E       BSF 0x5E, 4, ACCESS
0x11EE: 0101       MOVLB 0x1
0x11F0: B124       BTFSC 0x24, 0, BSR
0x11F2: D003       BRA 0x11FA
0x11F4: 0100       MOVLB 0x0
0x11F6: 91A4       BCF 0xA4, 0, BSR
0x11F8: D002       BRA 0x11FE
0x11FA: 0100       MOVLB 0x0
0x11FC: 81A4       BSF 0xA4, 0, BSR
0x11FE: 0101       MOVLB 0x1
0x1200: B125       BTFSC 0x25, 0, BSR
0x1202: D003       BRA 0x120A
0x1204: 0100       MOVLB 0x0
0x1206: 93A4       BCF 0xA4, 1, BSR
0x1208: D002       BRA 0x120E
0x120A: 0100       MOVLB 0x0
0x120C: 83A4       BSF 0xA4, 1, BSR
0x120E: 0101       MOVLB 0x1
0x1210: B126       BTFSC 0x26, 0, BSR
0x1212: D003       BRA 0x121A
0x1214: 0100       MOVLB 0x0
0x1216: 95A4       BCF 0xA4, 2, BSR
0x1218: D002       BRA 0x121E
0x121A: 0100       MOVLB 0x0
0x121C: 85A4       BSF 0xA4, 2, BSR
0x121E: 0101       MOVLB 0x1
0x1220: B128       BTFSC 0x28, 0, BSR
0x1222: D003       BRA 0x122A
0x1224: 0100       MOVLB 0x0
0x1226: 97A4       BCF 0xA4, 3, BSR
0x1228: D002       BRA 0x122E
0x122A: 0100       MOVLB 0x0
0x122C: 87A4       BSF 0xA4, 3, BSR
0x122E: 0101       MOVLB 0x1
0x1230: B129       BTFSC 0x29, 0, BSR
0x1232: D003       BRA 0x123A
0x1234: 0100       MOVLB 0x0
0x1236: 99A4       BCF 0xA4, 4, BSR
0x1238: D002       BRA 0x123E
0x123A: 0100       MOVLB 0x0
0x123C: 89A4       BSF 0xA4, 4, BSR
0x123E: 0101       MOVLB 0x1
0x1240: B12A       BTFSC 0x2A, 0, BSR
0x1242: D003       BRA 0x124A
0x1244: 0100       MOVLB 0x0
0x1246: 9BA4       BCF 0xA4, 5, BSR
0x1248: D002       BRA 0x124E
0x124A: 0100       MOVLB 0x0
0x124C: 8BA4       BSF 0xA4, 5, BSR
0x124E: C12C F060  MOVFF 0x12C, 0x060
0x1252: C12D F061  MOVFF 0x12D, 0x061
0x1256: C12E F062  MOVFF 0x12E, 0x062
0x125A: C12F F063  MOVFF 0x12F, 0x063
0x125E: C130 F064  MOVFF 0x130, 0x064
0x1262: C131 F065  MOVFF 0x131, 0x065
0x1266: C132 F05F  MOVFF 0x132, 0x05F
0x126A: C133 F09B  MOVFF 0x133, 0x09B
0x126E: C134 F09C  MOVFF 0x134, 0x09C
0x1272: C135 F09D  MOVFF 0x135, 0x09D
0x1276: C136 F09E  MOVFF 0x136, 0x09E
0x127A: C138 F0B4  MOVFF 0x138, 0x0B4
0x127E: 51B3       DW 0x51B3
0x1280: 1999       XORWF 0x99, W, BSR
0x1282: A4D8       BTFSS 0xD8, 2, ACCESS
0x1284: 8194       BSF 0x94, 0, BSR
0x1286: 5169       DW 0x5169
0x1288: 1971       XORWF 0x71, W, BSR
0x128A: E108       BNZ 0x129C
0x128C: 5168       DW 0x5168
0x128E: 1970       XORWF 0x70, W, BSR
0x1290: E105       BNZ 0x129C
0x1292: 5167       DW 0x5167
0x1294: 196F       XORWF 0x6F, W, BSR
0x1296: E102       BNZ 0x129C
0x1298: 5166       DW 0x5166
0x129A: 196E       XORWF 0x6E, W, BSR
0x129C: E002       BZ 0x12A2
0x129E: 877E       BSF 0x7E, 3, BSR
0x12A0: 8394       BSF 0x94, 1, BSR
0x12A2: 51AC       DW 0x51AC
0x12A4: 199B       XORWF 0x9B, W, BSR
0x12A6: E002       BZ 0x12AC
0x12A8: 877E       BSF 0x7E, 3, BSR
0x12AA: 87BD       BSF 0xBD, 3, BSR
0x12AC: 51AD       DW 0x51AD
0x12AE: 199C       XORWF 0x9C, W, BSR
0x12B0: E002       BZ 0x12B6
0x12B2: 877E       BSF 0x7E, 3, BSR
0x12B4: 87BD       BSF 0xBD, 3, BSR
0x12B6: 51AE       DW 0x51AE
0x12B8: 199D       XORWF 0x9D, W, BSR
0x12BA: E002       BZ 0x12C0
0x12BC: 877E       BSF 0x7E, 3, BSR
0x12BE: 87BD       BSF 0xBD, 3, BSR
0x12C0: 51AF       DW 0x51AF
0x12C2: 199E       XORWF 0x9E, W, BSR
0x12C4: E002       BZ 0x12CA
0x12C6: 877E       BSF 0x7E, 3, BSR
0x12C8: 87BD       BSF 0xBD, 3, BSR
0x12CA: 0E01       MOVLW 0x01
0x12CC: A85E       BTFSS 0x5E, 4, ACCESS
0x12CE: 0E00       MOVLW 0x00
0x12D0: 6E4C       DW 0x6E4C
0x12D2: 0E01       MOVLW 0x01
0x12D4: AA5E       BTFSS 0x5E, 5, ACCESS
0x12D6: 0E00       MOVLW 0x00
0x12D8: 1A4C       XORWF 0x4C, F, ACCESS
0x12DA: E002       BZ 0x12E0
0x12DC: 8B7E       BSF 0x7E, 5, BSR
0x12DE: 8794       BSF 0x94, 3, BSR
0x12E0: 51B0       DW 0x51B0
0x12E2: 19A4       XORWF 0xA4, W, BSR
0x12E4: A4D8       BTFSS 0xD8, 2, ACCESS
0x12E6: 8D7E       BSF 0x7E, 6, BSR
0x12E8: 51B4       DW 0x51B4
0x12EA: 19B1       XORWF 0xB1, W, BSR
0x12EC: A4D8       BTFSS 0xD8, 2, ACCESS
0x12EE: 837F       BSF 0x7F, 1, BSR
0x12F0: 5160       DW 0x5160
0x12F2: 63A5       NEGF 0xA5, BSR
0x12F4: D017       BRA 0x1324
0x12F6: 51A6       DW 0x51A6
0x12F8: EE20       DW 0xEE20
0x12FA: F061       DW 0xF061
0x12FC: 62DF       NEGF 0xDF, ACCESS
0x12FE: D012       BRA 0x1324
0x1300: 51A7       DW 0x51A7
0x1302: EE20       DW 0xEE20
0x1304: F062       DW 0xF062
0x1306: 62DF       NEGF 0xDF, ACCESS
0x1308: D00D       BRA 0x1324
0x130A: 51A8       DW 0x51A8
0x130C: EE20       DW 0xEE20
0x130E: F063       DW 0xF063
0x1310: 62DF       NEGF 0xDF, ACCESS
0x1312: D008       BRA 0x1324
0x1314: 51A9       DW 0x51A9
0x1316: EE20       DW 0xEE20
0x1318: F064       DW 0xF064
0x131A: 62DF       NEGF 0xDF, ACCESS
0x131C: D003       BRA 0x1324
0x131E: 5165       DW 0x5165
0x1320: 19AA       XORWF 0xAA, W, BSR
0x1322: A4D8       BTFSS 0xD8, 2, ACCESS
0x1324: 897E       BSF 0x7E, 4, BSR
0x1326: C099 F0B3  MOVFF 0x099, 0x0B3
0x132A: C06E F066  MOVFF 0x06E, 0x066
0x132E: C06F F067  MOVFF 0x06F, 0x067
0x1332: C070 F068  MOVFF 0x070, 0x068
0x1336: C071 F069  MOVFF 0x071, 0x069
0x133A: A85E       BTFSS 0x5E, 4, ACCESS
0x133C: D002       BRA 0x1342
0x133E: 8A5E       BSF 0x5E, 5, ACCESS
0x1340: D001       BRA 0x1344
0x1342: 9A5E       BCF 0x5E, 5, ACCESS
0x1344: C0A4 F0B0  MOVFF 0x0A4, 0x0B0
0x1348: C060 F0A5  MOVFF 0x060, 0x0A5
0x134C: C061 F0A6  MOVFF 0x061, 0x0A6
0x1350: C062 F0A7  MOVFF 0x062, 0x0A7
0x1354: C063 F0A8  MOVFF 0x063, 0x0A8
0x1358: C064 F0A9  MOVFF 0x064, 0x0A9
0x135C: C065 F0AA  MOVFF 0x065, 0x0AA
0x1360: C0B4 F0B1  MOVFF 0x0B4, 0x0B1
0x1364: C09B F0AC  MOVFF 0x09B, 0x0AC
0x1368: C09C F0AD  MOVFF 0x09C, 0x0AD
0x136C: C09D F0AE  MOVFF 0x09D, 0x0AE
0x1370: C09E F0AF  MOVFF 0x09E, 0x0AF
0x1374: 0E05       MOVLW 0x05
0x1376: D006       BRA 0x1384
0x1378: 0101       MOVLB 0x1
0x137A: 051B       DECF 0x1B, W, BSR
0x137C: E106       BNZ 0x138A
0x137E: ECA1 F024  CALL 0x4942, 0
0x1382: 0E06       MOVLW 0x06
0x1384: 0100       MOVLB 0x0
0x1386: 6FC1       DW 0x6FC1
0x1388: D6D2       BRA 0x112E
0x138A: 511B       DW 0x511B
0x138C: 0A02       XORLW 0x02
0x138E: E001       BZ 0x1392
0x1390: D10C       BRA 0x15AA
0x1392: ECA1 F024  CALL 0x4942, 0
0x1396: D7EE       BRA 0x1374
0x1398: 0101       MOVLB 0x1
0x139A: 511B       DW 0x511B
0x139C: 0A0F       XORLW 0x0F
0x139E: B4D8       BTFSC 0xD8, 2, ACCESS
0x13A0: 8E5E       BSF 0x5E, 7, ACCESS
0x13A2: 5057       DW 0x5057
0x13A4: 0A07       XORLW 0x07
0x13A6: E109       BNZ 0x13BA
0x13A8: 0101       MOVLB 0x1
0x13AA: 671B       DW 0x671B
0x13AC: D006       BRA 0x13BA
0x13AE: 0100       MOVLB 0x0
0x13B0: 6BC5       MOVWF 0xC5, BSR
0x13B2: 0E56       MOVLW 0x56
0x13B4: 6F83       DW 0x6F83
0x13B6: 0E00       MOVLW 0x00
0x13B8: 6B82       MOVWF 0x82, BSR
0x13BA: 98AB       BCF 0xAB, 4, ACCESS
0x13BC: 805E       BSF 0x5E, 0, ACCESS
0x13BE: 0100       MOVLB 0x0
0x13C0: 6B98       MOVWF 0x98, BSR
0x13C2: 6BC7       MOVWF 0xC7, BSR
0x13C4: 6BC6       MOVWF 0xC6, BSR
0x13C6: ECDC F015  CALL 0x2BB8, 0
0x13CA: C057 F0C1  MOVFF 0x057, 0x0C1
0x13CE: D6AF       BRA 0x112E
0x13D0: 0EA0       MOVLW 0xA0
0x13D2: 0100       MOVLB 0x0
0x13D4: 6F6E       DW 0x6F6E
0x13D6: 696F       CLRF 0x6F, BSR
0x13D8: 6970       CLRF 0x70, BSR
0x13DA: 6971       CLRF 0x71, BSR
0x13DC: 0E01       MOVLW 0x01
0x13DE: 6F99       DW 0x6F99
0x13E0: 0E03       MOVLW 0x03
0x13E2: 6E5F       DW 0x6E5F
0x13E4: 6B60       MOVWF 0x60, BSR
0x13E6: 6B61       MOVWF 0x61, BSR
0x13E8: 6B62       MOVWF 0x62, BSR
0x13EA: 0E01       MOVLW 0x01
0x13EC: 6F63       DW 0x6F63
0x13EE: 6F64       DW 0x6F64
0x13F0: 6F65       DW 0x6F65
0x13F2: 6FB4       DW 0x6FB4
0x13F4: 0E04       MOVLW 0x04
0x13F6: 6FB8       DW 0x6FB8
0x13F8: 6B9B       MOVWF 0x9B, BSR
0x13FA: 6B9C       MOVWF 0x9C, BSR
0x13FC: 6B9D       MOVWF 0x9D, BSR
0x13FE: 6B9E       MOVWF 0x9E, BSR
0x1400: 6A58       MOVWF 0x58, ACCESS
0x1402: 0EC0       MOVLW 0xC0
0x1404: 2458       DW 0x2458
0x1406: 6ED9       DW 0x6ED9
0x1408: 6ADA       MOVWF 0xDA, ACCESS
0x140A: 0E02       MOVLW 0x02
0x140C: 22DA       DW 0x22DA
0x140E: 68DF       CLRF 0xDF, ACCESS
0x1410: 2A58       INCF 0x58, F, ACCESS
0x1412: 0E1D       MOVLW 0x1D
0x1414: 6458       DW 0x6458
0x1416: D7F5       BRA 0x1402
0x1418: 6A58       MOVWF 0x58, ACCESS
0x141A: 0E00       MOVLW 0x00
0x141C: 2458       DW 0x2458
0x141E: 6ED9       DW 0x6ED9
0x1420: 6ADA       MOVWF 0xDA, ACCESS
0x1422: 0E01       MOVLW 0x01
0x1424: 22DA       DW 0x22DA
0x1426: 68DF       CLRF 0xDF, ACCESS
0x1428: 2A58       INCF 0x58, F, ACCESS
0x142A: 0E0E       MOVLW 0x0E
0x142C: 6458       DW 0x6458
0x142E: D7F5       BRA 0x141A
0x1430: 0100       MOVLB 0x0
0x1432: 81BD       BSF 0xBD, 0, BSR
0x1434: 8BBD       BSF 0xBD, 5, BSR
0x1436: 89BD       BSF 0xBD, 4, BSR
0x1438: 83BD       BSF 0xBD, 1, BSR
0x143A: 85BD       BSF 0xBD, 2, BSR
0x143C: 87BD       BSF 0xBD, 3, BSR
0x143E: 817E       BSF 0x7E, 0, BSR
0x1440: EC2E F013  CALL 0x265C, 0
0x1444: 6A08       MOVWF 0x08, ACCESS
0x1446: 6807       CLRF 0x07, ACCESS
0x1448: 0E00       MOVLW 0x00
0x144A: 6A09       MOVWF 0x09, ACCESS
0x144C: EC6F F023  CALL 0x46DE, 0
0x1450: EC6A F024  CALL 0x48D4, 0
0x1454: D0AA       BRA 0x15AA
0x1456: 0100       MOVLB 0x0
0x1458: 67CB       DW 0x67CB
0x145A: D050       BRA 0x14FC
0x145C: 6B7C       MOVWF 0x7C, BSR
0x145E: 6B7D       MOVWF 0x7D, BSR
0x1460: 6B80       MOVWF 0x80, BSR
0x1462: 6B81       MOVWF 0x81, BSR
0x1464: 6B86       MOVWF 0x86, BSR
0x1466: 6B87       MOVWF 0x87, BSR
0x1468: 6B84       MOVWF 0x84, BSR
0x146A: 6B85       MOVWF 0x85, BSR
0x146C: 0101       MOVLB 0x1
0x146E: 0E01       MOVLW 0x01
0x1470: 6E04       DW 0x6E04
0x1472: 0EC7       MOVLW 0xC7
0x1474: 6E03       DW 0x6E03
0x1476: 0E0A       MOVLW 0x0A
0x1478: 6E05       DW 0x6E05
0x147A: EC9F F023  CALL 0x473E, 0
0x147E: 0101       MOVLB 0x1
0x1480: 0E01       MOVLW 0x01
0x1482: 6E04       DW 0x6E04
0x1484: 0E9A       MOVLW 0x9A
0x1486: 6E03       DW 0x6E03
0x1488: 0E2D       MOVLW 0x2D
0x148A: 6E05       DW 0x6E05
0x148C: EC9F F023  CALL 0x473E, 0
0x1490: 0101       MOVLB 0x1
0x1492: 0E01       MOVLW 0x01
0x1494: 6E04       DW 0x6E04
0x1496: 0ED1       MOVLW 0xD1
0x1498: 6E03       DW 0x6E03
0x149A: 0E08       MOVLW 0x08
0x149C: 6E05       DW 0x6E05
0x149E: EC9F F023  CALL 0x473E, 0
0x14A2: EC27 F024  CALL 0x484E, 0
0x14A6: 0E05       MOVLW 0x05
0x14A8: 6E06       DW 0x6E06
0x14AA: 0EDC       MOVLW 0xDC
0x14AC: 6E05       DW 0x6E05
0x14AE: 0101       MOVLB 0x1
0x14B0: 0E01       MOVLW 0x01
0x14B2: 6E08       DW 0x6E08
0x14B4: 0ED1       MOVLW 0xD1
0x14B6: 6E07       DW 0x6E07
0x14B8: 0E08       MOVLW 0x08
0x14BA: 6E09       DW 0x6E09
0x14BC: EC52 F01D  CALL 0x3AA4, 0
0x14C0: 6E4C       DW 0x6E4C
0x14C2: 0E05       MOVLW 0x05
0x14C4: 5C4C       DW 0x5C4C
0x14C6: E319       BNC 0x14FA
0x14C8: 0E01       MOVLW 0x01
0x14CA: 6FCB       DW 0x6FCB
0x14CC: 6A58       MOVWF 0x58, ACCESS
0x14CE: 5058       DW 0x5058
0x14D0: 0F4D       ADDLW 0x4D
0x14D2: 6ED9       DW 0x6ED9
0x14D4: 6ADA       MOVWF 0xDA, ACCESS
0x14D6: 50DF       DW 0x50DF
0x14D8: 6E4C       DW 0x6E4C
0x14DA: 0ED1       MOVLW 0xD1
0x14DC: 2458       DW 0x2458
0x14DE: 6ED9       DW 0x6ED9
0x14E0: 6ADA       MOVWF 0xDA, ACCESS
0x14E2: 0E01       MOVLW 0x01
0x14E4: 22DA       DW 0x22DA
0x14E6: 50DF       DW 0x50DF
0x14E8: 184C       XORWF 0x4C, W, ACCESS
0x14EA: E002       BZ 0x14F0
0x14EC: 0100       MOVLB 0x0
0x14EE: 6BCB       MOVWF 0xCB, BSR
0x14F0: 2A58       INCF 0x58, F, ACCESS
0x14F2: 0E05       MOVLW 0x05
0x14F4: 6458       DW 0x6458
0x14F6: D7EB       BRA 0x14CE
0x14F8: D001       BRA 0x14FC
0x14FA: 6BCB       MOVWF 0xCB, BSR
0x14FC: 0100       MOVLB 0x0
0x14FE: 51CB       DW 0x51CB
0x1500: E101       BNZ 0x1504
0x1502: D763       BRA 0x13CA
0x1504: ECE7 F00A  CALL 0x15CE, 0
0x1508: D760       BRA 0x13CA
0x150A: C11E F056  MOVFF 0x11E, 0x056
0x150E: C11F F055  MOVFF 0x11F, 0x055
0x1512: C057 F0C1  MOVFF 0x057, 0x0C1
0x1516: EC94 F011  CALL 0x2328, 0
0x151A: 517D       DW 0x517D
0x151C: 1856       XORWF 0x56, W, ACCESS
0x151E: E102       BNZ 0x1524
0x1520: 517C       DW 0x517C
0x1522: 1855       XORWF 0x55, W, ACCESS
0x1524: E106       BNZ 0x1532
0x1526: EC39 F023  CALL 0x4672, 0
0x152A: 0EAA       MOVLW 0xAA
0x152C: 0101       MOVLB 0x1
0x152E: 6F5C       DW 0x6F5C
0x1530: D03C       BRA 0x15AA
0x1532: 0E11       MOVLW 0x11
0x1534: 0101       MOVLB 0x1
0x1536: 6F5B       DW 0x6F5B
0x1538: 0100       MOVLB 0x0
0x153A: 6B84       MOVWF 0x84, BSR
0x153C: 6B85       MOVWF 0x85, BSR
0x153E: 6B80       MOVWF 0x80, BSR
0x1540: 6B81       MOVWF 0x81, BSR
0x1542: 6B86       MOVWF 0x86, BSR
0x1544: 6B87       MOVWF 0x87, BSR
0x1546: 6B7C       MOVWF 0x7C, BSR
0x1548: 6B7D       MOVWF 0x7D, BSR
0x154A: D02F       BRA 0x15AA
0x154C: 0101       MOVLB 0x1
0x154E: 6B1A       MOVWF 0x1A, BSR
0x1550: D02C       BRA 0x15AA
0x1552: 5057       DW 0x5057
0x1554: 0A01       XORLW 0x01
0x1556: E029       BZ 0x15AA
0x1558: 0A03       XORLW 0x03
0x155A: E027       BZ 0x15AA
0x155C: 0A01       XORLW 0x01
0x155E: E101       BNZ 0x1562
0x1560: D5B7       BRA 0x10D0
0x1562: 0A07       XORLW 0x07
0x1564: E101       BNZ 0x1568
0x1566: D5E6       BRA 0x1134
0x1568: 0A01       XORLW 0x01
0x156A: E101       BNZ 0x156E
0x156C: D630       BRA 0x11CE
0x156E: 0A03       XORLW 0x03
0x1570: E101       BNZ 0x1574
0x1572: D702       BRA 0x1378
0x1574: 0A01       XORLW 0x01
0x1576: E101       BNZ 0x157A
0x1578: D714       BRA 0x13A2
0x157A: 0A0F       XORLW 0x0F
0x157C: E101       BNZ 0x1580
0x157E: D711       BRA 0x13A2
0x1580: 0A01       XORLW 0x01
0x1582: E101       BNZ 0x1586
0x1584: D70E       BRA 0x13A2
0x1586: 0A03       XORLW 0x03
0x1588: E101       BNZ 0x158C
0x158A: D70B       BRA 0x13A2
0x158C: 0A01       XORLW 0x01
0x158E: E101       BNZ 0x1592
0x1590: D708       BRA 0x13A2
0x1592: 0A07       XORLW 0x07
0x1594: E101       BNZ 0x1598
0x1596: D700       BRA 0x1398
0x1598: 0A4C       XORLW 0x4C
0x159A: E101       BNZ 0x159E
0x159C: D719       BRA 0x13D0
0x159E: 0A01       XORLW 0x01
0x15A0: E0B4       BZ 0x150A
0x15A2: 0A03       XORLW 0x03
0x15A4: E101       BNZ 0x15A8
0x15A6: D757       BRA 0x1456
0x15A8: D7D1       BRA 0x154C
0x15AA: 0101       MOVLB 0x1
0x15AC: 6B1A       MOVWF 0x1A, BSR
0x15AE: 0012       RETURN 0
0x15B0: 0E1A       MOVLW 0x1A
0x15B2: 2458       DW 0x2458
0x15B4: 6ED9       DW 0x6ED9
0x15B6: 6ADA       MOVWF 0xDA, ACCESS
0x15B8: 0E01       MOVLW 0x01
0x15BA: 22DA       DW 0x22DA
0x15BC: 0012       RETURN 0
0x15BE: 0EBE       MOVLW 0xBE
0x15C0: 2458       DW 0x2458
0x15C2: 6ED9       DW 0x6ED9
0x15C4: 6ADA       MOVWF 0xDA, ACCESS
0x15C6: 0E02       MOVLW 0x02
0x15C8: 22DA       DW 0x22DA
0x15CA: 68DF       CLRF 0xDF, ACCESS
0x15CC: 0012       RETURN 0
0x15CE: EE21       DW 0xEE21
0x15D0: F0E5       DW 0xF0E5
0x15D2: EE10       DW 0xEE10
0x15D4: F01D       DW 0xF01D
0x15D6: 0E08       MOVLW 0x08
0x15D8: CFDE       DW 0xCFDE
0x15DA: FFE6       DW 0xFFE6
0x15DC: 2EE8       DECFSZ 0xE8, F, ACCESS
0x15DE: D7FC       BRA 0x15D8
0x15E0: 0E02       MOVLW 0x02
0x15E2: 6E49       DW 0x6E49
0x15E4: 0E1A       MOVLW 0x1A
0x15E6: 2449       DW 0x2449
0x15E8: 6ED9       DW 0x6ED9
0x15EA: 6ADA       MOVWF 0xDA, ACCESS
0x15EC: 0E01       MOVLW 0x01
0x15EE: 22DA       DW 0x22DA
0x15F0: 50DF       DW 0x50DF
0x15F2: 6E4A       DW 0x6E4A
0x15F4: 0EC0       MOVLW 0xC0
0x15F6: 0100       MOVLB 0x0
0x15F8: 5D84       DW 0x5D84
0x15FA: 0E77       MOVLW 0x77
0x15FC: 5985       DW 0x5985
0x15FE: E21A       BC 0x1634
0x1600: C04A F045  MOVFF 0x04A, 0x045
0x1604: 6A48       MOVWF 0x48, ACCESS
0x1606: AB7D       BTFSS 0x7D, 5, BSR
0x1608: D003       BRA 0x1610
0x160A: 0E01       MOVLW 0x01
0x160C: 6E44       DW 0x6E44
0x160E: D001       BRA 0x1612
0x1610: 6A44       MOVWF 0x44, ACCESS
0x1612: 90D8       BCF 0xD8, 0, ACCESS
0x1614: 377C       DW 0x377C
0x1616: 377D       DW 0x377D
0x1618: B045       BTFSC 0x45, 0, ACCESS
0x161A: 817C       BSF 0x7C, 0, BSR
0x161C: 90D8       BCF 0xD8, 0, ACCESS
0x161E: 3245       DW 0x3245
0x1620: 5044       DW 0x5044
0x1622: E004       BZ 0x162C
0x1624: 0E02       MOVLW 0x02
0x1626: 1B7C       XORWF 0x7C, F, BSR
0x1628: 0E44       MOVLW 0x44
0x162A: 1B7D       XORWF 0x7D, F, BSR
0x162C: 2A48       INCF 0x48, F, ACCESS
0x162E: 0E07       MOVLW 0x07
0x1630: 6448       DW 0x6448
0x1632: D7E9       BRA 0x1606
0x1634: 0E40       MOVLW 0x40
0x1636: 5D84       DW 0x5D84
0x1638: 0E00       MOVLW 0x00
0x163A: 5985       DW 0x5985
0x163C: E201       BC 0x1640
0x163E: D148       BRA 0x18D0
0x1640: 0EC0       MOVLW 0xC0
0x1642: 5D84       DW 0x5D84
0x1644: 0E77       MOVLW 0x77
0x1646: 5985       DW 0x5985
0x1648: E301       BNC 0x164C
0x164A: D142       BRA 0x18D0
0x164C: 0E0F       MOVLW 0x0F
0x164E: 1584       ANDWF 0x84, W, BSR
0x1650: 6F8A       DW 0x6F8A
0x1652: 6B8B       MOVWF 0x8B, BSR
0x1654: 118B       IORWF 0x8B, W, BSR
0x1656: E001       BZ 0x165A
0x1658: D0EA       BRA 0x182E
0x165A: 5187       DW 0x5187
0x165C: 1186       IORWF 0x86, W, BSR
0x165E: E101       BNZ 0x1662
0x1660: D09D       BRA 0x179C
0x1662: 5186       DW 0x5186
0x1664: 2780       DW 0x2780
0x1666: 0E00       MOVLW 0x00
0x1668: 2381       DW 0x2381
0x166A: 5187       DW 0x5187
0x166C: 2780       DW 0x2780
0x166E: 0E00       MOVLW 0x00
0x1670: 2381       DW 0x2381
0x1672: 1D80       DW 0x1D80
0x1674: 6E1B       DW 0x6E1B
0x1676: 1D81       DW 0x1D81
0x1678: 6E1C       DW 0x6E1C
0x167A: 0EF1       MOVLW 0xF1
0x167C: 241B       DW 0x241B
0x167E: 6F80       DW 0x6F80
0x1680: 0EFF       MOVLW 0xFF
0x1682: 201C       DW 0x201C
0x1684: 6F81       DW 0x6F81
0x1686: 5180       DW 0x5180
0x1688: ECD1 F021  CALL 0x43A2, 0
0x168C: 0E0D       MOVLW 0x0D
0x168E: EC4B F024  CALL 0x4896, 0
0x1692: 0E0A       MOVLW 0x0A
0x1694: EC4B F024  CALL 0x4896, 0
0x1698: C080 F01B  MOVFF 0x080, 0x01B
0x169C: 3A1B       DW 0x3A1B
0x169E: 0E0F       MOVLW 0x0F
0x16A0: 161B       ANDWF 0x1B, F, ACCESS
0x16A2: 161B       ANDWF 0x1B, F, ACCESS
0x16A4: 501B       DW 0x501B
0x16A6: 0F19       ADDLW 0x19
0x16A8: 6EF6       DW 0x6EF6
0x16AA: 0E10       MOVLW 0x10
0x16AC: 6EF7       DW 0x6EF7
0x16AE: 0E9A       MOVLW 0x9A
0x16B0: 244B       DW 0x244B
0x16B2: 6ED9       DW 0x6ED9
0x16B4: 6ADA       MOVWF 0xDA, ACCESS
0x16B6: 0E01       MOVLW 0x01
0x16B8: 22DA       DW 0x22DA
0x16BA: 0008       TBLRD*
0x16BC: CFF5       DW 0xCFF5
0x16BE: FFDF       DW 0xFFDF
0x16C0: C080 F01B  MOVFF 0x080, 0x01B
0x16C4: 0E0F       MOVLW 0x0F
0x16C6: 161B       ANDWF 0x1B, F, ACCESS
0x16C8: 501B       DW 0x501B
0x16CA: 0F19       ADDLW 0x19
0x16CC: 6EF6       DW 0x6EF6
0x16CE: 0E10       MOVLW 0x10
0x16D0: 6EF7       DW 0x6EF7
0x16D2: 0E9B       MOVLW 0x9B
0x16D4: 244B       DW 0x244B
0x16D6: 6ED9       DW 0x6ED9
0x16D8: 6ADA       MOVWF 0xDA, ACCESS
0x16DA: 0E01       MOVLW 0x01
0x16DC: 22DA       DW 0x22DA
0x16DE: 0008       TBLRD*
0x16E0: CFF5       DW 0xCFF5
0x16E2: FFDF       DW 0xFFDF
0x16E4: 0E9C       MOVLW 0x9C
0x16E6: 244B       DW 0x244B
0x16E8: 6ED9       DW 0x6ED9
0x16EA: 6ADA       MOVWF 0xDA, ACCESS
0x16EC: 0E01       MOVLW 0x01
0x16EE: 22DA       DW 0x22DA
0x16F0: 6ADF       MOVWF 0xDF, ACCESS
0x16F2: 0E02       MOVLW 0x02
0x16F4: 264B       DW 0x264B
0x16F6: 0100       MOVLB 0x0
0x16F8: 6B9F       MOVWF 0x9F, BSR
0x16FA: 6A06       MOVWF 0x06, ACCESS
0x16FC: 0E0A       MOVLW 0x0A
0x16FE: 6E05       DW 0x6E05
0x1700: 0101       MOVLB 0x1
0x1702: 0E01       MOVLW 0x01
0x1704: 6E08       DW 0x6E08
0x1706: 0EC7       MOVLW 0xC7
0x1708: 6E07       DW 0x6E07
0x170A: 0E0A       MOVLW 0x0A
0x170C: 6E09       DW 0x6E09
0x170E: EC52 F01D  CALL 0x3AA4, 0
0x1712: C1C8 F003  MOVFF 0x1C8, 0x003
0x1716: 0101       MOVLB 0x1
0x1718: 51C7       DW 0x51C7
0x171A: ECBC F01F  CALL 0x3F78, 0
0x171E: 0100       MOVLB 0x0
0x1720: 1980       XORWF 0x80, W, BSR
0x1722: E103       BNZ 0x172A
0x1724: 0E01       MOVLW 0x01
0x1726: 6E43       DW 0x6E43
0x1728: D036       BRA 0x1796
0x172A: 6A43       MOVWF 0x43, ACCESS
0x172C: 6A19       MOVWF 0x19, ACCESS
0x172E: 0E1D       MOVLW 0x1D
0x1730: 6E18       DW 0x6E18
0x1732: EC4B F023  CALL 0x4696, 0
0x1736: 0100       MOVLB 0x0
0x1738: C09F F012  MOVFF 0x09F, 0x012
0x173C: 6A13       MOVWF 0x13, ACCESS
0x173E: 6A15       MOVWF 0x15, ACCESS
0x1740: 0E0A       MOVLW 0x0A
0x1742: 6E14       DW 0x6E14
0x1744: 0E25       MOVLW 0x25
0x1746: ECDB F020  CALL 0x41B6, 0
0x174A: 6E1B       DW 0x6E1B
0x174C: 6A19       MOVWF 0x19, ACCESS
0x174E: C01B F018  MOVFF 0x01B, 0x018
0x1752: EC4B F023  CALL 0x4696, 0
0x1756: 0E21       MOVLW 0x21
0x1758: EC4B F024  CALL 0x4896, 0
0x175C: EC30 F024  CALL 0x4860, 0
0x1760: 0E0D       MOVLW 0x0D
0x1762: EC4B F024  CALL 0x4896, 0
0x1766: 0E0A       MOVLW 0x0A
0x1768: EC4B F024  CALL 0x4896, 0
0x176C: 0E19       MOVLW 0x19
0x176E: 0100       MOVLB 0x0
0x1770: 5D9F       DW 0x5D9F
0x1772: E20F       BC 0x1792
0x1774: 2B9F       INCF 0x9F, F, BSR
0x1776: 0101       MOVLB 0x1
0x1778: 0E01       MOVLW 0x01
0x177A: 6E19       DW 0x6E19
0x177C: 0E9A       MOVLW 0x9A
0x177E: 6E18       DW 0x6E18
0x1780: EC4B F023  CALL 0x4696, 0
0x1784: 0E0D       MOVLW 0x0D
0x1786: EC4B F024  CALL 0x4896, 0
0x178A: 0E0A       MOVLW 0x0A
0x178C: EC4B F024  CALL 0x4896, 0
0x1790: D002       BRA 0x1796
0x1792: 2B9F       INCF 0x9F, F, BSR
0x1794: D0A3       BRA 0x18DC
0x1796: 5043       DW 0x5043
0x1798: E102       BNZ 0x179E
0x179A: D7AF       BRA 0x16FA
0x179C: 6B8E       MOVWF 0x8E, BSR
0x179E: 0EBF       MOVLW 0xBF
0x17A0: 0100       MOVLB 0x0
0x17A2: 5D84       DW 0x5D84
0x17A4: 0E77       MOVLW 0x77
0x17A6: 5985       DW 0x5985
0x17A8: E242       BC 0x182E
0x17AA: 0E04       MOVLW 0x04
0x17AC: 5D8E       DW 0x5D8E
0x17AE: E206       BC 0x17BC
0x17B0: 2B8E       INCF 0x8E, F, BSR
0x17B2: 6A04       MOVWF 0x04, ACCESS
0x17B4: 0E0A       MOVLW 0x0A
0x17B6: 6E03       DW 0x6E03
0x17B8: EC3F F022  CALL 0x447E, 0
0x17BC: C084 F086  MOVFF 0x084, 0x086
0x17C0: C085 F087  MOVFF 0x085, 0x087
0x17C4: 0E3A       MOVLW 0x3A
0x17C6: 0101       MOVLB 0x1
0x17C8: 6F9A       DW 0x6F9A
0x17CA: 0E31       MOVLW 0x31
0x17CC: 6F9B       DW 0x6F9B
0x17CE: 0E30       MOVLW 0x30
0x17D0: 6F9C       DW 0x6F9C
0x17D2: C087 F01B  MOVFF 0x087, 0x01B
0x17D6: 3A1B       DW 0x3A1B
0x17D8: 0E0F       MOVLW 0x0F
0x17DA: 161B       ANDWF 0x1B, F, ACCESS
0x17DC: D880       RCALL 0x18DE
0x17DE: CFF5       DW 0xCFF5
0x17E0: F19D       DW 0xF19D
0x17E2: C087 F01B  MOVFF 0x087, 0x01B
0x17E6: 0E0F       MOVLW 0x0F
0x17E8: D87A       RCALL 0x18DE
0x17EA: CFF5       DW 0xCFF5
0x17EC: F19E       DW 0xF19E
0x17EE: C086 F01B  MOVFF 0x086, 0x01B
0x17F2: 3A1B       DW 0x3A1B
0x17F4: 0E0F       MOVLW 0x0F
0x17F6: 161B       ANDWF 0x1B, F, ACCESS
0x17F8: D872       RCALL 0x18DE
0x17FA: CFF5       DW 0xCFF5
0x17FC: F19F       DW 0xF19F
0x17FE: C086 F01B  MOVFF 0x086, 0x01B
0x1802: 0E0F       MOVLW 0x0F
0x1804: D86C       RCALL 0x18DE
0x1806: CFF5       DW 0xCFF5
0x1808: F1A0       DW 0xF1A0
0x180A: 0E30       MOVLW 0x30
0x180C: 6FA1       DW 0x6FA1
0x180E: 6FA2       DW 0x6FA2
0x1810: 6BA3       MOVWF 0xA3, BSR
0x1812: 0E09       MOVLW 0x09
0x1814: 6E4B       DW 0x6E4B
0x1816: EC30 F024  CALL 0x4860, 0
0x181A: 0101       MOVLB 0x1
0x181C: 0E01       MOVLW 0x01
0x181E: 6E19       DW 0x6E19
0x1820: 0E9A       MOVLW 0x9A
0x1822: 6E18       DW 0x6E18
0x1824: EC4B F023  CALL 0x4696, 0
0x1828: 0100       MOVLB 0x0
0x182A: 6B80       MOVWF 0x80, BSR
0x182C: 6B81       MOVWF 0x81, BSR
0x182E: 0EBF       MOVLW 0xBF
0x1830: 5D84       DW 0x5D84
0x1832: 0E77       MOVLW 0x77
0x1834: 5985       DW 0x5985
0x1836: E24A       BC 0x18CC
0x1838: A184       BTFSS 0x84, 0, BSR
0x183A: D040       BRA 0x18BC
0x183C: C046 F01B  MOVFF 0x046, 0x01B
0x1840: 3A1B       DW 0x3A1B
0x1842: 0E0F       MOVLW 0x0F
0x1844: 161B       ANDWF 0x1B, F, ACCESS
0x1846: D84B       RCALL 0x18DE
0x1848: CFF5 F02F  MOVFF 0xFF5, 0x02F
0x184C: C046 F01B  MOVFF 0x046, 0x01B
0x1850: 0E0F       MOVLW 0x0F
0x1852: D845       RCALL 0x18DE
0x1854: CFF5 F030  MOVFF 0xFF5, 0x030
0x1858: C04A F01B  MOVFF 0x04A, 0x01B
0x185C: 3A1B       DW 0x3A1B
0x185E: 0E0F       MOVLW 0x0F
0x1860: 161B       ANDWF 0x1B, F, ACCESS
0x1862: D83D       RCALL 0x18DE
0x1864: CFF5 F031  MOVFF 0xFF5, 0x031
0x1868: C04A F01B  MOVFF 0x04A, 0x01B
0x186C: 0E0F       MOVLW 0x0F
0x186E: D837       RCALL 0x18DE
0x1870: CFF5 F032  MOVFF 0xFF5, 0x032
0x1874: 6A33       MOVWF 0x33, ACCESS
0x1876: 6A19       MOVWF 0x19, ACCESS
0x1878: 0E2F       MOVLW 0x2F
0x187A: 6E18       DW 0x6E18
0x187C: EC4B F023  CALL 0x4696, 0
0x1880: 6A47       MOVWF 0x47, ACCESS
0x1882: D00E       BRA 0x18A0
0x1884: 5047       DW 0x5047
0x1886: 0F2F       ADDLW 0x2F
0x1888: 6ED9       DW 0x6ED9
0x188A: 6ADA       MOVWF 0xDA, ACCESS
0x188C: 0E9A       MOVLW 0x9A
0x188E: 244B       DW 0x244B
0x1890: 6EE1       DW 0x6EE1
0x1892: 6AE2       MOVWF 0xE2, ACCESS
0x1894: 0E01       MOVLW 0x01
0x1896: 22E2       DW 0x22E2
0x1898: CFDF       DW 0xCFDF
0x189A: FFE7       DW 0xFFE7
0x189C: 2A47       INCF 0x47, F, ACCESS
0x189E: 2A4B       INCF 0x4B, F, ACCESS
0x18A0: 5047       DW 0x5047
0x18A2: 0F2F       ADDLW 0x2F
0x18A4: 6ED9       DW 0x6ED9
0x18A6: 6ADA       MOVWF 0xDA, ACCESS
0x18A8: 50DF       DW 0x50DF
0x18AA: E1EC       BNZ 0x1884
0x18AC: 0E9A       MOVLW 0x9A
0x18AE: 244B       DW 0x244B
0x18B0: 6ED9       DW 0x6ED9
0x18B2: 6ADA       MOVWF 0xDA, ACCESS
0x18B4: 0E01       MOVLW 0x01
0x18B6: 22DA       DW 0x22DA
0x18B8: 6ADF       MOVWF 0xDF, ACCESS
0x18BA: D002       BRA 0x18C0
0x18BC: C04A F046  MOVFF 0x04A, 0x046
0x18C0: 504A       DW 0x504A
0x18C2: 0100       MOVLB 0x0
0x18C4: 2780       DW 0x2780
0x18C6: 0E00       MOVLW 0x00
0x18C8: 2381       DW 0x2381
0x18CA: D002       BRA 0x18D0
0x18CC: 6B80       MOVWF 0x80, BSR
0x18CE: 6B81       MOVWF 0x81, BSR
0x18D0: 4B84       DW 0x4B84
0x18D2: 2B85       INCF 0x85, F, BSR
0x18D4: 2A49       INCF 0x49, F, ACCESS
0x18D6: 0E1F       MOVLW 0x1F
0x18D8: 6449       DW 0x6449
0x18DA: D684       BRA 0x15E4
0x18DC: 0012       RETURN 0
0x18DE: 161B       ANDWF 0x1B, F, ACCESS
0x18E0: 501B       DW 0x501B
0x18E2: 0F19       ADDLW 0x19
0x18E4: 6EF6       DW 0x6EF6
0x18E6: 0E10       MOVLW 0x10
0x18E8: 6EF7       DW 0x6EF7
0x18EA: 0008       TBLRD*
0x18EC: 0012       RETURN 0
0x18EE: CFE8 F0FD  MOVFF 0xFE8, 0x0FD
0x18F2: A65E       BTFSS 0x5E, 3, ACCESS
0x18F4: D177       BRA 0x1BE4
0x18F6: A37E       BTFSS 0x7E, 1, BSR
0x18F8: D057       BRA 0x19A8
0x18FA: 877E       BSF 0x7E, 3, BSR
0x18FC: D039       BRA 0x1970
0x18FE: 0E09       MOVLW 0x09
0x1900: 6E06       DW 0x6E06
0x1902: 0E0D       MOVLW 0x0D
0x1904: EC5D F023  CALL 0x46BA, 0
0x1908: 0E70       MOVLW 0x70
0x190A: 6E06       DW 0x6E06
0x190C: 0E08       MOVLW 0x08
0x190E: EC5D F023  CALL 0x46BA, 0
0x1912: EC71 F024  CALL 0x48E2, 0
0x1916: D03C       BRA 0x1990
0x1918: 0E0A       MOVLW 0x0A
0x191A: 6E06       DW 0x6E06
0x191C: 0E0D       MOVLW 0x0D
0x191E: EC5D F023  CALL 0x46BA, 0
0x1922: 0EB0       MOVLW 0xB0
0x1924: 6E06       DW 0x6E06
0x1926: 0E08       MOVLW 0x08
0x1928: EC5D F023  CALL 0x46BA, 0
0x192C: EC71 F024  CALL 0x48E2, 0
0x1930: D02F       BRA 0x1990
0x1932: 0E08       MOVLW 0x08
0x1934: 6E06       DW 0x6E06
0x1936: 0E0D       MOVLW 0x0D
0x1938: EC5D F023  CALL 0x46BA, 0
0x193C: 0E30       MOVLW 0x30
0x193E: 6E06       DW 0x6E06
0x1940: 0E08       MOVLW 0x08
0x1942: EC5D F023  CALL 0x46BA, 0
0x1946: EC71 F024  CALL 0x48E2, 0
0x194A: D022       BRA 0x1990
0x194C: 0E0B       MOVLW 0x0B
0x194E: 6E06       DW 0x6E06
0x1950: 0E0D       MOVLW 0x0D
0x1952: EC5D F023  CALL 0x46BA, 0
0x1956: 0EF0       MOVLW 0xF0
0x1958: 6E06       DW 0x6E06
0x195A: 0E08       MOVLW 0x08
0x195C: EC5D F023  CALL 0x46BA, 0
0x1960: EC71 F024  CALL 0x48E2, 0
0x1964: D015       BRA 0x1990
0x1966: EC8B F022  CALL 0x4516, 0
0x196A: ECAA F024  CALL 0x4954, 0
0x196E: D010       BRA 0x1990
0x1970: 5193       DW 0x5193
0x1972: E0F9       BZ 0x1966
0x1974: 0A01       XORLW 0x01
0x1976: E0C3       BZ 0x18FE
0x1978: 0A03       XORLW 0x03
0x197A: E0CE       BZ 0x1918
0x197C: 0A01       XORLW 0x01
0x197E: E0D9       BZ 0x1932
0x1980: 0A07       XORLW 0x07
0x1982: E0E4       BZ 0x194C
0x1984: 0A01       XORLW 0x01
0x1986: E0EF       BZ 0x1966
0x1988: 0A03       XORLW 0x03
0x198A: E0ED       BZ 0x1966
0x198C: 0A01       XORLW 0x01
0x198E: E0EB       BZ 0x1966
0x1990: 0E05       MOVLW 0x05
0x1992: 0100       MOVLB 0x0
0x1994: 6FC1       DW 0x6FC1
0x1996: 51FD       DW 0x51FD
0x1998: A4D8       BTFSS 0xD8, 2, ACCESS
0x199A: ECD1 F022  CALL 0x45A2, 0
0x199E: 0100       MOVLB 0x0
0x19A0: 937E       BCF 0x7E, 1, BSR
0x19A2: 81BD       BSF 0xBD, 0, BSR
0x19A4: EC53 F024  CALL 0x48A6, 0
0x19A8: 0100       MOVLB 0x0
0x19AA: A77E       BTFSS 0x7E, 3, BSR
0x19AC: D064       BRA 0x1A76
0x19AE: 985E       BCF 0x5E, 4, ACCESS
0x19B0: 9B7E       BCF 0x7E, 5, BSR
0x19B2: 8D7E       BSF 0x7E, 6, BSR
0x19B4: 6BA4       MOVWF 0xA4, BSR
0x19B6: C0A4 F0B0  MOVFF 0x0A4, 0x0B0
0x19BA: 6B9A       MOVWF 0x9A, BSR
0x19BC: D00C       BRA 0x19D6
0x19BE: C09B F09A  MOVFF 0x09B, 0x09A
0x19C2: D011       BRA 0x19E6
0x19C4: C09C F09A  MOVFF 0x09C, 0x09A
0x19C8: D00E       BRA 0x19E6
0x19CA: C09D F09A  MOVFF 0x09D, 0x09A
0x19CE: D00B       BRA 0x19E6
0x19D0: C09E F09A  MOVFF 0x09E, 0x09A
0x19D4: D008       BRA 0x19E6
0x19D6: 5193       DW 0x5193
0x19D8: E0F2       BZ 0x19BE
0x19DA: 0A05       XORLW 0x05
0x19DC: E0F3       BZ 0x19C4
0x19DE: 0A03       XORLW 0x03
0x19E0: E0F4       BZ 0x19CA
0x19E2: 0A01       XORLW 0x01
0x19E4: E0F5       BZ 0x19D0
0x19E6: 519A       DW 0x519A
0x19E8: 256E       DW 0x256E
0x19EA: 6E0D       DW 0x6E0D
0x19EC: 0E00       MOVLW 0x00
0x19EE: 216F       DW 0x216F
0x19F0: 6E0E       DW 0x6E0E
0x19F2: 0E00       MOVLW 0x00
0x19F4: 2170       DW 0x2170
0x19F6: 6E0F       DW 0x6E0F
0x19F8: 0E00       MOVLW 0x00
0x19FA: 2171       DW 0x2171
0x19FC: 6E10       DW 0x6E10
0x19FE: EC05 F01F  CALL 0x3E0A, 0
0x1A02: C00D F012  MOVFF 0x00D, 0x012
0x1A06: C00E F013  MOVFF 0x00E, 0x013
0x1A0A: C00F F014  MOVFF 0x00F, 0x014
0x1A0E: C010 F015  MOVFF 0x010, 0x015
0x1A12: 0E47       MOVLW 0x47
0x1A14: 6E16       DW 0x6E16
0x1A16: 0EC9       MOVLW 0xC9
0x1A18: 6E17       DW 0x6E17
0x1A1A: 0EEB       MOVLW 0xEB
0x1A1C: 6E18       DW 0x6E18
0x1A1E: 0E3D       MOVLW 0x3D
0x1A20: 6E19       DW 0x6E19
0x1A22: EC5E F015  CALL 0x2ABC, 0
0x1A26: C012 F0ED  MOVFF 0x012, 0x0ED
0x1A2A: C013 F0EE  MOVFF 0x013, 0x0EE
0x1A2E: C014 F0EF  MOVFF 0x014, 0x0EF
0x1A32: C015 F0F0  MOVFF 0x015, 0x0F0
0x1A36: C0ED F02F  MOVFF 0x0ED, 0x02F
0x1A3A: C0EE F030  MOVFF 0x0EE, 0x030
0x1A3E: C0EF F031  MOVFF 0x0EF, 0x031
0x1A42: C0F0 F032  MOVFF 0x0F0, 0x032
0x1A46: ECBF F014  CALL 0x297E, 0
0x1A4A: C02F F055  MOVFF 0x02F, 0x055
0x1A4E: C030 F056  MOVFF 0x030, 0x056
0x1A52: C031 F057  MOVFF 0x031, 0x057
0x1A56: C032 F058  MOVFF 0x032, 0x058
0x1A5A: EC72 F022  CALL 0x44E4, 0
0x1A5E: 0E05       MOVLW 0x05
0x1A60: 0100       MOVLB 0x0
0x1A62: 6FC1       DW 0x6FC1
0x1A64: 51FD       DW 0x51FD
0x1A66: A4D8       BTFSS 0xD8, 2, ACCESS
0x1A68: ECD1 F022  CALL 0x45A2, 0
0x1A6C: 0100       MOVLB 0x0
0x1A6E: 977E       BCF 0x7E, 3, BSR
0x1A70: 81BD       BSF 0xBD, 0, BSR
0x1A72: EC53 F024  CALL 0x48A6, 0
0x1A76: AE5E       BTFSS 0x5E, 7, ACCESS
0x1A78: D011       BRA 0x1A9C
0x1A7A: 0E00       MOVLW 0x00
0x1A7C: 6A55       MOVWF 0x55, ACCESS
0x1A7E: 6A56       MOVWF 0x56, ACCESS
0x1A80: 6A57       MOVWF 0x57, ACCESS
0x1A82: 6A58       MOVWF 0x58, ACCESS
0x1A84: EC72 F022  CALL 0x44E4, 0
0x1A88: ECBA F022  CALL 0x4574, 0
0x1A8C: ECAF F024  CALL 0x495E, 0
0x1A90: 9E5E       BCF 0x5E, 7, ACCESS
0x1A92: 0100       MOVLB 0x0
0x1A94: AB7E       BTFSS 0x7E, 5, BSR
0x1A96: B85E       BTFSC 0x5E, 4, ACCESS
0x1A98: D001       BRA 0x1A9C
0x1A9A: 877E       BSF 0x7E, 3, BSR
0x1A9C: 0100       MOVLB 0x0
0x1A9E: AB7E       BTFSS 0x7E, 5, BSR
0x1AA0: D014       BRA 0x1ACA
0x1AA2: A85E       BTFSS 0x5E, 4, ACCESS
0x1AA4: D008       BRA 0x1AB6
0x1AA6: 0E00       MOVLW 0x00
0x1AA8: 6A55       MOVWF 0x55, ACCESS
0x1AAA: 6A56       MOVWF 0x56, ACCESS
0x1AAC: 6A57       MOVWF 0x57, ACCESS
0x1AAE: 6A58       MOVWF 0x58, ACCESS
0x1AB0: EC72 F022  CALL 0x44E4, 0
0x1AB4: D001       BRA 0x1AB8
0x1AB6: 877E       BSF 0x7E, 3, BSR
0x1AB8: 0E05       MOVLW 0x05
0x1ABA: 0100       MOVLB 0x0
0x1ABC: 6FC1       DW 0x6FC1
0x1ABE: 51FD       DW 0x51FD
0x1AC0: A4D8       BTFSS 0xD8, 2, ACCESS
0x1AC2: ECD1 F022  CALL 0x45A2, 0
0x1AC6: 0100       MOVLB 0x0
0x1AC8: 9B7E       BCF 0x7E, 5, BSR
0x1ACA: AD7E       BTFSS 0x7E, 6, BSR
0x1ACC: D06E       BRA 0x1BAA
0x1ACE: B1A4       BTFSC 0xA4, 0, BSR
0x1AD0: D004       BRA 0x1ADA
0x1AD2: 0E5F       MOVLW 0x5F
0x1AD4: 6FF2       DW 0x6FF2
0x1AD6: 0E1C       MOVLW 0x1C
0x1AD8: D003       BRA 0x1AE0
0x1ADA: 0E5F       MOVLW 0x5F
0x1ADC: 6FF2       DW 0x6FF2
0x1ADE: 0E08       MOVLW 0x08
0x1AE0: 6FF1       DW 0x6FF1
0x1AE2: C0F1 F013  MOVFF 0x0F1, 0x013
0x1AE6: C0F2 F014  MOVFF 0x0F2, 0x014
0x1AEA: EC0E F01C  CALL 0x381C, 0
0x1AEE: 0100       MOVLB 0x0
0x1AF0: B3A4       BTFSC 0xA4, 1, BSR
0x1AF2: D004       BRA 0x1AFC
0x1AF4: 0E5F       MOVLW 0x5F
0x1AF6: 6FF4       DW 0x6FF4
0x1AF8: 0E44       MOVLW 0x44
0x1AFA: D003       BRA 0x1B02
0x1AFC: 0E5F       MOVLW 0x5F
0x1AFE: 6FF4       DW 0x6FF4
0x1B00: 0E30       MOVLW 0x30
0x1B02: 6FF3       DW 0x6FF3
0x1B04: C0F3 F013  MOVFF 0x0F3, 0x013
0x1B08: C0F4 F014  MOVFF 0x0F4, 0x014
0x1B0C: EC0E F01C  CALL 0x381C, 0
0x1B10: 0100       MOVLB 0x0
0x1B12: B5A4       BTFSC 0xA4, 2, BSR
0x1B14: D004       BRA 0x1B1E
0x1B16: 0E5F       MOVLW 0x5F
0x1B18: 6FF6       DW 0x6FF6
0x1B1A: 0E6C       MOVLW 0x6C
0x1B1C: D003       BRA 0x1B24
0x1B1E: 0E5F       MOVLW 0x5F
0x1B20: 6FF6       DW 0x6FF6
0x1B22: 0E58       MOVLW 0x58
0x1B24: 6FF5       DW 0x6FF5
0x1B26: C0F5 F013  MOVFF 0x0F5, 0x013
0x1B2A: C0F6 F014  MOVFF 0x0F6, 0x014
0x1B2E: EC0E F01C  CALL 0x381C, 0
0x1B32: 0100       MOVLB 0x0
0x1B34: B7A4       BTFSC 0xA4, 3, BSR
0x1B36: D004       BRA 0x1B40
0x1B38: 0E5F       MOVLW 0x5F
0x1B3A: 6FF8       DW 0x6FF8
0x1B3C: 0E94       MOVLW 0x94
0x1B3E: D003       BRA 0x1B46
0x1B40: 0E5F       MOVLW 0x5F
0x1B42: 6FF8       DW 0x6FF8
0x1B44: 0E80       MOVLW 0x80
0x1B46: 6FF7       DW 0x6FF7
0x1B48: C0F7 F013  MOVFF 0x0F7, 0x013
0x1B4C: C0F8 F014  MOVFF 0x0F8, 0x014
0x1B50: EC0E F01C  CALL 0x381C, 0
0x1B54: 0100       MOVLB 0x0
0x1B56: B9A4       BTFSC 0xA4, 4, BSR
0x1B58: D004       BRA 0x1B62
0x1B5A: 0E5F       MOVLW 0x5F
0x1B5C: 6FFA       DW 0x6FFA
0x1B5E: 0EBC       MOVLW 0xBC
0x1B60: D003       BRA 0x1B68
0x1B62: 0E5F       MOVLW 0x5F
0x1B64: 6FFA       DW 0x6FFA
0x1B66: 0EA8       MOVLW 0xA8
0x1B68: 6FF9       DW 0x6FF9
0x1B6A: C0F9 F013  MOVFF 0x0F9, 0x013
0x1B6E: C0FA F014  MOVFF 0x0FA, 0x014
0x1B72: EC0E F01C  CALL 0x381C, 0
0x1B76: 0100       MOVLB 0x0
0x1B78: BBA4       BTFSC 0xA4, 5, BSR
0x1B7A: D004       BRA 0x1B84
0x1B7C: 0E5F       MOVLW 0x5F
0x1B7E: 6FFC       DW 0x6FFC
0x1B80: 0EE4       MOVLW 0xE4
0x1B82: D003       BRA 0x1B8A
0x1B84: 0E5F       MOVLW 0x5F
0x1B86: 6FFC       DW 0x6FFC
0x1B88: 0ED0       MOVLW 0xD0
0x1B8A: 6FFB       DW 0x6FFB
0x1B8C: C0FB F013  MOVFF 0x0FB, 0x013
0x1B90: C0FC F014  MOVFF 0x0FC, 0x014
0x1B94: EC0E F01C  CALL 0x381C, 0
0x1B98: 0E05       MOVLW 0x05
0x1B9A: 0100       MOVLB 0x0
0x1B9C: 6FC1       DW 0x6FC1
0x1B9E: 51FD       DW 0x51FD
0x1BA0: A4D8       BTFSS 0xD8, 2, ACCESS
0x1BA2: ECD1 F022  CALL 0x45A2, 0
0x1BA6: 0100       MOVLB 0x0
0x1BA8: 9D7E       BCF 0x7E, 6, BSR
0x1BAA: A97E       BTFSS 0x7E, 4, BSR
0x1BAC: D00D       BRA 0x1BC8
0x1BAE: EC80 F010  CALL 0x2100, 0
0x1BB2: 0100       MOVLB 0x0
0x1BB4: 997E       BCF 0x7E, 4, BSR
0x1BB6: 83BD       BSF 0xBD, 1, BSR
0x1BB8: 0E05       MOVLW 0x05
0x1BBA: 6FC1       DW 0x6FC1
0x1BBC: 51FD       DW 0x51FD
0x1BBE: A4D8       BTFSS 0xD8, 2, ACCESS
0x1BC0: ECD1 F022  CALL 0x45A2, 0
0x1BC4: EC53 F024  CALL 0x48A6, 0
0x1BC8: 0100       MOVLB 0x0
0x1BCA: A17F       BTFSS 0x7F, 0, BSR
0x1BCC: D004       BRA 0x1BD6
0x1BCE: 917F       BCF 0x7F, 0, BSR
0x1BD0: 85BD       BSF 0xBD, 2, BSR
0x1BD2: EC53 F024  CALL 0x48A6, 0
0x1BD6: 0100       MOVLB 0x0
0x1BD8: A37F       BTFSS 0x7F, 1, BSR
0x1BDA: D004       BRA 0x1BE4
0x1BDC: 937F       BCF 0x7F, 1, BSR
0x1BDE: 85BD       BSF 0xBD, 2, BSR
0x1BE0: EC53 F024  CALL 0x48A6, 0
0x1BE4: 0012       RETURN 0
0x1BE6: 6A09       MOVWF 0x09, ACCESS
0x1BE8: D147       BRA 0x1E78
0x1BEA: EC39 F024  CALL 0x4872, 0
0x1BEE: 0900       IORLW 0x00
0x1BF0: E101       BNZ 0x1BF4
0x1BF2: D144       BRA 0x1E7C
0x1BF4: ECFD F022  CALL 0x45FA, 0
0x1BF8: 6E0A       DW 0x6E0A
0x1BFA: 0E7F       MOVLW 0x7F
0x1BFC: 640A       DW 0x640A
0x1BFE: D021       BRA 0x1C42
0x1C00: 500A       DW 0x500A
0x1C02: 0AB0       XORLW 0xB0
0x1C04: E104       BNZ 0x1C0E
0x1C06: 0E01       MOVLW 0x01
0x1C08: 6F98       DW 0x6F98
0x1C0A: 905E       BCF 0x5E, 0, ACCESS
0x1C0C: D014       BRA 0x1C36
0x1C0E: 500A       DW 0x500A
0x1C10: 0AB1       XORLW 0xB1
0x1C12: E104       BNZ 0x1C1C
0x1C14: 0E01       MOVLW 0x01
0x1C16: 6F98       DW 0x6F98
0x1C18: 805E       BSF 0x5E, 0, ACCESS
0x1C1A: D00D       BRA 0x1C36
0x1C1C: 6B98       MOVWF 0x98, BSR
0x1C1E: 905E       BCF 0x5E, 0, ACCESS
0x1C20: C00A F005  MOVFF 0x00A, 0x005
0x1C24: 0EF0       MOVLW 0xF0
0x1C26: 1605       ANDWF 0x05, F, ACCESS
0x1C28: 5005       DW 0x5005
0x1C2A: 0AB0       XORLW 0xB0
0x1C2C: E104       BNZ 0x1C36
0x1C2E: 500A       DW 0x500A
0x1C30: 0ABF       XORLW 0xBF
0x1C32: A4D8       BTFSS 0xD8, 2, ACCESS
0x1C34: 060A       DECF 0x0A, F, ACCESS
0x1C36: B05E       BTFSC 0x5E, 0, ACCESS
0x1C38: D123       BRA 0x1E80
0x1C3A: 500A       DW 0x500A
0x1C3C: EC4B F024  CALL 0x4896, 0
0x1C40: D11F       BRA 0x1E80
0x1C42: B05E       BTFSC 0x5E, 0, ACCESS
0x1C44: D006       BRA 0x1C52
0x1C46: 0E02       MOVLW 0x02
0x1C48: 5D98       DW 0x5D98
0x1C4A: E203       BC 0x1C52
0x1C4C: 500A       DW 0x500A
0x1C4E: EC4B F024  CALL 0x4896, 0
0x1C52: 0100       MOVLB 0x0
0x1C54: 5198       DW 0x5198
0x1C56: A4D8       BTFSS 0xD8, 2, ACCESS
0x1C58: 2B98       INCF 0x98, F, BSR
0x1C5A: 0E02       MOVLW 0x02
0x1C5C: 5D98       DW 0x5D98
0x1C5E: E201       BC 0x1C62
0x1C60: D10F       BRA 0x1E80
0x1C62: 5198       DW 0x5198
0x1C64: 0A02       XORLW 0x02
0x1C66: E103       BNZ 0x1C6E
0x1C68: C00A F0A2  MOVFF 0x00A, 0x0A2
0x1C6C: D109       BRA 0x1E80
0x1C6E: C00A F0A3  MOVFF 0x00A, 0x0A3
0x1C72: C00A F0BC  MOVFF 0x00A, 0x0BC
0x1C76: 8C5E       BSF 0x5E, 6, ACCESS
0x1C78: 0E01       MOVLW 0x01
0x1C7A: 6F98       DW 0x6F98
0x1C7C: D0D8       BRA 0x1E2E
0x1C7E: 0E01       MOVLW 0x01
0x1C80: B65E       BTFSC 0x5E, 3, ACCESS
0x1C82: 0E00       MOVLW 0x00
0x1C84: 6E05       DW 0x6E05
0x1C86: 4605       DW 0x4605
0x1C88: 4605       DW 0x4605
0x1C8A: 517E       DW 0x517E
0x1C8C: 1805       XORWF 0x05, W, ACCESS
0x1C8E: 0BFB       ANDLW 0xFB
0x1C90: 1805       XORWF 0x05, W, ACCESS
0x1C92: 6F7E       DW 0x6F7E
0x1C94: B57E       BTFSC 0x7E, 2, BSR
0x1C96: 865E       BSF 0x5E, 3, ACCESS
0x1C98: D0E9       BRA 0x1E6C
0x1C9A: A65E       BTFSS 0x5E, 3, ACCESS
0x1C9C: D002       BRA 0x1CA2
0x1C9E: 857E       BSF 0x7E, 2, BSR
0x1CA0: D002       BRA 0x1CA6
0x1CA2: 0100       MOVLB 0x0
0x1CA4: 957E       BCF 0x7E, 2, BSR
0x1CA6: B57E       BTFSC 0x7E, 2, BSR
0x1CA8: 965E       BCF 0x5E, 3, ACCESS
0x1CAA: D0E0       BRA 0x1E6C
0x1CAC: B794       BTFSC 0x94, 3, BSR
0x1CAE: D013       BRA 0x1CD6
0x1CB0: 885E       BSF 0x5E, 4, ACCESS
0x1CB2: 0E01       MOVLW 0x01
0x1CB4: A85E       BTFSS 0x5E, 4, ACCESS
0x1CB6: 0E00       MOVLW 0x00
0x1CB8: 6E05       DW 0x6E05
0x1CBA: AA5E       BTFSS 0x5E, 5, ACCESS
0x1CBC: D002       BRA 0x1CC2
0x1CBE: 0E01       MOVLW 0x01
0x1CC0: D001       BRA 0x1CC4
0x1CC2: 0E00       MOVLW 0x00
0x1CC4: 1A05       XORWF 0x05, F, ACCESS
0x1CC6: A4D8       BTFSS 0xD8, 2, ACCESS
0x1CC8: 8B7E       BSF 0x7E, 5, BSR
0x1CCA: A85E       BTFSS 0x5E, 4, ACCESS
0x1CCC: D002       BRA 0x1CD2
0x1CCE: 8A5E       BSF 0x5E, 5, ACCESS
0x1CD0: D001       BRA 0x1CD4
0x1CD2: 9A5E       BCF 0x5E, 5, ACCESS
0x1CD4: D0CB       BRA 0x1E6C
0x1CD6: 0E02       MOVLW 0x02
0x1CD8: A85E       BTFSS 0x5E, 4, ACCESS
0x1CDA: 0E03       MOVLW 0x03
0x1CDC: 6FBC       DW 0x6FBC
0x1CDE: 9794       BCF 0x94, 3, BSR
0x1CE0: D0C5       BRA 0x1E6C
0x1CE2: B794       BTFSC 0x94, 3, BSR
0x1CE4: D7F8       BRA 0x1CD6
0x1CE6: 985E       BCF 0x5E, 4, ACCESS
0x1CE8: 0E01       MOVLW 0x01
0x1CEA: A85E       BTFSS 0x5E, 4, ACCESS
0x1CEC: 0E00       MOVLW 0x00
0x1CEE: 6E05       DW 0x6E05
0x1CF0: AA5E       BTFSS 0x5E, 5, ACCESS
0x1CF2: D7E7       BRA 0x1CC2
0x1CF4: 0E01       MOVLW 0x01
0x1CF6: 1A05       XORWF 0x05, F, ACCESS
0x1CF8: E1E7       BNZ 0x1CC8
0x1CFA: D7E7       BRA 0x1CCA
0x1CFC: 51A3       DW 0x51A3
0x1CFE: E0CD       BZ 0x1C9A
0x1D00: 0A01       XORLW 0x01
0x1D02: E0BD       BZ 0x1C7E
0x1D04: 0A03       XORLW 0x03
0x1D06: E0D2       BZ 0x1CAC
0x1D08: 0A01       XORLW 0x01
0x1D0A: E0EB       BZ 0x1CE2
0x1D0C: D0AF       BRA 0x1E6C
0x1D0E: ECCB F01D  CALL 0x3B96, 0
0x1D12: D0AC       BRA 0x1E6C
0x1D14: B194       BTFSC 0x94, 0, BSR
0x1D16: D005       BRA 0x1D22
0x1D18: C0A3 F099  MOVFF 0x0A3, 0x099
0x1D1C: C099 F0B3  MOVFF 0x099, 0x0B3
0x1D20: D0A5       BRA 0x1E6C
0x1D22: C099 F0BC  MOVFF 0x099, 0x0BC
0x1D26: 9194       BCF 0x94, 0, BSR
0x1D28: D0A1       BRA 0x1E6C
0x1D2A: B394       BTFSC 0x94, 1, BSR
0x1D2C: D029       BRA 0x1D80
0x1D2E: 0EA0       MOVLW 0xA0
0x1D30: 6E05       DW 0x6E05
0x1D32: 6806       CLRF 0x06, ACCESS
0x1D34: 51A3       DW 0x51A3
0x1D36: 6E07       DW 0x6E07
0x1D38: 6A08       MOVWF 0x08, ACCESS
0x1D3A: 5005       DW 0x5005
0x1D3C: 2607       DW 0x2607
0x1D3E: 5006       DW 0x5006
0x1D40: 2208       DW 0x2208
0x1D42: C007 F06E  MOVFF 0x007, 0x06E
0x1D46: C008 F06F  MOVFF 0x008, 0x06F
0x1D4A: 0E00       MOVLW 0x00
0x1D4C: BF6F       BTFSC 0x6F, 7, BSR
0x1D4E: 0EFF       MOVLW 0xFF
0x1D50: 6F70       DW 0x6F70
0x1D52: 6F71       DW 0x6F71
0x1D54: 1969       XORWF 0x69, W, BSR
0x1D56: E108       BNZ 0x1D68
0x1D58: 5168       DW 0x5168
0x1D5A: 1970       XORWF 0x70, W, BSR
0x1D5C: E105       BNZ 0x1D68
0x1D5E: 5167       DW 0x5167
0x1D60: 196F       XORWF 0x6F, W, BSR
0x1D62: E102       BNZ 0x1D68
0x1D64: 5166       DW 0x5166
0x1D66: 196E       XORWF 0x6E, W, BSR
0x1D68: E101       BNZ 0x1D6C
0x1D6A: D080       BRA 0x1E6C
0x1D6C: 877E       BSF 0x7E, 3, BSR
0x1D6E: C06E F066  MOVFF 0x06E, 0x066
0x1D72: C06F F067  MOVFF 0x06F, 0x067
0x1D76: C070 F068  MOVFF 0x070, 0x068
0x1D7A: C071 F069  MOVFF 0x071, 0x069
0x1D7E: D076       BRA 0x1E6C
0x1D80: 516E       DW 0x516E
0x1D82: 0F60       ADDLW 0x60
0x1D84: 6FBC       DW 0x6FBC
0x1D86: 9394       BCF 0x94, 1, BSR
0x1D88: D071       BRA 0x1E6C
0x1D8A: 51A3       DW 0x51A3
0x1D8C: 0A29       XORLW 0x29
0x1D8E: E16E       BNZ 0x1E6C
0x1D90: ECFE F023  CALL 0x47FC, 0
0x1D94: D06B       BRA 0x1E6C
0x1D96: C0A3 F060  MOVFF 0x0A3, 0x060
0x1D9A: 51A5       DW 0x51A5
0x1D9C: 1960       XORWF 0x60, W, BSR
0x1D9E: E066       BZ 0x1E6C
0x1DA0: 897E       BSF 0x7E, 4, BSR
0x1DA2: C060 F0A5  MOVFF 0x060, 0x0A5
0x1DA6: D062       BRA 0x1E6C
0x1DA8: C0A3 F061  MOVFF 0x0A3, 0x061
0x1DAC: 5161       DW 0x5161
0x1DAE: 19A6       XORWF 0xA6, W, BSR
0x1DB0: A4D8       BTFSS 0xD8, 2, ACCESS
0x1DB2: 897E       BSF 0x7E, 4, BSR
0x1DB4: C061 F0A6  MOVFF 0x061, 0x0A6
0x1DB8: D059       BRA 0x1E6C
0x1DBA: C0A3 F062  MOVFF 0x0A3, 0x062
0x1DBE: 5162       DW 0x5162
0x1DC0: 19A7       XORWF 0xA7, W, BSR
0x1DC2: A4D8       BTFSS 0xD8, 2, ACCESS
0x1DC4: 897E       BSF 0x7E, 4, BSR
0x1DC6: C062 F0A7  MOVFF 0x062, 0x0A7
0x1DCA: D050       BRA 0x1E6C
0x1DCC: C0A3 F063  MOVFF 0x0A3, 0x063
0x1DD0: 5163       DW 0x5163
0x1DD2: 19A8       XORWF 0xA8, W, BSR
0x1DD4: A4D8       BTFSS 0xD8, 2, ACCESS
0x1DD6: 897E       BSF 0x7E, 4, BSR
0x1DD8: C063 F0A8  MOVFF 0x063, 0x0A8
0x1DDC: D047       BRA 0x1E6C
0x1DDE: C0A3 F064  MOVFF 0x0A3, 0x064
0x1DE2: 5164       DW 0x5164
0x1DE4: 19A9       XORWF 0xA9, W, BSR
0x1DE6: A4D8       BTFSS 0xD8, 2, ACCESS
0x1DE8: 897E       BSF 0x7E, 4, BSR
0x1DEA: C064 F0A9  MOVFF 0x064, 0x0A9
0x1DEE: D03E       BRA 0x1E6C
0x1DF0: C0A3 F065  MOVFF 0x0A3, 0x065
0x1DF4: 5165       DW 0x5165
0x1DF6: 19AA       XORWF 0xAA, W, BSR
0x1DF8: A4D8       BTFSS 0xD8, 2, ACCESS
0x1DFA: 897E       BSF 0x7E, 4, BSR
0x1DFC: C065 F0AA  MOVFF 0x065, 0x0AA
0x1E00: D035       BRA 0x1E6C
0x1E02: B994       BTFSC 0x94, 4, BSR
0x1E04: D007       BRA 0x1E14
0x1E06: 51B8       DW 0x51B8
0x1E08: 19A3       XORWF 0xA3, W, BSR
0x1E0A: E030       BZ 0x1E6C
0x1E0C: C0A3 F0B8  MOVFF 0x0A3, 0x0B8
0x1E10: 817F       BSF 0x7F, 0, BSR
0x1E12: D02C       BRA 0x1E6C
0x1E14: C0B8 F0BC  MOVFF 0x0B8, 0x0BC
0x1E18: 9994       BCF 0x94, 4, BSR
0x1E1A: D028       BRA 0x1E6C
0x1E1C: C0A3 F0C3  MOVFF 0x0A3, 0x0C3
0x1E20: 51B2       DW 0x51B2
0x1E22: 19C3       XORWF 0xC3, W, BSR
0x1E24: A4D8       BTFSS 0xD8, 2, ACCESS
0x1E26: 81BD       BSF 0xBD, 0, BSR
0x1E28: C0C3 F0B2  MOVFF 0x0C3, 0x0B2
0x1E2C: D01F       BRA 0x1E6C
0x1E2E: 51A2       DW 0x51A2
0x1E30: 0A03       XORLW 0x03
0x1E32: E101       BNZ 0x1E36
0x1E34: D763       BRA 0x1CFC
0x1E36: 0A07       XORLW 0x07
0x1E38: E101       BNZ 0x1E3C
0x1E3A: D769       BRA 0x1D0E
0x1E3C: 0A02       XORLW 0x02
0x1E3E: E101       BNZ 0x1E42
0x1E40: D769       BRA 0x1D14
0x1E42: 0A01       XORLW 0x01
0x1E44: E101       BNZ 0x1E48
0x1E46: D771       BRA 0x1D2A
0x1E48: 0A17       XORLW 0x17
0x1E4A: E09F       BZ 0x1D8A
0x1E4C: 0A07       XORLW 0x07
0x1E4E: E0A3       BZ 0x1D96
0x1E50: 0A0F       XORLW 0x0F
0x1E52: E0AA       BZ 0x1DA8
0x1E54: 0A01       XORLW 0x01
0x1E56: E0B1       BZ 0x1DBA
0x1E58: 0A03       XORLW 0x03
0x1E5A: E0B8       BZ 0x1DCC
0x1E5C: 0A01       XORLW 0x01
0x1E5E: E0BF       BZ 0x1DDE
0x1E60: 0A07       XORLW 0x07
0x1E62: E0C6       BZ 0x1DF0
0x1E64: 0A01       XORLW 0x01
0x1E66: E0CD       BZ 0x1E02
0x1E68: 0A03       XORLW 0x03
0x1E6A: E0D8       BZ 0x1E1C
0x1E6C: AC5E       BTFSS 0x5E, 6, ACCESS
0x1E6E: D008       BRA 0x1E80
0x1E70: 0100       MOVLB 0x0
0x1E72: 51BC       DW 0x51BC
0x1E74: EC4B F024  CALL 0x4896, 0
0x1E78: 9C5E       BCF 0x5E, 6, ACCESS
0x1E7A: D002       BRA 0x1E80
0x1E7C: 0E01       MOVLW 0x01
0x1E7E: 6E09       DW 0x6E09
0x1E80: 5009       DW 0x5009
0x1E82: A4D8       BTFSS 0xD8, 2, ACCESS
0x1E84: 0012       RETURN 0
0x1E86: D6B1       BRA 0x1BEA
0x1E88: 0E00       MOVLW 0x00
0x1E8A: 6A04       MOVWF 0x04, ACCESS
0x1E8C: 6A03       MOVWF 0x03, ACCESS
0x1E8E: EC42 F024  CALL 0x4884, 0
0x1E92: 0100       MOVLB 0x0
0x1E94: 6F71       DW 0x6F71
0x1E96: 6A04       MOVWF 0x04, ACCESS
0x1E98: 0E01       MOVLW 0x01
0x1E9A: 6E03       DW 0x6E03
0x1E9C: EC42 F024  CALL 0x4884, 0
0x1EA0: 0100       MOVLB 0x0
0x1EA2: 6F70       DW 0x6F70
0x1EA4: 6A04       MOVWF 0x04, ACCESS
0x1EA6: 0E02       MOVLW 0x02
0x1EA8: 6E03       DW 0x6E03
0x1EAA: EC42 F024  CALL 0x4884, 0
0x1EAE: 0100       MOVLB 0x0
0x1EB0: 6F6F       DW 0x6F6F
0x1EB2: 6A04       MOVWF 0x04, ACCESS
0x1EB4: 0E03       MOVLW 0x03
0x1EB6: 6E03       DW 0x6E03
0x1EB8: EC42 F024  CALL 0x4884, 0
0x1EBC: 0100       MOVLB 0x0
0x1EBE: 6F6E       DW 0x6F6E
0x1EC0: 6A04       MOVWF 0x04, ACCESS
0x1EC2: 0E04       MOVLW 0x04
0x1EC4: 6E03       DW 0x6E03
0x1EC6: EC42 F024  CALL 0x4884, 0
0x1ECA: 0100       MOVLB 0x0
0x1ECC: 6F99       DW 0x6F99
0x1ECE: 6A04       MOVWF 0x04, ACCESS
0x1ED0: 0E07       MOVLW 0x07
0x1ED2: 6E03       DW 0x6E03
0x1ED4: EC42 F024  CALL 0x4884, 0
0x1ED8: 0100       MOVLB 0x0
0x1EDA: 6F60       DW 0x6F60
0x1EDC: 6A04       MOVWF 0x04, ACCESS
0x1EDE: 0E08       MOVLW 0x08
0x1EE0: 6E03       DW 0x6E03
0x1EE2: EC42 F024  CALL 0x4884, 0
0x1EE6: 0100       MOVLB 0x0
0x1EE8: 6F61       DW 0x6F61
0x1EEA: 6A04       MOVWF 0x04, ACCESS
0x1EEC: 0E09       MOVLW 0x09
0x1EEE: 6E03       DW 0x6E03
0x1EF0: EC42 F024  CALL 0x4884, 0
0x1EF4: 0100       MOVLB 0x0
0x1EF6: 6F62       DW 0x6F62
0x1EF8: 6A04       MOVWF 0x04, ACCESS
0x1EFA: 0E0A       MOVLW 0x0A
0x1EFC: 6E03       DW 0x6E03
0x1EFE: EC42 F024  CALL 0x4884, 0
0x1F02: 0100       MOVLB 0x0
0x1F04: 6F63       DW 0x6F63
0x1F06: 6A04       MOVWF 0x04, ACCESS
0x1F08: 0E0B       MOVLW 0x0B
0x1F0A: 6E03       DW 0x6E03
0x1F0C: EC42 F024  CALL 0x4884, 0
0x1F10: 0100       MOVLB 0x0
0x1F12: 6F64       DW 0x6F64
0x1F14: 6A04       MOVWF 0x04, ACCESS
0x1F16: 0E0C       MOVLW 0x0C
0x1F18: 6E03       DW 0x6E03
0x1F1A: EC42 F024  CALL 0x4884, 0
0x1F1E: 0100       MOVLB 0x0
0x1F20: 6F65       DW 0x6F65
0x1F22: 6A04       MOVWF 0x04, ACCESS
0x1F24: 0E0D       MOVLW 0x0D
0x1F26: 6E03       DW 0x6E03
0x1F28: EC42 F024  CALL 0x4884, 0
0x1F2C: 6E5F       DW 0x6E5F
0x1F2E: 6A04       MOVWF 0x04, ACCESS
0x1F30: 0E14       MOVLW 0x14
0x1F32: 6E03       DW 0x6E03
0x1F34: EC42 F024  CALL 0x4884, 0
0x1F38: 0100       MOVLB 0x0
0x1F3A: 6FC3       DW 0x6FC3
0x1F3C: 5171       DW 0x5171
0x1F3E: 0A80       XORLW 0x80
0x1F40: 0F80       ADDLW 0x80
0x1F42: E108       BNZ 0x1F54
0x1F44: 0E00       MOVLW 0x00
0x1F46: 5D70       DW 0x5D70
0x1F48: E105       BNZ 0x1F54
0x1F4A: 0E00       MOVLW 0x00
0x1F4C: 5D6F       DW 0x5D6F
0x1F4E: E102       BNZ 0x1F54
0x1F50: 0E13       MOVLW 0x13
0x1F52: 5D6E       DW 0x5D6E
0x1F54: E305       BNC 0x1F60
0x1F56: 0EA0       MOVLW 0xA0
0x1F58: 6F6E       DW 0x6F6E
0x1F5A: 696F       CLRF 0x6F, BSR
0x1F5C: 6970       CLRF 0x70, BSR
0x1F5E: 6971       CLRF 0x71, BSR
0x1F60: 0E08       MOVLW 0x08
0x1F62: 6599       DW 0x6599
0x1F64: D002       BRA 0x1F6A
0x1F66: 0E01       MOVLW 0x01
0x1F68: 6F99       DW 0x6F99
0x1F6A: 0E03       MOVLW 0x03
0x1F6C: 6560       DW 0x6560
0x1F6E: D001       BRA 0x1F72
0x1F70: 6B60       MOVWF 0x60, BSR
0x1F72: EE20       DW 0xEE20
0x1F74: F061       DW 0xF061
0x1F76: 0E03       MOVLW 0x03
0x1F78: 64DF       DW 0x64DF
0x1F7A: D001       BRA 0x1F7E
0x1F7C: 6B61       MOVWF 0x61, BSR
0x1F7E: EE20       DW 0xEE20
0x1F80: F062       DW 0xF062
0x1F82: 0E03       MOVLW 0x03
0x1F84: 64DF       DW 0x64DF
0x1F86: D001       BRA 0x1F8A
0x1F88: 6B62       MOVWF 0x62, BSR
0x1F8A: EE20       DW 0xEE20
0x1F8C: F063       DW 0xF063
0x1F8E: 0E03       MOVLW 0x03
0x1F90: 64DF       DW 0x64DF
0x1F92: D002       BRA 0x1F98
0x1F94: 0E01       MOVLW 0x01
0x1F96: 6F63       DW 0x6F63
0x1F98: EE20       DW 0xEE20
0x1F9A: F064       DW 0xF064
0x1F9C: 0E03       MOVLW 0x03
0x1F9E: 64DF       DW 0x64DF
0x1FA0: D002       BRA 0x1FA6
0x1FA2: 0E01       MOVLW 0x01
0x1FA4: 6F64       DW 0x6F64
0x1FA6: EE20       DW 0xEE20
0x1FA8: F065       DW 0xF065
0x1FAA: 0E03       MOVLW 0x03
0x1FAC: 64DF       DW 0x64DF
0x1FAE: D002       BRA 0x1FB4
0x1FB0: 0E01       MOVLW 0x01
0x1FB2: 6F64       DW 0x6F64
0x1FB4: 0E03       MOVLW 0x03
0x1FB6: 645F       DW 0x645F
0x1FB8: D001       BRA 0x1FBC
0x1FBA: 6E5F       DW 0x6E5F
0x1FBC: 0E04       MOVLW 0x04
0x1FBE: 65C3       DW 0x65C3
0x1FC0: D002       BRA 0x1FC6
0x1FC2: 0E01       MOVLW 0x01
0x1FC4: 6FC3       DW 0x6FC3
0x1FC6: C06E F066  MOVFF 0x06E, 0x066
0x1FCA: C06F F067  MOVFF 0x06F, 0x067
0x1FCE: C070 F068  MOVFF 0x070, 0x068
0x1FD2: C071 F069  MOVFF 0x071, 0x069
0x1FD6: C099 F0B3  MOVFF 0x099, 0x0B3
0x1FDA: C060 F0A5  MOVFF 0x060, 0x0A5
0x1FDE: C061 F0A6  MOVFF 0x061, 0x0A6
0x1FE2: C062 F0A7  MOVFF 0x062, 0x0A7
0x1FE6: C063 F0A8  MOVFF 0x063, 0x0A8
0x1FEA: C064 F0A9  MOVFF 0x064, 0x0A9
0x1FEE: C065 F0AA  MOVFF 0x065, 0x0AA
0x1FF2: C0C3 F0B2  MOVFF 0x0C3, 0x0B2
0x1FF6: 6A04       MOVWF 0x04, ACCESS
0x1FF8: 0E0F       MOVLW 0x0F
0x1FFA: 6E03       DW 0x6E03
0x1FFC: EC42 F024  CALL 0x4884, 0
0x2000: 0100       MOVLB 0x0
0x2002: 6FB4       DW 0x6FB4
0x2004: 29B4       INCF 0xB4, W, BSR
0x2006: B4D8       BTFSC 0xD8, 2, ACCESS
0x2008: 91B4       BCF 0xB4, 0, BSR
0x200A: C0B4 F0B1  MOVFF 0x0B4, 0x0B1
0x200E: 6A04       MOVWF 0x04, ACCESS
0x2010: 0E0E       MOVLW 0x0E
0x2012: 6E03       DW 0x6E03
0x2014: EC42 F024  CALL 0x4884, 0
0x2018: 0100       MOVLB 0x0
0x201A: 6FB8       DW 0x6FB8
0x201C: 0E03       MOVLW 0x03
0x201E: 5DB8       DW 0x5DB8
0x2020: E202       BC 0x2026
0x2022: 0E03       MOVLW 0x03
0x2024: 6FB8       DW 0x6FB8
0x2026: 0E04       MOVLW 0x04
0x2028: 65B8       DW 0x65B8
0x202A: D002       BRA 0x2030
0x202C: 0E03       MOVLW 0x03
0x202E: 6FB8       DW 0x6FB8
0x2030: 6A04       MOVWF 0x04, ACCESS
0x2032: 0E10       MOVLW 0x10
0x2034: 6E03       DW 0x6E03
0x2036: EC42 F024  CALL 0x4884, 0
0x203A: 0100       MOVLB 0x0
0x203C: 6F9B       DW 0x6F9B
0x203E: 6A04       MOVWF 0x04, ACCESS
0x2040: 0E11       MOVLW 0x11
0x2042: 6E03       DW 0x6E03
0x2044: EC42 F024  CALL 0x4884, 0
0x2048: 0100       MOVLB 0x0
0x204A: 6F9C       DW 0x6F9C
0x204C: 6A04       MOVWF 0x04, ACCESS
0x204E: 0E12       MOVLW 0x12
0x2050: 6E03       DW 0x6E03
0x2052: EC42 F024  CALL 0x4884, 0
0x2056: 0100       MOVLB 0x0
0x2058: 6F9D       DW 0x6F9D
0x205A: 6A04       MOVWF 0x04, ACCESS
0x205C: 0E13       MOVLW 0x13
0x205E: 6E03       DW 0x6E03
0x2060: EC42 F024  CALL 0x4884, 0
0x2064: 0100       MOVLB 0x0
0x2066: 6F9E       DW 0x6F9E
0x2068: 0E12       MOVLW 0x12
0x206A: 659B       DW 0x659B
0x206C: D001       BRA 0x2070
0x206E: 6B9B       MOVWF 0x9B, BSR
0x2070: 0E12       MOVLW 0x12
0x2072: 659C       DW 0x659C
0x2074: D001       BRA 0x2078
0x2076: 6B9C       MOVWF 0x9C, BSR
0x2078: 0E12       MOVLW 0x12
0x207A: 659D       DW 0x659D
0x207C: D001       BRA 0x2080
0x207E: 6B9D       MOVWF 0x9D, BSR
0x2080: 0E12       MOVLW 0x12
0x2082: 659E       DW 0x659E
0x2084: D001       BRA 0x2088
0x2086: 6B9E       MOVWF 0x9E, BSR
0x2088: C09B F0AC  MOVFF 0x09B, 0x0AC
0x208C: C09C F0AD  MOVFF 0x09C, 0x0AD
0x2090: C09D F0AE  MOVFF 0x09D, 0x0AE
0x2094: C09E F0AF  MOVFF 0x09E, 0x0AF
0x2098: 0E50       MOVLW 0x50
0x209A: 6E0A       DW 0x6E0A
0x209C: 0101       MOVLB 0x1
0x209E: 0EB0       MOVLW 0xB0
0x20A0: 240A       DW 0x240A
0x20A2: 6ED9       DW 0x6ED9
0x20A4: 6ADA       MOVWF 0xDA, ACCESS
0x20A6: 0E00       MOVLW 0x00
0x20A8: 22DA       DW 0x22DA
0x20AA: C00A F003  MOVFF 0x00A, 0x003
0x20AE: 6A04       MOVWF 0x04, ACCESS
0x20B0: EC42 F024  CALL 0x4884, 0
0x20B4: 6EDF       DW 0x6EDF
0x20B6: 2A0A       INCF 0x0A, F, ACCESS
0x20B8: 0E5E       MOVLW 0x5E
0x20BA: 640A       DW 0x640A
0x20BC: D7EF       BRA 0x209C
0x20BE: 0E60       MOVLW 0x60
0x20C0: 6E0A       DW 0x6E0A
0x20C2: 0102       MOVLB 0x2
0x20C4: 0E60       MOVLW 0x60
0x20C6: 240A       DW 0x240A
0x20C8: 6ED9       DW 0x6ED9
0x20CA: 6ADA       MOVWF 0xDA, ACCESS
0x20CC: 0E02       MOVLW 0x02
0x20CE: 22DA       DW 0x22DA
0x20D0: C00A F003  MOVFF 0x00A, 0x003
0x20D4: 6A04       MOVWF 0x04, ACCESS
0x20D6: EC42 F024  CALL 0x4884, 0
0x20DA: 6EDF       DW 0x6EDF
0x20DC: 2A0A       INCF 0x0A, F, ACCESS
0x20DE: 0E7D       MOVLW 0x7D
0x20E0: 640A       DW 0x640A
0x20E2: D7EF       BRA 0x20C2
0x20E4: 6A08       MOVWF 0x08, ACCESS
0x20E6: 0E80       MOVLW 0x80
0x20E8: 6E07       DW 0x6E07
0x20EA: 0E02       MOVLW 0x02
0x20EC: 6E09       DW 0x6E09
0x20EE: EC6F F023  CALL 0x46DE, 0
0x20F2: 6A08       MOVWF 0x08, ACCESS
0x20F4: 0E81       MOVLW 0x81
0x20F6: 6E07       DW 0x6E07
0x20F8: 0E03       MOVLW 0x03
0x20FA: 6E09       DW 0x6E09
0x20FC: EF6F F023  GOTO 0x46DE
0x2100: 6A04       MOVWF 0x04, ACCESS
0x2102: 0ED7       MOVLW 0xD7
0x2104: 6E03       DW 0x6E03
0x2106: 0E04       MOVLW 0x04
0x2108: 6E05       DW 0x6E05
0x210A: EC9F F023  CALL 0x473E, 0
0x210E: 6A04       MOVWF 0x04, ACCESS
0x2110: 0100       MOVLB 0x0
0x2112: 0EDB       MOVLW 0xDB
0x2114: 6E03       DW 0x6E03
0x2116: 0E04       MOVLW 0x04
0x2118: 6E05       DW 0x6E05
0x211A: EC9F F023  CALL 0x473E, 0
0x211E: 6A04       MOVWF 0x04, ACCESS
0x2120: 0100       MOVLB 0x0
0x2122: 0EDF       MOVLW 0xDF
0x2124: 6E03       DW 0x6E03
0x2126: 0E04       MOVLW 0x04
0x2128: 6E05       DW 0x6E05
0x212A: EC9F F023  CALL 0x473E, 0
0x212E: 0101       MOVLB 0x1
0x2130: 0E01       MOVLW 0x01
0x2132: 6E04       DW 0x6E04
0x2134: 0ED9       MOVLW 0xD9
0x2136: 6E03       DW 0x6E03
0x2138: 0E04       MOVLW 0x04
0x213A: 6E05       DW 0x6E05
0x213C: EC9F F023  CALL 0x473E, 0
0x2140: 6A04       MOVWF 0x04, ACCESS
0x2142: 0100       MOVLB 0x0
0x2144: 0EE3       MOVLW 0xE3
0x2146: 6E03       DW 0x6E03
0x2148: 0E04       MOVLW 0x04
0x214A: 6E05       DW 0x6E05
0x214C: EC9F F023  CALL 0x473E, 0
0x2150: 0101       MOVLB 0x1
0x2152: 0E01       MOVLW 0x01
0x2154: 6E04       DW 0x6E04
0x2156: 0EDD       MOVLW 0xDD
0x2158: 6E03       DW 0x6E03
0x215A: 0E04       MOVLW 0x04
0x215C: 6E05       DW 0x6E05
0x215E: EC9F F023  CALL 0x473E, 0
0x2162: 0101       MOVLB 0x1
0x2164: 0E01       MOVLW 0x01
0x2166: 6E04       DW 0x6E04
0x2168: 0EE1       MOVLW 0xE1
0x216A: 6E03       DW 0x6E03
0x216C: 0E04       MOVLW 0x04
0x216E: 6E05       DW 0x6E05
0x2170: EC9F F023  CALL 0x473E, 0
0x2174: EC5B F024  CALL 0x48B6, 0
0x2178: 6A59       MOVWF 0x59, ACCESS
0x217A: 5059       DW 0x5059
0x217C: 0100       MOVLB 0x0
0x217E: 0F60       ADDLW 0x60
0x2180: 6ED9       DW 0x6ED9
0x2182: 6ADA       MOVWF 0xDA, ACCESS
0x2184: 50DF       DW 0x50DF
0x2186: EC24 F022  CALL 0x4448, 0
0x218A: D01E       BRA 0x21C8
0x218C: C0A0 F0D7  MOVFF 0x0A0, 0x0D7
0x2190: C0B9 F0D8  MOVFF 0x0B9, 0x0D8
0x2194: D025       BRA 0x21E0
0x2196: C0A0 F0DB  MOVFF 0x0A0, 0x0DB
0x219A: C0B9 F0DC  MOVFF 0x0B9, 0x0DC
0x219E: D020       BRA 0x21E0
0x21A0: C0A0 F0DF  MOVFF 0x0A0, 0x0DF
0x21A4: C0B9 F0E0  MOVFF 0x0B9, 0x0E0
0x21A8: D01B       BRA 0x21E0
0x21AA: C0A0       DW 0xC0A0
0x21AC: F1D9       DW 0xF1D9
0x21AE: C0B9       DW 0xC0B9
0x21B0: F1DA       DW 0xF1DA
0x21B2: D016       BRA 0x21E0
0x21B4: C0A0 F0E4  MOVFF 0x0A0, 0x0E4
0x21B8: C0B9 F0E5  MOVFF 0x0B9, 0x0E5
0x21BC: D011       BRA 0x21E0
0x21BE: C0A0       DW 0xC0A0
0x21C0: F1E0       DW 0xF1E0
0x21C2: C0B9       DW 0xC0B9
0x21C4: F1E1       DW 0xF1E1
0x21C6: D00C       BRA 0x21E0
0x21C8: 5059       DW 0x5059
0x21CA: E0E0       BZ 0x218C
0x21CC: 0A01       XORLW 0x01
0x21CE: E0E3       BZ 0x2196
0x21D0: 0A03       XORLW 0x03
0x21D2: E0E6       BZ 0x21A0
0x21D4: 0A01       XORLW 0x01
0x21D6: E0E9       BZ 0x21AA
0x21D8: 0A07       XORLW 0x07
0x21DA: E0EC       BZ 0x21B4
0x21DC: 0A01       XORLW 0x01
0x21DE: E0EF       BZ 0x21BE
0x21E0: 2A59       INCF 0x59, F, ACCESS
0x21E2: 0E05       MOVLW 0x05
0x21E4: 6459       DW 0x6459
0x21E6: D7C9       BRA 0x217A
0x21E8: 6A5A       MOVWF 0x5A, ACCESS
0x21EA: D03F       BRA 0x226A
0x21EC: C0D7 F06A  MOVFF 0x0D7, 0x06A
0x21F0: C0D8 F06B  MOVFF 0x0D8, 0x06B
0x21F4: C0D9 F06C  MOVFF 0x0D9, 0x06C
0x21F8: C0DA F06D  MOVFF 0x0DA, 0x06D
0x21FC: D044       BRA 0x2286
0x21FE: C0DB F06A  MOVFF 0x0DB, 0x06A
0x2202: C0DC F06B  MOVFF 0x0DC, 0x06B
0x2206: C0DD F06C  MOVFF 0x0DD, 0x06C
0x220A: C0DE F06D  MOVFF 0x0DE, 0x06D
0x220E: D03B       BRA 0x2286
0x2210: C0DF F06A  MOVFF 0x0DF, 0x06A
0x2214: C0E0 F06B  MOVFF 0x0E0, 0x06B
0x2218: C0E1 F06C  MOVFF 0x0E1, 0x06C
0x221C: C0E2 F06D  MOVFF 0x0E2, 0x06D
0x2220: D032       BRA 0x2286
0x2222: C1D9 F06A  MOVFF 0x1D9, 0x06A
0x2226: C1DA F06B  MOVFF 0x1DA, 0x06B
0x222A: C1DB F06C  MOVFF 0x1DB, 0x06C
0x222E: C1DC F06D  MOVFF 0x1DC, 0x06D
0x2232: D029       BRA 0x2286
0x2234: C0E3 F06A  MOVFF 0x0E3, 0x06A
0x2238: C0E4 F06B  MOVFF 0x0E4, 0x06B
0x223C: C0E5 F06C  MOVFF 0x0E5, 0x06C
0x2240: C0E6 F06D  MOVFF 0x0E6, 0x06D
0x2244: D020       BRA 0x2286
0x2246: C1DD F06A  MOVFF 0x1DD, 0x06A
0x224A: C1DE F06B  MOVFF 0x1DE, 0x06B
0x224E: C1DF F06C  MOVFF 0x1DF, 0x06C
0x2252: C1E0 F06D  MOVFF 0x1E0, 0x06D
0x2256: D017       BRA 0x2286
0x2258: C1E1 F06A  MOVFF 0x1E1, 0x06A
0x225C: C1E2 F06B  MOVFF 0x1E2, 0x06B
0x2260: C1E3 F06C  MOVFF 0x1E3, 0x06C
0x2264: C1E4 F06D  MOVFF 0x1E4, 0x06D
0x2268: D00E       BRA 0x2286
0x226A: 505A       DW 0x505A
0x226C: E0BF       BZ 0x21EC
0x226E: 0A01       XORLW 0x01
0x2270: E0C6       BZ 0x21FE
0x2272: 0A03       XORLW 0x03
0x2274: E0CD       BZ 0x2210
0x2276: 0A01       XORLW 0x01
0x2278: E0D4       BZ 0x2222
0x227A: 0A07       XORLW 0x07
0x227C: E0DB       BZ 0x2234
0x227E: 0A01       XORLW 0x01
0x2280: E0E2       BZ 0x2246
0x2282: 0A03       XORLW 0x03
0x2284: E0E9       BZ 0x2258
0x2286: 80C5       BSF 0xC5, 0, ACCESS
0x2288: B0C5       BTFSC 0xC5, 0, ACCESS
0x228A: D7FE       BRA 0x2288
0x228C: 0E68       MOVLW 0x68
0x228E: EC34 F01F  CALL 0x3E68, 0
0x2292: 0101       MOVLB 0x1
0x2294: 0E0F       MOVLW 0x0F
0x2296: 245A       DW 0x245A
0x2298: 6ED9       DW 0x6ED9
0x229A: 6ADA       MOVWF 0xDA, ACCESS
0x229C: 0E01       MOVLW 0x01
0x229E: 22DA       DW 0x22DA
0x22A0: 50DF       DW 0x50DF
0x22A2: EC34 F01F  CALL 0x3E68, 0
0x22A6: 6A5B       MOVWF 0x5B, ACCESS
0x22A8: 505B       DW 0x505B
0x22AA: 0100       MOVLB 0x0
0x22AC: 0F6A       ADDLW 0x6A
0x22AE: 6ED9       DW 0x6ED9
0x22B0: 6ADA       MOVWF 0xDA, ACCESS
0x22B2: 0E02       MOVLW 0x02
0x22B4: 62DF       NEGF 0xDF, ACCESS
0x22B6: D005       BRA 0x22C2
0x22B8: 6A55       MOVWF 0x55, ACCESS
0x22BA: 6A56       MOVWF 0x56, ACCESS
0x22BC: 6A57       MOVWF 0x57, ACCESS
0x22BE: 0E3F       MOVLW 0x3F
0x22C0: D00C       BRA 0x22DA
0x22C2: 505B       DW 0x505B
0x22C4: 0F6A       ADDLW 0x6A
0x22C6: 6ED9       DW 0x6ED9
0x22C8: 6ADA       MOVWF 0xDA, ACCESS
0x22CA: 0E03       MOVLW 0x03
0x22CC: 62DF       NEGF 0xDF, ACCESS
0x22CE: D007       BRA 0x22DE
0x22D0: 6A55       MOVWF 0x55, ACCESS
0x22D2: 6A56       MOVWF 0x56, ACCESS
0x22D4: 0E80       MOVLW 0x80
0x22D6: 6E57       DW 0x6E57
0x22D8: 0EBF       MOVLW 0xBF
0x22DA: 6E58       DW 0x6E58
0x22DC: D00F       BRA 0x22FC
0x22DE: 505B       DW 0x505B
0x22E0: 0F6A       ADDLW 0x6A
0x22E2: 6ED9       DW 0x6ED9
0x22E4: 6ADA       MOVWF 0xDA, ACCESS
0x22E6: 50DF       DW 0x50DF
0x22E8: ECE7 F022  CALL 0x45CE, 0
0x22EC: C00D F055  MOVFF 0x00D, 0x055
0x22F0: C00E F056  MOVFF 0x00E, 0x056
0x22F4: C00F F057  MOVFF 0x00F, 0x057
0x22F8: C010 F058  MOVFF 0x010, 0x058
0x22FC: C055 F049  MOVFF 0x055, 0x049
0x2300: C056 F04A  MOVFF 0x056, 0x04A
0x2304: C057 F04B  MOVFF 0x057, 0x04B
0x2308: C058 F04C  MOVFF 0x058, 0x04C
0x230C: ECD3 F01C  CALL 0x39A6, 0
0x2310: 2A5B       INCF 0x5B, F, ACCESS
0x2312: 0E03       MOVLW 0x03
0x2314: 645B       DW 0x645B
0x2316: D7C8       BRA 0x22A8
0x2318: 84C5       BSF 0xC5, 2, ACCESS
0x231A: B4C5       BTFSC 0xC5, 2, ACCESS
0x231C: D7FE       BRA 0x231A
0x231E: 2A5A       INCF 0x5A, F, ACCESS
0x2320: 0E06       MOVLW 0x06
0x2322: 645A       DW 0x645A
0x2324: D7A2       BRA 0x226A
0x2326: 0C06       RETLW 0x06
0x2328: C0C1       DW 0xC0C1
0x232A: F15A       DW 0xF15A
0x232C: D0A2       BRA 0x2472
0x232E: C0C2       DW 0xC0C2
0x2330: F15B       DW 0xF15B
0x2332: 0E02       MOVLW 0x02
0x2334: 6E03       DW 0x6E03
0x2336: 0EBE       MOVLW 0xBE
0x2338: 2403       DW 0x2403
0x233A: 6ED9       DW 0x6ED9
0x233C: 6ADA       MOVWF 0xDA, ACCESS
0x233E: 0E02       MOVLW 0x02
0x2340: D8B5       RCALL 0x24AC
0x2342: 0E1F       MOVLW 0x1F
0x2344: 6403       DW 0x6403
0x2346: D7F7       BRA 0x2336
0x2348: D0AE       BRA 0x24A6
0x234A: C0C2       DW 0xC0C2
0x234C: F15B       DW 0xF15B
0x234E: 05C2       DECF 0xC2, W, BSR
0x2350: E105       BNZ 0x235C
0x2352: C0B7       DW 0xC0B7
0x2354: F15C       DW 0xF15C
0x2356: C0B8       DW 0xC0B8
0x2358: F15D       DW 0xF15D
0x235A: D0A5       BRA 0x24A6
0x235C: 51C2       DW 0x51C2
0x235E: 0A02       XORLW 0x02
0x2360: E001       BZ 0x2364
0x2362: D0A1       BRA 0x24A6
0x2364: C0B5       DW 0xC0B5
0x2366: F15E       DW 0xF15E
0x2368: 0E05       MOVLW 0x05
0x236A: 6E03       DW 0x6E03
0x236C: 0EFB       MOVLW 0xFB
0x236E: 2403       DW 0x2403
0x2370: 6ED9       DW 0x6ED9
0x2372: 6ADA       MOVWF 0xDA, ACCESS
0x2374: 0E00       MOVLW 0x00
0x2376: D89A       RCALL 0x24AC
0x2378: 0E13       MOVLW 0x13
0x237A: 6403       DW 0x6403
0x237C: D7F7       BRA 0x236C
0x237E: D093       BRA 0x24A6
0x2380: C093       DW 0xC093
0x2382: F15B       DW 0xF15B
0x2384: C099       DW 0xC099
0x2386: F15C       DW 0xF15C
0x2388: 0101       MOVLB 0x1
0x238A: 6B5D       MOVWF 0x5D, BSR
0x238C: 6B5E       MOVWF 0x5E, BSR
0x238E: C071       DW 0xC071
0x2390: F15F       DW 0xF15F
0x2392: C070       DW 0xC070
0x2394: F160       DW 0xF160
0x2396: C06F       DW 0xC06F
0x2398: F161       DW 0xF161
0x239A: C06E       DW 0xC06E
0x239C: F162       DW 0xF162
0x239E: 0E00       MOVLW 0x00
0x23A0: B85E       BTFSC 0x5E, 4, ACCESS
0x23A2: 0E01       MOVLW 0x01
0x23A4: 6F63       DW 0x6F63
0x23A6: 0E00       MOVLW 0x00
0x23A8: 0100       MOVLB 0x0
0x23AA: B1A4       BTFSC 0xA4, 0, BSR
0x23AC: 0E01       MOVLW 0x01
0x23AE: 0101       MOVLB 0x1
0x23B0: 6F64       DW 0x6F64
0x23B2: 0E00       MOVLW 0x00
0x23B4: 0100       MOVLB 0x0
0x23B6: B3A4       BTFSC 0xA4, 1, BSR
0x23B8: 0E01       MOVLW 0x01
0x23BA: 0101       MOVLB 0x1
0x23BC: 6F65       DW 0x6F65
0x23BE: 0E00       MOVLW 0x00
0x23C0: 0100       MOVLB 0x0
0x23C2: B5A4       BTFSC 0xA4, 2, BSR
0x23C4: 0E01       MOVLW 0x01
0x23C6: 0101       MOVLB 0x1
0x23C8: 6F66       DW 0x6F66
0x23CA: 0E00       MOVLW 0x00
0x23CC: 0100       MOVLB 0x0
0x23CE: B7A4       BTFSC 0xA4, 3, BSR
0x23D0: 0E01       MOVLW 0x01
0x23D2: 0101       MOVLB 0x1
0x23D4: 6F68       DW 0x6F68
0x23D6: 0E00       MOVLW 0x00
0x23D8: 0100       MOVLB 0x0
0x23DA: B9A4       BTFSC 0xA4, 4, BSR
0x23DC: 0E01       MOVLW 0x01
0x23DE: 0101       MOVLB 0x1
0x23E0: 6F69       DW 0x6F69
0x23E2: 0E00       MOVLW 0x00
0x23E4: 0100       MOVLB 0x0
0x23E6: BBA4       BTFSC 0xA4, 5, BSR
0x23E8: 0E01       MOVLW 0x01
0x23EA: 0101       MOVLB 0x1
0x23EC: 6F6A       DW 0x6F6A
0x23EE: C060       DW 0xC060
0x23F0: F16C       DW 0xF16C
0x23F2: C061       DW 0xC061
0x23F4: F16D       DW 0xF16D
0x23F6: C062       DW 0xC062
0x23F8: F16E       DW 0xF16E
0x23FA: C063       DW 0xC063
0x23FC: F16F       DW 0xF16F
0x23FE: C064       DW 0xC064
0x2400: F170       DW 0xF170
0x2402: C065       DW 0xC065
0x2404: F171       DW 0xF171
0x2406: C0B4       DW 0xC0B4
0x2408: F178       DW 0xF178
0x240A: D04D       BRA 0x24A6
0x240C: 0E03       MOVLW 0x03
0x240E: 0101       MOVLB 0x1
0x2410: 6F5B       DW 0x6F5B
0x2412: 0E02       MOVLW 0x02
0x2414: 6F5C       DW 0x6F5C
0x2416: 0E03       MOVLW 0x03
0x2418: 6F5D       DW 0x6F5D
0x241A: C099       DW 0xC099
0x241C: F15E       DW 0xF15E
0x241E: 6B5F       MOVWF 0x5F, BSR
0x2420: 6B60       MOVWF 0x60, BSR
0x2422: 6B61       MOVWF 0x61, BSR
0x2424: C05F       DW 0xC05F
0x2426: F163       DW 0xF163
0x2428: 0E06       MOVLW 0x06
0x242A: 6F64       DW 0x6F64
0x242C: 0E0F       MOVLW 0x0F
0x242E: 6F65       DW 0x6F65
0x2430: 6F66       DW 0x6F66
0x2432: 6F67       DW 0x6F67
0x2434: 6F68       DW 0x6F68
0x2436: 6F69       DW 0x6F69
0x2438: 6F6A       DW 0x6F6A
0x243A: 0E0A       MOVLW 0x0A
0x243C: 6F6B       DW 0x6F6B
0x243E: 6F6C       DW 0x6F6C
0x2440: 6F6D       DW 0x6F6D
0x2442: 6F6E       DW 0x6F6E
0x2444: 6F6F       DW 0x6F6F
0x2446: 6F70       DW 0x6F70
0x2448: 0E01       MOVLW 0x01
0x244A: 6F71       DW 0x6F71
0x244C: 6F72       DW 0x6F72
0x244E: C09B       DW 0xC09B
0x2450: F173       DW 0xF173
0x2452: C09C       DW 0xC09C
0x2454: F174       DW 0xF174
0x2456: C09D       DW 0xC09D
0x2458: F175       DW 0xF175
0x245A: C09E       DW 0xC09E
0x245C: F176       DW 0xF176
0x245E: D023       BRA 0x24A6
0x2460: C11B       DW 0xC11B
0x2462: F15B       DW 0xF15B
0x2464: D020       BRA 0x24A6
0x2466: 0101       MOVLB 0x1
0x2468: 6B5B       MOVWF 0x5B, BSR
0x246A: 6B5C       MOVWF 0x5C, BSR
0x246C: 6B5D       MOVWF 0x5D, BSR
0x246E: 6B5E       MOVWF 0x5E, BSR
0x2470: D01A       BRA 0x24A6
0x2472: 0100       MOVLB 0x0
0x2474: 51C1       DW 0x51C1
0x2476: 0A03       XORLW 0x03
0x2478: E101       BNZ 0x247C
0x247A: D759       BRA 0x232E
0x247C: 0A07       XORLW 0x07
0x247E: E101       BNZ 0x2482
0x2480: D764       BRA 0x234A
0x2482: 0A01       XORLW 0x01
0x2484: E101       BNZ 0x2488
0x2486: D77C       BRA 0x2380
0x2488: 0A03       XORLW 0x03
0x248A: E0C0       BZ 0x240C
0x248C: 0A01       XORLW 0x01
0x248E: E0E8       BZ 0x2460
0x2490: 0A0F       XORLW 0x0F
0x2492: E0E6       BZ 0x2460
0x2494: 0A01       XORLW 0x01
0x2496: E0E4       BZ 0x2460
0x2498: 0A03       XORLW 0x03
0x249A: E0E2       BZ 0x2460
0x249C: 0A01       XORLW 0x01
0x249E: E0E0       BZ 0x2460
0x24A0: 0A07       XORLW 0x07
0x24A2: E0DE       BZ 0x2460
0x24A4: D7E0       BRA 0x2466
0x24A6: 0100       MOVLB 0x0
0x24A8: 6BC1       MOVWF 0xC1, BSR
0x24AA: 0012       RETURN 0
0x24AC: 22DA       DW 0x22DA
0x24AE: 0E5A       MOVLW 0x5A
0x24B0: 2403       DW 0x2403
0x24B2: 6EE1       DW 0x6EE1
0x24B4: 6AE2       MOVWF 0xE2, ACCESS
0x24B6: 0E01       MOVLW 0x01
0x24B8: 22E2       DW 0x22E2
0x24BA: CFDF       DW 0xCFDF
0x24BC: FFE7       DW 0xFFE7
0x24BE: 2A03       INCF 0x03, F, ACCESS
0x24C0: 0012       RETURN 0
0x24C2: C020 F028  MOVFF 0x020, 0x028
0x24C6: C021 F029  MOVFF 0x021, 0x029
0x24CA: C022 F02A  MOVFF 0x022, 0x02A
0x24CE: C023 F02B  MOVFF 0x023, 0x02B
0x24D2: 0E18       MOVLW 0x18
0x24D4: D001       BRA 0x24D8
0x24D6: D8BC       RCALL 0x2650
0x24D8: 2EE8       DECFSZ 0xE8, F, ACCESS
0x24DA: D7FD       BRA 0x24D6
0x24DC: 5028       DW 0x5028
0x24DE: 6E2E       DW 0x6E2E
0x24E0: C024 F028  MOVFF 0x024, 0x028
0x24E4: C025 F029  MOVFF 0x025, 0x029
0x24E8: C026 F02A  MOVFF 0x026, 0x02A
0x24EC: C027 F02B  MOVFF 0x027, 0x02B
0x24F0: 0E18       MOVLW 0x18
0x24F2: D001       BRA 0x24F6
0x24F4: D8AD       RCALL 0x2650
0x24F6: 2EE8       DECFSZ 0xE8, F, ACCESS
0x24F8: D7FD       BRA 0x24F4
0x24FA: 5028       DW 0x5028
0x24FC: 6E2D       DW 0x6E2D
0x24FE: 502E       DW 0x502E
0x2500: E009       BZ 0x2514
0x2502: 502D       DW 0x502D
0x2504: 5C2E       DW 0x5C2E
0x2506: E20F       BC 0x2526
0x2508: 502E       DW 0x502E
0x250A: 5C2D       DW 0x5C2D
0x250C: 6E28       DW 0x6E28
0x250E: 0E21       MOVLW 0x21
0x2510: 5C28       DW 0x5C28
0x2512: E309       BNC 0x2526
0x2514: C024 F020  MOVFF 0x024, 0x020
0x2518: C025 F021  MOVFF 0x025, 0x021
0x251C: C026 F022  MOVFF 0x026, 0x022
0x2520: C027 F023  MOVFF 0x027, 0x023
0x2524: D08B       BRA 0x263C
0x2526: 502D       DW 0x502D
0x2528: E009       BZ 0x253C
0x252A: 502E       DW 0x502E
0x252C: 5C2D       DW 0x5C2D
0x252E: E20F       BC 0x254E
0x2530: 502D       DW 0x502D
0x2532: 5C2E       DW 0x5C2E
0x2534: 6E28       DW 0x6E28
0x2536: 0E21       MOVLW 0x21
0x2538: 5C28       DW 0x5C28
0x253A: E309       BNC 0x254E
0x253C: C020 F020  MOVFF 0x020, 0x020
0x2540: C021 F021  MOVFF 0x021, 0x021
0x2544: C022 F022  MOVFF 0x022, 0x022
0x2548: C023 F023  MOVFF 0x023, 0x023
0x254C: D077       BRA 0x263C
0x254E: 0E06       MOVLW 0x06
0x2550: 6E2C       DW 0x6E2C
0x2552: BE23       BTFSC 0x23, 7, ACCESS
0x2554: 8E2C       BSF 0x2C, 7, ACCESS
0x2556: BE27       BTFSC 0x27, 7, ACCESS
0x2558: 8C2C       BSF 0x2C, 6, ACCESS
0x255A: 8E22       BSF 0x22, 7, ACCESS
0x255C: 6A23       MOVWF 0x23, ACCESS
0x255E: 8E26       BSF 0x26, 7, ACCESS
0x2560: 6A27       MOVWF 0x27, ACCESS
0x2562: 502D       DW 0x502D
0x2564: 5C2E       DW 0x5C2E
0x2566: E21A       BC 0x259C
0x2568: 90D8       BCF 0xD8, 0, ACCESS
0x256A: 3624       DW 0x3624
0x256C: 3625       DW 0x3625
0x256E: 3626       DW 0x3626
0x2570: 3627       DW 0x3627
0x2572: 062D       DECF 0x2D, F, ACCESS
0x2574: 502D       DW 0x502D
0x2576: 182E       XORWF 0x2E, W, ACCESS
0x2578: E00D       BZ 0x2594
0x257A: 062C       DECF 0x2C, F, ACCESS
0x257C: C02C F028  MOVFF 0x02C, 0x028
0x2580: 0E07       MOVLW 0x07
0x2582: 1628       ANDWF 0x28, F, ACCESS
0x2584: E007       BZ 0x2594
0x2586: D7F0       BRA 0x2568
0x2588: 90D8       BCF 0xD8, 0, ACCESS
0x258A: 3223       DW 0x3223
0x258C: 3222       DW 0x3222
0x258E: 3221       DW 0x3221
0x2590: 3220       DW 0x3220
0x2592: 2A2E       INCF 0x2E, F, ACCESS
0x2594: 502D       DW 0x502D
0x2596: 622E       NEGF 0x2E, ACCESS
0x2598: D7F7       BRA 0x2588
0x259A: D01C       BRA 0x25D4
0x259C: 502E       DW 0x502E
0x259E: 5C2D       DW 0x5C2D
0x25A0: E219       BC 0x25D4
0x25A2: 90D8       BCF 0xD8, 0, ACCESS
0x25A4: 3620       DW 0x3620
0x25A6: 3621       DW 0x3621
0x25A8: 3622       DW 0x3622
0x25AA: 3623       DW 0x3623
0x25AC: 062E       DECF 0x2E, F, ACCESS
0x25AE: 502D       DW 0x502D
0x25B0: 182E       XORWF 0x2E, W, ACCESS
0x25B2: E00D       BZ 0x25CE
0x25B4: 062C       DECF 0x2C, F, ACCESS
0x25B6: C02C F028  MOVFF 0x02C, 0x028
0x25BA: 0E07       MOVLW 0x07
0x25BC: 1628       ANDWF 0x28, F, ACCESS
0x25BE: E007       BZ 0x25CE
0x25C0: D7F0       BRA 0x25A2
0x25C2: 90D8       BCF 0xD8, 0, ACCESS
0x25C4: 3227       DW 0x3227
0x25C6: 3226       DW 0x3226
0x25C8: 3225       DW 0x3225
0x25CA: 3224       DW 0x3224
0x25CC: 2A2D       INCF 0x2D, F, ACCESS
0x25CE: 502D       DW 0x502D
0x25D0: 622E       NEGF 0x2E, ACCESS
0x25D2: D7F7       BRA 0x25C2
0x25D4: AE2C       BTFSS 0x2C, 7, ACCESS
0x25D6: D009       BRA 0x25EA
0x25D8: 1E20       DW 0x1E20
0x25DA: 1E21       DW 0x1E21
0x25DC: 1E22       DW 0x1E22
0x25DE: 1E23       DW 0x1E23
0x25E0: 2A20       INCF 0x20, F, ACCESS
0x25E2: 0E00       MOVLW 0x00
0x25E4: 2221       DW 0x2221
0x25E6: 2222       DW 0x2222
0x25E8: 2223       DW 0x2223
0x25EA: AC2C       BTFSS 0x2C, 6, ACCESS
0x25EC: D002       BRA 0x25F2
0x25EE: 1E24       DW 0x1E24
0x25F0: D826       RCALL 0x263E
0x25F2: 6A2C       MOVWF 0x2C, ACCESS
0x25F4: 5020       DW 0x5020
0x25F6: 2624       DW 0x2624
0x25F8: 5021       DW 0x5021
0x25FA: 2225       DW 0x2225
0x25FC: 5022       DW 0x5022
0x25FE: 2226       DW 0x2226
0x2600: 5023       DW 0x5023
0x2602: 2227       DW 0x2227
0x2604: AE27       BTFSS 0x27, 7, ACCESS
0x2606: D004       BRA 0x2610
0x2608: 1E24       DW 0x1E24
0x260A: D819       RCALL 0x263E
0x260C: 0E01       MOVLW 0x01
0x260E: 6E2C       DW 0x6E2C
0x2610: C024 F003  MOVFF 0x024, 0x003
0x2614: C025 F004  MOVFF 0x025, 0x004
0x2618: C026 F005  MOVFF 0x026, 0x005
0x261C: C027 F006  MOVFF 0x027, 0x006
0x2620: C02E F007  MOVFF 0x02E, 0x007
0x2624: C02C F008  MOVFF 0x02C, 0x008
0x2628: EC6C F018  CALL 0x30D8, 0
0x262C: C003 F020  MOVFF 0x003, 0x020
0x2630: C004 F021  MOVFF 0x004, 0x021
0x2634: C005 F022  MOVFF 0x005, 0x022
0x2638: C006 F023  MOVFF 0x006, 0x023
0x263C: 0012       RETURN 0
0x263E: 1E25       DW 0x1E25
0x2640: 1E26       DW 0x1E26
0x2642: 1E27       DW 0x1E27
0x2644: 2A24       INCF 0x24, F, ACCESS
0x2646: 0E00       MOVLW 0x00
0x2648: 2225       DW 0x2225
0x264A: 2226       DW 0x2226
0x264C: 2227       DW 0x2227
0x264E: 0C00       RETLW 0x00
0x2650: 90D8       BCF 0xD8, 0, ACCESS
0x2652: 322B       DW 0x322B
0x2654: 322A       DW 0x322A
0x2656: 3229       DW 0x3229
0x2658: 3228       DW 0x3228
0x265A: 0012       RETURN 0
0x265C: 0100       MOVLB 0x0
0x265E: A17E       BTFSS 0x7E, 0, BSR
0x2660: D0C6       BRA 0x27EE
0x2662: A1BD       BTFSS 0xBD, 0, BSR
0x2664: D033       BRA 0x26CC
0x2666: 6A08       MOVWF 0x08, ACCESS
0x2668: 0E03       MOVLW 0x03
0x266A: 6E07       DW 0x6E07
0x266C: C06E F009  MOVFF 0x06E, 0x009
0x2670: EC6F F023  CALL 0x46DE, 0
0x2674: 6A08       MOVWF 0x08, ACCESS
0x2676: 0E02       MOVLW 0x02
0x2678: 6E07       DW 0x6E07
0x267A: C06F F009  MOVFF 0x06F, 0x009
0x267E: EC6F F023  CALL 0x46DE, 0
0x2682: 6A08       MOVWF 0x08, ACCESS
0x2684: 0E01       MOVLW 0x01
0x2686: 6E07       DW 0x6E07
0x2688: C070 F009  MOVFF 0x070, 0x009
0x268C: EC6F F023  CALL 0x46DE, 0
0x2690: 0E00       MOVLW 0x00
0x2692: 6A08       MOVWF 0x08, ACCESS
0x2694: 6A07       MOVWF 0x07, ACCESS
0x2696: C071 F009  MOVFF 0x071, 0x009
0x269A: EC6F F023  CALL 0x46DE, 0
0x269E: 6A08       MOVWF 0x08, ACCESS
0x26A0: 0E04       MOVLW 0x04
0x26A2: 6E07       DW 0x6E07
0x26A4: C099 F009  MOVFF 0x099, 0x009
0x26A8: EC6F F023  CALL 0x46DE, 0
0x26AC: 6A08       MOVWF 0x08, ACCESS
0x26AE: 0E0D       MOVLW 0x0D
0x26B0: 6E07       DW 0x6E07
0x26B2: C05F F009  MOVFF 0x05F, 0x009
0x26B6: EC6F F023  CALL 0x46DE, 0
0x26BA: 6A08       MOVWF 0x08, ACCESS
0x26BC: 0E14       MOVLW 0x14
0x26BE: 6E07       DW 0x6E07
0x26C0: C0C3 F009  MOVFF 0x0C3, 0x009
0x26C4: EC6F F023  CALL 0x46DE, 0
0x26C8: 0100       MOVLB 0x0
0x26CA: 91BD       BCF 0xBD, 0, BSR
0x26CC: A3BD       BTFSS 0xBD, 1, BSR
0x26CE: D02C       BRA 0x2728
0x26D0: 6A08       MOVWF 0x08, ACCESS
0x26D2: 0E07       MOVLW 0x07
0x26D4: 6E07       DW 0x6E07
0x26D6: C060 F009  MOVFF 0x060, 0x009
0x26DA: EC6F F023  CALL 0x46DE, 0
0x26DE: 6A08       MOVWF 0x08, ACCESS
0x26E0: 0E08       MOVLW 0x08
0x26E2: 6E07       DW 0x6E07
0x26E4: C061 F009  MOVFF 0x061, 0x009
0x26E8: EC6F F023  CALL 0x46DE, 0
0x26EC: 6A08       MOVWF 0x08, ACCESS
0x26EE: 0E09       MOVLW 0x09
0x26F0: 6E07       DW 0x6E07
0x26F2: C062 F009  MOVFF 0x062, 0x009
0x26F6: EC6F F023  CALL 0x46DE, 0
0x26FA: 6A08       MOVWF 0x08, ACCESS
0x26FC: 0E0A       MOVLW 0x0A
0x26FE: 6E07       DW 0x6E07
0x2700: C063 F009  MOVFF 0x063, 0x009
0x2704: EC6F F023  CALL 0x46DE, 0
0x2708: 6A08       MOVWF 0x08, ACCESS
0x270A: 0E0B       MOVLW 0x0B
0x270C: 6E07       DW 0x6E07
0x270E: C064 F009  MOVFF 0x064, 0x009
0x2712: EC6F F023  CALL 0x46DE, 0
0x2716: 6A08       MOVWF 0x08, ACCESS
0x2718: 0E0C       MOVLW 0x0C
0x271A: 6E07       DW 0x6E07
0x271C: C065 F009  MOVFF 0x065, 0x009
0x2720: EC6F F023  CALL 0x46DE, 0
0x2724: 0100       MOVLB 0x0
0x2726: 93BD       BCF 0xBD, 1, BSR
0x2728: A5BD       BTFSS 0xBD, 2, BSR
0x272A: D010       BRA 0x274C
0x272C: 6A08       MOVWF 0x08, ACCESS
0x272E: 0E0F       MOVLW 0x0F
0x2730: 6E07       DW 0x6E07
0x2732: C0B4 F009  MOVFF 0x0B4, 0x009
0x2736: EC6F F023  CALL 0x46DE, 0
0x273A: 6A08       MOVWF 0x08, ACCESS
0x273C: 0E0E       MOVLW 0x0E
0x273E: 6E07       DW 0x6E07
0x2740: C0B8 F009  MOVFF 0x0B8, 0x009
0x2744: EC6F F023  CALL 0x46DE, 0
0x2748: 0100       MOVLB 0x0
0x274A: 95BD       BCF 0xBD, 2, BSR
0x274C: A7BD       BTFSS 0xBD, 3, BSR
0x274E: D01E       BRA 0x278C
0x2750: 6A08       MOVWF 0x08, ACCESS
0x2752: 0E10       MOVLW 0x10
0x2754: 6E07       DW 0x6E07
0x2756: C09B F009  MOVFF 0x09B, 0x009
0x275A: EC6F F023  CALL 0x46DE, 0
0x275E: 6A08       MOVWF 0x08, ACCESS
0x2760: 0E11       MOVLW 0x11
0x2762: 6E07       DW 0x6E07
0x2764: C09C F009  MOVFF 0x09C, 0x009
0x2768: EC6F F023  CALL 0x46DE, 0
0x276C: 6A08       MOVWF 0x08, ACCESS
0x276E: 0E12       MOVLW 0x12
0x2770: 6E07       DW 0x6E07
0x2772: C09D F009  MOVFF 0x09D, 0x009
0x2776: EC6F F023  CALL 0x46DE, 0
0x277A: 6A08       MOVWF 0x08, ACCESS
0x277C: 0E13       MOVLW 0x13
0x277E: 6E07       DW 0x6E07
0x2780: C09E F009  MOVFF 0x09E, 0x009
0x2784: EC6F F023  CALL 0x46DE, 0
0x2788: 0100       MOVLB 0x0
0x278A: 97BD       BCF 0xBD, 3, BSR
0x278C: A9BD       BTFSS 0xBD, 4, BSR
0x278E: D016       BRA 0x27BC
0x2790: 0E50       MOVLW 0x50
0x2792: 6E0A       DW 0x6E0A
0x2794: C00A F007  MOVFF 0x00A, 0x007
0x2798: 6A08       MOVWF 0x08, ACCESS
0x279A: 0101       MOVLB 0x1
0x279C: 0EB0       MOVLW 0xB0
0x279E: 240A       DW 0x240A
0x27A0: 6ED9       DW 0x6ED9
0x27A2: 6ADA       MOVWF 0xDA, ACCESS
0x27A4: 0E00       MOVLW 0x00
0x27A6: 22DA       DW 0x22DA
0x27A8: 50DF       DW 0x50DF
0x27AA: 6E09       DW 0x6E09
0x27AC: EC6F F023  CALL 0x46DE, 0
0x27B0: 2A0A       INCF 0x0A, F, ACCESS
0x27B2: 0E5E       MOVLW 0x5E
0x27B4: 640A       DW 0x640A
0x27B6: D7EE       BRA 0x2794
0x27B8: 0100       MOVLB 0x0
0x27BA: 99BD       BCF 0xBD, 4, BSR
0x27BC: ABBD       BTFSS 0xBD, 5, BSR
0x27BE: D016       BRA 0x27EC
0x27C0: 0E60       MOVLW 0x60
0x27C2: 6E0A       DW 0x6E0A
0x27C4: C00A F007  MOVFF 0x00A, 0x007
0x27C8: 6A08       MOVWF 0x08, ACCESS
0x27CA: 0102       MOVLB 0x2
0x27CC: 0E60       MOVLW 0x60
0x27CE: 240A       DW 0x240A
0x27D0: 6ED9       DW 0x6ED9
0x27D2: 6ADA       MOVWF 0xDA, ACCESS
0x27D4: 0E02       MOVLW 0x02
0x27D6: 22DA       DW 0x22DA
0x27D8: 50DF       DW 0x50DF
0x27DA: 6E09       DW 0x6E09
0x27DC: EC6F F023  CALL 0x46DE, 0
0x27E0: 2A0A       INCF 0x0A, F, ACCESS
0x27E2: 0E7D       MOVLW 0x7D
0x27E4: 640A       DW 0x640A
0x27E6: D7EE       BRA 0x27C4
0x27E8: 0100       MOVLB 0x0
0x27EA: 9BBD       BCF 0xBD, 5, BSR
0x27EC: 917E       BCF 0x7E, 0, BSR
0x27EE: 0012       RETURN 0
0x27F0: A65E       BTFSS 0x5E, 3, ACCESS
0x27F2: D0C4       BRA 0x297C
0x27F4: 0E64       MOVLW 0x64
0x27F6: 0100       MOVLB 0x0
0x27F8: 65BB       DW 0x65BB
0x27FA: D0BF       BRA 0x297A
0x27FC: 6BBB       MOVWF 0xBB, BSR
0x27FE: D055       BRA 0x28AA
0x2800: 51B6       DW 0x51B6
0x2802: 0F08       ADDLW 0x08
0x2804: 6FBE       DW 0x6FBE
0x2806: D063       BRA 0x28CE
0x2808: 6B93       MOVWF 0x93, BSR
0x280A: D061       BRA 0x28CE
0x280C: 0E01       MOVLW 0x01
0x280E: 6F93       DW 0x6F93
0x2810: 505F       DW 0x505F
0x2812: E05D       BZ 0x28CE
0x2814: 0E05       MOVLW 0x05
0x2816: D047       BRA 0x28A6
0x2818: 0E02       MOVLW 0x02
0x281A: 6F93       DW 0x6F93
0x281C: 045F       DECF 0x5F, W, ACCESS
0x281E: E102       BNZ 0x2824
0x2820: 0E01       MOVLW 0x01
0x2822: 6F93       DW 0x6F93
0x2824: 0E01       MOVLW 0x01
0x2826: 645F       DW 0x645F
0x2828: D052       BRA 0x28CE
0x282A: 0E06       MOVLW 0x06
0x282C: D03C       BRA 0x28A6
0x282E: 0E03       MOVLW 0x03
0x2830: 6F93       DW 0x6F93
0x2832: 045F       DECF 0x5F, W, ACCESS
0x2834: E102       BNZ 0x283A
0x2836: 0E02       MOVLW 0x02
0x2838: 6F93       DW 0x6F93
0x283A: 505F       DW 0x505F
0x283C: 0A02       XORLW 0x02
0x283E: E102       BNZ 0x2844
0x2840: 0E01       MOVLW 0x01
0x2842: 6F93       DW 0x6F93
0x2844: 505F       DW 0x505F
0x2846: 0A03       XORLW 0x03
0x2848: E142       BNZ 0x28CE
0x284A: 0E07       MOVLW 0x07
0x284C: D02C       BRA 0x28A6
0x284E: 0E04       MOVLW 0x04
0x2850: 6F93       DW 0x6F93
0x2852: 045F       DECF 0x5F, W, ACCESS
0x2854: E102       BNZ 0x285A
0x2856: 0E03       MOVLW 0x03
0x2858: 6F93       DW 0x6F93
0x285A: 505F       DW 0x505F
0x285C: 0A02       XORLW 0x02
0x285E: E102       BNZ 0x2864
0x2860: 0E02       MOVLW 0x02
0x2862: 6F93       DW 0x6F93
0x2864: 505F       DW 0x505F
0x2866: 0A03       XORLW 0x03
0x2868: E132       BNZ 0x28CE
0x286A: 0E01       MOVLW 0x01
0x286C: D01C       BRA 0x28A6
0x286E: 045F       DECF 0x5F, W, ACCESS
0x2870: E102       BNZ 0x2876
0x2872: 0E04       MOVLW 0x04
0x2874: 6F93       DW 0x6F93
0x2876: 505F       DW 0x505F
0x2878: 0A02       XORLW 0x02
0x287A: E102       BNZ 0x2880
0x287C: 0E03       MOVLW 0x03
0x287E: 6F93       DW 0x6F93
0x2880: 505F       DW 0x505F
0x2882: 0A03       XORLW 0x03
0x2884: E124       BNZ 0x28CE
0x2886: 0E02       MOVLW 0x02
0x2888: D00E       BRA 0x28A6
0x288A: 505F       DW 0x505F
0x288C: 0A02       XORLW 0x02
0x288E: E102       BNZ 0x2894
0x2890: 0E04       MOVLW 0x04
0x2892: 6F93       DW 0x6F93
0x2894: 505F       DW 0x505F
0x2896: 0A03       XORLW 0x03
0x2898: E11A       BNZ 0x28CE
0x289A: 0E03       MOVLW 0x03
0x289C: D004       BRA 0x28A6
0x289E: 505F       DW 0x505F
0x28A0: 0A03       XORLW 0x03
0x28A2: E115       BNZ 0x28CE
0x28A4: 0E04       MOVLW 0x04
0x28A6: 6F93       DW 0x6F93
0x28A8: D012       BRA 0x28CE
0x28AA: 5199       DW 0x5199
0x28AC: E0A9       BZ 0x2800
0x28AE: 0A01       XORLW 0x01
0x28B0: E0AB       BZ 0x2808
0x28B2: 0A03       XORLW 0x03
0x28B4: E0AB       BZ 0x280C
0x28B6: 0A01       XORLW 0x01
0x28B8: E0AF       BZ 0x2818
0x28BA: 0A07       XORLW 0x07
0x28BC: E0B8       BZ 0x282E
0x28BE: 0A01       XORLW 0x01
0x28C0: E0C6       BZ 0x284E
0x28C2: 0A03       XORLW 0x03
0x28C4: E0D4       BZ 0x286E
0x28C6: 0A01       XORLW 0x01
0x28C8: E0E0       BZ 0x288A
0x28CA: 0A0F       XORLW 0x0F
0x28CC: E0E8       BZ 0x289E
0x28CE: 6799       DW 0x6799
0x28D0: D018       BRA 0x2902
0x28D2: C0BE F006  MOVFF 0x0BE, 0x006
0x28D6: 0E0D       MOVLW 0x0D
0x28D8: EC5D F023  CALL 0x46BA, 0
0x28DC: 0E13       MOVLW 0x13
0x28DE: EC1E F021  CALL 0x423C, 0
0x28E2: 0100       MOVLB 0x0
0x28E4: 6FBE       DW 0x6FBE
0x28E6: 67BE       DW 0x67BE
0x28E8: D010       BRA 0x290A
0x28EA: 6B93       MOVWF 0x93, BSR
0x28EC: 0E0A       MOVLW 0x0A
0x28EE: 65BA       DW 0x65BA
0x28F0: D00A       BRA 0x2906
0x28F2: 6BBA       MOVWF 0xBA, BSR
0x28F4: 0E04       MOVLW 0x04
0x28F6: 5DB6       DW 0x5DB6
0x28F8: A0D8       BTFSS 0xD8, 0, ACCESS
0x28FA: 2BB6       INCF 0xB6, F, BSR
0x28FC: 51B6       DW 0x51B6
0x28FE: 0A04       XORLW 0x04
0x2900: E12D       BNZ 0x295C
0x2902: 6BB6       MOVWF 0xB6, BSR
0x2904: D02B       BRA 0x295C
0x2906: 2BBA       INCF 0xBA, F, BSR
0x2908: D029       BRA 0x295C
0x290A: 67B6       DW 0x67B6
0x290C: D002       BRA 0x2912
0x290E: 0E03       MOVLW 0x03
0x2910: 6F93       DW 0x6F93
0x2912: 05B6       DECF 0xB6, W, BSR
0x2914: E102       BNZ 0x291A
0x2916: 0E01       MOVLW 0x01
0x2918: 6F93       DW 0x6F93
0x291A: 51B6       DW 0x51B6
0x291C: 0A02       XORLW 0x02
0x291E: E102       BNZ 0x2924
0x2920: 0E02       MOVLW 0x02
0x2922: 6F93       DW 0x6F93
0x2924: 51B6       DW 0x51B6
0x2926: 0A03       XORLW 0x03
0x2928: E102       BNZ 0x292E
0x292A: 0E04       MOVLW 0x04
0x292C: 6F93       DW 0x6F93
0x292E: 0E12       MOVLW 0x12
0x2930: EC1E F021  CALL 0x423C, 0
0x2934: 0100       MOVLB 0x0
0x2936: 6FBF       DW 0x6FBF
0x2938: 51BF       DW 0x51BF
0x293A: A4D8       BTFSS 0xD8, 2, ACCESS
0x293C: 885E       BSF 0x5E, 4, ACCESS
0x293E: 0E01       MOVLW 0x01
0x2940: A85E       BTFSS 0x5E, 4, ACCESS
0x2942: 0E00       MOVLW 0x00
0x2944: 6E08       DW 0x6E08
0x2946: 0E01       MOVLW 0x01
0x2948: AA5E       BTFSS 0x5E, 5, ACCESS
0x294A: 0E00       MOVLW 0x00
0x294C: 1A08       XORWF 0x08, F, ACCESS
0x294E: A4D8       BTFSS 0xD8, 2, ACCESS
0x2950: 8B7E       BSF 0x7E, 5, BSR
0x2952: A85E       BTFSS 0x5E, 4, ACCESS
0x2954: D002       BRA 0x295A
0x2956: 8A5E       BSF 0x5E, 5, ACCESS
0x2958: D001       BRA 0x295C
0x295A: 9A5E       BCF 0x5E, 5, ACCESS
0x295C: 0100       MOVLB 0x0
0x295E: 5193       DW 0x5193
0x2960: 0A02       XORLW 0x02
0x2962: B4D8       BTFSC 0xD8, 2, ACCESS
0x2964: B082       BTFSC 0x82, 0, ACCESS
0x2966: D002       BRA 0x296C
0x2968: C0C3 F093  MOVFF 0x0C3, 0x093
0x296C: 51AB       DW 0x51AB
0x296E: 1993       XORWF 0x93, W, BSR
0x2970: A4D8       BTFSS 0xD8, 2, ACCESS
0x2972: 837E       BSF 0x7E, 1, BSR
0x2974: C093 F0AB  MOVFF 0x093, 0x0AB
0x2978: D001       BRA 0x297C
0x297A: 2BBB       INCF 0xBB, F, BSR
0x297C: 0012       RETURN 0
0x297E: 6A11       MOVWF 0x11, ACCESS
0x2980: 6A12       MOVWF 0x12, ACCESS
0x2982: 0E80       MOVLW 0x80
0x2984: 6E13       DW 0x6E13
0x2986: 0E44       MOVLW 0x44
0x2988: 6E14       DW 0x6E14
0x298A: C02F F00D  MOVFF 0x02F, 0x00D
0x298E: C030 F00E  MOVFF 0x030, 0x00E
0x2992: C031 F00F  MOVFF 0x031, 0x00F
0x2996: C032 F010  MOVFF 0x032, 0x010
0x299A: EC54 F016  CALL 0x2CA8, 0
0x299E: C00D F020  MOVFF 0x00D, 0x020
0x29A2: C00E F021  MOVFF 0x00E, 0x021
0x29A6: C00F F022  MOVFF 0x00F, 0x022
0x29AA: C010 F023  MOVFF 0x010, 0x023
0x29AE: 6A24       MOVWF 0x24, ACCESS
0x29B0: 6A25       MOVWF 0x25, ACCESS
0x29B2: 0E80       MOVLW 0x80
0x29B4: 6E26       DW 0x6E26
0x29B6: 0E3F       MOVLW 0x3F
0x29B8: 6E27       DW 0x6E27
0x29BA: EC61 F012  CALL 0x24C2, 0
0x29BE: C020 F02F  MOVFF 0x020, 0x02F
0x29C2: C021 F030  MOVFF 0x021, 0x030
0x29C6: C022 F031  MOVFF 0x022, 0x031
0x29CA: C023 F032  MOVFF 0x023, 0x032
0x29CE: C02F F025  MOVFF 0x02F, 0x025
0x29D2: C030 F026  MOVFF 0x030, 0x026
0x29D6: C031 F027  MOVFF 0x031, 0x027
0x29DA: C032 F028  MOVFF 0x032, 0x028
0x29DE: 0E2F       MOVLW 0x2F
0x29E0: EC62 F01F  CALL 0x3EC4, 0
0x29E4: C02F F025  MOVFF 0x02F, 0x025
0x29E8: C030 F026  MOVFF 0x030, 0x026
0x29EC: C031 F027  MOVFF 0x031, 0x027
0x29F0: C032 F028  MOVFF 0x032, 0x028
0x29F4: 0E2F       MOVLW 0x2F
0x29F6: EC62 F01F  CALL 0x3EC4, 0
0x29FA: C02F F025  MOVFF 0x02F, 0x025
0x29FE: C030 F026  MOVFF 0x030, 0x026
0x2A02: C031 F027  MOVFF 0x031, 0x027
0x2A06: C032 F028  MOVFF 0x032, 0x028
0x2A0A: 0E2F       MOVLW 0x2F
0x2A0C: EC62 F01F  CALL 0x3EC4, 0
0x2A10: C02F F025  MOVFF 0x02F, 0x025
0x2A14: C030 F026  MOVFF 0x030, 0x026
0x2A18: C031 F027  MOVFF 0x031, 0x027
0x2A1C: C032 F028  MOVFF 0x032, 0x028
0x2A20: 0E2F       MOVLW 0x2F
0x2A22: EC62 F01F  CALL 0x3EC4, 0
0x2A26: C02F F025  MOVFF 0x02F, 0x025
0x2A2A: C030 F026  MOVFF 0x030, 0x026
0x2A2E: C031 F027  MOVFF 0x031, 0x027
0x2A32: C032 F028  MOVFF 0x032, 0x028
0x2A36: 0E2F       MOVLW 0x2F
0x2A38: EC62 F01F  CALL 0x3EC4, 0
0x2A3C: C02F F025  MOVFF 0x02F, 0x025
0x2A40: C030 F026  MOVFF 0x030, 0x026
0x2A44: C031 F027  MOVFF 0x031, 0x027
0x2A48: C032 F028  MOVFF 0x032, 0x028
0x2A4C: 0E2F       MOVLW 0x2F
0x2A4E: EC62 F01F  CALL 0x3EC4, 0
0x2A52: C02F F025  MOVFF 0x02F, 0x025
0x2A56: C030 F026  MOVFF 0x030, 0x026
0x2A5A: C031 F027  MOVFF 0x031, 0x027
0x2A5E: C032 F028  MOVFF 0x032, 0x028
0x2A62: 0E2F       MOVLW 0x2F
0x2A64: EC62 F01F  CALL 0x3EC4, 0
0x2A68: C02F F025  MOVFF 0x02F, 0x025
0x2A6C: C030 F026  MOVFF 0x030, 0x026
0x2A70: C031 F027  MOVFF 0x031, 0x027
0x2A74: C032 F028  MOVFF 0x032, 0x028
0x2A78: 0E2F       MOVLW 0x2F
0x2A7A: EC62 F01F  CALL 0x3EC4, 0
0x2A7E: C02F F025  MOVFF 0x02F, 0x025
0x2A82: C030 F026  MOVFF 0x030, 0x026
0x2A86: C031 F027  MOVFF 0x031, 0x027
0x2A8A: C032 F028  MOVFF 0x032, 0x028
0x2A8E: 0E2F       MOVLW 0x2F
0x2A90: EC62 F01F  CALL 0x3EC4, 0
0x2A94: C02F F025  MOVFF 0x02F, 0x025
0x2A98: C030 F026  MOVFF 0x030, 0x026
0x2A9C: C031 F027  MOVFF 0x031, 0x027
0x2AA0: C032 F028  MOVFF 0x032, 0x028
0x2AA4: 0E2F       MOVLW 0x2F
0x2AA6: EC62 F01F  CALL 0x3EC4, 0
0x2AAA: C02F F02F  MOVFF 0x02F, 0x02F
0x2AAE: C030 F030  MOVFF 0x030, 0x030
0x2AB2: C031 F031  MOVFF 0x031, 0x031
0x2AB6: C032 F032  MOVFF 0x032, 0x032
0x2ABA: 0012       RETURN 0
0x2ABC: C012 F01A  MOVFF 0x012, 0x01A
0x2AC0: C013 F01B  MOVFF 0x013, 0x01B
0x2AC4: C014 F01C  MOVFF 0x014, 0x01C
0x2AC8: C015 F01D  MOVFF 0x015, 0x01D
0x2ACC: 0E18       MOVLW 0x18
0x2ACE: D001       BRA 0x2AD2
0x2AD0: D86D       RCALL 0x2BAC
0x2AD2: 2EE8       DECFSZ 0xE8, F, ACCESS
0x2AD4: D7FD       BRA 0x2AD0
0x2AD6: 501A       DW 0x501A
0x2AD8: 6E1E       DW 0x6E1E
0x2ADA: 661E       DW 0x661E
0x2ADC: D001       BRA 0x2AE0
0x2ADE: D011       BRA 0x2B02
0x2AE0: C016 F01A  MOVFF 0x016, 0x01A
0x2AE4: C017 F01B  MOVFF 0x017, 0x01B
0x2AE8: C018 F01C  MOVFF 0x018, 0x01C
0x2AEC: C019 F01D  MOVFF 0x019, 0x01D
0x2AF0: 0E18       MOVLW 0x18
0x2AF2: D001       BRA 0x2AF6
0x2AF4: D85B       RCALL 0x2BAC
0x2AF6: 2EE8       DECFSZ 0xE8, F, ACCESS
0x2AF8: D7FD       BRA 0x2AF4
0x2AFA: 501A       DW 0x501A
0x2AFC: 6E24       DW 0x6E24
0x2AFE: 6624       DW 0x6624
0x2B00: D005       BRA 0x2B0C
0x2B02: 6A12       MOVWF 0x12, ACCESS
0x2B04: 6A13       MOVWF 0x13, ACCESS
0x2B06: 6A14       MOVWF 0x14, ACCESS
0x2B08: 6A15       MOVWF 0x15, ACCESS
0x2B0A: D040       BRA 0x2B8C
0x2B0C: 5024       DW 0x5024
0x2B0E: 0F7B       ADDLW 0x7B
0x2B10: 261E       DW 0x261E
0x2B12: C015 F024  MOVFF 0x015, 0x024
0x2B16: 5019       DW 0x5019
0x2B18: 1A24       XORWF 0x24, F, ACCESS
0x2B1A: 0E80       MOVLW 0x80
0x2B1C: 1624       ANDWF 0x24, F, ACCESS
0x2B1E: 8E14       BSF 0x14, 7, ACCESS
0x2B20: 8E18       BSF 0x18, 7, ACCESS
0x2B22: 6A19       MOVWF 0x19, ACCESS
0x2B24: 6A1F       MOVWF 0x1F, ACCESS
0x2B26: 6A20       MOVWF 0x20, ACCESS
0x2B28: 6A21       MOVWF 0x21, ACCESS
0x2B2A: 6A22       MOVWF 0x22, ACCESS
0x2B2C: 0E07       MOVLW 0x07
0x2B2E: 6E23       DW 0x6E23
0x2B30: A012       BTFSS 0x12, 0, ACCESS
0x2B32: D002       BRA 0x2B38
0x2B34: 5016       DW 0x5016
0x2B36: D82B       RCALL 0x2B8E
0x2B38: D832       RCALL 0x2B9E
0x2B3A: 3616       DW 0x3616
0x2B3C: 3617       DW 0x3617
0x2B3E: 3618       DW 0x3618
0x2B40: 3619       DW 0x3619
0x2B42: 2E23       DECFSZ 0x23, F, ACCESS
0x2B44: D7F5       BRA 0x2B30
0x2B46: 0E11       MOVLW 0x11
0x2B48: 6E23       DW 0x6E23
0x2B4A: A012       BTFSS 0x12, 0, ACCESS
0x2B4C: D002       BRA 0x2B52
0x2B4E: 5016       DW 0x5016
0x2B50: D81E       RCALL 0x2B8E
0x2B52: D825       RCALL 0x2B9E
0x2B54: 3222       DW 0x3222
0x2B56: 3221       DW 0x3221
0x2B58: 3220       DW 0x3220
0x2B5A: 321F       DW 0x321F
0x2B5C: 2E23       DECFSZ 0x23, F, ACCESS
0x2B5E: D7F5       BRA 0x2B4A
0x2B60: C01F F003  MOVFF 0x01F, 0x003
0x2B64: C020 F004  MOVFF 0x020, 0x004
0x2B68: C021 F005  MOVFF 0x021, 0x005
0x2B6C: C022 F006  MOVFF 0x022, 0x006
0x2B70: C01E F007  MOVFF 0x01E, 0x007
0x2B74: C024 F008  MOVFF 0x024, 0x008
0x2B78: EC6C F018  CALL 0x30D8, 0
0x2B7C: C003 F012  MOVFF 0x003, 0x012
0x2B80: C004 F013  MOVFF 0x004, 0x013
0x2B84: C005 F014  MOVFF 0x005, 0x014
0x2B88: C006 F015  MOVFF 0x006, 0x015
0x2B8C: 0012       RETURN 0
0x2B8E: 261F       DW 0x261F
0x2B90: 5017       DW 0x5017
0x2B92: 2220       DW 0x2220
0x2B94: 5018       DW 0x5018
0x2B96: 2221       DW 0x2221
0x2B98: 5019       DW 0x5019
0x2B9A: 2222       DW 0x2222
0x2B9C: 0012       RETURN 0
0x2B9E: 90D8       BCF 0xD8, 0, ACCESS
0x2BA0: 3215       DW 0x3215
0x2BA2: 3214       DW 0x3214
0x2BA4: 3213       DW 0x3213
0x2BA6: 3212       DW 0x3212
0x2BA8: 90D8       BCF 0xD8, 0, ACCESS
0x2BAA: 0012       RETURN 0
0x2BAC: 90D8       BCF 0xD8, 0, ACCESS
0x2BAE: 321D       DW 0x321D
0x2BB0: 321C       DW 0x321C
0x2BB2: 321B       DW 0x321B
0x2BB4: 321A       DW 0x321A
0x2BB6: 0012       RETURN 0
0x2BB8: 67C5       DW 0x67C5
0x2BBA: D010       BRA 0x2BDC
0x2BBC: C082 F003  MOVFF 0x082, 0x003
0x2BC0: C083 F004  MOVFF 0x083, 0x004
0x2BC4: 6A05       MOVWF 0x05, ACCESS
0x2BC6: 6A06       MOVWF 0x06, ACCESS
0x2BC8: 6A08       MOVWF 0x08, ACCESS
0x2BCA: 0EC0       MOVLW 0xC0
0x2BCC: 6E07       DW 0x6E07
0x2BCE: 0103       MOVLB 0x3
0x2BD0: 0E03       MOVLW 0x03
0x2BD2: 6E0A       DW 0x6E0A
0x2BD4: 0E00       MOVLW 0x00
0x2BD6: 6E09       DW 0x6E09
0x2BD8: EC14 F020  CALL 0x4028, 0
0x2BDC: 0101       MOVLB 0x1
0x2BDE: 511B       DW 0x511B
0x2BE0: E004       BZ 0x2BEA
0x2BE2: 6A1D       MOVWF 0x1D, ACCESS
0x2BE4: 0E02       MOVLW 0x02
0x2BE6: 6E1C       DW 0x6E1C
0x2BE8: D002       BRA 0x2BEE
0x2BEA: 6A1C       MOVWF 0x1C, ACCESS
0x2BEC: 6A1D       MOVWF 0x1D, ACCESS
0x2BEE: C01C F01E  MOVFF 0x01C, 0x01E
0x2BF2: 0E04       MOVLW 0x04
0x2BF4: 6E1F       DW 0x6E1F
0x2BF6: 0E1A       MOVLW 0x1A
0x2BF8: 6E18       DW 0x6E18
0x2BFA: 0E01       MOVLW 0x01
0x2BFC: 6E19       DW 0x6E19
0x2BFE: 501F       DW 0x501F
0x2C00: 2618       DW 0x2618
0x2C02: 0E00       MOVLW 0x00
0x2C04: 2219       DW 0x2219
0x2C06: 501E       DW 0x501E
0x2C08: 5C18       DW 0x5C18
0x2C0A: 6ED9       DW 0x6ED9
0x2C0C: 5019       DW 0x5019
0x2C0E: A0D8       BTFSS 0xD8, 0, ACCESS
0x2C10: 0419       DECF 0x19, W, ACCESS
0x2C12: 6EDA       DW 0x6EDA
0x2C14: 0E00       MOVLW 0x00
0x2C16: 6E1A       DW 0x6E1A
0x2C18: 0E03       MOVLW 0x03
0x2C1A: 6E1B       DW 0x6E1B
0x2C1C: 0100       MOVLB 0x0
0x2C1E: 51C5       DW 0x51C5
0x2C20: 261A       DW 0x261A
0x2C22: 0E00       MOVLW 0x00
0x2C24: 221B       DW 0x221B
0x2C26: 501F       DW 0x501F
0x2C28: 241A       DW 0x241A
0x2C2A: 6EE1       DW 0x6EE1
0x2C2C: 0E00       MOVLW 0x00
0x2C2E: 201B       DW 0x201B
0x2C30: 6EE2       DW 0x6EE2
0x2C32: CFDF       DW 0xCFDF
0x2C34: FFE7       DW 0xFFE7
0x2C36: 2A1F       INCF 0x1F, F, ACCESS
0x2C38: 0E17       MOVLW 0x17
0x2C3A: 641F       DW 0x641F
0x2C3C: D7DC       BRA 0x2BF6
0x2C3E: 0E18       MOVLW 0x18
0x2C40: 27C5       DW 0x27C5
0x2C42: 0EBF       MOVLW 0xBF
0x2C44: 65C5       DW 0x65C5
0x2C46: D02F       BRA 0x2CA6
0x2C48: 6BC5       MOVWF 0xC5, BSR
0x2C4A: 0E3F       MOVLW 0x3F
0x2C4C: 5D82       DW 0x5D82
0x2C4E: 0E5F       MOVLW 0x5F
0x2C50: 5983       DW 0x5983
0x2C52: E229       BC 0x2CA6
0x2C54: C082 F003  MOVFF 0x082, 0x003
0x2C58: C083 F004  MOVFF 0x083, 0x004
0x2C5C: 6A05       MOVWF 0x05, ACCESS
0x2C5E: 6A06       MOVWF 0x06, ACCESS
0x2C60: 0EBF       MOVLW 0xBF
0x2C62: 2582       DW 0x2582
0x2C64: 6E18       DW 0x6E18
0x2C66: 0E00       MOVLW 0x00
0x2C68: 2183       DW 0x2183
0x2C6A: 6E19       DW 0x6E19
0x2C6C: C018 F007  MOVFF 0x018, 0x007
0x2C70: C019 F008  MOVFF 0x019, 0x008
0x2C74: 6A09       MOVWF 0x09, ACCESS
0x2C76: 6A0A       MOVWF 0x0A, ACCESS
0x2C78: ECD6 F01E  CALL 0x3DAC, 0
0x2C7C: C082 F003  MOVFF 0x082, 0x003
0x2C80: C083 F004  MOVFF 0x083, 0x004
0x2C84: 6A05       MOVWF 0x05, ACCESS
0x2C86: 6A06       MOVWF 0x06, ACCESS
0x2C88: 6A08       MOVWF 0x08, ACCESS
0x2C8A: 0EC0       MOVLW 0xC0
0x2C8C: 6E07       DW 0x6E07
0x2C8E: 0103       MOVLB 0x3
0x2C90: 0E03       MOVLW 0x03
0x2C92: 6E0A       DW 0x6E0A
0x2C94: 0E00       MOVLW 0x00
0x2C96: 6E09       DW 0x6E09
0x2C98: EC37 F017  CALL 0x2E6E, 0
0x2C9C: 0EC0       MOVLW 0xC0
0x2C9E: 0100       MOVLB 0x0
0x2CA0: 2782       DW 0x2782
0x2CA2: 0E00       MOVLW 0x00
0x2CA4: 2383       DW 0x2383
0x2CA6: 0012       RETURN 0
0x2CA8: C00D F015  MOVFF 0x00D, 0x015
0x2CAC: C00E F016  MOVFF 0x00E, 0x016
0x2CB0: C00F F017  MOVFF 0x00F, 0x017
0x2CB4: C010 F018  MOVFF 0x010, 0x018
0x2CB8: 0E18       MOVLW 0x18
0x2CBA: D001       BRA 0x2CBE
0x2CBC: D861       RCALL 0x2D80
0x2CBE: 2EE8       DECFSZ 0xE8, F, ACCESS
0x2CC0: D7FD       BRA 0x2CBC
0x2CC2: 5015       DW 0x5015
0x2CC4: 6E1E       DW 0x6E1E
0x2CC6: 661E       DW 0x661E
0x2CC8: D001       BRA 0x2CCC
0x2CCA: D011       BRA 0x2CEE
0x2CCC: C011 F015  MOVFF 0x011, 0x015
0x2CD0: C012 F016  MOVFF 0x012, 0x016
0x2CD4: C013 F017  MOVFF 0x013, 0x017
0x2CD8: C014 F018  MOVFF 0x014, 0x018
0x2CDC: 0E18       MOVLW 0x18
0x2CDE: D001       BRA 0x2CE2
0x2CE0: D84F       RCALL 0x2D80
0x2CE2: 2EE8       DECFSZ 0xE8, F, ACCESS
0x2CE4: D7FD       BRA 0x2CE0
0x2CE6: 5015       DW 0x5015
0x2CE8: 6E1F       DW 0x6E1F
0x2CEA: 661F       DW 0x661F
0x2CEC: D005       BRA 0x2CF8
0x2CEE: 6A0D       MOVWF 0x0D, ACCESS
0x2CF0: 6A0E       MOVWF 0x0E, ACCESS
0x2CF2: 6A0F       MOVWF 0x0F, ACCESS
0x2CF4: 6A10       MOVWF 0x10, ACCESS
0x2CF6: D043       BRA 0x2D7E
0x2CF8: 501F       DW 0x501F
0x2CFA: 0F89       ADDLW 0x89
0x2CFC: 5E1E       DW 0x5E1E
0x2CFE: C010 F01F  MOVFF 0x010, 0x01F
0x2D02: 5014       DW 0x5014
0x2D04: 1A1F       XORWF 0x1F, F, ACCESS
0x2D06: 0E80       MOVLW 0x80
0x2D08: 161F       ANDWF 0x1F, F, ACCESS
0x2D0A: 8E0F       BSF 0x0F, 7, ACCESS
0x2D0C: 6A10       MOVWF 0x10, ACCESS
0x2D0E: 8E13       BSF 0x13, 7, ACCESS
0x2D10: 6A14       MOVWF 0x14, ACCESS
0x2D12: 0E20       MOVLW 0x20
0x2D14: 6E1D       DW 0x6E1D
0x2D16: 90D8       BCF 0xD8, 0, ACCESS
0x2D18: 3619       DW 0x3619
0x2D1A: 361A       DW 0x361A
0x2D1C: 361B       DW 0x361B
0x2D1E: 361C       DW 0x361C
0x2D20: 5011       DW 0x5011
0x2D22: 5C0D       DW 0x5C0D
0x2D24: 5012       DW 0x5012
0x2D26: 580E       DW 0x580E
0x2D28: 5013       DW 0x5013
0x2D2A: 580F       DW 0x580F
0x2D2C: 5014       DW 0x5014
0x2D2E: 5810       DW 0x5810
0x2D30: E309       BNC 0x2D44
0x2D32: 5011       DW 0x5011
0x2D34: 5E0D       DW 0x5E0D
0x2D36: 5012       DW 0x5012
0x2D38: 5A0E       DW 0x5A0E
0x2D3A: 5013       DW 0x5013
0x2D3C: 5A0F       DW 0x5A0F
0x2D3E: 5014       DW 0x5014
0x2D40: 5A10       DW 0x5A10
0x2D42: 8019       BSF 0x19, 0, ACCESS
0x2D44: 90D8       BCF 0xD8, 0, ACCESS
0x2D46: 360D       DW 0x360D
0x2D48: 360E       DW 0x360E
0x2D4A: 360F       DW 0x360F
0x2D4C: 3610       DW 0x3610
0x2D4E: 2E1D       DECFSZ 0x1D, F, ACCESS
0x2D50: D7E2       BRA 0x2D16
0x2D52: C019 F003  MOVFF 0x019, 0x003
0x2D56: C01A F004  MOVFF 0x01A, 0x004
0x2D5A: C01B F005  MOVFF 0x01B, 0x005
0x2D5E: C01C F006  MOVFF 0x01C, 0x006
0x2D62: C01E F007  MOVFF 0x01E, 0x007
0x2D66: C01F F008  MOVFF 0x01F, 0x008
0x2D6A: EC6C F018  CALL 0x30D8, 0
0x2D6E: C003 F00D  MOVFF 0x003, 0x00D
0x2D72: C004 F00E  MOVFF 0x004, 0x00E
0x2D76: C005 F00F  MOVFF 0x005, 0x00F
0x2D7A: C006 F010  MOVFF 0x006, 0x010
0x2D7E: 0012       RETURN 0
0x2D80: 90D8       BCF 0xD8, 0, ACCESS
0x2D82: 3218       DW 0x3218
0x2D84: 3217       DW 0x3217
0x2D86: 3216       DW 0x3216
0x2D88: 3215       DW 0x3215
0x2D8A: 0012       RETURN 0
0x2D8C: 9EF2       BCF 0xF2, 7, ACCESS
0x2D8E: 948A       BCF 0x8A, 2, ACCESS
0x2D90: 0100       MOVLB 0x0
0x2D92: 6B88       MOVWF 0x88, BSR
0x2D94: 6B89       MOVWF 0x89, BSR
0x2D96: 82C2       BSF 0xC2, 1, ACCESS
0x2D98: 6A04       MOVWF 0x04, ACCESS
0x2D9A: 0E0A       MOVLW 0x0A
0x2D9C: 6E03       DW 0x6E03
0x2D9E: EC3F F022  CALL 0x447E, 0
0x2DA2: B2C2       BTFSC 0xC2, 1, ACCESS
0x2DA4: D00B       BRA 0x2DBC
0x2DA6: 50C4       DW 0x50C4
0x2DA8: 6E5D       DW 0x6E5D
0x2DAA: 6A5C       MOVWF 0x5C, ACCESS
0x2DAC: 50C3       DW 0x50C3
0x2DAE: 245C       DW 0x245C
0x2DB0: 0100       MOVLB 0x0
0x2DB2: 6F88       DW 0x6F88
0x2DB4: 0E00       MOVLW 0x00
0x2DB6: 205D       DW 0x205D
0x2DB8: 6F89       DW 0x6F89
0x2DBA: 82C2       BSF 0xC2, 1, ACCESS
0x2DBC: 0E36       MOVLW 0x36
0x2DBE: 0100       MOVLB 0x0
0x2DC0: 5D88       DW 0x5D88
0x2DC2: 0E02       MOVLW 0x02
0x2DC4: 5989       DW 0x5989
0x2DC6: E3E8       BNC 0x2D98
0x2DC8: 6A04       MOVWF 0x04, ACCESS
0x2DCA: 0E46       MOVLW 0x46
0x2DCC: 6E03       DW 0x6E03
0x2DCE: EC3F F022  CALL 0x447E, 0
0x2DD2: 6AB0       MOVWF 0xB0, ACCESS
0x2DD4: 0E7F       MOVLW 0x7F
0x2DD6: 6EAF       DW 0x6EAF
0x2DD8: 92D3       BCF 0xD3, 1, ACCESS
0x2DDA: 988A       BCF 0x8A, 4, ACCESS
0x2DDC: 9C89       BCF 0x89, 6, ACCESS
0x2DDE: 968A       BCF 0x8A, 3, ACCESS
0x2DE0: ECB3 F024  CALL 0x4966, 0
0x2DE4: 8293       BSF 0x93, 1, ACCESS
0x2DE6: 8093       BSF 0x93, 0, ACCESS
0x2DE8: 6A04       MOVWF 0x04, ACCESS
0x2DEA: 0E64       MOVLW 0x64
0x2DEC: 6E03       DW 0x6E03
0x2DEE: EC3F F022  CALL 0x447E, 0
0x2DF2: 888A       BSF 0x8A, 4, ACCESS
0x2DF4: 0E05       MOVLW 0x05
0x2DF6: 6E04       DW 0x6E04
0x2DF8: 0EDC       MOVLW 0xDC
0x2DFA: 6E03       DW 0x6E03
0x2DFC: EC3F F022  CALL 0x447E, 0
0x2E00: 8293       BSF 0x93, 1, ACCESS
0x2E02: 8093       BSF 0x93, 0, ACCESS
0x2E04: 6A04       MOVWF 0x04, ACCESS
0x2E06: 0E01       MOVLW 0x01
0x2E08: 6E03       DW 0x6E03
0x2E0A: EC3F F022  CALL 0x447E, 0
0x2E0E: 0E80       MOVLW 0x80
0x2E10: 6E03       DW 0x6E03
0x2E12: 0E08       MOVLW 0x08
0x2E14: ECD9 F023  CALL 0x47B2, 0
0x2E18: 8C89       BSF 0x89, 6, ACCESS
0x2E1A: 0E00       MOVLW 0x00
0x2E1C: 6A55       MOVWF 0x55, ACCESS
0x2E1E: 6A56       MOVWF 0x56, ACCESS
0x2E20: 6A57       MOVWF 0x57, ACCESS
0x2E22: 6A58       MOVWF 0x58, ACCESS
0x2E24: EC72 F022  CALL 0x44E4, 0
0x2E28: ECBA F022  CALL 0x4574, 0
0x2E2C: 868A       BSF 0x8A, 3, ACCESS
0x2E2E: ECA1 F024  CALL 0x4942, 0
0x2E32: EC7C F019  CALL 0x32F8, 0
0x2E36: ECA1 F024  CALL 0x4942, 0
0x2E3A: 0100       MOVLB 0x0
0x2E3C: 837E       BSF 0x7E, 1, BSR
0x2E3E: 877E       BSF 0x7E, 3, BSR
0x2E40: 897E       BSF 0x7E, 4, BSR
0x2E42: 817F       BSF 0x7F, 0, BSR
0x2E44: 837F       BSF 0x7F, 1, BSR
0x2E46: 0E00       MOVLW 0x00
0x2E48: EC77 F00C  CALL 0x18EE, 0
0x2E4C: 0E01       MOVLW 0x01
0x2E4E: 6E06       DW 0x6E06
0x2E50: 0E1B       MOVLW 0x1B
0x2E52: EC5D F023  CALL 0x46BA, 0
0x2E56: 9AF2       BCF 0xF2, 5, ACCESS
0x2E58: 9ED5       BCF 0xD5, 7, ACCESS
0x2E5A: 0EA4       MOVLW 0xA4
0x2E5C: 6ED7       DW 0x6ED7
0x2E5E: 0E71       MOVLW 0x71
0x2E60: 6ED6       DW 0x6ED6
0x2E62: 0100       MOVLB 0x0
0x2E64: 6BA1       MOVWF 0xA1, BSR
0x2E66: 9594       BCF 0x94, 2, BSR
0x2E68: 8EF2       BSF 0xF2, 7, ACCESS
0x2E6A: EF8C F024  GOTO 0x4918
0x2E6E: 6A10       MOVWF 0x10, ACCESS
0x2E70: C003 F014  MOVFF 0x003, 0x014
0x2E74: C004 F015  MOVFF 0x004, 0x015
0x2E78: C005 F016  MOVFF 0x005, 0x016
0x2E7C: C006 F017  MOVFF 0x006, 0x017
0x2E80: 0E05       MOVLW 0x05
0x2E82: 6E0B       DW 0x6E0B
0x2E84: 90D8       BCF 0xD8, 0, ACCESS
0x2E86: 3206       DW 0x3206
0x2E88: 3205       DW 0x3205
0x2E8A: 3204       DW 0x3204
0x2E8C: 3203       DW 0x3203
0x2E8E: 2E0B       DECFSZ 0x0B, F, ACCESS
0x2E90: D7F9       BRA 0x2E84
0x2E92: 0E05       MOVLW 0x05
0x2E94: 90D8       BCF 0xD8, 0, ACCESS
0x2E96: 3603       DW 0x3603
0x2E98: 3604       DW 0x3604
0x2E9A: 3605       DW 0x3605
0x2E9C: 3606       DW 0x3606
0x2E9E: 2EE8       DECFSZ 0xE8, F, ACCESS
0x2EA0: D7F9       BRA 0x2E94
0x2EA2: 0E20       MOVLW 0x20
0x2EA4: 2603       DW 0x2603
0x2EA6: 0E00       MOVLW 0x00
0x2EA8: 2204       DW 0x2204
0x2EAA: 2205       DW 0x2205
0x2EAC: 2206       DW 0x2206
0x2EAE: 5014       DW 0x5014
0x2EB0: 5C03       DW 0x5C03
0x2EB2: 6E0F       DW 0x6E0F
0x2EB4: D047       BRA 0x2F44
0x2EB6: C016 F013  MOVFF 0x016, 0x013
0x2EBA: C015 F012  MOVFF 0x015, 0x012
0x2EBE: C014 F011  MOVFF 0x014, 0x011
0x2EC2: D019       BRA 0x2EF6
0x2EC4: C009       DW 0xC009
0x2EC6: FFD9       DW 0xFFD9
0x2EC8: C00A       DW 0xC00A
0x2ECA: FFDA       DW 0xFFDA
0x2ECC: 50DF       DW 0x50DF
0x2ECE: C011       DW 0xC011
0x2ED0: FFF6       DW 0xFFF6
0x2ED2: C012       DW 0xC012
0x2ED4: FFF7       DW 0xFFF7
0x2ED6: C013       DW 0xC013
0x2ED8: FFF8       DW 0xFFF8
0x2EDA: 6EF5       DW 0x6EF5
0x2EDC: 000C       TBLWT*
0x2EDE: 4A09       DW 0x4A09
0x2EE0: 2A0A       INCF 0x0A, F, ACCESS
0x2EE2: 2A11       INCF 0x11, F, ACCESS
0x2EE4: 0E00       MOVLW 0x00
0x2EE6: 2212       DW 0x2212
0x2EE8: 2213       DW 0x2213
0x2EEA: 0607       DECF 0x07, F, ACCESS
0x2EEC: A0D8       BTFSS 0xD8, 0, ACCESS
0x2EEE: 0608       DECF 0x08, F, ACCESS
0x2EF0: 5008       DW 0x5008
0x2EF2: 1007       IORWF 0x07, W, ACCESS
0x2EF4: E003       BZ 0x2EFC
0x2EF6: 060F       DECF 0x0F, F, ACCESS
0x2EF8: 280F       INCF 0x0F, W, ACCESS
0x2EFA: E1E4       BNZ 0x2EC4
0x2EFC: C013 F00E  MOVFF 0x013, 0x00E
0x2F00: C012 F00D  MOVFF 0x012, 0x00D
0x2F04: C011 F00C  MOVFF 0x011, 0x00C
0x2F08: C016 F013  MOVFF 0x016, 0x013
0x2F0C: C015 F012  MOVFF 0x015, 0x012
0x2F10: C014 F011  MOVFF 0x014, 0x011
0x2F14: 8EA6       BSF 0xA6, 7, ACCESS
0x2F16: 9CA6       BCF 0xA6, 6, ACCESS
0x2F18: 84A6       BSF 0xA6, 2, ACCESS
0x2F1A: AEF2       BTFSS 0xF2, 7, ACCESS
0x2F1C: D003       BRA 0x2F24
0x2F1E: 9EF2       BCF 0xF2, 7, ACCESS
0x2F20: 0E01       MOVLW 0x01
0x2F22: 6E10       DW 0x6E10
0x2F24: EC03 F022  CALL 0x4406, 0
0x2F28: 94A6       BCF 0xA6, 2, ACCESS
0x2F2A: 5010       DW 0x5010
0x2F2C: E002       BZ 0x2F32
0x2F2E: 8EF2       BSF 0xF2, 7, ACCESS
0x2F30: 6A10       MOVWF 0x10, ACCESS
0x2F32: 0E20       MOVLW 0x20
0x2F34: 6E0F       DW 0x6E0F
0x2F36: 500C       DW 0x500C
0x2F38: 6E14       DW 0x6E14
0x2F3A: 500D       DW 0x500D
0x2F3C: 6E15       DW 0x6E15
0x2F3E: 500E       DW 0x500E
0x2F40: 6E16       DW 0x6E16
0x2F42: 6A17       MOVWF 0x17, ACCESS
0x2F44: 5008       DW 0x5008
0x2F46: 1007       IORWF 0x07, W, ACCESS
0x2F48: B4D8       BTFSC 0xD8, 2, ACCESS
0x2F4A: 0012       RETURN 0
0x2F4C: D7B4       BRA 0x2EB6
0x2F4E: ECAE F023  CALL 0x475C, 0
0x2F52: 67CD       DW 0x67CD
0x2F54: D001       BRA 0x2F58
0x2F56: D060       BRA 0x3018
0x2F58: B468       BTFSC 0x68, 2, ACCESS
0x2F5A: EC1E F024  CALL 0x483C, 0
0x2F5E: B26D       BTFSC 0x6D, 1, ACCESS
0x2F60: D05B       BRA 0x3018
0x2F62: B068       BTFSC 0x68, 0, ACCESS
0x2F64: EC6B F020  CALL 0x40D6, 0
0x2F68: B868       BTFSC 0x68, 4, ACCESS
0x2F6A: EC90 F023  CALL 0x4720, 0
0x2F6E: 0E03       MOVLW 0x03
0x2F70: 0100       MOVLB 0x0
0x2F72: 5DCD       DW 0x5DCD
0x2F74: E351       BNC 0x3018
0x2F76: 6BC4       MOVWF 0xC4, BSR
0x2F78: A668       BTFSS 0x68, 3, ACCESS
0x2F7A: D04E       BRA 0x3018
0x2F7C: 506C       DW 0x506C
0x2F7E: CF6C F006  MOVFF 0xF6C, 0x006
0x2F82: 0E7C       MOVLW 0x7C
0x2F84: 1606       ANDWF 0x06, F, ACCESS
0x2F86: E13B       BNZ 0x2FFE
0x2F88: B26C       BTFSC 0x6C, 1, ACCESS
0x2F8A: D005       BRA 0x2F96
0x2F8C: 0E04       MOVLW 0x04
0x2F8E: 0100       MOVLB 0x0
0x2F90: 6F7B       DW 0x6F7B
0x2F92: 0E00       MOVLW 0x00
0x2F94: D003       BRA 0x2F9C
0x2F96: 0E04       MOVLW 0x04
0x2F98: 0100       MOVLB 0x0
0x2F9A: 6F7B       DW 0x6F7B
0x2F9C: 0100       MOVLB 0x0
0x2F9E: 6F7A       DW 0x6F7A
0x2FA0: 9668       BCF 0x68, 3, ACCESS
0x2FA2: C07A       DW 0xC07A
0x2FA4: FFD9       DW 0xFFD9
0x2FA6: C07B       DW 0xC07B
0x2FA8: FFDA       DW 0xFFDA
0x2FAA: 30DF       DW 0x30DF
0x2FAC: 32E8       DW 0x32E8
0x2FAE: 0B0F       ANDLW 0x0F
0x2FB0: 0A0D       XORLW 0x0D
0x2FB2: E12D       BNZ 0x300E
0x2FB4: 6B90       MOVWF 0x90, BSR
0x2FB6: EE20       DW 0xEE20
0x2FB8: F002       DW 0xF002
0x2FBA: 517A       DW 0x517A
0x2FBC: 26D9       DW 0x26D9
0x2FBE: 517B       DW 0x517B
0x2FC0: 22DA       DW 0x22DA
0x2FC2: CFDE F006  MOVFF 0xFDE, 0x006
0x2FC6: CFDD F007  MOVFF 0xFDD, 0x007
0x2FCA: C006       DW 0xC006
0x2FCC: FFD9       DW 0xFFD9
0x2FCE: C007       DW 0xC007
0x2FD0: FFDA       DW 0xFFDA
0x2FD2: 5190       DW 0x5190
0x2FD4: 0FCF       ADDLW 0xCF
0x2FD6: 6EE1       DW 0x6EE1
0x2FD8: 6AE2       MOVWF 0xE2, ACCESS
0x2FDA: CFDF       DW 0xCFDF
0x2FDC: FFE7       DW 0xFFE7
0x2FDE: EE20       DW 0xEE20
0x2FE0: F002       DW 0xF002
0x2FE2: 517A       DW 0x517A
0x2FE4: 26D9       DW 0x26D9
0x2FE6: 517B       DW 0x517B
0x2FE8: 22DA       DW 0x22DA
0x2FEA: 2ADE       INCF 0xDE, F, ACCESS
0x2FEC: 0E00       MOVLW 0x00
0x2FEE: 22DD       DW 0x22DD
0x2FF0: 2B90       INCF 0x90, F, BSR
0x2FF2: 0E07       MOVLW 0x07
0x2FF4: 6590       DW 0x6590
0x2FF6: D7DF       BRA 0x2FB6
0x2FF8: EC7A F021  CALL 0x42F4, 0
0x2FFC: D008       BRA 0x300E
0x2FFE: 506C       DW 0x506C
0x3000: 0A04       XORLW 0x04
0x3002: E104       BNZ 0x300C
0x3004: 9668       BCF 0x68, 3, ACCESS
0x3006: EC09 F022  CALL 0x4412, 0
0x300A: D001       BRA 0x300E
0x300C: 9668       BCF 0x68, 3, ACCESS
0x300E: 0100       MOVLB 0x0
0x3010: 2BC4       INCF 0xC4, F, BSR
0x3012: 0E03       MOVLW 0x03
0x3014: 65C4       DW 0x65C4
0x3016: D7B0       BRA 0x2F78
0x3018: 0012       RETURN 0
0x301A: C025 F029  MOVFF 0x025, 0x029
0x301E: C026 F02A  MOVFF 0x026, 0x02A
0x3022: C027 F02B  MOVFF 0x027, 0x02B
0x3026: C028 F02C  MOVFF 0x028, 0x02C
0x302A: 0E18       MOVLW 0x18
0x302C: D001       BRA 0x3030
0x302E: D84E       RCALL 0x30CC
0x3030: 2EE8       DECFSZ 0xE8, F, ACCESS
0x3032: D7FD       BRA 0x302E
0x3034: 5029       DW 0x5029
0x3036: 6E2E       DW 0x6E2E
0x3038: 662E       DW 0x662E
0x303A: D005       BRA 0x3046
0x303C: 6A25       MOVWF 0x25, ACCESS
0x303E: 6A26       MOVWF 0x26, ACCESS
0x3040: 6A27       MOVWF 0x27, ACCESS
0x3042: 6A28       MOVWF 0x28, ACCESS
0x3044: D042       BRA 0x30CA
0x3046: C025 F029  MOVFF 0x025, 0x029
0x304A: C026 F02A  MOVFF 0x026, 0x02A
0x304E: C027 F02B  MOVFF 0x027, 0x02B
0x3052: C028 F02C  MOVFF 0x028, 0x02C
0x3056: 0E20       MOVLW 0x20
0x3058: D001       BRA 0x305C
0x305A: D838       RCALL 0x30CC
0x305C: 2EE8       DECFSZ 0xE8, F, ACCESS
0x305E: D7FD       BRA 0x305A
0x3060: 5029       DW 0x5029
0x3062: 6E2D       DW 0x6E2D
0x3064: 8E27       BSF 0x27, 7, ACCESS
0x3066: 6A28       MOVWF 0x28, ACCESS
0x3068: 0E96       MOVLW 0x96
0x306A: 5E2E       DW 0x5E2E
0x306C: AE2E       BTFSS 0x2E, 7, ACCESS
0x306E: D00F       BRA 0x308E
0x3070: 502E       DW 0x502E
0x3072: 0A80       XORLW 0x80
0x3074: 6E29       DW 0x6E29
0x3076: 0EE9       MOVLW 0xE9
0x3078: 0A80       XORLW 0x80
0x307A: 5C29       DW 0x5C29
0x307C: E3DF       BNC 0x303C
0x307E: 90D8       BCF 0xD8, 0, ACCESS
0x3080: 3228       DW 0x3228
0x3082: 3227       DW 0x3227
0x3084: 3226       DW 0x3226
0x3086: 3225       DW 0x3225
0x3088: 3E2E       INCFSZ 0x2E, F, ACCESS
0x308A: D7F9       BRA 0x307E
0x308C: D00C       BRA 0x30A6
0x308E: 0E1F       MOVLW 0x1F
0x3090: 642E       DW 0x642E
0x3092: D007       BRA 0x30A2
0x3094: D7D3       BRA 0x303C
0x3096: 90D8       BCF 0xD8, 0, ACCESS
0x3098: 3625       DW 0x3625
0x309A: 3626       DW 0x3626
0x309C: 3627       DW 0x3627
0x309E: 3628       DW 0x3628
0x30A0: 062E       DECF 0x2E, F, ACCESS
0x30A2: 662E       DW 0x662E
0x30A4: D7F8       BRA 0x3096
0x30A6: 502D       DW 0x502D
0x30A8: E008       BZ 0x30BA
0x30AA: 1E28       DW 0x1E28
0x30AC: 1E27       DW 0x1E27
0x30AE: 1E26       DW 0x1E26
0x30B0: 6C25       DW 0x6C25
0x30B2: 0E00       MOVLW 0x00
0x30B4: 2226       DW 0x2226
0x30B6: 2227       DW 0x2227
0x30B8: 2228       DW 0x2228
0x30BA: C025 F025  MOVFF 0x025, 0x025
0x30BE: C026 F026  MOVFF 0x026, 0x026
0x30C2: C027 F027  MOVFF 0x027, 0x027
0x30C6: C028 F028  MOVFF 0x028, 0x028
0x30CA: 0012       RETURN 0
0x30CC: 90D8       BCF 0xD8, 0, ACCESS
0x30CE: 322C       DW 0x322C
0x30D0: 322B       DW 0x322B
0x30D2: 322A       DW 0x322A
0x30D4: 3229       DW 0x3229
0x30D6: 0012       RETURN 0
0x30D8: 5007       DW 0x5007
0x30DA: E005       BZ 0x30E6
0x30DC: 5006       DW 0x5006
0x30DE: 1003       IORWF 0x03, W, ACCESS
0x30E0: 1004       IORWF 0x04, W, ACCESS
0x30E2: 1005       IORWF 0x05, W, ACCESS
0x30E4: E107       BNZ 0x30F4
0x30E6: 6A03       MOVWF 0x03, ACCESS
0x30E8: 6A04       MOVWF 0x04, ACCESS
0x30EA: 6A05       MOVWF 0x05, ACCESS
0x30EC: 6A06       MOVWF 0x06, ACCESS
0x30EE: D04B       BRA 0x3186
0x30F0: 2A07       INCF 0x07, F, ACCESS
0x30F2: D84A       RCALL 0x3188
0x30F4: 6A09       MOVWF 0x09, ACCESS
0x30F6: 6A0A       MOVWF 0x0A, ACCESS
0x30F8: 6A0B       MOVWF 0x0B, ACCESS
0x30FA: 0EFE       MOVLW 0xFE
0x30FC: 1406       ANDWF 0x06, W, ACCESS
0x30FE: 6E0C       DW 0x6E0C
0x3100: 500C       DW 0x500C
0x3102: 1009       IORWF 0x09, W, ACCESS
0x3104: 100A       IORWF 0x0A, W, ACCESS
0x3106: 100B       IORWF 0x0B, W, ACCESS
0x3108: E008       BZ 0x311A
0x310A: D7F2       BRA 0x30F0
0x310C: 2A07       INCF 0x07, F, ACCESS
0x310E: 2A03       INCF 0x03, F, ACCESS
0x3110: 0E00       MOVLW 0x00
0x3112: 2204       DW 0x2204
0x3114: 2205       DW 0x2205
0x3116: 2206       DW 0x2206
0x3118: D837       RCALL 0x3188
0x311A: 6A09       MOVWF 0x09, ACCESS
0x311C: 6A0A       MOVWF 0x0A, ACCESS
0x311E: 6A0B       MOVWF 0x0B, ACCESS
0x3120: 5006       DW 0x5006
0x3122: 6E0C       DW 0x6E0C
0x3124: 500C       DW 0x500C
0x3126: 1009       IORWF 0x09, W, ACCESS
0x3128: 100A       IORWF 0x0A, W, ACCESS
0x312A: 100B       IORWF 0x0B, W, ACCESS
0x312C: E007       BZ 0x313C
0x312E: D7EE       BRA 0x310C
0x3130: 0607       DECF 0x07, F, ACCESS
0x3132: 90D8       BCF 0xD8, 0, ACCESS
0x3134: 3603       DW 0x3603
0x3136: 3604       DW 0x3604
0x3138: 3605       DW 0x3605
0x313A: 3606       DW 0x3606
0x313C: AE05       BTFSS 0x05, 7, ACCESS
0x313E: D7F8       BRA 0x3130
0x3140: B007       BTFSC 0x07, 0, ACCESS
0x3142: D002       BRA 0x3148
0x3144: 0E7F       MOVLW 0x7F
0x3146: 1605       ANDWF 0x05, F, ACCESS
0x3148: 90D8       BCF 0xD8, 0, ACCESS
0x314A: 3207       DW 0x3207
0x314C: C007 F009  MOVFF 0x007, 0x009
0x3150: 6A0A       MOVWF 0x0A, ACCESS
0x3152: 6A0B       MOVWF 0x0B, ACCESS
0x3154: 6A0C       MOVWF 0x0C, ACCESS
0x3156: C009 F00C  MOVFF 0x009, 0x00C
0x315A: 6A0B       MOVWF 0x0B, ACCESS
0x315C: 6A0A       MOVWF 0x0A, ACCESS
0x315E: 6A09       MOVWF 0x09, ACCESS
0x3160: 5009       DW 0x5009
0x3162: 1203       IORWF 0x03, F, ACCESS
0x3164: 500A       DW 0x500A
0x3166: 1204       IORWF 0x04, F, ACCESS
0x3168: 500B       DW 0x500B
0x316A: 1205       IORWF 0x05, F, ACCESS
0x316C: 500C       DW 0x500C
0x316E: 1206       IORWF 0x06, F, ACCESS
0x3170: 5008       DW 0x5008
0x3172: A4D8       BTFSS 0xD8, 2, ACCESS
0x3174: 8E06       BSF 0x06, 7, ACCESS
0x3176: C003 F003  MOVFF 0x003, 0x003
0x317A: C004 F004  MOVFF 0x004, 0x004
0x317E: C005 F005  MOVFF 0x005, 0x005
0x3182: C006 F006  MOVFF 0x006, 0x006
0x3186: 0012       RETURN 0
0x3188: 90D8       BCF 0xD8, 0, ACCESS
0x318A: 3206       DW 0x3206
0x318C: 3205       DW 0x3205
0x318E: 3204       DW 0x3204
0x3190: 3203       DW 0x3203
0x3192: 0012       RETURN 0
0x3194: 51CF       DW 0x51CF
0x3196: 0B1F       ANDLW 0x1F
0x3198: 6E03       DW 0x6E03
0x319A: 0403       DECF 0x03, W, ACCESS
0x319C: E156       BNZ 0x324A
0x319E: 51D3       DW 0x51D3
0x31A0: E154       BNZ 0x324A
0x31A2: 51D0       DW 0x51D0
0x31A4: 0A06       XORLW 0x06
0x31A6: E018       BZ 0x31D8
0x31A8: D01E       BRA 0x31E6
0x31AA: 0E02       MOVLW 0x02
0x31AC: 6FC8       DW 0x6FC8
0x31AE: 0E10       MOVLW 0x10
0x31B0: 6F76       DW 0x6F76
0x31B2: 0E3E       MOVLW 0x3E
0x31B4: 6F75       DW 0x6F75
0x31B6: 6BE8       MOVWF 0xE8, BSR
0x31B8: 0E09       MOVLW 0x09
0x31BA: D00C       BRA 0x31D4
0x31BC: 0E02       MOVLW 0x02
0x31BE: 6FC8       DW 0x6FC8
0x31C0: 05EB       DECF 0xEB, W, BSR
0x31C2: E104       BNZ 0x31CC
0x31C4: 0E10       MOVLW 0x10
0x31C6: 6F76       DW 0x6F76
0x31C8: 0E55       MOVLW 0x55
0x31CA: 6F75       DW 0x6F75
0x31CC: 05EB       DECF 0xEB, W, BSR
0x31CE: E10A       BNZ 0x31E4
0x31D0: 6BE8       MOVWF 0xE8, BSR
0x31D2: 0E1D       MOVLW 0x1D
0x31D4: 6FE7       DW 0x6FE7
0x31D6: D006       BRA 0x31E4
0x31D8: 51D2       DW 0x51D2
0x31DA: 0A21       XORLW 0x21
0x31DC: E0E6       BZ 0x31AA
0x31DE: 0A03       XORLW 0x03
0x31E0: E0ED       BZ 0x31BC
0x31E2: 0A01       XORLW 0x01
0x31E4: 83CE       BSF 0xCE, 1, BSR
0x31E6: 39CF       DW 0x39CF
0x31E8: 32E8       DW 0x32E8
0x31EA: 0B03       ANDLW 0x03
0x31EC: 6E03       DW 0x6E03
0x31EE: 0403       DECF 0x03, W, ACCESS
0x31F0: E12C       BNZ 0x324A
0x31F2: D01E       BRA 0x3230
0x31F4: ECB7 F024  CALL 0x496E, 0
0x31F8: D028       BRA 0x324A
0x31FA: ECB6 F024  CALL 0x496C, 0
0x31FE: D025       BRA 0x324A
0x3200: 0E02       MOVLW 0x02
0x3202: 6FC8       DW 0x6FC8
0x3204: 6B76       MOVWF 0x76, BSR
0x3206: 0EEA       MOVLW 0xEA
0x3208: 6F75       DW 0x6F75
0x320A: 93CE       BCF 0xCE, 1, BSR
0x320C: 0E01       MOVLW 0x01
0x320E: 6FE7       DW 0x6FE7
0x3210: D01C       BRA 0x324A
0x3212: 0E02       MOVLW 0x02
0x3214: 6FC8       DW 0x6FC8
0x3216: C0D2 F0EA  MOVFF 0x0D2, 0x0EA
0x321A: D017       BRA 0x324A
0x321C: 0E02       MOVLW 0x02
0x321E: 6FC8       DW 0x6FC8
0x3220: 6B76       MOVWF 0x76, BSR
0x3222: 0EE9       MOVLW 0xE9
0x3224: D7F1       BRA 0x3208
0x3226: 0E02       MOVLW 0x02
0x3228: 6FC8       DW 0x6FC8
0x322A: C0D1 F0E9  MOVFF 0x0D1, 0x0E9
0x322E: D00D       BRA 0x324A
0x3230: 51D0       DW 0x51D0
0x3232: 0A01       XORLW 0x01
0x3234: E0DF       BZ 0x31F4
0x3236: 0A03       XORLW 0x03
0x3238: E0E3       BZ 0x3200
0x323A: 0A01       XORLW 0x01
0x323C: E0EF       BZ 0x321C
0x323E: 0A0A       XORLW 0x0A
0x3240: E0DC       BZ 0x31FA
0x3242: 0A03       XORLW 0x03
0x3244: E0E6       BZ 0x3212
0x3246: 0A01       XORLW 0x01
0x3248: E0EE       BZ 0x3226
0x324A: 0012       RETURN 0
0x324C: 67C8       DW 0x67C8
0x324E: D014       BRA 0x3278
0x3250: 0E04       MOVLW 0x04
0x3252: 0104       MOVLB 0x4
0x3254: 6F08       DW 0x6F08
0x3256: 8F08       BSF 0x08, 7, BSR
0x3258: 0101       MOVLB 0x1
0x325A: 6F16       DW 0x6F16
0x325C: 0100       MOVLB 0x0
0x325E: 0596       DECF 0x96, W, BSR
0x3260: E105       BNZ 0x326C
0x3262: 0E01       MOVLW 0x01
0x3264: EC40 F020  CALL 0x4080, 0
0x3268: 6B96       MOVWF 0x96, BSR
0x326A: D045       BRA 0x32F6
0x326C: 0E00       MOVLW 0x00
0x326E: EC40 F020  CALL 0x4080, 0
0x3272: 0E01       MOVLW 0x01
0x3274: 6F96       DW 0x6F96
0x3276: D03F       BRA 0x32F6
0x3278: AFCF       BTFSS 0xCF, 7, BSR
0x327A: D01C       BRA 0x32B4
0x327C: 0E01       MOVLW 0x01
0x327E: 6FC9       DW 0x6FC9
0x3280: 51E7       DW 0x51E7
0x3282: 5DD5       DW 0x5DD5
0x3284: 51E8       DW 0x51E8
0x3286: 59D6       DW 0x59D6
0x3288: E204       BC 0x3292
0x328A: C0D5 F0E7  MOVFF 0x0D5, 0x0E7
0x328E: C0D6 F0E8  MOVFF 0x0D6, 0x0E8
0x3292: ECF8 F01A  CALL 0x35F0, 0
0x3296: 0E48       MOVLW 0x48
0x3298: 0101       MOVLB 0x1
0x329A: 6F16       DW 0x6F16
0x329C: 0E01       MOVLW 0x01
0x329E: EC40 F020  CALL 0x4080, 0
0x32A2: 0E00       MOVLW 0x00
0x32A4: EC40 F020  CALL 0x4080, 0
0x32A8: 0104       MOVLB 0x4
0x32AA: 0E04       MOVLW 0x04
0x32AC: 6F0B       DW 0x6F0B
0x32AE: 0E24       MOVLW 0x24
0x32B0: 6F0A       DW 0x6F0A
0x32B2: D01E       BRA 0x32F0
0x32B4: 0E02       MOVLW 0x02
0x32B6: 6FC9       DW 0x6FC9
0x32B8: 0E04       MOVLW 0x04
0x32BA: 0101       MOVLB 0x1
0x32BC: 6F16       DW 0x6F16
0x32BE: 0100       MOVLB 0x0
0x32C0: 51D6       DW 0x51D6
0x32C2: 11D5       IORWF 0xD5, W, BSR
0x32C4: E103       BNZ 0x32CC
0x32C6: 0E48       MOVLW 0x48
0x32C8: 0101       MOVLB 0x1
0x32CA: 6F16       DW 0x6F16
0x32CC: 0100       MOVLB 0x0
0x32CE: 0596       DECF 0x96, W, BSR
0x32D0: E105       BNZ 0x32DC
0x32D2: 0E01       MOVLW 0x01
0x32D4: EC40 F020  CALL 0x4080, 0
0x32D8: 6B96       MOVWF 0x96, BSR
0x32DA: D005       BRA 0x32E6
0x32DC: 0E00       MOVLW 0x00
0x32DE: EC40 F020  CALL 0x4080, 0
0x32E2: 0E01       MOVLW 0x01
0x32E4: 6F96       DW 0x6F96
0x32E6: 51D6       DW 0x51D6
0x32E8: 11D5       IORWF 0xD5, W, BSR
0x32EA: E105       BNZ 0x32F6
0x32EC: 0104       MOVLB 0x4
0x32EE: 6B09       MOVWF 0x09, BSR
0x32F0: 0E48       MOVLW 0x48
0x32F2: 6F08       DW 0x6F08
0x32F4: 8F08       BSF 0x08, 7, BSR
0x32F6: 0012       RETURN 0
0x32F8: EC5B F024  CALL 0x48B6, 0
0x32FC: 0E3F       MOVLW 0x3F
0x32FE: 6E06       DW 0x6E06
0x3300: 0E01       MOVLW 0x01
0x3302: EC5D F023  CALL 0x46BA, 0
0x3306: 0E30       MOVLW 0x30
0x3308: 6E06       DW 0x6E06
0x330A: 0E03       MOVLW 0x03
0x330C: EC5D F023  CALL 0x46BA, 0
0x3310: 0E01       MOVLW 0x01
0x3312: 6E06       DW 0x6E06
0x3314: 0E04       MOVLW 0x04
0x3316: EC5D F023  CALL 0x46BA, 0
0x331A: 0E08       MOVLW 0x08
0x331C: 6E06       DW 0x6E06
0x331E: 0E05       MOVLW 0x05
0x3320: EC5D F023  CALL 0x46BA, 0
0x3324: 0E01       MOVLW 0x01
0x3326: 6E06       DW 0x6E06
0x3328: 0E06       MOVLW 0x06
0x332A: EC5D F023  CALL 0x46BA, 0
0x332E: 0E34       MOVLW 0x34
0x3330: 6E06       DW 0x6E06
0x3332: 0E07       MOVLW 0x07
0x3334: EC5D F023  CALL 0x46BA, 0
0x3338: 0E30       MOVLW 0x30
0x333A: 6E06       DW 0x6E06
0x333C: 0E08       MOVLW 0x08
0x333E: EC5D F023  CALL 0x46BA, 0
0x3342: 0E08       MOVLW 0x08
0x3344: 6E06       DW 0x6E06
0x3346: 0E0D       MOVLW 0x0D
0x3348: EC5D F023  CALL 0x46BA, 0
0x334C: 0E08       MOVLW 0x08
0x334E: 6E06       DW 0x6E06
0x3350: 0E0E       MOVLW 0x0E
0x3352: EC5D F023  CALL 0x46BA, 0
0x3356: 0E22       MOVLW 0x22
0x3358: 6E06       DW 0x6E06
0x335A: 0E0F       MOVLW 0x0F
0x335C: EC5D F023  CALL 0x46BA, 0
0x3360: 6A06       MOVWF 0x06, ACCESS
0x3362: 0E10       MOVLW 0x10
0x3364: EC5D F023  CALL 0x46BA, 0
0x3368: 6A06       MOVWF 0x06, ACCESS
0x336A: 0E11       MOVLW 0x11
0x336C: EC5D F023  CALL 0x46BA, 0
0x3370: 0E01       MOVLW 0x01
0x3372: 6E06       DW 0x6E06
0x3374: 0E1C       MOVLW 0x1C
0x3376: EC5D F023  CALL 0x46BA, 0
0x337A: 0E01       MOVLW 0x01
0x337C: 6E06       DW 0x6E06
0x337E: 0E1D       MOVLW 0x1D
0x3380: EC5D F023  CALL 0x46BA, 0
0x3384: 0E02       MOVLW 0x02
0x3386: 6E06       DW 0x6E06
0x3388: 0E2D       MOVLW 0x2D
0x338A: EC5D F023  CALL 0x46BA, 0
0x338E: 0E20       MOVLW 0x20
0x3390: 6E06       DW 0x6E06
0x3392: 0E2E       MOVLW 0x2E
0x3394: EF5D F023  GOTO 0x46BA
0x3398: C02F F003  MOVFF 0x02F, 0x003
0x339C: C030 F004  MOVFF 0x030, 0x004
0x33A0: C031 F005  MOVFF 0x031, 0x005
0x33A4: C032 F006  MOVFF 0x032, 0x006
0x33A8: 0E37       MOVLW 0x37
0x33AA: 6E07       DW 0x6E07
0x33AC: EC74 F01E  CALL 0x3CE8, 0
0x33B0: 5038       DW 0x5038
0x33B2: 0A80       XORLW 0x80
0x33B4: 6EF3       DW 0x6EF3
0x33B6: 0E80       MOVLW 0x80
0x33B8: 5CF3       DW 0x5CF3
0x33BA: 0E00       MOVLW 0x00
0x33BC: B4D8       BTFSC 0xD8, 2, ACCESS
0x33BE: 5C37       DW 0x5C37
0x33C0: E205       BC 0x33CC
0x33C2: 6A2F       MOVWF 0x2F, ACCESS
0x33C4: 6A30       MOVWF 0x30, ACCESS
0x33C6: 6A31       MOVWF 0x31, ACCESS
0x33C8: 6A32       MOVWF 0x32, ACCESS
0x33CA: D032       BRA 0x3430
0x33CC: 0E1D       MOVLW 0x1D
0x33CE: 5C37       DW 0x5C37
0x33D0: 0E00       MOVLW 0x00
0x33D2: 5838       DW 0x5838
0x33D4: E309       BNC 0x33E8
0x33D6: C02F F02F  MOVFF 0x02F, 0x02F
0x33DA: C030 F030  MOVFF 0x030, 0x030
0x33DE: C031 F031  MOVFF 0x031, 0x031
0x33E2: C032 F032  MOVFF 0x032, 0x032
0x33E6: D024       BRA 0x3430
0x33E8: C02F F025  MOVFF 0x02F, 0x025
0x33EC: C030 F026  MOVFF 0x030, 0x026
0x33F0: C031 F027  MOVFF 0x031, 0x027
0x33F4: C032 F028  MOVFF 0x032, 0x028
0x33F8: EC0D F018  CALL 0x301A, 0
0x33FC: C025 F00D  MOVFF 0x025, 0x00D
0x3400: C026 F00E  MOVFF 0x026, 0x00E
0x3404: C027 F00F  MOVFF 0x027, 0x00F
0x3408: C028 F010  MOVFF 0x028, 0x010
0x340C: EC05 F01F  CALL 0x3E0A, 0
0x3410: C00D F033  MOVFF 0x00D, 0x033
0x3414: C00E F034  MOVFF 0x00E, 0x034
0x3418: C00F F035  MOVFF 0x00F, 0x035
0x341C: C010 F036  MOVFF 0x010, 0x036
0x3420: C033 F02F  MOVFF 0x033, 0x02F
0x3424: C034 F030  MOVFF 0x034, 0x030
0x3428: C035 F031  MOVFF 0x035, 0x031
0x342C: C036 F032  MOVFF 0x036, 0x032
0x3430: 0012       RETURN 0
0x3432: 05D1       DECF 0xD1, W, BSR
0x3434: E10B       BNZ 0x344C
0x3436: 51CF       DW 0x51CF
0x3438: 0B1F       ANDLW 0x1F
0x343A: E108       BNZ 0x344C
0x343C: 0E01       MOVLW 0x01
0x343E: 6FC8       DW 0x6FC8
0x3440: 51D0       DW 0x51D0
0x3442: 0A03       XORLW 0x03
0x3444: E102       BNZ 0x344A
0x3446: 81CE       BSF 0xCE, 0, BSR
0x3448: D001       BRA 0x344C
0x344A: 91CE       BCF 0xCE, 0, BSR
0x344C: 67D1       DW 0x67D1
0x344E: D03B       BRA 0x34C6
0x3450: 51CF       DW 0x51CF
0x3452: 0B1F       ANDLW 0x1F
0x3454: 0A02       XORLW 0x02
0x3456: E137       BNZ 0x34C6
0x3458: 51D3       DW 0x51D3
0x345A: 0B0F       ANDLW 0x0F
0x345C: E034       BZ 0x34C6
0x345E: 0E01       MOVLW 0x01
0x3460: 6FC8       DW 0x6FC8
0x3462: 51D3       DW 0x51D3
0x3464: 0B0F       ANDLW 0x0F
0x3466: 0D08       MULLW 0x08
0x3468: 0E04       MOVLW 0x04
0x346A: 6E03       DW 0x6E03
0x346C: 6E04       DW 0x6E04
0x346E: 50F3       DW 0x50F3
0x3470: 2603       DW 0x2603
0x3472: 50F4       DW 0x50F4
0x3474: 2204       DW 0x2204
0x3476: 0E01       MOVLW 0x01
0x3478: AFD3       BTFSS 0xD3, 7, BSR
0x347A: 0E00       MOVLW 0x00
0x347C: 0D04       MULLW 0x04
0x347E: 50F3       DW 0x50F3
0x3480: 2403       DW 0x2403
0x3482: 6F72       DW 0x6F72
0x3484: 50F4       DW 0x50F4
0x3486: 2004       DW 0x2004
0x3488: 6F73       DW 0x6F73
0x348A: 51D0       DW 0x51D0
0x348C: 0A03       XORLW 0x03
0x348E: E106       BNZ 0x349C
0x3490: C072       DW 0xC072
0x3492: FFD9       DW 0xFFD9
0x3494: C073       DW 0xC073
0x3496: FFDA       DW 0xFFDA
0x3498: 0E04       MOVLW 0x04
0x349A: D00E       BRA 0x34B8
0x349C: AFD3       BTFSS 0xD3, 7, BSR
0x349E: D007       BRA 0x34AE
0x34A0: C072       DW 0xC072
0x34A2: FFD9       DW 0xFFD9
0x34A4: C073       DW 0xC073
0x34A6: FFDA       DW 0xFFDA
0x34A8: 0E40       MOVLW 0x40
0x34AA: 6EDF       DW 0x6EDF
0x34AC: D00C       BRA 0x34C6
0x34AE: C072       DW 0xC072
0x34B0: FFD9       DW 0xFFD9
0x34B2: C073       DW 0xC073
0x34B4: FFDA       DW 0xFFDA
0x34B6: 0E08       MOVLW 0x08
0x34B8: 6EDF       DW 0x6EDF
0x34BA: C072       DW 0xC072
0x34BC: FFD9       DW 0xFFD9
0x34BE: C073       DW 0xC073
0x34C0: FFDA       DW 0xFFDA
0x34C2: 0E00       MOVLW 0x00
0x34C4: 8EDB       BSF 0xDB, 7, ACCESS
0x34C6: 0012       RETURN 0
0x34C8: CFE8 F011  MOVFF 0xFE8, 0x011
0x34CC: C00A F00E  MOVFF 0x00A, 0x00E
0x34D0: C00B F00F  MOVFF 0x00B, 0x00F
0x34D4: C00E F003  MOVFF 0x00E, 0x003
0x34D8: C00F F004  MOVFF 0x00F, 0x004
0x34DC: C00C F005  MOVFF 0x00C, 0x005
0x34E0: C00D F006  MOVFF 0x00D, 0x006
0x34E4: EC92 F020  CALL 0x4124, 0
0x34E8: C003 F00E  MOVFF 0x003, 0x00E
0x34EC: C004 F00F  MOVFF 0x004, 0x00F
0x34F0: 2A11       INCF 0x11, F, ACCESS
0x34F2: 500F       DW 0x500F
0x34F4: 100E       IORWF 0x0E, W, ACCESS
0x34F6: E1EE       BNZ 0x34D4
0x34F8: 5011       DW 0x5011
0x34FA: 6ED9       DW 0x6ED9
0x34FC: 6ADA       MOVWF 0xDA, ACCESS
0x34FE: 0E00       MOVLW 0x00
0x3500: 6ADF       MOVWF 0xDF, ACCESS
0x3502: 0611       DECF 0x11, F, ACCESS
0x3504: C00A F003  MOVFF 0x00A, 0x003
0x3508: C00B F004  MOVFF 0x00B, 0x004
0x350C: C00C F005  MOVFF 0x00C, 0x005
0x3510: C00D F006  MOVFF 0x00D, 0x006
0x3514: EC3D F021  CALL 0x427A, 0
0x3518: 5003       DW 0x5003
0x351A: 6E10       DW 0x6E10
0x351C: C00A F003  MOVFF 0x00A, 0x003
0x3520: C00B F004  MOVFF 0x00B, 0x004
0x3524: C00C F005  MOVFF 0x00C, 0x005
0x3528: C00D F006  MOVFF 0x00D, 0x006
0x352C: EC92 F020  CALL 0x4124, 0
0x3530: C003 F00A  MOVFF 0x003, 0x00A
0x3534: C004 F00B  MOVFF 0x004, 0x00B
0x3538: 0E09       MOVLW 0x09
0x353A: 6410       DW 0x6410
0x353C: D002       BRA 0x3542
0x353E: 0E07       MOVLW 0x07
0x3540: 2610       DW 0x2610
0x3542: 0E30       MOVLW 0x30
0x3544: 2610       DW 0x2610
0x3546: 5011       DW 0x5011
0x3548: 6ED9       DW 0x6ED9
0x354A: 6ADA       MOVWF 0xDA, ACCESS
0x354C: C010       DW 0xC010
0x354E: FFDF       DW 0xFFDF
0x3550: 0611       DECF 0x11, F, ACCESS
0x3552: 500B       DW 0x500B
0x3554: 100A       IORWF 0x0A, W, ACCESS
0x3556: E1D6       BNZ 0x3504
0x3558: 2A11       INCF 0x11, F, ACCESS
0x355A: 0012       RETURN 0
0x355C: 6AF2       MOVWF 0xF2, ACCESS
0x355E: 6A9D       MOVWF 0x9D, ACCESS
0x3560: 6AA0       MOVWF 0xA0, ACCESS
0x3562: 6A9E       MOVWF 0x9E, ACCESS
0x3564: 6AA1       MOVWF 0xA1, ACCESS
0x3566: 6A80       MOVWF 0x80, ACCESS
0x3568: 6A81       MOVWF 0x81, ACCESS
0x356A: 6A82       MOVWF 0x82, ACCESS
0x356C: 0E07       MOVLW 0x07
0x356E: 6E92       DW 0x6E92
0x3570: 6A93       MOVWF 0x93, ACCESS
0x3572: 0E87       MOVLW 0x87
0x3574: 6E94       DW 0x6E94
0x3576: 0E70       MOVLW 0x70
0x3578: 6ED3       DW 0x6ED3
0x357A: 0E38       MOVLW 0x38
0x357C: 6EC6       DW 0x6EC6
0x357E: 0E01       MOVLW 0x01
0x3580: 6EC2       DW 0x6EC2
0x3582: 0E0C       MOVLW 0x0C
0x3584: 6EC1       DW 0x6EC1
0x3586: 0EB5       MOVLW 0xB5
0x3588: 6EC0       DW 0x6EC0
0x358A: 0E07       MOVLW 0x07
0x358C: 6ED5       DW 0x6ED5
0x358E: 0E80       MOVLW 0x80
0x3590: 6ECD       DW 0x6ECD
0x3592: 0E77       MOVLW 0x77
0x3594: 6EC8       DW 0x6EC8
0x3596: 0E01       MOVLW 0x01
0x3598: 0100       MOVLB 0x0
0x359A: 6FFE       DW 0x6FFE
0x359C: 6A04       MOVWF 0x04, ACCESS
0x359E: 0EFF       MOVLW 0xFF
0x35A0: 6803       CLRF 0x03, ACCESS
0x35A2: EC42 F024  CALL 0x4884, 0
0x35A6: 0A77       XORLW 0x77
0x35A8: E009       BZ 0x35BC
0x35AA: 6A04       MOVWF 0x04, ACCESS
0x35AC: 0EFF       MOVLW 0xFF
0x35AE: 6803       CLRF 0x03, ACCESS
0x35B0: EC42 F024  CALL 0x4884, 0
0x35B4: 0A88       XORLW 0x88
0x35B6: E002       BZ 0x35BC
0x35B8: 0100       MOVLB 0x0
0x35BA: 6BFE       MOVWF 0xFE, BSR
0x35BC: 0100       MOVLB 0x0
0x35BE: 51FE       DW 0x51FE
0x35C0: A4D8       BTFSS 0xD8, 2, ACCESS
0x35C2: EC5C F021  CALL 0x42B8, 0
0x35C6: 6A08       MOVWF 0x08, ACCESS
0x35C8: 6807       CLRF 0x07, ACCESS
0x35CA: 0E02       MOVLW 0x02
0x35CC: 6E09       DW 0x6E09
0x35CE: EC6F F023  CALL 0x46DE, 0
0x35D2: 8C81       BSF 0x81, 6, ACCESS
0x35D4: EC93 F01C  CALL 0x3926, 0
0x35D8: 0E03       MOVLW 0x03
0x35DA: 6E04       DW 0x6E04
0x35DC: 0EE8       MOVLW 0xE8
0x35DE: 6E03       DW 0x6E03
0x35E0: EC3F F022  CALL 0x447E, 0
0x35E4: EC44 F00F  CALL 0x1E88, 0
0x35E8: 8A9D       BSF 0x9D, 5, ACCESS
0x35EA: 865E       BSF 0x5E, 3, ACCESS
0x35EC: EFC6 F016  GOTO 0x2D8C
0x35F0: 0E08       MOVLW 0x08
0x35F2: 6F8F       DW 0x6F8F
0x35F4: 5DE7       DW 0x5DE7
0x35F6: 0E00       MOVLW 0x00
0x35F8: 59E8       DW 0x59E8
0x35FA: E20A       BC 0x3610
0x35FC: C0E7 F08F  MOVFF 0x0E7, 0x08F
0x3600: 67CC       DW 0x67CC
0x3602: D002       BRA 0x3608
0x3604: 0E01       MOVLW 0x01
0x3606: D003       BRA 0x360E
0x3608: 05CC       DECF 0xCC, W, BSR
0x360A: E102       BNZ 0x3610
0x360C: 0E02       MOVLW 0x02
0x360E: 6FCC       DW 0x6FCC
0x3610: C08F       DW 0xC08F
0x3612: F409       DW 0xF409
0x3614: 518F       DW 0x518F
0x3616: 5FE7       DW 0x5FE7
0x3618: 0E00       MOVLW 0x00
0x361A: 5BE8       DW 0x5BE8
0x361C: 0E04       MOVLW 0x04
0x361E: 0100       MOVLB 0x0
0x3620: 6F73       DW 0x6F73
0x3622: 0E24       MOVLW 0x24
0x3624: 6F72       DW 0x6F72
0x3626: B3CE       BTFSC 0xCE, 1, BSR
0x3628: D00A       BRA 0x363E
0x362A: D015       BRA 0x3656
0x362C: D817       RCALL 0x365C
0x362E: 64F7       DW 0x64F7
0x3630: D003       BRA 0x3638
0x3632: 0008       TBLRD*
0x3634: 50F5       DW 0x50F5
0x3636: D002       BRA 0x363C
0x3638: EC08 F01C  CALL 0x3810, 0
0x363C: D81A       RCALL 0x3672
0x363E: 678F       DW 0x678F
0x3640: D7F5       BRA 0x362C
0x3642: D00B       BRA 0x365A
0x3644: D80B       RCALL 0x365C
0x3646: 64F7       DW 0x64F7
0x3648: D003       BRA 0x3650
0x364A: 0008       TBLRD*
0x364C: 50F5       DW 0x50F5
0x364E: D002       BRA 0x3654
0x3650: EC08 F01C  CALL 0x3810, 0
0x3654: D80E       RCALL 0x3672
0x3656: 678F       DW 0x678F
0x3658: D7F5       BRA 0x3644
0x365A: 0012       RETURN 0
0x365C: C075       DW 0xC075
0x365E: FFF6       DW 0xFFF6
0x3660: C076       DW 0xC076
0x3662: FFF7       DW 0xFFF7
0x3664: 6AF8       MOVWF 0xF8, ACCESS
0x3666: C072       DW 0xC072
0x3668: FFD9       DW 0xFFD9
0x366A: C073       DW 0xC073
0x366C: FFDA       DW 0xFFDA
0x366E: 0E07       MOVLW 0x07
0x3670: 0012       RETURN 0
0x3672: 6EDF       DW 0x6EDF
0x3674: 0100       MOVLB 0x0
0x3676: 4B72       DW 0x4B72
0x3678: 2B73       INCF 0x73, F, BSR
0x367A: 4B75       DW 0x4B75
0x367C: 2B76       INCF 0x76, F, BSR
0x367E: 078F       DECF 0x8F, F, BSR
0x3680: 0012       RETURN 0
0x3682: 39CF       DW 0x39CF
0x3684: 32E8       DW 0x32E8
0x3686: 0B03       ANDLW 0x03
0x3688: E142       BNZ 0x370E
0x368A: D02C       BRA 0x36E4
0x368C: 0E01       MOVLW 0x01
0x368E: 6FC8       DW 0x6FC8
0x3690: 0E04       MOVLW 0x04
0x3692: 6FCD       DW 0x6FCD
0x3694: D03C       BRA 0x370E
0x3696: ECCB F01B  CALL 0x3796, 0
0x369A: D039       BRA 0x370E
0x369C: ECFF F020  CALL 0x41FE, 0
0x36A0: D036       BRA 0x370E
0x36A2: 0E01       MOVLW 0x01
0x36A4: 6FC8       DW 0x6FC8
0x36A6: 6B76       MOVWF 0x76, BSR
0x36A8: 0EEB       MOVLW 0xEB
0x36AA: 6F75       DW 0x6F75
0x36AC: 93CE       BCF 0xCE, 1, BSR
0x36AE: 0E01       MOVLW 0x01
0x36B0: 6FE7       DW 0x6FE7
0x36B2: D02D       BRA 0x370E
0x36B4: EC88 F01B  CALL 0x3710, 0
0x36B8: D02A       BRA 0x370E
0x36BA: EC19 F01A  CALL 0x3432, 0
0x36BE: D027       BRA 0x370E
0x36C0: 0E01       MOVLW 0x01
0x36C2: 6FC8       DW 0x6FC8
0x36C4: 51D3       DW 0x51D3
0x36C6: 0FEC       ADDLW 0xEC
0x36C8: 6E05       DW 0x6E05
0x36CA: 6B76       MOVWF 0x76, BSR
0x36CC: C005 F075  MOVFF 0x005, 0x075
0x36D0: D7ED       BRA 0x36AC
0x36D2: 0E01       MOVLW 0x01
0x36D4: 6FC8       DW 0x6FC8
0x36D6: 51D3       DW 0x51D3
0x36D8: 0FEC       ADDLW 0xEC
0x36DA: 6ED9       DW 0x6ED9
0x36DC: 6ADA       MOVWF 0xDA, ACCESS
0x36DE: C0D1       DW 0xC0D1
0x36E0: FFDF       DW 0xFFDF
0x36E2: D015       BRA 0x370E
0x36E4: 51D0       DW 0x51D0
0x36E6: E0E6       BZ 0x36B4
0x36E8: 0A01       XORLW 0x01
0x36EA: E0E7       BZ 0x36BA
0x36EC: 0A02       XORLW 0x02
0x36EE: E0E5       BZ 0x36BA
0x36F0: 0A06       XORLW 0x06
0x36F2: E0CC       BZ 0x368C
0x36F4: 0A03       XORLW 0x03
0x36F6: E0CF       BZ 0x3696
0x36F8: 0A01       XORLW 0x01
0x36FA: E009       BZ 0x370E
0x36FC: 0A0F       XORLW 0x0F
0x36FE: E0D1       BZ 0x36A2
0x3700: 0A01       XORLW 0x01
0x3702: E0CC       BZ 0x369C
0x3704: 0A03       XORLW 0x03
0x3706: E0DC       BZ 0x36C0
0x3708: 0A01       XORLW 0x01
0x370A: E0E3       BZ 0x36D2
0x370C: 0A07       XORLW 0x07
0x370E: 0012       RETURN 0
0x3710: 0104       MOVLB 0x4
0x3712: 6B24       MOVWF 0x24, BSR
0x3714: 6B25       MOVWF 0x25, BSR
0x3716: D02C       BRA 0x3770
0x3718: 0E01       MOVLW 0x01
0x371A: 6FC8       DW 0x6FC8
0x371C: A1CE       BTFSS 0xCE, 0, BSR
0x371E: D030       BRA 0x3780
0x3720: 0104       MOVLB 0x4
0x3722: 8324       BSF 0x24, 1, BSR
0x3724: D02D       BRA 0x3780
0x3726: 0E01       MOVLW 0x01
0x3728: 6FC8       DW 0x6FC8
0x372A: D02A       BRA 0x3780
0x372C: 0E01       MOVLW 0x01
0x372E: 6FC8       DW 0x6FC8
0x3730: 51D3       DW 0x51D3
0x3732: 0B0F       ANDLW 0x0F
0x3734: 0D08       MULLW 0x08
0x3736: 0E04       MOVLW 0x04
0x3738: 6E03       DW 0x6E03
0x373A: 6E04       DW 0x6E04
0x373C: 50F3       DW 0x50F3
0x373E: 2603       DW 0x2603
0x3740: 50F4       DW 0x50F4
0x3742: 2204       DW 0x2204
0x3744: 0E01       MOVLW 0x01
0x3746: AFD3       BTFSS 0xD3, 7, BSR
0x3748: 0E00       MOVLW 0x00
0x374A: 0D04       MULLW 0x04
0x374C: 50F3       DW 0x50F3
0x374E: 2403       DW 0x2403
0x3750: 6F72       DW 0x6F72
0x3752: 50F4       DW 0x50F4
0x3754: 2004       DW 0x2004
0x3756: 6F73       DW 0x6F73
0x3758: C072       DW 0xC072
0x375A: FFD9       DW 0xFFD9
0x375C: C073       DW 0xC073
0x375E: FFDA       DW 0xFFDA
0x3760: 50DF       DW 0x50DF
0x3762: 6E03       DW 0x6E03
0x3764: A403       BTFSS 0x03, 2, ACCESS
0x3766: D00C       BRA 0x3780
0x3768: 0E01       MOVLW 0x01
0x376A: 0104       MOVLB 0x4
0x376C: 6F24       DW 0x6F24
0x376E: D008       BRA 0x3780
0x3770: 0100       MOVLB 0x0
0x3772: 51CF       DW 0x51CF
0x3774: 0B1F       ANDLW 0x1F
0x3776: E0D0       BZ 0x3718
0x3778: 0A01       XORLW 0x01
0x377A: E0D5       BZ 0x3726
0x377C: 0A03       XORLW 0x03
0x377E: E0D6       BZ 0x372C
0x3780: 0100       MOVLB 0x0
0x3782: 05C8       DECF 0xC8, W, BSR
0x3784: E107       BNZ 0x3794
0x3786: 0E04       MOVLW 0x04
0x3788: 6F76       DW 0x6F76
0x378A: 0E24       MOVLW 0x24
0x378C: 6F75       DW 0x6F75
0x378E: 93CE       BCF 0xCE, 1, BSR
0x3790: 0E02       MOVLW 0x02
0x3792: 6FE7       DW 0x6FE7
0x3794: 0012       RETURN 0
0x3796: 51CF       DW 0x51CF
0x3798: 0A80       XORLW 0x80
0x379A: E031       BZ 0x37FE
0x379C: D038       BRA 0x380E
0x379E: 0E01       MOVLW 0x01
0x37A0: 6FC8       DW 0x6FC8
0x37A2: 0E10       MOVLW 0x10
0x37A4: 6F76       DW 0x6F76
0x37A6: 0E88       MOVLW 0x88
0x37A8: 6F75       DW 0x6F75
0x37AA: 0E12       MOVLW 0x12
0x37AC: D00B       BRA 0x37C4
0x37AE: 67D1       DW 0x67D1
0x37B0: D02D       BRA 0x380C
0x37B2: 0E01       MOVLW 0x01
0x37B4: 6FC8       DW 0x6FC8
0x37B6: 0E10       MOVLW 0x10
0x37B8: 6F76       DW 0x6F76
0x37BA: 0E2C       MOVLW 0x2C
0x37BC: 6F75       DW 0x6F75
0x37BE: 0E00       MOVLW 0x00
0x37C0: 6FE8       DW 0x6FE8
0x37C2: 0E29       MOVLW 0x29
0x37C4: 6FE7       DW 0x6FE7
0x37C6: D022       BRA 0x380C
0x37C8: 0E01       MOVLW 0x01
0x37CA: 6FC8       DW 0x6FC8
0x37CC: 51D1       DW 0x51D1
0x37CE: 0F29       ADDLW 0x29
0x37D0: 6EF6       DW 0x6EF6
0x37D2: 0E10       MOVLW 0x10
0x37D4: 6EF7       DW 0x6EF7
0x37D6: 0009       TBLRD*+
0x37D8: CFF5 F075  MOVFF 0xFF5, 0x075
0x37DC: 6F76       DW 0x6F76
0x37DE: C075       DW 0xC075
0x37E0: FFF6       DW 0xFFF6
0x37E2: C076       DW 0xC076
0x37E4: FFF7       DW 0xFFF7
0x37E6: 6AF8       MOVWF 0xF8, ACCESS
0x37E8: 0E07       MOVLW 0x07
0x37EA: 64F7       DW 0x64F7
0x37EC: D003       BRA 0x37F4
0x37EE: 0008       TBLRD*
0x37F0: 50F5       DW 0x50F5
0x37F2: D001       BRA 0x37F6
0x37F4: D80D       RCALL 0x3810
0x37F6: 0100       MOVLB 0x0
0x37F8: 6FE7       DW 0x6FE7
0x37FA: 6BE8       MOVWF 0xE8, BSR
0x37FC: D007       BRA 0x380C
0x37FE: 51D2       DW 0x51D2
0x3800: 0A01       XORLW 0x01
0x3802: E0CD       BZ 0x379E
0x3804: 0A03       XORLW 0x03
0x3806: E0D3       BZ 0x37AE
0x3808: 0A01       XORLW 0x01
0x380A: E0DE       BZ 0x37C8
0x380C: 83CE       BSF 0xCE, 1, BSR
0x380E: 0012       RETURN 0
0x3810: CFF6       DW 0xCFF6
0x3812: FFE1       DW 0xFFE1
0x3814: CFF7       DW 0xCFF7
0x3816: FFE2       DW 0xFFE2
0x3818: 50E7       DW 0x50E7
0x381A: 0012       RETURN 0
0x381C: C013 F003  MOVFF 0x013, 0x003
0x3820: C014 F004  MOVFF 0x014, 0x004
0x3824: 6A05       MOVWF 0x05, ACCESS
0x3826: 6A06       MOVWF 0x06, ACCESS
0x3828: 6A08       MOVWF 0x08, ACCESS
0x382A: 0E04       MOVLW 0x04
0x382C: 6E07       DW 0x6E07
0x382E: 6A0A       MOVWF 0x0A, ACCESS
0x3830: 0E17       MOVLW 0x17
0x3832: 6E09       DW 0x6E09
0x3834: EC14 F020  CALL 0x4028, 0
0x3838: C018 F02F  MOVFF 0x018, 0x02F
0x383C: C019 F031  MOVFF 0x019, 0x031
0x3840: 0E19       MOVLW 0x19
0x3842: 5C31       DW 0x5C31
0x3844: E22D       BC 0x38A0
0x3846: 0E04       MOVLW 0x04
0x3848: 2413       DW 0x2413
0x384A: 6E15       DW 0x6E15
0x384C: 0E00       MOVLW 0x00
0x384E: 2014       DW 0x2014
0x3850: 6E16       DW 0x6E16
0x3852: C015 F003  MOVFF 0x015, 0x003
0x3856: C016 F004  MOVFF 0x016, 0x004
0x385A: 6A05       MOVWF 0x05, ACCESS
0x385C: 6A06       MOVWF 0x06, ACCESS
0x385E: C031 F007  MOVFF 0x031, 0x007
0x3862: 6A08       MOVWF 0x08, ACCESS
0x3864: 6A0A       MOVWF 0x0A, ACCESS
0x3866: 0E17       MOVLW 0x17
0x3868: 6E09       DW 0x6E09
0x386A: EC14 F020  CALL 0x4028, 0
0x386E: 80C5       BSF 0xC5, 0, ACCESS
0x3870: B0C5       BTFSC 0xC5, 0, ACCESS
0x3872: D7FE       BRA 0x3870
0x3874: 0E68       MOVLW 0x68
0x3876: EC34 F01F  CALL 0x3E68, 0
0x387A: 502F       DW 0x502F
0x387C: EC34 F01F  CALL 0x3E68, 0
0x3880: 6A30       MOVWF 0x30, ACCESS
0x3882: D008       BRA 0x3894
0x3884: 5030       DW 0x5030
0x3886: 0F17       ADDLW 0x17
0x3888: 6ED9       DW 0x6ED9
0x388A: 6ADA       MOVWF 0xDA, ACCESS
0x388C: 50DF       DW 0x50DF
0x388E: EC34 F01F  CALL 0x3E68, 0
0x3892: 2A30       INCF 0x30, F, ACCESS
0x3894: 5031       DW 0x5031
0x3896: 5C30       DW 0x5C30
0x3898: E3F5       BNC 0x3884
0x389A: 84C5       BSF 0xC5, 2, ACCESS
0x389C: B4C5       BTFSC 0xC5, 2, ACCESS
0x389E: D7FE       BRA 0x389C
0x38A0: 0012       RETURN 0
0x38A2: C041 F039  MOVFF 0x041, 0x039
0x38A6: C042 F03A  MOVFF 0x042, 0x03A
0x38AA: C043 F03B  MOVFF 0x043, 0x03B
0x38AE: C044 F03C  MOVFF 0x044, 0x03C
0x38B2: C041 F02F  MOVFF 0x041, 0x02F
0x38B6: C042 F030  MOVFF 0x042, 0x030
0x38BA: C043 F031  MOVFF 0x043, 0x031
0x38BE: C044 F032  MOVFF 0x044, 0x032
0x38C2: ECCC F019  CALL 0x3398, 0
0x38C6: C02F F03D  MOVFF 0x02F, 0x03D
0x38CA: C030 F03E  MOVFF 0x030, 0x03E
0x38CE: C031 F03F  MOVFF 0x031, 0x03F
0x38D2: C032 F040  MOVFF 0x032, 0x040
0x38D6: EC97 F021  CALL 0x432E, 0
0x38DA: C039 F045  MOVFF 0x039, 0x045
0x38DE: C03A F046  MOVFF 0x03A, 0x046
0x38E2: C03B F047  MOVFF 0x03B, 0x047
0x38E6: C03C F048  MOVFF 0x03C, 0x048
0x38EA: C045 F02F  MOVFF 0x045, 0x02F
0x38EE: C046 F030  MOVFF 0x046, 0x030
0x38F2: C047 F031  MOVFF 0x047, 0x031
0x38F6: C048 F032  MOVFF 0x048, 0x032
0x38FA: 0E41       MOVLW 0x41
0x38FC: EC8F F01F  CALL 0x3F1E, 0
0x3900: C041 F02F  MOVFF 0x041, 0x02F
0x3904: C042 F030  MOVFF 0x042, 0x030
0x3908: C043 F031  MOVFF 0x043, 0x031
0x390C: C044 F032  MOVFF 0x044, 0x032
0x3910: ECCC F019  CALL 0x3398, 0
0x3914: C02F F041  MOVFF 0x02F, 0x041
0x3918: C030 F042  MOVFF 0x030, 0x042
0x391C: C031 F043  MOVFF 0x031, 0x043
0x3920: C032 F044  MOVFF 0x032, 0x044
0x3924: 0012       RETURN 0
0x3926: A482       BTFSS 0x82, 2, ACCESS
0x3928: D006       BRA 0x3936
0x392A: 848A       BSF 0x8A, 2, ACCESS
0x392C: 6AB0       MOVWF 0xB0, ACCESS
0x392E: 0E3F       MOVLW 0x3F
0x3930: 6EAF       DW 0x6EAF
0x3932: 82D3       BSF 0xD3, 1, ACCESS
0x3934: D005       BRA 0x3940
0x3936: 948A       BCF 0x8A, 2, ACCESS
0x3938: 6AB0       MOVWF 0xB0, ACCESS
0x393A: 0E7F       MOVLW 0x7F
0x393C: 6EAF       DW 0x6EAF
0x393E: 92D3       BCF 0xD3, 1, ACCESS
0x3940: 988A       BCF 0x8A, 4, ACCESS
0x3942: 9A8A       BCF 0x8A, 5, ACCESS
0x3944: 968A       BCF 0x8A, 3, ACCESS
0x3946: 9C89       BCF 0x89, 6, ACCESS
0x3948: 9689       BCF 0x89, 3, ACCESS
0x394A: 9889       BCF 0x89, 4, ACCESS
0x394C: 9A89       BCF 0x89, 5, ACCESS
0x394E: 9E8A       BCF 0x8A, 7, ACCESS
0x3950: EC9C F024  CALL 0x4938, 0
0x3954: 8EF2       BSF 0xF2, 7, ACCESS
0x3956: 8CF2       BSF 0xF2, 6, ACCESS
0x3958: 6B93       MOVWF 0x93, BSR
0x395A: C093 F0AB  MOVFF 0x093, 0x0AB
0x395E: 98F0       BCF 0xF0, 4, ACCESS
0x3960: 92F0       BCF 0xF0, 1, ACCESS
0x3962: 94F2       BCF 0xF2, 2, ACCESS
0x3964: 9ED5       BCF 0xD5, 7, ACCESS
0x3966: 9AF2       BCF 0xF2, 5, ACCESS
0x3968: 6BA4       MOVWF 0xA4, BSR
0x396A: 6BB0       MOVWF 0xB0, BSR
0x396C: 6BB6       MOVWF 0xB6, BSR
0x396E: 6BBA       MOVWF 0xBA, BSR
0x3970: 6B7E       MOVWF 0x7E, BSR
0x3972: 6B7F       MOVWF 0x7F, BSR
0x3974: 6BBD       MOVWF 0xBD, BSR
0x3976: 6A5E       MOVWF 0x5E, ACCESS
0x3978: 6BBB       MOVWF 0xBB, BSR
0x397A: 6BBC       MOVWF 0xBC, BSR
0x397C: 6BA1       MOVWF 0xA1, BSR
0x397E: 6B88       MOVWF 0x88, BSR
0x3980: 6B89       MOVWF 0x89, BSR
0x3982: 92C2       BCF 0xC2, 1, ACCESS
0x3984: 6B94       MOVWF 0x94, BSR
0x3986: 0E20       MOVLW 0x20
0x3988: 0101       MOVLB 0x1
0x398A: 6F0F       DW 0x6F0F
0x398C: 0E21       MOVLW 0x21
0x398E: 6F10       DW 0x6F10
0x3990: 0E22       MOVLW 0x22
0x3992: 6F11       DW 0x6F11
0x3994: 0E23       MOVLW 0x23
0x3996: 6F12       DW 0x6F12
0x3998: 0E25       MOVLW 0x25
0x399A: 6F13       DW 0x6F13
0x399C: 0E27       MOVLW 0x27
0x399E: 6F14       DW 0x6F14
0x39A0: 0E28       MOVLW 0x28
0x39A2: 6F15       DW 0x6F15
0x39A4: 0C28       RETLW 0x28
0x39A6: 6A16       MOVWF 0x16, ACCESS
0x39A8: 6A17       MOVWF 0x17, ACCESS
0x39AA: 6A18       MOVWF 0x18, ACCESS
0x39AC: 0E4B       MOVLW 0x4B
0x39AE: 6E19       DW 0x6E19
0x39B0: C049 F012  MOVFF 0x049, 0x012
0x39B4: C04A F013  MOVFF 0x04A, 0x013
0x39B8: C04B F014  MOVFF 0x04B, 0x014
0x39BC: C04C F015  MOVFF 0x04C, 0x015
0x39C0: EC5E F015  CALL 0x2ABC, 0
0x39C4: C012 F041  MOVFF 0x012, 0x041
0x39C8: C013 F042  MOVFF 0x013, 0x042
0x39CC: C014 F043  MOVFF 0x014, 0x043
0x39D0: C015 F044  MOVFF 0x015, 0x044
0x39D4: EC51 F01C  CALL 0x38A2, 0
0x39D8: C041 F04D  MOVFF 0x041, 0x04D
0x39DC: C042 F04E  MOVFF 0x042, 0x04E
0x39E0: C043 F04F  MOVFF 0x043, 0x04F
0x39E4: C044 F050  MOVFF 0x044, 0x050
0x39E8: C04D F025  MOVFF 0x04D, 0x025
0x39EC: C04E F026  MOVFF 0x04E, 0x026
0x39F0: C04F F027  MOVFF 0x04F, 0x027
0x39F4: C050 F028  MOVFF 0x050, 0x028
0x39F8: EC0D F018  CALL 0x301A, 0
0x39FC: C025 F051  MOVFF 0x025, 0x051
0x3A00: C026 F052  MOVFF 0x026, 0x052
0x3A04: C027 F053  MOVFF 0x027, 0x053
0x3A08: C028 F054  MOVFF 0x028, 0x054
0x3A0C: 5054       DW 0x5054
0x3A0E: 0B0F       ANDLW 0x0F
0x3A10: EC34 F01F  CALL 0x3E68, 0
0x3A14: 5053       DW 0x5053
0x3A16: EC34 F01F  CALL 0x3E68, 0
0x3A1A: 5052       DW 0x5052
0x3A1C: EC34 F01F  CALL 0x3E68, 0
0x3A20: 5051       DW 0x5051
0x3A22: EF34 F01F  GOTO 0x3E68
0x3A26: 0100       MOVLB 0x0
0x3A28: 51CD       DW 0x51CD
0x3A2A: 0A06       XORLW 0x06
0x3A2C: B4D8       BTFSC 0xD8, 2, ACCESS
0x3A2E: B26D       BTFSC 0x6D, 1, ACCESS
0x3A30: D004       BRA 0x3A3A
0x3A32: A65E       BTFSS 0x5E, 3, ACCESS
0x3A34: D002       BRA 0x3A3A
0x3A36: B082       BTFSC 0x82, 0, ACCESS
0x3A38: D003       BRA 0x3A40
0x3A3A: ECAF F024  CALL 0x495E, 0
0x3A3E: D031       BRA 0x3AA2
0x3A40: 67C0       DW 0x67C0
0x3A42: D01D       BRA 0x3A7E
0x3A44: 0104       MOVLB 0x4
0x3A46: BF0C       BTFSC 0x0C, 7, BSR
0x3A48: D02C       BRA 0x3AA2
0x3A4A: 0101       MOVLB 0x1
0x3A4C: 0E01       MOVLW 0x01
0x3A4E: 6E04       DW 0x6E04
0x3A50: 0E1A       MOVLW 0x1A
0x3A52: 6E03       DW 0x6E03
0x3A54: 0E40       MOVLW 0x40
0x3A56: 6E05       DW 0x6E05
0x3A58: EC41 F01E  CALL 0x3C82, 0
0x3A5C: 0E01       MOVLW 0x01
0x3A5E: 0100       MOVLB 0x0
0x3A60: 6FC0       DW 0x6FC0
0x3A62: 6A59       MOVWF 0x59, ACCESS
0x3A64: 0101       MOVLB 0x1
0x3A66: 0E5A       MOVLW 0x5A
0x3A68: 2459       DW 0x2459
0x3A6A: 6ED9       DW 0x6ED9
0x3A6C: 6ADA       MOVWF 0xDA, ACCESS
0x3A6E: 0E01       MOVLW 0x01
0x3A70: 22DA       DW 0x22DA
0x3A72: 6ADF       MOVWF 0xDF, ACCESS
0x3A74: 2A59       INCF 0x59, F, ACCESS
0x3A76: 0E3F       MOVLW 0x3F
0x3A78: 6459       DW 0x6459
0x3A7A: D7F4       BRA 0x3A64
0x3A7C: D012       BRA 0x3AA2
0x3A7E: 0101       MOVLB 0x1
0x3A80: 511A       DW 0x511A
0x3A82: EC56 F008  CALL 0x10AC, 0
0x3A86: 0104       MOVLB 0x4
0x3A88: BF10       BTFSC 0x10, 7, BSR
0x3A8A: D00B       BRA 0x3AA2
0x3A8C: 0101       MOVLB 0x1
0x3A8E: 0E01       MOVLW 0x01
0x3A90: 6E04       DW 0x6E04
0x3A92: 0E5A       MOVLW 0x5A
0x3A94: 6E03       DW 0x6E03
0x3A96: 0E40       MOVLW 0x40
0x3A98: 6E05       DW 0x6E05
0x3A9A: ECE8 F01F  CALL 0x3FD0, 0
0x3A9E: 0100       MOVLB 0x0
0x3AA0: 6BC0       MOVWF 0xC0, BSR
0x3AA2: 0012       RETURN 0
0x3AA4: 6A0E       MOVWF 0x0E, ACCESS
0x3AA6: 6A0D       MOVWF 0x0D, ACCESS
0x3AA8: 6A0F       MOVWF 0x0F, ACCESS
0x3AAA: 6A0B       MOVWF 0x0B, ACCESS
0x3AAC: C005 F003  MOVFF 0x005, 0x003
0x3AB0: C006 F004  MOVFF 0x006, 0x004
0x3AB4: ECBD F023  CALL 0x477A, 0
0x3AB8: EC39 F024  CALL 0x4872, 0
0x3ABC: 0900       IORLW 0x00
0x3ABE: E023       BZ 0x3B06
0x3AC0: C00F F00A  MOVFF 0x00F, 0x00A
0x3AC4: ECFD F022  CALL 0x45FA, 0
0x3AC8: 6E0F       DW 0x6E0F
0x3ACA: 500D       DW 0x500D
0x3ACC: E00A       BZ 0x3AE2
0x3ACE: 500E       DW 0x500E
0x3AD0: 2407       DW 0x2407
0x3AD2: 6ED9       DW 0x6ED9
0x3AD4: 0E00       MOVLW 0x00
0x3AD6: 2008       DW 0x2008
0x3AD8: 6EDA       DW 0x6EDA
0x3ADA: C00F       DW 0xC00F
0x3ADC: FFDF       DW 0xFFDF
0x3ADE: 2A0E       INCF 0x0E, F, ACCESS
0x3AE0: D005       BRA 0x3AEC
0x3AE2: 500F       DW 0x500F
0x3AE4: 0A3A       XORLW 0x3A
0x3AE6: E102       BNZ 0x3AEC
0x3AE8: 0E01       MOVLW 0x01
0x3AEA: 6E0D       DW 0x6E0D
0x3AEC: 6A0C       MOVWF 0x0C, ACCESS
0x3AEE: 500D       DW 0x500D
0x3AF0: E008       BZ 0x3B02
0x3AF2: 500A       DW 0x500A
0x3AF4: 0A0D       XORLW 0x0D
0x3AF6: E105       BNZ 0x3B02
0x3AF8: 500F       DW 0x500F
0x3AFA: 0A0A       XORLW 0x0A
0x3AFC: E102       BNZ 0x3B02
0x3AFE: 0E01       MOVLW 0x01
0x3B00: 6E0C       DW 0x6E0C
0x3B02: C00C F00B  MOVFF 0x00C, 0x00B
0x3B06: EC86 F024  CALL 0x490C, 0
0x3B0A: E205       BC 0x3B16
0x3B0C: 5009       DW 0x5009
0x3B0E: 5C0E       DW 0x5C0E
0x3B10: E202       BC 0x3B16
0x3B12: 500B       DW 0x500B
0x3B14: E0D1       BZ 0x3AB8
0x3B16: ECA6 F024  CALL 0x494C, 0
0x3B1A: 500E       DW 0x500E
0x3B1C: 0012       RETURN 0
0x3B1E: 0006       POP
0x3B20: AAA1       BTFSS 0xA1, 5, ACCESS
0x3B22: D002       BRA 0x3B28
0x3B24: 9AA1       BCF 0xA1, 5, ACCESS
0x3B26: 9AA0       BCF 0xA0, 5, ACCESS
0x3B28: A4F2       BTFSS 0xF2, 2, ACCESS
0x3B2A: D005       BRA 0x3B36
0x3B2C: 0100       MOVLB 0x0
0x3B2E: 817E       BSF 0x7E, 0, BSR
0x3B30: 94F2       BCF 0xF2, 2, ACCESS
0x3B32: 9AF2       BCF 0xF2, 5, ACCESS
0x3B34: 9ED5       BCF 0xD5, 7, ACCESS
0x3B36: A2A1       BTFSS 0xA1, 1, ACCESS
0x3B38: D011       BRA 0x3B5C
0x3B3A: 90B1       BCF 0xB1, 0, ACCESS
0x3B3C: 0EF8       MOVLW 0xF8
0x3B3E: 6EB3       DW 0x6EB3
0x3B40: 0E30       MOVLW 0x30
0x3B42: 6EB2       DW 0x6EB2
0x3B44: 80B1       BSF 0xB1, 0, ACCESS
0x3B46: 92A1       BCF 0xA1, 1, ACCESS
0x3B48: 0100       MOVLB 0x0
0x3B4A: 518D       DW 0x518D
0x3B4C: 118C       IORWF 0x8C, W, BSR
0x3B4E: E004       BZ 0x3B58
0x3B50: 078C       DECF 0x8C, F, BSR
0x3B52: A0D8       BTFSS 0xD8, 0, ACCESS
0x3B54: 078D       DECF 0x8D, F, BSR
0x3B56: D002       BRA 0x3B5C
0x3B58: 90B1       BCF 0xB1, 0, ACCESS
0x3B5A: 92A0       BCF 0xA0, 1, ACCESS
0x3B5C: AA9E       BTFSS 0x9E, 5, ACCESS
0x3B5E: D016       BRA 0x3B8C
0x3B60: 0E00       MOVLW 0x00
0x3B62: 0100       MOVLB 0x0
0x3B64: 25C7       DW 0x25C7
0x3B66: 6ED9       DW 0x6ED9
0x3B68: 6ADA       MOVWF 0xDA, ACCESS
0x3B6A: 0E02       MOVLW 0x02
0x3B6C: 22DA       DW 0x22DA
0x3B6E: CFAE       DW 0xCFAE
0x3B70: FFDF       DW 0xFFDF
0x3B72: 2BC7       INCF 0xC7, F, BSR
0x3B74: 0EBF       MOVLW 0xBF
0x3B76: 65C7       DW 0x65C7
0x3B78: D001       BRA 0x3B7C
0x3B7A: 6BC7       MOVWF 0xC7, BSR
0x3B7C: A2AB       BTFSS 0xAB, 1, ACCESS
0x3B7E: D006       BRA 0x3B8C
0x3B80: 98AB       BCF 0xAB, 4, ACCESS
0x3B82: F000       DW 0xF000
0x3B84: 88AB       BSF 0xAB, 4, ACCESS
0x3B86: 805E       BSF 0x5E, 0, ACCESS
0x3B88: 0100       MOVLB 0x0
0x3B8A: 6B98       MOVWF 0x98, BSR
0x3B8C: C002       DW 0xC002
0x3B8E: FFDA       DW 0xFFDA
0x3B90: C001       DW 0xC001
0x3B92: FFD9       DW 0xFFD9
0x3B94: 0011       RETFIE 1
0x3B96: 0EBF       MOVLW 0xBF
0x3B98: EC4B F024  CALL 0x4896, 0
0x3B9C: 0E05       MOVLW 0x05
0x3B9E: EC4B F024  CALL 0x4896, 0
0x3BA2: 505F       DW 0x505F
0x3BA4: EC4B F024  CALL 0x4896, 0
0x3BA8: EC97 F024  CALL 0x492E, 0
0x3BAC: 0EBF       MOVLW 0xBF
0x3BAE: EC4B F024  CALL 0x4896, 0
0x3BB2: 0E07       MOVLW 0x07
0x3BB4: EC4B F024  CALL 0x4896, 0
0x3BB8: 0100       MOVLB 0x0
0x3BBA: 516E       DW 0x516E
0x3BBC: 0F60       ADDLW 0x60
0x3BBE: EC4B F024  CALL 0x4896, 0
0x3BC2: EC97 F024  CALL 0x492E, 0
0x3BC6: 0EBF       MOVLW 0xBF
0x3BC8: EC4B F024  CALL 0x4896, 0
0x3BCC: 0E03       MOVLW 0x03
0x3BCE: EC4B F024  CALL 0x4896, 0
0x3BD2: 0E01       MOVLW 0x01
0x3BD4: A65E       BTFSS 0x5E, 3, ACCESS
0x3BD6: 0E00       MOVLW 0x00
0x3BD8: EC4B F024  CALL 0x4896, 0
0x3BDC: EC97 F024  CALL 0x492E, 0
0x3BE0: 0EBF       MOVLW 0xBF
0x3BE2: EC4B F024  CALL 0x4896, 0
0x3BE6: 0E06       MOVLW 0x06
0x3BE8: EC4B F024  CALL 0x4896, 0
0x3BEC: 0100       MOVLB 0x0
0x3BEE: 5199       DW 0x5199
0x3BF0: EC4B F024  CALL 0x4896, 0
0x3BF4: EC97 F024  CALL 0x492E, 0
0x3BF8: 0EBF       MOVLW 0xBF
0x3BFA: EC4B F024  CALL 0x4896, 0
0x3BFE: 0E1D       MOVLW 0x1D
0x3C00: EC4B F024  CALL 0x4896, 0
0x3C04: 0100       MOVLB 0x0
0x3C06: 51B8       DW 0x51B8
0x3C08: EF4B F024  GOTO 0x4896
0x3C0C: 6A06       MOVWF 0x06, ACCESS
0x3C0E: 0E1B       MOVLW 0x1B
0x3C10: EC5D F023  CALL 0x46BA, 0
0x3C14: 6A06       MOVWF 0x06, ACCESS
0x3C16: 0E1C       MOVLW 0x1C
0x3C18: EC5D F023  CALL 0x46BA, 0
0x3C1C: 6A06       MOVWF 0x06, ACCESS
0x3C1E: 0E1D       MOVLW 0x1D
0x3C20: EC5D F023  CALL 0x46BA, 0
0x3C24: A482       BTFSS 0x82, 2, ACCESS
0x3C26: D006       BRA 0x3C34
0x3C28: 848A       BSF 0x8A, 2, ACCESS
0x3C2A: 6AB0       MOVWF 0xB0, ACCESS
0x3C2C: 0E3F       MOVLW 0x3F
0x3C2E: 6EAF       DW 0x6EAF
0x3C30: 82D3       BSF 0xD3, 1, ACCESS
0x3C32: D005       BRA 0x3C3E
0x3C34: 948A       BCF 0x8A, 2, ACCESS
0x3C36: 6AB0       MOVWF 0xB0, ACCESS
0x3C38: 0E7F       MOVLW 0x7F
0x3C3A: 6EAF       DW 0x6EAF
0x3C3C: 92D3       BCF 0xD3, 1, ACCESS
0x3C3E: 988A       BCF 0x8A, 4, ACCESS
0x3C40: 9C89       BCF 0x89, 6, ACCESS
0x3C42: 9689       BCF 0x89, 3, ACCESS
0x3C44: 9889       BCF 0x89, 4, ACCESS
0x3C46: 9A89       BCF 0x89, 5, ACCESS
0x3C48: 0E28       MOVLW 0x28
0x3C4A: 0100       MOVLB 0x0
0x3C4C: 5D88       DW 0x5D88
0x3C4E: 0E02       MOVLW 0x02
0x3C50: 5989       DW 0x5989
0x3C52: E212       BC 0x3C78
0x3C54: 6A08       MOVWF 0x08, ACCESS
0x3C56: 6A09       MOVWF 0x09, ACCESS
0x3C58: C008 F006  MOVFF 0x008, 0x006
0x3C5C: 0E1C       MOVLW 0x1C
0x3C5E: EC5D F023  CALL 0x46BA, 0
0x3C62: 0E01       MOVLW 0x01
0x3C64: 1A08       XORWF 0x08, F, ACCESS
0x3C66: 6A04       MOVWF 0x04, ACCESS
0x3C68: 0EFA       MOVLW 0xFA
0x3C6A: 6E03       DW 0x6E03
0x3C6C: EC3F F022  CALL 0x447E, 0
0x3C70: 2A09       INCF 0x09, F, ACCESS
0x3C72: 0E04       MOVLW 0x04
0x3C74: 6409       DW 0x6409
0x3C76: D7F0       BRA 0x3C58
0x3C78: 968A       BCF 0x8A, 3, ACCESS
0x3C7A: 9ED5       BCF 0xD5, 7, ACCESS
0x3C7C: 9AF2       BCF 0xF2, 5, ACCESS
0x3C7E: EF78 F024  GOTO 0x48F0
0x3C82: 0100       MOVLB 0x0
0x3C84: 6BCA       MOVWF 0xCA, BSR
0x3C86: 0104       MOVLB 0x4
0x3C88: BF0C       BTFSC 0x0C, 7, BSR
0x3C8A: D02D       BRA 0x3CE6
0x3C8C: 5005       DW 0x5005
0x3C8E: 5D0D       DW 0x5D0D
0x3C90: A0D8       BTFSS 0xD8, 0, ACCESS
0x3C92: C40D F005  MOVFF 0x40D, 0x005
0x3C96: 0100       MOVLB 0x0
0x3C98: 6BCA       MOVWF 0xCA, BSR
0x3C9A: D010       BRA 0x3CBC
0x3C9C: 0E2C       MOVLW 0x2C
0x3C9E: 0100       MOVLB 0x0
0x3CA0: 25CA       DW 0x25CA
0x3CA2: 6ED9       DW 0x6ED9
0x3CA4: 6ADA       MOVWF 0xDA, ACCESS
0x3CA6: 0E04       MOVLW 0x04
0x3CA8: 22DA       DW 0x22DA
0x3CAA: 51CA       DW 0x51CA
0x3CAC: 2403       DW 0x2403
0x3CAE: 6EE1       DW 0x6EE1
0x3CB0: 0E00       MOVLW 0x00
0x3CB2: 2004       DW 0x2004
0x3CB4: 6EE2       DW 0x6EE2
0x3CB6: CFDF       DW 0xCFDF
0x3CB8: FFE7       DW 0xFFE7
0x3CBA: 2BCA       INCF 0xCA, F, BSR
0x3CBC: 5005       DW 0x5005
0x3CBE: 5DCA       DW 0x5DCA
0x3CC0: E3ED       BNC 0x3C9C
0x3CC2: 0E40       MOVLW 0x40
0x3CC4: 0104       MOVLB 0x4
0x3CC6: 6F0D       DW 0x6F0D
0x3CC8: 170C       ANDWF 0x0C, F, BSR
0x3CCA: 0E01       MOVLW 0x01
0x3CCC: BD0C       BTFSC 0x0C, 6, BSR
0x3CCE: 0E00       MOVLW 0x00
0x3CD0: 6E06       DW 0x6E06
0x3CD2: 3A06       DW 0x3A06
0x3CD4: 4606       DW 0x4606
0x3CD6: 4606       DW 0x4606
0x3CD8: 510C       DW 0x510C
0x3CDA: 1806       XORWF 0x06, W, ACCESS
0x3CDC: 0BBF       ANDLW 0xBF
0x3CDE: 1806       XORWF 0x06, W, ACCESS
0x3CE0: 6F0C       DW 0x6F0C
0x3CE2: 870C       BSF 0x0C, 3, BSR
0x3CE4: 8F0C       BSF 0x0C, 7, BSR
0x3CE6: 0012       RETURN 0
0x3CE8: EE20       DW 0xEE20
0x3CEA: F003       DW 0xF003
0x3CEC: 50DE       DW 0x50DE
0x3CEE: 10DE       IORWF 0xDE, W, ACCESS
0x3CF0: 10DE       IORWF 0xDE, W, ACCESS
0x3CF2: 10DE       IORWF 0xDE, W, ACCESS
0x3CF4: E107       BNZ 0x3D04
0x3CF6: 5007       DW 0x5007
0x3CF8: 6ED9       DW 0x6ED9
0x3CFA: 6ADA       MOVWF 0xDA, ACCESS
0x3CFC: 0E00       MOVLW 0x00
0x3CFE: 6EDE       DW 0x6EDE
0x3D00: 6EDD       DW 0x6EDD
0x3D02: D024       BRA 0x3D4C
0x3D04: 5006       DW 0x5006
0x3D06: 0B7F       ANDLW 0x7F
0x3D08: 6E08       DW 0x6E08
0x3D0A: 90D8       BCF 0xD8, 0, ACCESS
0x3D0C: 3408       DW 0x3408
0x3D0E: 6E09       DW 0x6E09
0x3D10: 6A0A       MOVWF 0x0A, ACCESS
0x3D12: 360A       DW 0x360A
0x3D14: 5007       DW 0x5007
0x3D16: 6ED9       DW 0x6ED9
0x3D18: 6ADA       MOVWF 0xDA, ACCESS
0x3D1A: C009       DW 0xC009
0x3D1C: FFDE       DW 0xFFDE
0x3D1E: C00A       DW 0xC00A
0x3D20: FFDD       DW 0xFFDD
0x3D22: 5007       DW 0x5007
0x3D24: 6ED9       DW 0x6ED9
0x3D26: 6ADA       MOVWF 0xDA, ACCESS
0x3D28: 0E01       MOVLW 0x01
0x3D2A: AE05       BTFSS 0x05, 7, ACCESS
0x3D2C: 0E00       MOVLW 0x00
0x3D2E: 12DE       IORWF 0xDE, F, ACCESS
0x3D30: 0E00       MOVLW 0x00
0x3D32: 12DD       IORWF 0xDD, F, ACCESS
0x3D34: 5007       DW 0x5007
0x3D36: 6ED9       DW 0x6ED9
0x3D38: 6ADA       MOVWF 0xDA, ACCESS
0x3D3A: 0E82       MOVLW 0x82
0x3D3C: 26DE       DW 0x26DE
0x3D3E: 0EFF       MOVLW 0xFF
0x3D40: 22DD       DW 0x22DD
0x3D42: 5006       DW 0x5006
0x3D44: 0B80       ANDLW 0x80
0x3D46: 093F       IORLW 0x3F
0x3D48: 6E06       DW 0x6E06
0x3D4A: 9E05       BCF 0x05, 7, ACCESS
0x3D4C: 0012       RETURN 0
0x3D4E: EE03 F000  LFSR FSR3, 0x000
0x3D52: 0EC0       MOVLW 0xC0
0x3D54: 6AEE       MOVWF 0xEE, ACCESS
0x3D56: 06E8       DECF 0xE8, F, ACCESS
0x3D58: E1FD       BNZ 0x3D54
0x3D5A: EE02 F000  LFSR FSR2, 0x000
0x3D5E: 0EDE       MOVLW 0xDE
0x3D60: 6AEE       MOVWF 0xEE, ACCESS
0x3D62: 06E8       DECF 0xE8, F, ACCESS
0x3D64: E1FD       BNZ 0x3D60
0x3D66: EE01 F000  LFSR FSR1, 0x000
0x3D6A: 0EE5       MOVLW 0xE5
0x3D6C: 6AEE       MOVWF 0xEE, ACCESS
0x3D6E: 06E8       DECF 0xE8, F, ACCESS
0x3D70: E1FD       BNZ 0x3D6C
0x3D72: EE00 F060  LFSR FSR0, 0x060
0x3D76: 0E8D       MOVLW 0x8D
0x3D78: 6AEE       MOVWF 0xEE, ACCESS
0x3D7A: 06E8       DECF 0xE8, F, ACCESS
0x3D7C: E1FD       BNZ 0x3D78
0x3D7E: 6A5F       MOVWF 0x5F, ACCESS
0x3D80: 6A5E       MOVWF 0x5E, ACCESS
0x3D82: 0EE6       MOVLW 0xE6
0x3D84: 6EF6       DW 0x6EF6
0x3D86: 0E47       MOVLW 0x47
0x3D88: 6EF7       DW 0x6EF7
0x3D8A: 0E00       MOVLW 0x00
0x3D8C: 6EF8       DW 0x6EF8
0x3D8E: EE01 F0E5  LFSR FSR1, 0x0E5
0x3D92: EE10       DW 0xEE10
0x3D94: F016       DW 0xF016
0x3D96: 0009       TBLRD*+
0x3D98: CFF5       DW 0xCFF5
0x3D9A: FFEE       DW 0xFFEE
0x3D9C: 50E5       DW 0x50E5
0x3D9E: 50E1       DW 0x50E1
0x3DA0: E1FA       BNZ 0x3D96
0x3DA2: 0E00       MOVLW 0x00
0x3DA4: 6EF8       DW 0x6EF8
0x3DA6: 0100       MOVLB 0x0
0x3DA8: EF63 F024  GOTO 0x48C6
0x3DAC: 6A0B       MOVWF 0x0B, ACCESS
0x3DAE: C003 F00C  MOVFF 0x003, 0x00C
0x3DB2: C004 F00D  MOVFF 0x004, 0x00D
0x3DB6: C005 F00E  MOVFF 0x005, 0x00E
0x3DBA: C006 F00F  MOVFF 0x006, 0x00F
0x3DBE: D01A       BRA 0x3DF4
0x3DC0: C00E       DW 0xC00E
0x3DC2: FFF8       DW 0xFFF8
0x3DC4: C00D       DW 0xC00D
0x3DC6: FFF7       DW 0xFFF7
0x3DC8: C00C       DW 0xC00C
0x3DCA: FFF6       DW 0xFFF6
0x3DCC: 8EA6       BSF 0xA6, 7, ACCESS
0x3DCE: 9CA6       BCF 0xA6, 6, ACCESS
0x3DD0: 84A6       BSF 0xA6, 2, ACCESS
0x3DD2: 88A6       BSF 0xA6, 4, ACCESS
0x3DD4: AEF2       BTFSS 0xF2, 7, ACCESS
0x3DD6: D003       BRA 0x3DDE
0x3DD8: 9EF2       BCF 0xF2, 7, ACCESS
0x3DDA: 0E01       MOVLW 0x01
0x3DDC: 6E0B       DW 0x6E0B
0x3DDE: EC03 F022  CALL 0x4406, 0
0x3DE2: 500B       DW 0x500B
0x3DE4: A4D8       BTFSS 0xD8, 2, ACCESS
0x3DE6: 8EF2       BSF 0xF2, 7, ACCESS
0x3DE8: 0E40       MOVLW 0x40
0x3DEA: 260C       DW 0x260C
0x3DEC: 0E00       MOVLW 0x00
0x3DEE: 220D       DW 0x220D
0x3DF0: 220E       DW 0x220E
0x3DF2: 220F       DW 0x220F
0x3DF4: 5007       DW 0x5007
0x3DF6: 5C0C       DW 0x5C0C
0x3DF8: 5008       DW 0x5008
0x3DFA: 580D       DW 0x580D
0x3DFC: 5009       DW 0x5009
0x3DFE: 580E       DW 0x580E
0x3E00: 500A       DW 0x500A
0x3E02: 580F       DW 0x580F
0x3E04: B0D8       BTFSC 0xD8, 0, ACCESS
0x3E06: 0012       RETURN 0
0x3E08: D7DB       BRA 0x3DC0
0x3E0A: 6A11       MOVWF 0x11, ACCESS
0x3E0C: 5010       DW 0x5010
0x3E0E: 0A80       XORLW 0x80
0x3E10: 0F80       ADDLW 0x80
0x3E12: E108       BNZ 0x3E24
0x3E14: 0E00       MOVLW 0x00
0x3E16: 5C0F       DW 0x5C0F
0x3E18: E105       BNZ 0x3E24
0x3E1A: 0E00       MOVLW 0x00
0x3E1C: 5C0E       DW 0x5C0E
0x3E1E: E102       BNZ 0x3E24
0x3E20: 0E00       MOVLW 0x00
0x3E22: 5C0D       DW 0x5C0D
0x3E24: E20A       BC 0x3E3A
0x3E26: 1E10       DW 0x1E10
0x3E28: 1E0F       DW 0x1E0F
0x3E2A: 1E0E       DW 0x1E0E
0x3E2C: 6C0D       DW 0x6C0D
0x3E2E: 0E00       MOVLW 0x00
0x3E30: 220E       DW 0x220E
0x3E32: 220F       DW 0x220F
0x3E34: 2210       DW 0x2210
0x3E36: 0E01       MOVLW 0x01
0x3E38: 6E11       DW 0x6E11
0x3E3A: C00D F003  MOVFF 0x00D, 0x003
0x3E3E: C00E F004  MOVFF 0x00E, 0x004
0x3E42: C00F F005  MOVFF 0x00F, 0x005
0x3E46: C010 F006  MOVFF 0x010, 0x006
0x3E4A: 0E96       MOVLW 0x96
0x3E4C: 6E07       DW 0x6E07
0x3E4E: C011 F008  MOVFF 0x011, 0x008
0x3E52: EC6C F018  CALL 0x30D8, 0
0x3E56: C003 F00D  MOVFF 0x003, 0x00D
0x3E5A: C004 F00E  MOVFF 0x004, 0x00E
0x3E5E: C005 F00F  MOVFF 0x005, 0x00F
0x3E62: C006 F010  MOVFF 0x006, 0x010
0x3E66: 0012       RETURN 0
0x3E68: CFE8 F005  MOVFF 0xFE8, 0x005
0x3E6C: C005       DW 0xC005
0x3E6E: FFC9       DW 0xFFC9
0x3E70: BEC6       BTFSC 0xC6, 7, ACCESS
0x3E72: D027       BRA 0x3EC2
0x3E74: CFC6 F004  MOVFF 0xFC6, 0x004
0x3E78: 0E0F       MOVLW 0x0F
0x3E7A: 1604       ANDWF 0x04, F, ACCESS
0x3E7C: 5004       DW 0x5004
0x3E7E: 0A08       XORLW 0x08
0x3E80: E00D       BZ 0x3E9C
0x3E82: CFC6 F004  MOVFF 0xFC6, 0x004
0x3E86: 0E0F       MOVLW 0x0F
0x3E88: 1604       ANDWF 0x04, F, ACCESS
0x3E8A: 5004       DW 0x5004
0x3E8C: 0A0B       XORLW 0x0B
0x3E8E: E006       BZ 0x3E9C
0x3E90: 88C6       BSF 0xC6, 4, ACCESS
0x3E92: A69E       BTFSS 0x9E, 3, ACCESS
0x3E94: D7FE       BRA 0x3E92
0x3E96: A4C7       BTFSS 0xC7, 2, ACCESS
0x3E98: 50C7       DW 0x50C7
0x3E9A: D013       BRA 0x3EC2
0x3E9C: CFC6 F004  MOVFF 0xFC6, 0x004
0x3EA0: 0E0F       MOVLW 0x0F
0x3EA2: 1604       ANDWF 0x04, F, ACCESS
0x3EA4: 5004       DW 0x5004
0x3EA6: 0A08       XORLW 0x08
0x3EA8: E007       BZ 0x3EB8
0x3EAA: CFC6 F004  MOVFF 0xFC6, 0x004
0x3EAE: 0E0F       MOVLW 0x0F
0x3EB0: 1604       ANDWF 0x04, F, ACCESS
0x3EB2: 5004       DW 0x5004
0x3EB4: 0A0B       XORLW 0x0B
0x3EB6: E105       BNZ 0x3EC2
0x3EB8: B0C7       BTFSC 0xC7, 0, ACCESS
0x3EBA: D7FE       BRA 0x3EB8
0x3EBC: EC5B F024  CALL 0x48B6, 0
0x3EC0: 50C5       DW 0x50C5
0x3EC2: 0012       RETURN 0
0x3EC4: CFE8 F02D  MOVFF 0xFE8, 0x02D
0x3EC8: 502D       DW 0x502D
0x3ECA: 6ED9       DW 0x6ED9
0x3ECC: 6ADA       MOVWF 0xDA, ACCESS
0x3ECE: CFDE F012  MOVFF 0xFDE, 0x012
0x3ED2: CFDE F013  MOVFF 0xFDE, 0x013
0x3ED6: CFDE F014  MOVFF 0xFDE, 0x014
0x3EDA: CFDE F015  MOVFF 0xFDE, 0x015
0x3EDE: C025 F016  MOVFF 0x025, 0x016
0x3EE2: C026 F017  MOVFF 0x026, 0x017
0x3EE6: C027 F018  MOVFF 0x027, 0x018
0x3EEA: C028 F019  MOVFF 0x028, 0x019
0x3EEE: EC5E F015  CALL 0x2ABC, 0
0x3EF2: C012 F029  MOVFF 0x012, 0x029
0x3EF6: C013 F02A  MOVFF 0x013, 0x02A
0x3EFA: C014 F02B  MOVFF 0x014, 0x02B
0x3EFE: C015 F02C  MOVFF 0x015, 0x02C
0x3F02: 502D       DW 0x502D
0x3F04: 6ED9       DW 0x6ED9
0x3F06: 6ADA       MOVWF 0xDA, ACCESS
0x3F08: C029       DW 0xC029
0x3F0A: FFDE       DW 0xFFDE
0x3F0C: C02A       DW 0xC02A
0x3F0E: FFDE       DW 0xFFDE
0x3F10: C02B       DW 0xC02B
0x3F12: FFDE       DW 0xFFDE
0x3F14: C02C       DW 0xC02C
0x3F16: FFDD       DW 0xFFDD
0x3F18: 06D9       DECF 0xD9, F, ACCESS
0x3F1A: 06D9       DECF 0xD9, F, ACCESS
0x3F1C: 0012       RETURN 0
0x3F1E: CFE8 F037  MOVFF 0xFE8, 0x037
0x3F22: 5037       DW 0x5037
0x3F24: 6ED9       DW 0x6ED9
0x3F26: 6ADA       MOVWF 0xDA, ACCESS
0x3F28: CFDE F020  MOVFF 0xFDE, 0x020
0x3F2C: CFDE F021  MOVFF 0xFDE, 0x021
0x3F30: CFDE F022  MOVFF 0xFDE, 0x022
0x3F34: CFDE F023  MOVFF 0xFDE, 0x023
0x3F38: C02F F024  MOVFF 0x02F, 0x024
0x3F3C: C030 F025  MOVFF 0x030, 0x025
0x3F40: C031 F026  MOVFF 0x031, 0x026
0x3F44: C032 F027  MOVFF 0x032, 0x027
0x3F48: EC61 F012  CALL 0x24C2, 0
0x3F4C: C020 F033  MOVFF 0x020, 0x033
0x3F50: C021 F034  MOVFF 0x021, 0x034
0x3F54: C022 F035  MOVFF 0x022, 0x035
0x3F58: C023 F036  MOVFF 0x023, 0x036
0x3F5C: 5037       DW 0x5037
0x3F5E: 6ED9       DW 0x6ED9
0x3F60: 6ADA       MOVWF 0xDA, ACCESS
0x3F62: C033       DW 0xC033
0x3F64: FFDE       DW 0xFFDE
0x3F66: C034       DW 0xC034
0x3F68: FFDE       DW 0xFFDE
0x3F6A: C035       DW 0xC035
0x3F6C: FFDE       DW 0xFFDE
0x3F6E: C036       DW 0xC036
0x3F70: FFDD       DW 0xFFDD
0x3F72: 06D9       DECF 0xD9, F, ACCESS
0x3F74: 06D9       DECF 0xD9, F, ACCESS
0x3F76: 0012       RETURN 0
0x3F78: CFE8 F005  MOVFF 0xFE8, 0x005
0x3F7C: 6A04       MOVWF 0x04, ACCESS
0x3F7E: 0E2F       MOVLW 0x2F
0x3F80: 6405       DW 0x6405
0x3F82: D006       BRA 0x3F90
0x3F84: 0E3A       MOVLW 0x3A
0x3F86: 5C05       DW 0x5C05
0x3F88: E203       BC 0x3F90
0x3F8A: 5005       DW 0x5005
0x3F8C: 0FD0       ADDLW 0xD0
0x3F8E: D008       BRA 0x3FA0
0x3F90: 0E40       MOVLW 0x40
0x3F92: 6405       DW 0x6405
0x3F94: D006       BRA 0x3FA2
0x3F96: 0E47       MOVLW 0x47
0x3F98: 5C05       DW 0x5C05
0x3F9A: E203       BC 0x3FA2
0x3F9C: 5005       DW 0x5005
0x3F9E: 0FC9       ADDLW 0xC9
0x3FA0: 6E04       DW 0x6E04
0x3FA2: 3A04       DW 0x3A04
0x3FA4: 0EF0       MOVLW 0xF0
0x3FA6: 1604       ANDWF 0x04, F, ACCESS
0x3FA8: 0E2F       MOVLW 0x2F
0x3FAA: 6403       DW 0x6403
0x3FAC: D006       BRA 0x3FBA
0x3FAE: 0E3A       MOVLW 0x3A
0x3FB0: 5C03       DW 0x5C03
0x3FB2: E203       BC 0x3FBA
0x3FB4: 5003       DW 0x5003
0x3FB6: 0FD0       ADDLW 0xD0
0x3FB8: D008       BRA 0x3FCA
0x3FBA: 0E40       MOVLW 0x40
0x3FBC: 6403       DW 0x6403
0x3FBE: D006       BRA 0x3FCC
0x3FC0: 0E47       MOVLW 0x47
0x3FC2: 5C03       DW 0x5C03
0x3FC4: E203       BC 0x3FCC
0x3FC6: 5003       DW 0x5003
0x3FC8: 0FC9       ADDLW 0xC9
0x3FCA: 2604       DW 0x2604
0x3FCC: 5004       DW 0x5004
0x3FCE: 0012       RETURN 0
0x3FD0: 0E40       MOVLW 0x40
0x3FD2: 6405       DW 0x6405
0x3FD4: D001       BRA 0x3FD8
0x3FD6: 6E05       DW 0x6E05
0x3FD8: 6A07       MOVWF 0x07, ACCESS
0x3FDA: D00F       BRA 0x3FFA
0x3FDC: 5007       DW 0x5007
0x3FDE: 2403       DW 0x2403
0x3FE0: 6ED9       DW 0x6ED9
0x3FE2: 0E00       MOVLW 0x00
0x3FE4: 2004       DW 0x2004
0x3FE6: 6EDA       DW 0x6EDA
0x3FE8: 0E6C       MOVLW 0x6C
0x3FEA: 2407       DW 0x2407
0x3FEC: 6EE1       DW 0x6EE1
0x3FEE: 6AE2       MOVWF 0xE2, ACCESS
0x3FF0: 0E04       MOVLW 0x04
0x3FF2: 22E2       DW 0x22E2
0x3FF4: CFDF       DW 0xCFDF
0x3FF6: FFE7       DW 0xFFE7
0x3FF8: 2A07       INCF 0x07, F, ACCESS
0x3FFA: 5005       DW 0x5005
0x3FFC: 5C07       DW 0x5C07
0x3FFE: E3EE       BNC 0x3FDC
0x4000: C005       DW 0xC005
0x4002: F411       DW 0xF411
0x4004: 0E40       MOVLW 0x40
0x4006: 0104       MOVLB 0x4
0x4008: 1710       ANDWF 0x10, F, BSR
0x400A: 0E01       MOVLW 0x01
0x400C: BD10       BTFSC 0x10, 6, BSR
0x400E: 0E00       MOVLW 0x00
0x4010: 6E06       DW 0x6E06
0x4012: 3A06       DW 0x3A06
0x4014: 4606       DW 0x4606
0x4016: 4606       DW 0x4606
0x4018: 5110       DW 0x5110
0x401A: 1806       XORWF 0x06, W, ACCESS
0x401C: 0BBF       ANDLW 0xBF
0x401E: 1806       XORWF 0x06, W, ACCESS
0x4020: 6F10       DW 0x6F10
0x4022: 8710       BSF 0x10, 3, BSR
0x4024: 8F10       BSF 0x10, 7, BSR
0x4026: 0012       RETURN 0
0x4028: C003 F00B  MOVFF 0x003, 0x00B
0x402C: C004 F00C  MOVFF 0x004, 0x00C
0x4030: C005 F00D  MOVFF 0x005, 0x00D
0x4034: C006 F00E  MOVFF 0x006, 0x00E
0x4038: CFF8 F011  MOVFF 0xFF8, 0x011
0x403C: CFF7 F010  MOVFF 0xFF7, 0x010
0x4040: CFF6 F00F  MOVFF 0xFF6, 0x00F
0x4044: C00D       DW 0xC00D
0x4046: FFF8       DW 0xFFF8
0x4048: C00C       DW 0xC00C
0x404A: FFF7       DW 0xFFF7
0x404C: C00B       DW 0xC00B
0x404E: FFF6       DW 0xFFF6
0x4050: D009       BRA 0x4064
0x4052: 0009       TBLRD*+
0x4054: C009       DW 0xC009
0x4056: FFD9       DW 0xFFD9
0x4058: C00A       DW 0xC00A
0x405A: FFDA       DW 0xFFDA
0x405C: CFF5       DW 0xCFF5
0x405E: FFDF       DW 0xFFDF
0x4060: 4A09       DW 0x4A09
0x4062: 2A0A       INCF 0x0A, F, ACCESS
0x4064: 0607       DECF 0x07, F, ACCESS
0x4066: A0D8       BTFSS 0xD8, 0, ACCESS
0x4068: 0608       DECF 0x08, F, ACCESS
0x406A: 2807       INCF 0x07, W, ACCESS
0x406C: B4D8       BTFSC 0xD8, 2, ACCESS
0x406E: 2808       INCF 0x08, W, ACCESS
0x4070: E1F0       BNZ 0x4052
0x4072: C011       DW 0xC011
0x4074: FFF8       DW 0xFFF8
0x4076: C010       DW 0xC010
0x4078: FFF7       DW 0xFFF7
0x407A: C00F       DW 0xC00F
0x407C: FFF6       DW 0xFFF6
0x407E: 0012       RETURN 0
0x4080: CFE8 F003  MOVFF 0xFE8, 0x003
0x4084: 0E08       MOVLW 0x08
0x4086: 0101       MOVLB 0x1
0x4088: 6F17       DW 0x6F17
0x408A: 0E04       MOVLW 0x04
0x408C: 6F19       DW 0x6F19
0x408E: 0E1C       MOVLW 0x1C
0x4090: 6F18       DW 0x6F18
0x4092: 6603       DW 0x6603
0x4094: D009       BRA 0x40A8
0x4096: 0E04       MOVLW 0x04
0x4098: 6F19       DW 0x6F19
0x409A: 0E14       MOVLW 0x14
0x409C: 6F18       DW 0x6F18
0x409E: 0E04       MOVLW 0x04
0x40A0: 0100       MOVLB 0x0
0x40A2: 6F79       DW 0x6F79
0x40A4: 0E00       MOVLW 0x00
0x40A6: D003       BRA 0x40AE
0x40A8: 0E04       MOVLW 0x04
0x40AA: 0100       MOVLB 0x0
0x40AC: 6F79       DW 0x6F79
0x40AE: 6F78       DW 0x6F78
0x40B0: C078       DW 0xC078
0x40B2: FFD9       DW 0xFFD9
0x40B4: C079       DW 0xC079
0x40B6: FFDA       DW 0xFFDA
0x40B8: C116       DW 0xC116
0x40BA: FFDE       DW 0xFFDE
0x40BC: C117       DW 0xC117
0x40BE: FFDE       DW 0xFFDE
0x40C0: C118       DW 0xC118
0x40C2: FFDE       DW 0xFFDE
0x40C4: C119       DW 0xC119
0x40C6: FFDE       DW 0xFFDE
0x40C8: C078       DW 0xC078
0x40CA: FFD9       DW 0xFFD9
0x40CC: C079       DW 0xC079
0x40CE: FFDA       DW 0xFFDA
0x40D0: 0100       MOVLB 0x0
0x40D2: 8EDF       BSF 0xDF, 7, ACCESS
0x40D4: 0012       RETURN 0
0x40D6: 0E03       MOVLW 0x03
0x40D8: 0100       MOVLB 0x0
0x40DA: 6FCD       DW 0x6FCD
0x40DC: 6A6B       MOVWF 0x6B, ACCESS
0x40DE: 6A68       MOVWF 0x68, ACCESS
0x40E0: 0E7B       MOVLW 0x7B
0x40E2: 6E69       DW 0x6E69
0x40E4: 6A6E       MOVWF 0x6E, ACCESS
0x40E6: 6A71       MOVWF 0x71, ACCESS
0x40E8: 6A72       MOVWF 0x72, ACCESS
0x40EA: 6A73       MOVWF 0x73, ACCESS
0x40EC: 6A74       MOVWF 0x74, ACCESS
0x40EE: 6A75       MOVWF 0x75, ACCESS
0x40F0: 6A76       MOVWF 0x76, ACCESS
0x40F2: 6A77       MOVWF 0x77, ACCESS
0x40F4: 0E16       MOVLW 0x16
0x40F6: 6E70       DW 0x6E70
0x40F8: 8C6D       BSF 0x6D, 6, ACCESS
0x40FA: D003       BRA 0x4102
0x40FC: 9668       BCF 0x68, 3, ACCESS
0x40FE: ECB1 F024  CALL 0x4962, 0
0x4102: B668       BTFSC 0x68, 3, ACCESS
0x4104: D7FB       BRA 0x40FC
0x4106: 9C6D       BCF 0x6D, 6, ACCESS
0x4108: 986D       BCF 0x6D, 4, ACCESS
0x410A: 0E04       MOVLW 0x04
0x410C: 0101       MOVLB 0x1
0x410E: 6F16       DW 0x6F16
0x4110: 0E00       MOVLW 0x00
0x4112: EC40 F020  CALL 0x4080, 0
0x4116: 0E01       MOVLW 0x01
0x4118: 6F96       DW 0x6F96
0x411A: 6BCE       MOVWF 0xCE, BSR
0x411C: 6BEB       MOVWF 0xEB, BSR
0x411E: 0E00       MOVLW 0x00
0x4120: EF7F F024  GOTO 0x48FE
0x4124: 6A07       MOVWF 0x07, ACCESS
0x4126: 6A08       MOVWF 0x08, ACCESS
0x4128: 5006       DW 0x5006
0x412A: 1005       IORWF 0x05, W, ACCESS
0x412C: E01B       BZ 0x4164
0x412E: 0E01       MOVLW 0x01
0x4130: 6E09       DW 0x6E09
0x4132: D004       BRA 0x413C
0x4134: 90D8       BCF 0xD8, 0, ACCESS
0x4136: 3605       DW 0x3605
0x4138: 3606       DW 0x3606
0x413A: 2A09       INCF 0x09, F, ACCESS
0x413C: AE06       BTFSS 0x06, 7, ACCESS
0x413E: D7FA       BRA 0x4134
0x4140: 90D8       BCF 0xD8, 0, ACCESS
0x4142: 3607       DW 0x3607
0x4144: 3608       DW 0x3608
0x4146: 5005       DW 0x5005
0x4148: 5C03       DW 0x5C03
0x414A: 5006       DW 0x5006
0x414C: 5804       DW 0x5804
0x414E: E305       BNC 0x415A
0x4150: 5005       DW 0x5005
0x4152: 5E03       DW 0x5E03
0x4154: 5006       DW 0x5006
0x4156: 5A04       DW 0x5A04
0x4158: 8007       BSF 0x07, 0, ACCESS
0x415A: 90D8       BCF 0xD8, 0, ACCESS
0x415C: 3206       DW 0x3206
0x415E: 3205       DW 0x3205
0x4160: 2E09       DECFSZ 0x09, F, ACCESS
0x4162: D7EE       BRA 0x4140
0x4164: C007 F003  MOVFF 0x007, 0x003
0x4168: C008 F004  MOVFF 0x008, 0x004
0x416C: 0012       RETURN 0
0x416E: A65E       BTFSS 0x5E, 3, ACCESS
0x4170: D021       BRA 0x41B4
0x4172: 51A1       DW 0x51A1
0x4174: 0A64       XORLW 0x64
0x4176: E11D       BNZ 0x41B2
0x4178: B2C2       BTFSC 0xC2, 1, ACCESS
0x417A: D019       BRA 0x41AE
0x417C: 50C4       DW 0x50C4
0x417E: 6E04       DW 0x6E04
0x4180: 6A03       MOVWF 0x03, ACCESS
0x4182: 50C3       DW 0x50C3
0x4184: 2403       DW 0x2403
0x4186: 6F88       DW 0x6F88
0x4188: 0E00       MOVLW 0x00
0x418A: 2004       DW 0x2004
0x418C: 6F89       DW 0x6F89
0x418E: 0E29       MOVLW 0x29
0x4190: 5D88       DW 0x5D88
0x4192: 0E02       MOVLW 0x02
0x4194: 5989       DW 0x5989
0x4196: B0D8       BTFSC 0xD8, 0, ACCESS
0x4198: 8594       BSF 0x94, 2, BSR
0x419A: 82C2       BSF 0xC2, 1, ACCESS
0x419C: A594       BTFSS 0x94, 2, BSR
0x419E: D007       BRA 0x41AE
0x41A0: 0E28       MOVLW 0x28
0x41A2: 5D88       DW 0x5D88
0x41A4: 0E02       MOVLW 0x02
0x41A6: 5989       DW 0x5989
0x41A8: E202       BC 0x41AE
0x41AA: 965E       BCF 0x5E, 3, ACCESS
0x41AC: 857E       BSF 0x7E, 2, BSR
0x41AE: 6BA1       MOVWF 0xA1, BSR
0x41B0: D001       BRA 0x41B4
0x41B2: 2BA1       INCF 0xA1, F, BSR
0x41B4: 0012       RETURN 0
0x41B6: CFE8 F017  MOVFF 0xFE8, 0x017
0x41BA: C017 F016  MOVFF 0x017, 0x016
0x41BE: 5013       DW 0x5013
0x41C0: 0A80       XORLW 0x80
0x41C2: 6EF3       DW 0x6EF3
0x41C4: 0E80       MOVLW 0x80
0x41C6: 5CF3       DW 0x5CF3
0x41C8: 0E00       MOVLW 0x00
0x41CA: B4D8       BTFSC 0xD8, 2, ACCESS
0x41CC: 5C12       DW 0x5C12
0x41CE: E20A       BC 0x41E4
0x41D0: 5017       DW 0x5017
0x41D2: 6ED9       DW 0x6ED9
0x41D4: 6ADA       MOVWF 0xDA, ACCESS
0x41D6: 0E2D       MOVLW 0x2D
0x41D8: 6EDF       DW 0x6EDF
0x41DA: 2A17       INCF 0x17, F, ACCESS
0x41DC: 6C12       DW 0x6C12
0x41DE: 1E13       DW 0x1E13
0x41E0: B0D8       BTFSC 0xD8, 0, ACCESS
0x41E2: 2A13       INCF 0x13, F, ACCESS
0x41E4: C012 F00A  MOVFF 0x012, 0x00A
0x41E8: C013 F00B  MOVFF 0x013, 0x00B
0x41EC: C014 F00C  MOVFF 0x014, 0x00C
0x41F0: C015 F00D  MOVFF 0x015, 0x00D
0x41F4: 5017       DW 0x5017
0x41F6: EC64 F01A  CALL 0x34C8, 0
0x41FA: 5016       DW 0x5016
0x41FC: 0012       RETURN 0
0x41FE: 0E01       MOVLW 0x01
0x4200: 6FC8       DW 0x6FC8
0x4202: 6A71       MOVWF 0x71, ACCESS
0x4204: 6A72       MOVWF 0x72, ACCESS
0x4206: 6A73       MOVWF 0x73, ACCESS
0x4208: 6A74       MOVWF 0x74, ACCESS
0x420A: 6A75       MOVWF 0x75, ACCESS
0x420C: 6A76       MOVWF 0x76, ACCESS
0x420E: 6A77       MOVWF 0x77, ACCESS
0x4210: 6B91       MOVWF 0x91, BSR
0x4212: 5191       DW 0x5191
0x4214: 0FEC       ADDLW 0xEC
0x4216: 6ED9       DW 0x6ED9
0x4218: 6ADA       MOVWF 0xDA, ACCESS
0x421A: 6ADF       MOVWF 0xDF, ACCESS
0x421C: 2B91       INCF 0x91, F, BSR
0x421E: 5191       DW 0x5191
0x4220: E0F8       BZ 0x4212
0x4222: C0D1 F0EB  MOVFF 0x0D1, 0x0EB
0x4226: 51EB       DW 0x51EB
0x4228: EC7F F024  CALL 0x48FE, 0
0x422C: 0100       MOVLB 0x0
0x422E: 67D1       DW 0x67D1
0x4230: D002       BRA 0x4236
0x4232: 0E05       MOVLW 0x05
0x4234: D001       BRA 0x4238
0x4236: 0E06       MOVLW 0x06
0x4238: 6FCD       DW 0x6FCD
0x423A: 0012       RETURN 0
0x423C: CFE8 F006  MOVFF 0xFE8, 0x006
0x4240: EC5B F024  CALL 0x48B6, 0
0x4244: 80C5       BSF 0xC5, 0, ACCESS
0x4246: B0C5       BTFSC 0xC5, 0, ACCESS
0x4248: D7FE       BRA 0x4246
0x424A: 0EE2       MOVLW 0xE2
0x424C: EC34 F01F  CALL 0x3E68, 0
0x4250: 5006       DW 0x5006
0x4252: EC34 F01F  CALL 0x3E68, 0
0x4256: 82C5       BSF 0xC5, 1, ACCESS
0x4258: B2C5       BTFSC 0xC5, 1, ACCESS
0x425A: D7FE       BRA 0x4258
0x425C: 0EE3       MOVLW 0xE3
0x425E: EC34 F01F  CALL 0x3E68, 0
0x4262: EC26 F023  CALL 0x464C, 0
0x4266: 6E07       DW 0x6E07
0x4268: 8AC5       BSF 0xC5, 5, ACCESS
0x426A: 88C5       BSF 0xC5, 4, ACCESS
0x426C: B8C5       BTFSC 0xC5, 4, ACCESS
0x426E: D7FE       BRA 0x426C
0x4270: 84C5       BSF 0xC5, 2, ACCESS
0x4272: B4C5       BTFSC 0xC5, 2, ACCESS
0x4274: D7FE       BRA 0x4272
0x4276: 5007       DW 0x5007
0x4278: 0012       RETURN 0
0x427A: 5006       DW 0x5006
0x427C: 1005       IORWF 0x05, W, ACCESS
0x427E: E017       BZ 0x42AE
0x4280: 0E01       MOVLW 0x01
0x4282: 6E07       DW 0x6E07
0x4284: D004       BRA 0x428E
0x4286: 90D8       BCF 0xD8, 0, ACCESS
0x4288: 3605       DW 0x3605
0x428A: 3606       DW 0x3606
0x428C: 2A07       INCF 0x07, F, ACCESS
0x428E: AE06       BTFSS 0x06, 7, ACCESS
0x4290: D7FA       BRA 0x4286
0x4292: 5005       DW 0x5005
0x4294: 5C03       DW 0x5C03
0x4296: 5006       DW 0x5006
0x4298: 5804       DW 0x5804
0x429A: E304       BNC 0x42A4
0x429C: 5005       DW 0x5005
0x429E: 5E03       DW 0x5E03
0x42A0: 5006       DW 0x5006
0x42A2: 5A04       DW 0x5A04
0x42A4: 90D8       BCF 0xD8, 0, ACCESS
0x42A6: 3206       DW 0x3206
0x42A8: 3205       DW 0x3205
0x42AA: 2E07       DECFSZ 0x07, F, ACCESS
0x42AC: D7F2       BRA 0x4292
0x42AE: C003 F003  MOVFF 0x003, 0x003
0x42B2: C004 F004  MOVFF 0x004, 0x004
0x42B6: 0012       RETURN 0
0x42B8: 9EF2       BCF 0xF2, 7, ACCESS
0x42BA: 0E30       MOVLW 0x30
0x42BC: 6EF8       DW 0x6EF8
0x42BE: 6AF7       MOVWF 0xF7, ACCESS
0x42C0: 0E0B       MOVLW 0x0B
0x42C2: 6EF6       DW 0x6EF6
0x42C4: 0EA0       MOVLW 0xA0
0x42C6: 6EF5       DW 0x6EF5
0x42C8: 000C       TBLWT*
0x42CA: 0EC4       MOVLW 0xC4
0x42CC: 6EA6       DW 0x6EA6
0x42CE: EC03 F022  CALL 0x4406, 0
0x42D2: B2A6       BTFSC 0xA6, 1, ACCESS
0x42D4: D7FE       BRA 0x42D2
0x42D6: 0E30       MOVLW 0x30
0x42D8: 6EF8       DW 0x6EF8
0x42DA: 6AF7       MOVWF 0xF7, ACCESS
0x42DC: 6AF6       MOVWF 0xF6, ACCESS
0x42DE: 0E3A       MOVLW 0x3A
0x42E0: 6EF5       DW 0x6EF5
0x42E2: 000C       TBLWT*
0x42E4: 0EC4       MOVLW 0xC4
0x42E6: 6EA6       DW 0x6EA6
0x42E8: EC03 F022  CALL 0x4406, 0
0x42EC: B2A6       BTFSC 0xA6, 1, ACCESS
0x42EE: D7FE       BRA 0x42EC
0x42F0: 94A6       BCF 0xA6, 2, ACCESS
0x42F2: 0012       RETURN 0
0x42F4: 0104       MOVLB 0x4
0x42F6: 6B08       MOVWF 0x08, BSR
0x42F8: 0100       MOVLB 0x0
0x42FA: 6BCC       MOVWF 0xCC, BSR
0x42FC: 0104       MOVLB 0x4
0x42FE: AF00       BTFSS 0x00, 7, BSR
0x4300: D003       BRA 0x4308
0x4302: 6B00       MOVWF 0x00, BSR
0x4304: 0100       MOVLB 0x0
0x4306: 6B96       MOVWF 0x96, BSR
0x4308: 0104       MOVLB 0x4
0x430A: AF04       BTFSS 0x04, 7, BSR
0x430C: D004       BRA 0x4316
0x430E: 6B04       MOVWF 0x04, BSR
0x4310: 0E01       MOVLW 0x01
0x4312: 0100       MOVLB 0x0
0x4314: 6F96       DW 0x6F96
0x4316: 0100       MOVLB 0x0
0x4318: 6BC9       MOVWF 0xC9, BSR
0x431A: 6BC8       MOVWF 0xC8, BSR
0x431C: 6BE7       MOVWF 0xE7, BSR
0x431E: 6BE8       MOVWF 0xE8, BSR
0x4320: 986D       BCF 0x6D, 4, ACCESS
0x4322: EC41 F01B  CALL 0x3682, 0
0x4326: ECAD F024  CALL 0x495A, 0
0x432A: EF26 F019  GOTO 0x324C
0x432E: 0E80       MOVLW 0x80
0x4330: 1A40       XORWF 0x40, F, ACCESS
0x4332: C039 F020  MOVFF 0x039, 0x020
0x4336: C03A F021  MOVFF 0x03A, 0x021
0x433A: C03B F022  MOVFF 0x03B, 0x022
0x433E: C03C F023  MOVFF 0x03C, 0x023
0x4342: C03D F024  MOVFF 0x03D, 0x024
0x4346: C03E F025  MOVFF 0x03E, 0x025
0x434A: C03F F026  MOVFF 0x03F, 0x026
0x434E: C040 F027  MOVFF 0x040, 0x027
0x4352: EC61 F012  CALL 0x24C2, 0
0x4356: C020 F039  MOVFF 0x020, 0x039
0x435A: C021 F03A  MOVFF 0x021, 0x03A
0x435E: C022 F03B  MOVFF 0x022, 0x03B
0x4362: C023 F03C  MOVFF 0x023, 0x03C
0x4366: 0012       RETURN 0
0x4368: CFE8 F006  MOVFF 0xFE8, 0x006
0x436C: EC5B F024  CALL 0x48B6, 0
0x4370: 80C5       BSF 0xC5, 0, ACCESS
0x4372: B0C5       BTFSC 0xC5, 0, ACCESS
0x4374: D7FE       BRA 0x4372
0x4376: 0E68       MOVLW 0x68
0x4378: EC34 F01F  CALL 0x3E68, 0
0x437C: 0E1F       MOVLW 0x1F
0x437E: EC34 F01F  CALL 0x3E68, 0
0x4382: 0E00       MOVLW 0x00
0x4384: EC34 F01F  CALL 0x3E68, 0
0x4388: 0E00       MOVLW 0x00
0x438A: EC34 F01F  CALL 0x3E68, 0
0x438E: 0E00       MOVLW 0x00
0x4390: EC34 F01F  CALL 0x3E68, 0
0x4394: 5006       DW 0x5006
0x4396: EC34 F01F  CALL 0x3E68, 0
0x439A: 84C5       BSF 0xC5, 2, ACCESS
0x439C: A4C5       BTFSS 0xC5, 2, ACCESS
0x439E: 0012       RETURN 0
0x43A0: D7FD       BRA 0x439C
0x43A2: CFE8 F006  MOVFF 0xFE8, 0x006
0x43A6: C006 F004  MOVFF 0x006, 0x004
0x43AA: 3A04       DW 0x3A04
0x43AC: 0E0F       MOVLW 0x0F
0x43AE: 1604       ANDWF 0x04, F, ACCESS
0x43B0: D80B       RCALL 0x43C8
0x43B2: EC4B F024  CALL 0x4896, 0
0x43B6: 6E05       DW 0x6E05
0x43B8: C006 F004  MOVFF 0x006, 0x004
0x43BC: 0E0F       MOVLW 0x0F
0x43BE: D804       RCALL 0x43C8
0x43C0: EC4B F024  CALL 0x4896, 0
0x43C4: 1A05       XORWF 0x05, F, ACCESS
0x43C6: 0012       RETURN 0
0x43C8: 1604       ANDWF 0x04, F, ACCESS
0x43CA: 5004       DW 0x5004
0x43CC: 0F19       ADDLW 0x19
0x43CE: 6EF6       DW 0x6EF6
0x43D0: 0E10       MOVLW 0x10
0x43D2: 6EF7       DW 0x6EF7
0x43D4: 0008       TBLRD*
0x43D6: 50F5       DW 0x50F5
0x43D8: 0012       RETURN 0
0x43DA: C003       DW 0xC003
0x43DC: FFA9       DW 0xFFA9
0x43DE: C005       DW 0xC005
0x43E0: FFA8       DW 0xFFA8
0x43E2: 9EA6       BCF 0xA6, 7, ACCESS
0x43E4: 9CA6       BCF 0xA6, 6, ACCESS
0x43E6: 84A6       BSF 0xA6, 2, ACCESS
0x43E8: 0E00       MOVLW 0x00
0x43EA: BEF2       BTFSC 0xF2, 7, ACCESS
0x43EC: 0E01       MOVLW 0x01
0x43EE: 6E06       DW 0x6E06
0x43F0: 9EF2       BCF 0xF2, 7, ACCESS
0x43F2: D809       RCALL 0x4406
0x43F4: B2A6       BTFSC 0xA6, 1, ACCESS
0x43F6: D7FE       BRA 0x43F4
0x43F8: B006       BTFSC 0x06, 0, ACCESS
0x43FA: D002       BRA 0x4400
0x43FC: 9EF2       BCF 0xF2, 7, ACCESS
0x43FE: D001       BRA 0x4402
0x4400: 8EF2       BSF 0xF2, 7, ACCESS
0x4402: 94A6       BCF 0xA6, 2, ACCESS
0x4404: 0012       RETURN 0
0x4406: 0E55       MOVLW 0x55
0x4408: 6EA7       DW 0x6EA7
0x440A: 0EAA       MOVLW 0xAA
0x440C: 6EA7       DW 0x6EA7
0x440E: 82A6       BSF 0xA6, 1, ACCESS
0x4410: 0CAA       RETLW 0xAA
0x4412: 51CD       DW 0x51CD
0x4414: 0A04       XORLW 0x04
0x4416: E107       BNZ 0x4426
0x4418: C0D1       DW 0xC0D1
0x441A: FF6E       DW 0xFF6E
0x441C: 506E       DW 0x506E
0x441E: 0E05       MOVLW 0x05
0x4420: B4D8       BTFSC 0xD8, 2, ACCESS
0x4422: 0E03       MOVLW 0x03
0x4424: 6FCD       DW 0x6FCD
0x4426: 05C9       DECF 0xC9, W, BSR
0x4428: E10E       BNZ 0x4446
0x442A: ECF8 F01A  CALL 0x35F0, 0
0x442E: 51CC       DW 0x51CC
0x4430: 0A02       XORLW 0x02
0x4432: E103       BNZ 0x443A
0x4434: 0E04       MOVLW 0x04
0x4436: 0104       MOVLB 0x4
0x4438: D004       BRA 0x4442
0x443A: 0104       MOVLB 0x4
0x443C: 0E48       MOVLW 0x48
0x443E: BD08       BTFSC 0x08, 6, BSR
0x4440: 0E08       MOVLW 0x08
0x4442: 6F08       DW 0x6F08
0x4444: 8F08       BSF 0x08, 7, BSR
0x4446: 0012       RETURN 0
0x4448: CFE8 F003  MOVFF 0xFE8, 0x003
0x444C: D00F       BRA 0x446C
0x444E: 0E01       MOVLW 0x01
0x4450: 6FA0       DW 0x6FA0
0x4452: 6BB9       MOVWF 0xB9, BSR
0x4454: D013       BRA 0x447C
0x4456: 6BA0       MOVWF 0xA0, BSR
0x4458: 0E01       MOVLW 0x01
0x445A: D006       BRA 0x4468
0x445C: 0E02       MOVLW 0x02
0x445E: 6FA0       DW 0x6FA0
0x4460: D003       BRA 0x4468
0x4462: 0E01       MOVLW 0x01
0x4464: 6FA0       DW 0x6FA0
0x4466: 0E03       MOVLW 0x03
0x4468: 6FB9       DW 0x6FB9
0x446A: D008       BRA 0x447C
0x446C: 5003       DW 0x5003
0x446E: E0EF       BZ 0x444E
0x4470: 0A01       XORLW 0x01
0x4472: E0F1       BZ 0x4456
0x4474: 0A03       XORLW 0x03
0x4476: E0F2       BZ 0x445C
0x4478: 0A01       XORLW 0x01
0x447A: E0F3       BZ 0x4462
0x447C: 0012       RETURN 0
0x447E: 92A0       BCF 0xA0, 1, ACCESS
0x4480: 0E98       MOVLW 0x98
0x4482: 6EB1       DW 0x6EB1
0x4484: 80B1       BSF 0xB1, 0, ACCESS
0x4486: D010       BRA 0x44A8
0x4488: A2D3       BTFSS 0xD3, 1, ACCESS
0x448A: D004       BRA 0x4494
0x448C: 0EFC       MOVLW 0xFC
0x448E: 6EB3       DW 0x6EB3
0x4490: 0E18       MOVLW 0x18
0x4492: D003       BRA 0x449A
0x4494: 0EF8       MOVLW 0xF8
0x4496: 6EB3       DW 0x6EB3
0x4498: 0E30       MOVLW 0x30
0x449A: 6EB2       DW 0x6EB2
0x449C: 92A1       BCF 0xA1, 1, ACCESS
0x449E: A2A1       BTFSS 0xA1, 1, ACCESS
0x44A0: D7FE       BRA 0x449E
0x44A2: 0603       DECF 0x03, F, ACCESS
0x44A4: A0D8       BTFSS 0xD8, 0, ACCESS
0x44A6: 0604       DECF 0x04, F, ACCESS
0x44A8: 5004       DW 0x5004
0x44AA: 1003       IORWF 0x03, W, ACCESS
0x44AC: E1ED       BNZ 0x4488
0x44AE: 90B1       BCF 0xB1, 0, ACCESS
0x44B0: 0012       RETURN 0
0x44B2: CFE8 F01B  MOVFF 0xFE8, 0x01B
0x44B6: 0E0D       MOVLW 0x0D
0x44B8: EC4B F024  CALL 0x4896, 0
0x44BC: 0E0A       MOVLW 0x0A
0x44BE: EC4B F024  CALL 0x4896, 0
0x44C2: 0E0C       MOVLW 0x0C
0x44C4: EC4B F024  CALL 0x4896, 0
0x44C8: 0E3A       MOVLW 0x3A
0x44CA: EC4B F024  CALL 0x4896, 0
0x44CE: 6A19       MOVWF 0x19, ACCESS
0x44D0: C01B F018  MOVFF 0x01B, 0x018
0x44D4: EC4B F023  CALL 0x4696, 0
0x44D8: 0E0D       MOVLW 0x0D
0x44DA: EC4B F024  CALL 0x4896, 0
0x44DE: 0E0A       MOVLW 0x0A
0x44E0: EF4B F024  GOTO 0x4896
0x44E4: EC5B F024  CALL 0x48B6, 0
0x44E8: 80C5       BSF 0xC5, 0, ACCESS
0x44EA: B0C5       BTFSC 0xC5, 0, ACCESS
0x44EC: D7FE       BRA 0x44EA
0x44EE: 0E68       MOVLW 0x68
0x44F0: EC34 F01F  CALL 0x3E68, 0
0x44F4: 0E30       MOVLW 0x30
0x44F6: EC34 F01F  CALL 0x3E68, 0
0x44FA: C055 F049  MOVFF 0x055, 0x049
0x44FE: C056 F04A  MOVFF 0x056, 0x04A
0x4502: C057 F04B  MOVFF 0x057, 0x04B
0x4506: C058 F04C  MOVFF 0x058, 0x04C
0x450A: ECD3 F01C  CALL 0x39A6, 0
0x450E: 84C5       BSF 0xC5, 2, ACCESS
0x4510: A4C5       BTFSS 0xC5, 2, ACCESS
0x4512: 0012       RETURN 0
0x4514: D7FD       BRA 0x4510
0x4516: 665F       DW 0x665F
0x4518: D00D       BRA 0x4534
0x451A: 9689       BCF 0x89, 3, ACCESS
0x451C: D001       BRA 0x4520
0x451E: 8689       BSF 0x89, 3, ACCESS
0x4520: 9889       BCF 0x89, 4, ACCESS
0x4522: 9A89       BCF 0x89, 5, ACCESS
0x4524: D00F       BRA 0x4544
0x4526: 9689       BCF 0x89, 3, ACCESS
0x4528: 9889       BCF 0x89, 4, ACCESS
0x452A: D002       BRA 0x4530
0x452C: 9689       BCF 0x89, 3, ACCESS
0x452E: 8889       BSF 0x89, 4, ACCESS
0x4530: 8A89       BSF 0x89, 5, ACCESS
0x4532: D008       BRA 0x4544
0x4534: 5193       DW 0x5193
0x4536: E0F1       BZ 0x451A
0x4538: 0A05       XORLW 0x05
0x453A: E0F1       BZ 0x451E
0x453C: 0A03       XORLW 0x03
0x453E: E0F3       BZ 0x4526
0x4540: 0A01       XORLW 0x01
0x4542: E0F4       BZ 0x452C
0x4544: 0012       RETURN 0
0x4546: 9EAB       BCF 0xAB, 7, ACCESS
0x4548: 9ED0       BCF 0xD0, 7, ACCESS
0x454A: 0100       MOVLB 0x0
0x454C: 6BC6       MOVWF 0xC6, BSR
0x454E: 6BC7       MOVWF 0xC7, BSR
0x4550: 0E06       MOVLW 0x06
0x4552: 6EAC       DW 0x6EAC
0x4554: 0E80       MOVLW 0x80
0x4556: 6EAB       DW 0x6EAB
0x4558: 0E48       MOVLW 0x48
0x455A: 6EB8       DW 0x6EB8
0x455C: 8E94       BSF 0x94, 7, ACCESS
0x455E: 8C94       BSF 0x94, 6, ACCESS
0x4560: 989D       BCF 0x9D, 4, ACCESS
0x4562: 989E       BCF 0x9E, 4, ACCESS
0x4564: 9A9E       BCF 0x9E, 5, ACCESS
0x4566: 9A9D       BCF 0x9D, 5, ACCESS
0x4568: 6AB0       MOVWF 0xB0, ACCESS
0x456A: 0E7F       MOVLW 0x7F
0x456C: 6EAF       DW 0x6EAF
0x456E: 8AAC       BSF 0xAC, 5, ACCESS
0x4570: 88AB       BSF 0xAB, 4, ACCESS
0x4572: 0C7F       RETLW 0x7F
0x4574: 0E56       MOVLW 0x56
0x4576: 6E33       DW 0x6E33
0x4578: 0E00       MOVLW 0x00
0x457A: 6A32       MOVWF 0x32, ACCESS
0x457C: 6A34       MOVWF 0x34, ACCESS
0x457E: C032 F013  MOVFF 0x032, 0x013
0x4582: C033 F014  MOVFF 0x033, 0x014
0x4586: EC0E F01C  CALL 0x381C, 0
0x458A: 0E18       MOVLW 0x18
0x458C: 2632       DW 0x2632
0x458E: 0E00       MOVLW 0x00
0x4590: 2233       DW 0x2233
0x4592: 2A34       INCF 0x34, F, ACCESS
0x4594: 0E5F       MOVLW 0x5F
0x4596: 6434       DW 0x6434
0x4598: D7F2       BRA 0x457E
0x459A: 6E14       DW 0x6E14
0x459C: 6A13       MOVWF 0x13, ACCESS
0x459E: EF0E F01C  GOTO 0x381C
0x45A2: EC94 F011  CALL 0x2328, 0
0x45A6: 51CD       DW 0x51CD
0x45A8: 0A06       XORLW 0x06
0x45AA: B4D8       BTFSC 0xD8, 2, ACCESS
0x45AC: B26D       BTFSC 0x6D, 1, ACCESS
0x45AE: D00E       BRA 0x45CC
0x45B0: A082       BTFSS 0x82, 0, ACCESS
0x45B2: D00C       BRA 0x45CC
0x45B4: 0104       MOVLB 0x4
0x45B6: BF10       BTFSC 0x10, 7, BSR
0x45B8: D009       BRA 0x45CC
0x45BA: 0101       MOVLB 0x1
0x45BC: 0E01       MOVLW 0x01
0x45BE: 6E04       DW 0x6E04
0x45C0: 0E5A       MOVLW 0x5A
0x45C2: 6E03       DW 0x6E03
0x45C4: 0E40       MOVLW 0x40
0x45C6: 6E05       DW 0x6E05
0x45C8: ECE8 F01F  CALL 0x3FD0, 0
0x45CC: 0012       RETURN 0
0x45CE: CFE8 F011  MOVFF 0xFE8, 0x011
0x45D2: 5011       DW 0x5011
0x45D4: 6E03       DW 0x6E03
0x45D6: 6A04       MOVWF 0x04, ACCESS
0x45D8: 6A05       MOVWF 0x05, ACCESS
0x45DA: 6A06       MOVWF 0x06, ACCESS
0x45DC: 0E96       MOVLW 0x96
0x45DE: 6E07       DW 0x6E07
0x45E0: 0E00       MOVLW 0x00
0x45E2: 6A08       MOVWF 0x08, ACCESS
0x45E4: EC6C F018  CALL 0x30D8, 0
0x45E8: C003 F00D  MOVFF 0x003, 0x00D
0x45EC: C004 F00E  MOVFF 0x004, 0x00E
0x45F0: C005 F00F  MOVFF 0x005, 0x00F
0x45F4: C006 F010  MOVFF 0x006, 0x010
0x45F8: 0012       RETURN 0
0x45FA: 6A04       MOVWF 0x04, ACCESS
0x45FC: EC39 F024  CALL 0x4872, 0
0x4600: 0900       IORLW 0x00
0x4602: E00E       BZ 0x4620
0x4604: 0E00       MOVLW 0x00
0x4606: 0100       MOVLB 0x0
0x4608: 25C6       DW 0x25C6
0x460A: 6ED9       DW 0x6ED9
0x460C: 6ADA       MOVWF 0xDA, ACCESS
0x460E: 0E02       MOVLW 0x02
0x4610: 22DA       DW 0x22DA
0x4612: 50DF       DW 0x50DF
0x4614: 6E04       DW 0x6E04
0x4616: 2BC6       INCF 0xC6, F, BSR
0x4618: 0EBF       MOVLW 0xBF
0x461A: 65C6       DW 0x65C6
0x461C: D001       BRA 0x4620
0x461E: 6BC6       MOVWF 0xC6, BSR
0x4620: 5004       DW 0x5004
0x4622: 0012       RETURN 0
0x4624: 6BCA       MOVWF 0xCA, BSR
0x4626: 0E1E       MOVLW 0x1E
0x4628: 6E71       DW 0x6E71
0x462A: 0E40       MOVLW 0x40
0x462C: 0104       MOVLB 0x4
0x462E: 6F0D       DW 0x6F0D
0x4630: 0E04       MOVLW 0x04
0x4632: 6F0F       DW 0x6F0F
0x4634: 0E2C       MOVLW 0x2C
0x4636: 6F0E       DW 0x6F0E
0x4638: 0E08       MOVLW 0x08
0x463A: 6F0C       DW 0x6F0C
0x463C: 8F0C       BSF 0x0C, 7, BSR
0x463E: 0E04       MOVLW 0x04
0x4640: 6F13       DW 0x6F13
0x4642: 0E6C       MOVLW 0x6C
0x4644: 6F12       DW 0x6F12
0x4646: 0E40       MOVLW 0x40
0x4648: 6F10       DW 0x6F10
0x464A: 0C40       RETLW 0x40
0x464C: CFC6 F003  MOVFF 0xFC6, 0x003
0x4650: 0E0F       MOVLW 0x0F
0x4652: 1603       ANDWF 0x03, F, ACCESS
0x4654: 5003       DW 0x5003
0x4656: 0A08       XORLW 0x08
0x4658: E007       BZ 0x4668
0x465A: CFC6 F003  MOVFF 0xFC6, 0x003
0x465E: 0E0F       MOVLW 0x0F
0x4660: 1603       ANDWF 0x03, F, ACCESS
0x4662: 5003       DW 0x5003
0x4664: 0A0B       XORLW 0x0B
0x4666: B4D8       BTFSC 0xD8, 2, ACCESS
0x4668: 86C5       BSF 0xC5, 3, ACCESS
0x466A: A0C7       BTFSS 0xC7, 0, ACCESS
0x466C: D7FE       BRA 0x466A
0x466E: 50C9       DW 0x50C9
0x4670: 0012       RETURN 0
0x4672: EE21       DW 0xEE21
0x4674: F0F4       DW 0xF0F4
0x4676: EE10       DW 0xEE10
0x4678: F01C       DW 0xF01C
0x467A: 0E07       MOVLW 0x07
0x467C: CFDE       DW 0xCFDE
0x467E: FFE6       DW 0xFFE6
0x4680: 2EE8       DECFSZ 0xE8, F, ACCESS
0x4682: D7FC       BRA 0x467C
0x4684: 0E1C       MOVLW 0x1C
0x4686: EC59 F022  CALL 0x44B2, 0
0x468A: 0E1C       MOVLW 0x1C
0x468C: EC59 F022  CALL 0x44B2, 0
0x4690: 0E1C       MOVLW 0x1C
0x4692: EF59 F022  GOTO 0x44B2
0x4696: 6A1A       MOVWF 0x1A, ACCESS
0x4698: D004       BRA 0x46A2
0x469A: D807       RCALL 0x46AA
0x469C: EC4B F024  CALL 0x4896, 0
0x46A0: 2A1A       INCF 0x1A, F, ACCESS
0x46A2: D803       RCALL 0x46AA
0x46A4: B4D8       BTFSC 0xD8, 2, ACCESS
0x46A6: 0012       RETURN 0
0x46A8: D7F8       BRA 0x469A
0x46AA: 501A       DW 0x501A
0x46AC: 2418       DW 0x2418
0x46AE: 6ED9       DW 0x6ED9
0x46B0: 0E00       MOVLW 0x00
0x46B2: 2019       DW 0x2019
0x46B4: 6EDA       DW 0x6EDA
0x46B6: 50DF       DW 0x50DF
0x46B8: 0012       RETURN 0
0x46BA: CFE8 F007  MOVFF 0xFE8, 0x007
0x46BE: 80C5       BSF 0xC5, 0, ACCESS
0x46C0: B0C5       BTFSC 0xC5, 0, ACCESS
0x46C2: D7FE       BRA 0x46C0
0x46C4: 0EE2       MOVLW 0xE2
0x46C6: EC34 F01F  CALL 0x3E68, 0
0x46CA: 5007       DW 0x5007
0x46CC: EC34 F01F  CALL 0x3E68, 0
0x46D0: 5006       DW 0x5006
0x46D2: EC34 F01F  CALL 0x3E68, 0
0x46D6: 84C5       BSF 0xC5, 2, ACCESS
0x46D8: A4C5       BTFSS 0xC5, 2, ACCESS
0x46DA: 0012       RETURN 0
0x46DC: D7FD       BRA 0x46D8
0x46DE: C007 F003  MOVFF 0x007, 0x003
0x46E2: C008 F004  MOVFF 0x008, 0x004
0x46E6: EC42 F024  CALL 0x4884, 0
0x46EA: 1809       XORWF 0x09, W, ACCESS
0x46EC: E008       BZ 0x46FE
0x46EE: C007 F003  MOVFF 0x007, 0x003
0x46F2: C008 F004  MOVFF 0x008, 0x004
0x46F6: C009 F005  MOVFF 0x009, 0x005
0x46FA: ECED F021  CALL 0x43DA, 0
0x46FE: 0012       RETURN 0
0x4700: 0595       DECF 0x95, W, BSR
0x4702: B4D8       BTFSC 0xD8, 2, ACCESS
0x4704: EC14 F024  CALL 0x4828, 0
0x4708: 6A6D       MOVWF 0x6D, ACCESS
0x470A: 0E15       MOVLW 0x15
0x470C: 6E6F       DW 0x6E6F
0x470E: 6A69       MOVWF 0x69, ACCESS
0x4710: 866D       BSF 0x6D, 3, ACCESS
0x4712: EC6B F020  CALL 0x40D6, 0
0x4716: 0E01       MOVLW 0x01
0x4718: 0100       MOVLB 0x0
0x471A: 6FCD       DW 0x6FCD
0x471C: 6B95       MOVWF 0x95, BSR
0x471E: 0012       RETURN 0
0x4720: CF69 F092  MOVFF 0xF69, 0x092
0x4724: 0E04       MOVLW 0x04
0x4726: 6E69       DW 0x6E69
0x4728: 9868       BCF 0x68, 4, ACCESS
0x472A: 826D       BSF 0x6D, 1, ACCESS
0x472C: 9AA1       BCF 0xA1, 5, ACCESS
0x472E: 8AA0       BSF 0xA0, 5, ACCESS
0x4730: ECB5 F024  CALL 0x496A, 0
0x4734: 9AA0       BCF 0xA0, 5, ACCESS
0x4736: 0100       MOVLB 0x0
0x4738: 5192       DW 0x5192
0x473A: 1269       IORWF 0x69, F, ACCESS
0x473C: 0012       RETURN 0
0x473E: 6A06       MOVWF 0x06, ACCESS
0x4740: D008       BRA 0x4752
0x4742: 5006       DW 0x5006
0x4744: 2403       DW 0x2403
0x4746: 6ED9       DW 0x6ED9
0x4748: 0E00       MOVLW 0x00
0x474A: 2004       DW 0x2004
0x474C: 6EDA       DW 0x6EDA
0x474E: 6ADF       MOVWF 0xDF, ACCESS
0x4750: 2A06       INCF 0x06, F, ACCESS
0x4752: 5005       DW 0x5005
0x4754: 5C06       DW 0x5C06
0x4756: B0D8       BTFSC 0xD8, 0, ACCESS
0x4758: 0012       RETURN 0
0x475A: D7F3       BRA 0x4742
0x475C: 0100       MOVLB 0x0
0x475E: 0595       DECF 0x95, W, BSR
0x4760: E00B       BZ 0x4778
0x4762: A082       BTFSS 0x82, 0, ACCESS
0x4764: D004       BRA 0x476E
0x4766: A66D       BTFSS 0x6D, 3, ACCESS
0x4768: EC80 F023  CALL 0x4700, 0
0x476C: D005       BRA 0x4778
0x476E: A66D       BTFSS 0x6D, 3, ACCESS
0x4770: D003       BRA 0x4778
0x4772: EC78 F024  CALL 0x48F0, 0
0x4776: 6B95       MOVWF 0x95, BSR
0x4778: 0012       RETURN 0
0x477A: 0E98       MOVLW 0x98
0x477C: 6EB1       DW 0x6EB1
0x477E: 0EF8       MOVLW 0xF8
0x4780: 6EB3       DW 0x6EB3
0x4782: 0E30       MOVLW 0x30
0x4784: 6EB2       DW 0x6EB2
0x4786: C003 F08C  MOVFF 0x003, 0x08C
0x478A: C004 F08D  MOVFF 0x004, 0x08D
0x478E: 92A1       BCF 0xA1, 1, ACCESS
0x4790: 80B1       BSF 0xB1, 0, ACCESS
0x4792: 82A0       BSF 0xA0, 1, ACCESS
0x4794: 0C30       RETLW 0x30
0x4796: 0100       MOVLB 0x0
0x4798: A57E       BTFSS 0x7E, 2, BSR
0x479A: D008       BRA 0x47AC
0x479C: A65E       BTFSS 0x5E, 3, ACCESS
0x479E: D003       BRA 0x47A6
0x47A0: ECC6 F016  CALL 0x2D8C, 0
0x47A4: D002       BRA 0x47AA
0x47A6: EC06 F01E  CALL 0x3C0C, 0
0x47AA: 957E       BCF 0x7E, 2, BSR
0x47AC: 0E01       MOVLW 0x01
0x47AE: EF77 F00C  GOTO 0x18EE
0x47B2: CFE8 F004  MOVFF 0xFE8, 0x004
0x47B6: 0E3F       MOVLW 0x3F
0x47B8: 16C7       ANDWF 0xC7, F, ACCESS
0x47BA: 6AC6       MOVWF 0xC6, ACCESS
0x47BC: 6AC5       MOVWF 0xC5, ACCESS
0x47BE: 5004       DW 0x5004
0x47C0: 12C6       IORWF 0xC6, F, ACCESS
0x47C2: 5003       DW 0x5003
0x47C4: 12C7       IORWF 0xC7, F, ACCESS
0x47C6: 8293       BSF 0x93, 1, ACCESS
0x47C8: 8093       BSF 0x93, 0, ACCESS
0x47CA: 8AC6       BSF 0xC6, 5, ACCESS
0x47CC: 0012       RETURN 0
0x47CE: EC13 F01D  CALL 0x3A26, 0
0x47D2: ECF3 F00D  CALL 0x1BE6, 0
0x47D6: ECF8 F013  CALL 0x27F0, 0
0x47DA: ECCB F023  CALL 0x4796, 0
0x47DE: EC2E F013  CALL 0x265C, 0
0x47E2: EFB7 F020  GOTO 0x416E
0x47E6: 202D       DW 0x202D
0x47E8: 4146       DW 0x4146
0x47EA: 4C49       MOVF 0x49, W, ACCESS
0x47EC: 0020       DW 0x0020
0x47EE: 5746       DW 0x5746
0x47F0: 555F       DW 0x555F
0x47F2: 6470       DW 0x6470
0x47F4: 3000       DW 0x3000
0x47F6: 3030       DW 0x3030
0x47F8: 3030       DW 0x3030
0x47FA: 0030       DW 0x0030
0x47FC: 0EBF       MOVLW 0xBF
0x47FE: EC4B F024  CALL 0x4896, 0
0x4802: 0E29       MOVLW 0x29
0x4804: EC4B F024  CALL 0x4896, 0
0x4808: 0E01       MOVLW 0x01
0x480A: A25E       BTFSS 0x5E, 1, ACCESS
0x480C: 0E00       MOVLW 0x00
0x480E: EF4B F024  GOTO 0x4896
0x4812: D005       BRA 0x481E
0x4814: ECB1 F024  CALL 0x4962, 0
0x4818: 0603       DECF 0x03, F, ACCESS
0x481A: A0D8       BTFSS 0xD8, 0, ACCESS
0x481C: 0604       DECF 0x04, F, ACCESS
0x481E: 5004       DW 0x5004
0x4820: 1003       IORWF 0x03, W, ACCESS
0x4822: B4D8       BTFSC 0xD8, 2, ACCESS
0x4824: 0012       RETURN 0
0x4826: D7F6       BRA 0x4814
0x4828: 926D       BCF 0x6D, 1, ACCESS
0x482A: 6A6D       MOVWF 0x6D, ACCESS
0x482C: 0EFF       MOVLW 0xFF
0x482E: 6804       CLRF 0x04, ACCESS
0x4830: 6803       CLRF 0x03, ACCESS
0x4832: EC09 F024  CALL 0x4812, 0
0x4836: 0100       MOVLB 0x0
0x4838: 6BCD       MOVWF 0xCD, BSR
0x483A: 0012       RETURN 0
0x483C: EC92 F024  CALL 0x4924, 0
0x4840: 926D       BCF 0x6D, 1, ACCESS
0x4842: 9469       BCF 0x69, 2, ACCESS
0x4844: D001       BRA 0x4848
0x4846: 9468       BCF 0x68, 2, ACCESS
0x4848: A468       BTFSS 0x68, 2, ACCESS
0x484A: 0012       RETURN 0
0x484C: D7FC       BRA 0x4846
0x484E: 0EBF       MOVLW 0xBF
0x4850: EC4B F024  CALL 0x4896, 0
0x4854: 0E18       MOVLW 0x18
0x4856: EC4B F024  CALL 0x4896, 0
0x485A: 0E01       MOVLW 0x01
0x485C: EF4B F024  GOTO 0x4896
0x4860: D002       BRA 0x4866
0x4862: ECFD F022  CALL 0x45FA, 0
0x4866: EC39 F024  CALL 0x4872, 0
0x486A: 0900       IORLW 0x00
0x486C: B4D8       BTFSC 0xD8, 2, ACCESS
0x486E: 0012       RETURN 0
0x4870: D7F8       BRA 0x4862
0x4872: 0100       MOVLB 0x0
0x4874: 51C7       DW 0x51C7
0x4876: 6AF3       MOVWF 0xF3, ACCESS
0x4878: 63C6       NEGF 0xC6, BSR
0x487A: 2AF3       INCF 0xF3, F, ACCESS
0x487C: CFF3 F003  MOVFF 0xFF3, 0x003
0x4880: 5003       DW 0x5003
0x4882: 0012       RETURN 0
0x4884: C003       DW 0xC003
0x4886: FFA9       DW 0xFFA9
0x4888: 9CA6       BCF 0xA6, 6, ACCESS
0x488A: 9EA6       BCF 0xA6, 7, ACCESS
0x488C: 80A6       BSF 0xA6, 0, ACCESS
0x488E: F000       DW 0xF000
0x4890: F000       DW 0xF000
0x4892: 50A8       DW 0x50A8
0x4894: 0012       RETURN 0
0x4896: CFE8 F003  MOVFF 0xFE8, 0x003
0x489A: A2AC       BTFSS 0xAC, 1, ACCESS
0x489C: D7FE       BRA 0x489A
0x489E: C003       DW 0xC003
0x48A0: FFAD       DW 0xFFAD
0x48A2: 5003       DW 0x5003
0x48A4: 0012       RETURN 0
0x48A6: 0EA4       MOVLW 0xA4
0x48A8: 6ED7       DW 0x6ED7
0x48AA: 0E71       MOVLW 0x71
0x48AC: 6ED6       DW 0x6ED6
0x48AE: 94F2       BCF 0xF2, 2, ACCESS
0x48B0: 8AF2       BSF 0xF2, 5, ACCESS
0x48B2: 8ED5       BSF 0xD5, 7, ACCESS
0x48B4: 0C71       RETLW 0x71
0x48B6: CFC5 F003  MOVFF 0xFC5, 0x003
0x48BA: 0E1F       MOVLW 0x1F
0x48BC: 1603       ANDWF 0x03, F, ACCESS
0x48BE: B4D8       BTFSC 0xD8, 2, ACCESS
0x48C0: B4C7       BTFSC 0xC7, 2, ACCESS
0x48C2: D7F9       BRA 0x48B6
0x48C4: 0C1F       RETLW 0x1F
0x48C6: ECAE F01A  CALL 0x355C, 0
0x48CA: ECA7 F017  CALL 0x2F4E, 0
0x48CE: ECE7 F023  CALL 0x47CE, 0
0x48D2: D7FB       BRA 0x48CA
0x48D4: 6AF2       MOVWF 0xF2, ACCESS
0x48D6: F000       DW 0xF000
0x48D8: F000       DW 0xF000
0x48DA: 00FF       RESET
0x48DC: F000       DW 0xF000
0x48DE: F000       DW 0xF000
0x48E0: 0012       RETURN 0
0x48E2: 0E02       MOVLW 0x02
0x48E4: ECB4 F021  CALL 0x4368, 0
0x48E8: 9689       BCF 0x89, 3, ACCESS
0x48EA: 9889       BCF 0x89, 4, ACCESS
0x48EC: 9A89       BCF 0x89, 5, ACCESS
0x48EE: 0012       RETURN 0
0x48F0: 926D       BCF 0x6D, 1, ACCESS
0x48F2: 6A6D       MOVWF 0x6D, ACCESS
0x48F4: 0100       MOVLB 0x0
0x48F6: 6BCD       MOVWF 0xCD, BSR
0x48F8: 0E01       MOVLW 0x01
0x48FA: 6F95       DW 0x6F95
0x48FC: 0C01       RETLW 0x01
0x48FE: CFE8 F003  MOVFF 0xFE8, 0x003
0x4902: 0403       DECF 0x03, W, ACCESS
0x4904: B4D8       BTFSC 0xD8, 2, ACCESS
0x4906: EC12 F023  CALL 0x4624, 0
0x490A: 0012       RETURN 0
0x490C: A0B1       BTFSS 0xB1, 0, ACCESS
0x490E: D002       BRA 0x4914
0x4910: 90D8       BCF 0xD8, 0, ACCESS
0x4912: D001       BRA 0x4916
0x4914: 80D8       BSF 0xD8, 0, ACCESS
0x4916: 0012       RETURN 0
0x4918: B66D       BTFSC 0x6D, 3, ACCESS
0x491A: EC14 F024  CALL 0x4828, 0
0x491E: 6B95       MOVWF 0x95, BSR
0x4920: EFAE F023  GOTO 0x475C
0x4924: 0E03       MOVLW 0x03
0x4926: 6E04       DW 0x6E04
0x4928: 6A03       MOVWF 0x03, ACCESS
0x492A: EF0F F024  GOTO 0x481E
0x492E: 6A04       MOVWF 0x04, ACCESS
0x4930: 0E01       MOVLW 0x01
0x4932: 6E03       DW 0x6E03
0x4934: EF3F F022  GOTO 0x447E
0x4938: ECA3 F022  CALL 0x4546, 0
0x493C: 905E       BCF 0x5E, 0, ACCESS
0x493E: 6B98       MOVWF 0x98, BSR
0x4940: 0012       RETURN 0
0x4942: 6A04       MOVWF 0x04, ACCESS
0x4944: 0E02       MOVLW 0x02
0x4946: 6E03       DW 0x6E03
0x4948: EF3F F022  GOTO 0x447E
0x494C: 90B1       BCF 0xB1, 0, ACCESS
0x494E: 92A1       BCF 0xA1, 1, ACCESS
0x4950: 92A0       BCF 0xA0, 1, ACCESS
0x4952: 0012       RETURN 0
0x4954: 0E01       MOVLW 0x01
0x4956: EFB4 F021  GOTO 0x4368
0x495A: EFCA F018  GOTO 0x3194
0x495E: 88AB       BSF 0xAB, 4, ACCESS
0x4960: 0012       RETURN 0
0x4962: 0004       CLRWDT
0x4964: 0012       RETURN 0
0x4966: 9AC6       BCF 0xC6, 5, ACCESS
0x4968: 0012       RETURN 0
0x496A: 0012       RETURN 0
0x496C: 0012       RETURN 0
0x496E: 0012       RETURN 0
0x4970: FFFF       DW 0xFFFF
0x4972: FFFF       DW 0xFFFF
0x4974: FFFF       DW 0xFFFF
0x4976: FFFF       DW 0xFFFF
0x4978: FFFF       DW 0xFFFF
0x497A: FFFF       DW 0xFFFF
0x497C: FFFF       DW 0xFFFF
0x497E: FFFF       DW 0xFFFF
0x4980: FFFF       DW 0xFFFF
0x4982: FFFF       DW 0xFFFF
0x4984: FFFF       DW 0xFFFF
0x4986: FFFF       DW 0xFFFF
0x4988: FFFF       DW 0xFFFF
0x498A: FFFF       DW 0xFFFF
0x498C: FFFF       DW 0xFFFF
0x498E: FFFF       DW 0xFFFF
0x4990: FFFF       DW 0xFFFF
0x4992: FFFF       DW 0xFFFF
0x4994: FFFF       DW 0xFFFF
0x4996: FFFF       DW 0xFFFF
0x4998: FFFF       DW 0xFFFF
0x499A: FFFF       DW 0xFFFF
0x499C: FFFF       DW 0xFFFF
0x499E: FFFF       DW 0xFFFF
0x49A0: FFFF       DW 0xFFFF
0x49A2: FFFF       DW 0xFFFF
0x49A4: FFFF       DW 0xFFFF
0x49A6: FFFF       DW 0xFFFF
0x49A8: FFFF       DW 0xFFFF
0x49AA: FFFF       DW 0xFFFF
0x49AC: FFFF       DW 0xFFFF
0x49AE: FFFF       DW 0xFFFF
0x49B0: FFFF       DW 0xFFFF
0x49B2: FFFF       DW 0xFFFF
0x49B4: FFFF       DW 0xFFFF
0x49B6: FFFF       DW 0xFFFF
0x49B8: FFFF       DW 0xFFFF
0x49BA: FFFF       DW 0xFFFF
0x49BC: FFFF       DW 0xFFFF
0x49BE: FFFF       DW 0xFFFF
0x49C0: FFFF       DW 0xFFFF
0x49C2: FFFF       DW 0xFFFF
0x49C4: FFFF       DW 0xFFFF
0x49C6: FFFF       DW 0xFFFF
0x49C8: FFFF       DW 0xFFFF
0x49CA: FFFF       DW 0xFFFF
0x49CC: FFFF       DW 0xFFFF
0x49CE: FFFF       DW 0xFFFF
0x49D0: FFFF       DW 0xFFFF
0x49D2: FFFF       DW 0xFFFF
0x49D4: FFFF       DW 0xFFFF
0x49D6: FFFF       DW 0xFFFF
0x49D8: FFFF       DW 0xFFFF
0x49DA: FFFF       DW 0xFFFF
0x49DC: FFFF       DW 0xFFFF
0x49DE: FFFF       DW 0xFFFF
0x49E0: FFFF       DW 0xFFFF
0x49E2: FFFF       DW 0xFFFF
0x49E4: FFFF       DW 0xFFFF
0x49E6: FFFF       DW 0xFFFF
0x49E8: FFFF       DW 0xFFFF
0x49EA: FFFF       DW 0xFFFF
0x49EC: FFFF       DW 0xFFFF
0x49EE: FFFF       DW 0xFFFF
0x49F0: FFFF       DW 0xFFFF
0x49F2: FFFF       DW 0xFFFF
0x49F4: FFFF       DW 0xFFFF
0x49F6: FFFF       DW 0xFFFF
0x49F8: FFFF       DW 0xFFFF
0x49FA: FFFF       DW 0xFFFF
0x49FC: FFFF       DW 0xFFFF
0x49FE: FFFF       DW 0xFFFF
0x4A00: FFFF       DW 0xFFFF
0x4A02: FFFF       DW 0xFFFF
0x4A04: FFFF       DW 0xFFFF
0x4A06: FFFF       DW 0xFFFF
0x4A08: FFFF       DW 0xFFFF
0x4A0A: FFFF       DW 0xFFFF
0x4A0C: FFFF       DW 0xFFFF
0x4A0E: FFFF       DW 0xFFFF
0x4A10: FFFF       DW 0xFFFF
0x4A12: FFFF       DW 0xFFFF
0x4A14: FFFF       DW 0xFFFF
0x4A16: FFFF       DW 0xFFFF
0x4A18: FFFF       DW 0xFFFF
0x4A1A: FFFF       DW 0xFFFF
0x4A1C: FFFF       DW 0xFFFF
0x4A1E: FFFF       DW 0xFFFF
0x4A20: FFFF       DW 0xFFFF
0x4A22: FFFF       DW 0xFFFF
0x4A24: FFFF       DW 0xFFFF
0x4A26: FFFF       DW 0xFFFF
0x4A28: FFFF       DW 0xFFFF
0x4A2A: FFFF       DW 0xFFFF
0x4A2C: FFFF       DW 0xFFFF
0x4A2E: FFFF       DW 0xFFFF
0x4A30: FFFF       DW 0xFFFF
0x4A32: FFFF       DW 0xFFFF
0x4A34: FFFF       DW 0xFFFF
0x4A36: FFFF       DW 0xFFFF
0x4A38: FFFF       DW 0xFFFF
0x4A3A: FFFF       DW 0xFFFF
0x4A3C: FFFF       DW 0xFFFF
0x4A3E: FFFF       DW 0xFFFF
0x4A40: FFFF       DW 0xFFFF
0x4A42: FFFF       DW 0xFFFF
0x4A44: FFFF       DW 0xFFFF
0x4A46: FFFF       DW 0xFFFF
0x4A48: FFFF       DW 0xFFFF
0x4A4A: FFFF       DW 0xFFFF
0x4A4C: FFFF       DW 0xFFFF
0x4A4E: FFFF       DW 0xFFFF
0x4A50: FFFF       DW 0xFFFF
0x4A52: FFFF       DW 0xFFFF
0x4A54: FFFF       DW 0xFFFF
0x4A56: FFFF       DW 0xFFFF
0x4A58: FFFF       DW 0xFFFF
0x4A5A: FFFF       DW 0xFFFF
0x4A5C: FFFF       DW 0xFFFF
0x4A5E: FFFF       DW 0xFFFF
0x4A60: FFFF       DW 0xFFFF
0x4A62: FFFF       DW 0xFFFF
0x4A64: FFFF       DW 0xFFFF
0x4A66: FFFF       DW 0xFFFF
0x4A68: FFFF       DW 0xFFFF
0x4A6A: FFFF       DW 0xFFFF
0x4A6C: FFFF       DW 0xFFFF
0x4A6E: FFFF       DW 0xFFFF
0x4A70: FFFF       DW 0xFFFF
0x4A72: FFFF       DW 0xFFFF
0x4A74: FFFF       DW 0xFFFF
0x4A76: FFFF       DW 0xFFFF
0x4A78: FFFF       DW 0xFFFF
0x4A7A: FFFF       DW 0xFFFF
0x4A7C: FFFF       DW 0xFFFF
0x4A7E: FFFF       DW 0xFFFF
0x4A80: FFFF       DW 0xFFFF
0x4A82: FFFF       DW 0xFFFF
0x4A84: FFFF       DW 0xFFFF
0x4A86: FFFF       DW 0xFFFF
0x4A88: FFFF       DW 0xFFFF
0x4A8A: FFFF       DW 0xFFFF
0x4A8C: FFFF       DW 0xFFFF
0x4A8E: FFFF       DW 0xFFFF
0x4A90: FFFF       DW 0xFFFF
0x4A92: FFFF       DW 0xFFFF
0x4A94: FFFF       DW 0xFFFF
0x4A96: FFFF       DW 0xFFFF
0x4A98: FFFF       DW 0xFFFF
0x4A9A: FFFF       DW 0xFFFF
0x4A9C: FFFF       DW 0xFFFF
0x4A9E: FFFF       DW 0xFFFF
0x4AA0: FFFF       DW 0xFFFF
0x4AA2: FFFF       DW 0xFFFF
0x4AA4: FFFF       DW 0xFFFF
0x4AA6: FFFF       DW 0xFFFF
0x4AA8: FFFF       DW 0xFFFF
0x4AAA: FFFF       DW 0xFFFF
0x4AAC: FFFF       DW 0xFFFF
0x4AAE: FFFF       DW 0xFFFF
0x4AB0: FFFF       DW 0xFFFF
0x4AB2: FFFF       DW 0xFFFF
0x4AB4: FFFF       DW 0xFFFF
0x4AB6: FFFF       DW 0xFFFF
0x4AB8: FFFF       DW 0xFFFF
0x4ABA: FFFF       DW 0xFFFF
0x4ABC: FFFF       DW 0xFFFF
0x4ABE: FFFF       DW 0xFFFF
0x4AC0: FFFF       DW 0xFFFF
0x4AC2: FFFF       DW 0xFFFF
0x4AC4: FFFF       DW 0xFFFF
0x4AC6: FFFF       DW 0xFFFF
0x4AC8: FFFF       DW 0xFFFF
0x4ACA: FFFF       DW 0xFFFF
0x4ACC: FFFF       DW 0xFFFF
0x4ACE: FFFF       DW 0xFFFF
0x4AD0: FFFF       DW 0xFFFF
0x4AD2: FFFF       DW 0xFFFF
0x4AD4: FFFF       DW 0xFFFF
0x4AD6: FFFF       DW 0xFFFF
0x4AD8: FFFF       DW 0xFFFF
0x4ADA: FFFF       DW 0xFFFF
0x4ADC: FFFF       DW 0xFFFF
0x4ADE: FFFF       DW 0xFFFF
0x4AE0: FFFF       DW 0xFFFF
0x4AE2: FFFF       DW 0xFFFF
0x4AE4: FFFF       DW 0xFFFF
0x4AE6: FFFF       DW 0xFFFF
0x4AE8: FFFF       DW 0xFFFF
0x4AEA: FFFF       DW 0xFFFF
0x4AEC: FFFF       DW 0xFFFF
0x4AEE: FFFF       DW 0xFFFF
0x4AF0: FFFF       DW 0xFFFF
0x4AF2: FFFF       DW 0xFFFF
0x4AF4: FFFF       DW 0xFFFF
0x4AF6: FFFF       DW 0xFFFF
0x4AF8: FFFF       DW 0xFFFF
0x4AFA: FFFF       DW 0xFFFF
0x4AFC: FFFF       DW 0xFFFF
0x4AFE: FFFF       DW 0xFFFF
0x4B00: FFFF       DW 0xFFFF
0x4B02: FFFF       DW 0xFFFF
0x4B04: FFFF       DW 0xFFFF
0x4B06: FFFF       DW 0xFFFF
0x4B08: FFFF       DW 0xFFFF
0x4B0A: FFFF       DW 0xFFFF
0x4B0C: FFFF       DW 0xFFFF
0x4B0E: FFFF       DW 0xFFFF
0x4B10: FFFF       DW 0xFFFF
0x4B12: FFFF       DW 0xFFFF
0x4B14: FFFF       DW 0xFFFF
0x4B16: FFFF       DW 0xFFFF
0x4B18: FFFF       DW 0xFFFF
0x4B1A: FFFF       DW 0xFFFF
0x4B1C: FFFF       DW 0xFFFF
0x4B1E: FFFF       DW 0xFFFF
0x4B20: FFFF       DW 0xFFFF
0x4B22: FFFF       DW 0xFFFF
0x4B24: FFFF       DW 0xFFFF
0x4B26: FFFF       DW 0xFFFF
0x4B28: FFFF       DW 0xFFFF
0x4B2A: FFFF       DW 0xFFFF
0x4B2C: FFFF       DW 0xFFFF
0x4B2E: FFFF       DW 0xFFFF
0x4B30: FFFF       DW 0xFFFF
0x4B32: FFFF       DW 0xFFFF
0x4B34: FFFF       DW 0xFFFF
0x4B36: FFFF       DW 0xFFFF
0x4B38: FFFF       DW 0xFFFF
0x4B3A: FFFF       DW 0xFFFF
0x4B3C: FFFF       DW 0xFFFF
0x4B3E: FFFF       DW 0xFFFF
0x4B40: FFFF       DW 0xFFFF
0x4B42: FFFF       DW 0xFFFF
0x4B44: FFFF       DW 0xFFFF
0x4B46: FFFF       DW 0xFFFF
0x4B48: FFFF       DW 0xFFFF
0x4B4A: FFFF       DW 0xFFFF
0x4B4C: FFFF       DW 0xFFFF
0x4B4E: FFFF       DW 0xFFFF
0x4B50: FFFF       DW 0xFFFF
0x4B52: FFFF       DW 0xFFFF
0x4B54: FFFF       DW 0xFFFF
0x4B56: FFFF       DW 0xFFFF
0x4B58: FFFF       DW 0xFFFF
0x4B5A: FFFF       DW 0xFFFF
0x4B5C: FFFF       DW 0xFFFF
0x4B5E: FFFF       DW 0xFFFF
0x4B60: FFFF       DW 0xFFFF
0x4B62: FFFF       DW 0xFFFF
0x4B64: FFFF       DW 0xFFFF
0x4B66: FFFF       DW 0xFFFF
0x4B68: FFFF       DW 0xFFFF
0x4B6A: FFFF       DW 0xFFFF
0x4B6C: FFFF       DW 0xFFFF
0x4B6E: FFFF       DW 0xFFFF
0x4B70: FFFF       DW 0xFFFF
0x4B72: FFFF       DW 0xFFFF
0x4B74: FFFF       DW 0xFFFF
0x4B76: FFFF       DW 0xFFFF
0x4B78: FFFF       DW 0xFFFF
0x4B7A: FFFF       DW 0xFFFF
0x4B7C: FFFF       DW 0xFFFF
0x4B7E: FFFF       DW 0xFFFF
0x4B80: FFFF       DW 0xFFFF
0x4B82: FFFF       DW 0xFFFF
0x4B84: FFFF       DW 0xFFFF
0x4B86: FFFF       DW 0xFFFF
0x4B88: FFFF       DW 0xFFFF
0x4B8A: FFFF       DW 0xFFFF
0x4B8C: FFFF       DW 0xFFFF
0x4B8E: FFFF       DW 0xFFFF
0x4B90: FFFF       DW 0xFFFF
0x4B92: FFFF       DW 0xFFFF
0x4B94: FFFF       DW 0xFFFF
0x4B96: FFFF       DW 0xFFFF
0x4B98: FFFF       DW 0xFFFF
0x4B9A: FFFF       DW 0xFFFF
0x4B9C: FFFF       DW 0xFFFF
0x4B9E: FFFF       DW 0xFFFF
0x4BA0: FFFF       DW 0xFFFF
0x4BA2: FFFF       DW 0xFFFF
0x4BA4: FFFF       DW 0xFFFF
0x4BA6: FFFF       DW 0xFFFF
0x4BA8: FFFF       DW 0xFFFF
0x4BAA: FFFF       DW 0xFFFF
0x4BAC: FFFF       DW 0xFFFF
0x4BAE: FFFF       DW 0xFFFF
0x4BB0: FFFF       DW 0xFFFF
0x4BB2: FFFF       DW 0xFFFF
0x4BB4: FFFF       DW 0xFFFF
0x4BB6: FFFF       DW 0xFFFF
0x4BB8: FFFF       DW 0xFFFF
0x4BBA: FFFF       DW 0xFFFF
0x4BBC: FFFF       DW 0xFFFF
0x4BBE: FFFF       DW 0xFFFF
0x4BC0: FFFF       DW 0xFFFF
0x4BC2: FFFF       DW 0xFFFF
0x4BC4: FFFF       DW 0xFFFF
0x4BC6: FFFF       DW 0xFFFF
0x4BC8: FFFF       DW 0xFFFF
0x4BCA: FFFF       DW 0xFFFF
0x4BCC: FFFF       DW 0xFFFF
0x4BCE: FFFF       DW 0xFFFF
0x4BD0: FFFF       DW 0xFFFF
0x4BD2: FFFF       DW 0xFFFF
0x4BD4: FFFF       DW 0xFFFF
0x4BD6: FFFF       DW 0xFFFF
0x4BD8: FFFF       DW 0xFFFF
0x4BDA: FFFF       DW 0xFFFF
0x4BDC: FFFF       DW 0xFFFF
0x4BDE: FFFF       DW 0xFFFF
0x4BE0: FFFF       DW 0xFFFF
0x4BE2: FFFF       DW 0xFFFF
0x4BE4: FFFF       DW 0xFFFF
0x4BE6: FFFF       DW 0xFFFF
0x4BE8: FFFF       DW 0xFFFF
0x4BEA: FFFF       DW 0xFFFF
0x4BEC: FFFF       DW 0xFFFF
0x4BEE: FFFF       DW 0xFFFF
0x4BF0: FFFF       DW 0xFFFF
0x4BF2: FFFF       DW 0xFFFF
0x4BF4: FFFF       DW 0xFFFF
0x4BF6: FFFF       DW 0xFFFF
0x4BF8: FFFF       DW 0xFFFF
0x4BFA: FFFF       DW 0xFFFF
0x4BFC: FFFF       DW 0xFFFF
0x4BFE: FFFF       DW 0xFFFF
0x4C00: FFFF       DW 0xFFFF
0x4C02: FFFF       DW 0xFFFF
0x4C04: FFFF       DW 0xFFFF
0x4C06: FFFF       DW 0xFFFF
0x4C08: FFFF       DW 0xFFFF
0x4C0A: FFFF       DW 0xFFFF
0x4C0C: FFFF       DW 0xFFFF
0x4C0E: FFFF       DW 0xFFFF
0x4C10: FFFF       DW 0xFFFF
0x4C12: FFFF       DW 0xFFFF
0x4C14: FFFF       DW 0xFFFF
0x4C16: FFFF       DW 0xFFFF
0x4C18: FFFF       DW 0xFFFF
0x4C1A: FFFF       DW 0xFFFF
0x4C1C: FFFF       DW 0xFFFF
0x4C1E: FFFF       DW 0xFFFF
0x4C20: FFFF       DW 0xFFFF
0x4C22: FFFF       DW 0xFFFF
0x4C24: FFFF       DW 0xFFFF
0x4C26: FFFF       DW 0xFFFF
0x4C28: FFFF       DW 0xFFFF
0x4C2A: FFFF       DW 0xFFFF
0x4C2C: FFFF       DW 0xFFFF
0x4C2E: FFFF       DW 0xFFFF
0x4C30: FFFF       DW 0xFFFF
0x4C32: FFFF       DW 0xFFFF
0x4C34: FFFF       DW 0xFFFF
0x4C36: FFFF       DW 0xFFFF
0x4C38: FFFF       DW 0xFFFF
0x4C3A: FFFF       DW 0xFFFF
0x4C3C: FFFF       DW 0xFFFF
0x4C3E: FFFF       DW 0xFFFF
0x4C40: FFFF       DW 0xFFFF
0x4C42: FFFF       DW 0xFFFF
0x4C44: FFFF       DW 0xFFFF
0x4C46: FFFF       DW 0xFFFF
0x4C48: FFFF       DW 0xFFFF
0x4C4A: FFFF       DW 0xFFFF
0x4C4C: FFFF       DW 0xFFFF
0x4C4E: FFFF       DW 0xFFFF
0x4C50: FFFF       DW 0xFFFF
0x4C52: FFFF       DW 0xFFFF
0x4C54: FFFF       DW 0xFFFF
0x4C56: FFFF       DW 0xFFFF
0x4C58: FFFF       DW 0xFFFF
0x4C5A: FFFF       DW 0xFFFF
0x4C5C: FFFF       DW 0xFFFF
0x4C5E: FFFF       DW 0xFFFF
0x4C60: FFFF       DW 0xFFFF
0x4C62: FFFF       DW 0xFFFF
0x4C64: FFFF       DW 0xFFFF
0x4C66: FFFF       DW 0xFFFF
0x4C68: FFFF       DW 0xFFFF
0x4C6A: FFFF       DW 0xFFFF
0x4C6C: FFFF       DW 0xFFFF
0x4C6E: FFFF       DW 0xFFFF
0x4C70: FFFF       DW 0xFFFF
0x4C72: FFFF       DW 0xFFFF
0x4C74: FFFF       DW 0xFFFF
0x4C76: FFFF       DW 0xFFFF
0x4C78: FFFF       DW 0xFFFF
0x4C7A: FFFF       DW 0xFFFF
0x4C7C: FFFF       DW 0xFFFF
0x4C7E: FFFF       DW 0xFFFF
0x4C80: FFFF       DW 0xFFFF
0x4C82: FFFF       DW 0xFFFF
0x4C84: FFFF       DW 0xFFFF
0x4C86: FFFF       DW 0xFFFF
0x4C88: FFFF       DW 0xFFFF
0x4C8A: FFFF       DW 0xFFFF
0x4C8C: FFFF       DW 0xFFFF
0x4C8E: FFFF       DW 0xFFFF
0x4C90: FFFF       DW 0xFFFF
0x4C92: FFFF       DW 0xFFFF
0x4C94: FFFF       DW 0xFFFF
0x4C96: FFFF       DW 0xFFFF
0x4C98: FFFF       DW 0xFFFF
0x4C9A: FFFF       DW 0xFFFF
0x4C9C: FFFF       DW 0xFFFF
0x4C9E: FFFF       DW 0xFFFF
0x4CA0: FFFF       DW 0xFFFF
0x4CA2: FFFF       DW 0xFFFF
0x4CA4: FFFF       DW 0xFFFF
0x4CA6: FFFF       DW 0xFFFF
0x4CA8: FFFF       DW 0xFFFF
0x4CAA: FFFF       DW 0xFFFF
0x4CAC: FFFF       DW 0xFFFF
0x4CAE: FFFF       DW 0xFFFF
0x4CB0: FFFF       DW 0xFFFF
0x4CB2: FFFF       DW 0xFFFF
0x4CB4: FFFF       DW 0xFFFF
0x4CB6: FFFF       DW 0xFFFF
0x4CB8: FFFF       DW 0xFFFF
0x4CBA: FFFF       DW 0xFFFF
0x4CBC: FFFF       DW 0xFFFF
0x4CBE: FFFF       DW 0xFFFF
0x4CC0: FFFF       DW 0xFFFF
0x4CC2: FFFF       DW 0xFFFF
0x4CC4: FFFF       DW 0xFFFF
0x4CC6: FFFF       DW 0xFFFF
0x4CC8: FFFF       DW 0xFFFF
0x4CCA: FFFF       DW 0xFFFF
0x4CCC: FFFF       DW 0xFFFF
0x4CCE: FFFF       DW 0xFFFF
0x4CD0: FFFF       DW 0xFFFF
0x4CD2: FFFF       DW 0xFFFF
0x4CD4: FFFF       DW 0xFFFF
0x4CD6: FFFF       DW 0xFFFF
0x4CD8: FFFF       DW 0xFFFF
0x4CDA: FFFF       DW 0xFFFF
0x4CDC: FFFF       DW 0xFFFF
0x4CDE: FFFF       DW 0xFFFF
0x4CE0: FFFF       DW 0xFFFF
0x4CE2: FFFF       DW 0xFFFF
0x4CE4: FFFF       DW 0xFFFF
0x4CE6: FFFF       DW 0xFFFF
0x4CE8: FFFF       DW 0xFFFF
0x4CEA: FFFF       DW 0xFFFF
0x4CEC: FFFF       DW 0xFFFF
0x4CEE: FFFF       DW 0xFFFF
0x4CF0: FFFF       DW 0xFFFF
0x4CF2: FFFF       DW 0xFFFF
0x4CF4: FFFF       DW 0xFFFF
0x4CF6: FFFF       DW 0xFFFF
0x4CF8: FFFF       DW 0xFFFF
0x4CFA: FFFF       DW 0xFFFF
0x4CFC: FFFF       DW 0xFFFF
0x4CFE: FFFF       DW 0xFFFF
0x4D00: FFFF       DW 0xFFFF
0x4D02: FFFF       DW 0xFFFF
0x4D04: FFFF       DW 0xFFFF
0x4D06: FFFF       DW 0xFFFF
0x4D08: FFFF       DW 0xFFFF
0x4D0A: FFFF       DW 0xFFFF
0x4D0C: FFFF       DW 0xFFFF
0x4D0E: FFFF       DW 0xFFFF
0x4D10: FFFF       DW 0xFFFF
0x4D12: FFFF       DW 0xFFFF
0x4D14: FFFF       DW 0xFFFF
0x4D16: FFFF       DW 0xFFFF
0x4D18: FFFF       DW 0xFFFF
0x4D1A: FFFF       DW 0xFFFF
0x4D1C: FFFF       DW 0xFFFF
0x4D1E: FFFF       DW 0xFFFF
0x4D20: FFFF       DW 0xFFFF
0x4D22: FFFF       DW 0xFFFF
0x4D24: FFFF       DW 0xFFFF
0x4D26: FFFF       DW 0xFFFF
0x4D28: FFFF       DW 0xFFFF
0x4D2A: FFFF       DW 0xFFFF
0x4D2C: FFFF       DW 0xFFFF
0x4D2E: FFFF       DW 0xFFFF
0x4D30: FFFF       DW 0xFFFF
0x4D32: FFFF       DW 0xFFFF
0x4D34: FFFF       DW 0xFFFF
0x4D36: FFFF       DW 0xFFFF
0x4D38: FFFF       DW 0xFFFF
0x4D3A: FFFF       DW 0xFFFF
0x4D3C: FFFF       DW 0xFFFF
0x4D3E: FFFF       DW 0xFFFF
0x4D40: FFFF       DW 0xFFFF
0x4D42: FFFF       DW 0xFFFF
0x4D44: FFFF       DW 0xFFFF
0x4D46: FFFF       DW 0xFFFF
0x4D48: FFFF       DW 0xFFFF
0x4D4A: FFFF       DW 0xFFFF
0x4D4C: FFFF       DW 0xFFFF
0x4D4E: FFFF       DW 0xFFFF
0x4D50: FFFF       DW 0xFFFF
0x4D52: FFFF       DW 0xFFFF
0x4D54: FFFF       DW 0xFFFF
0x4D56: FFFF       DW 0xFFFF
0x4D58: FFFF       DW 0xFFFF
0x4D5A: FFFF       DW 0xFFFF
0x4D5C: FFFF       DW 0xFFFF
0x4D5E: FFFF       DW 0xFFFF
0x4D60: FFFF       DW 0xFFFF
0x4D62: FFFF       DW 0xFFFF
0x4D64: FFFF       DW 0xFFFF
0x4D66: FFFF       DW 0xFFFF
0x4D68: FFFF       DW 0xFFFF
0x4D6A: FFFF       DW 0xFFFF
0x4D6C: FFFF       DW 0xFFFF
0x4D6E: FFFF       DW 0xFFFF
0x4D70: FFFF       DW 0xFFFF
0x4D72: FFFF       DW 0xFFFF
0x4D74: FFFF       DW 0xFFFF
0x4D76: FFFF       DW 0xFFFF
0x4D78: FFFF       DW 0xFFFF
0x4D7A: FFFF       DW 0xFFFF
0x4D7C: FFFF       DW 0xFFFF
0x4D7E: FFFF       DW 0xFFFF
0x4D80: FFFF       DW 0xFFFF
0x4D82: FFFF       DW 0xFFFF
0x4D84: FFFF       DW 0xFFFF
0x4D86: FFFF       DW 0xFFFF
0x4D88: FFFF       DW 0xFFFF
0x4D8A: FFFF       DW 0xFFFF
0x4D8C: FFFF       DW 0xFFFF
0x4D8E: FFFF       DW 0xFFFF
0x4D90: FFFF       DW 0xFFFF
0x4D92: FFFF       DW 0xFFFF
0x4D94: FFFF       DW 0xFFFF
0x4D96: FFFF       DW 0xFFFF
0x4D98: FFFF       DW 0xFFFF
0x4D9A: FFFF       DW 0xFFFF
0x4D9C: FFFF       DW 0xFFFF
0x4D9E: FFFF       DW 0xFFFF
0x4DA0: FFFF       DW 0xFFFF
0x4DA2: FFFF       DW 0xFFFF
0x4DA4: FFFF       DW 0xFFFF
0x4DA6: FFFF       DW 0xFFFF
0x4DA8: FFFF       DW 0xFFFF
0x4DAA: FFFF       DW 0xFFFF
0x4DAC: FFFF       DW 0xFFFF
0x4DAE: FFFF       DW 0xFFFF
0x4DB0: FFFF       DW 0xFFFF
0x4DB2: FFFF       DW 0xFFFF
0x4DB4: FFFF       DW 0xFFFF
0x4DB6: FFFF       DW 0xFFFF
0x4DB8: FFFF       DW 0xFFFF
0x4DBA: FFFF       DW 0xFFFF
0x4DBC: FFFF       DW 0xFFFF
0x4DBE: FFFF       DW 0xFFFF
0x4DC0: FFFF       DW 0xFFFF
0x4DC2: FFFF       DW 0xFFFF
0x4DC4: FFFF       DW 0xFFFF
0x4DC6: FFFF       DW 0xFFFF
0x4DC8: FFFF       DW 0xFFFF
0x4DCA: FFFF       DW 0xFFFF
0x4DCC: FFFF       DW 0xFFFF
0x4DCE: FFFF       DW 0xFFFF
0x4DD0: FFFF       DW 0xFFFF
0x4DD2: FFFF       DW 0xFFFF
0x4DD4: FFFF       DW 0xFFFF
0x4DD6: FFFF       DW 0xFFFF
0x4DD8: FFFF       DW 0xFFFF
0x4DDA: FFFF       DW 0xFFFF
0x4DDC: FFFF       DW 0xFFFF
0x4DDE: FFFF       DW 0xFFFF
0x4DE0: FFFF       DW 0xFFFF
0x4DE2: FFFF       DW 0xFFFF
0x4DE4: FFFF       DW 0xFFFF
0x4DE6: FFFF       DW 0xFFFF
0x4DE8: FFFF       DW 0xFFFF
0x4DEA: FFFF       DW 0xFFFF
0x4DEC: FFFF       DW 0xFFFF
0x4DEE: FFFF       DW 0xFFFF
0x4DF0: FFFF       DW 0xFFFF
0x4DF2: FFFF       DW 0xFFFF
0x4DF4: FFFF       DW 0xFFFF
0x4DF6: FFFF       DW 0xFFFF
0x4DF8: FFFF       DW 0xFFFF
0x4DFA: FFFF       DW 0xFFFF
0x4DFC: FFFF       DW 0xFFFF
0x4DFE: FFFF       DW 0xFFFF
0x4E00: FFFF       DW 0xFFFF
0x4E02: FFFF       DW 0xFFFF
0x4E04: FFFF       DW 0xFFFF
0x4E06: FFFF       DW 0xFFFF
0x4E08: FFFF       DW 0xFFFF
0x4E0A: FFFF       DW 0xFFFF
0x4E0C: FFFF       DW 0xFFFF
0x4E0E: FFFF       DW 0xFFFF
0x4E10: FFFF       DW 0xFFFF
0x4E12: FFFF       DW 0xFFFF
0x4E14: FFFF       DW 0xFFFF
0x4E16: FFFF       DW 0xFFFF
0x4E18: FFFF       DW 0xFFFF
0x4E1A: FFFF       DW 0xFFFF
0x4E1C: FFFF       DW 0xFFFF
0x4E1E: FFFF       DW 0xFFFF
0x4E20: FFFF       DW 0xFFFF
0x4E22: FFFF       DW 0xFFFF
0x4E24: FFFF       DW 0xFFFF
0x4E26: FFFF       DW 0xFFFF
0x4E28: FFFF       DW 0xFFFF
0x4E2A: FFFF       DW 0xFFFF
0x4E2C: FFFF       DW 0xFFFF
0x4E2E: FFFF       DW 0xFFFF
0x4E30: FFFF       DW 0xFFFF
0x4E32: FFFF       DW 0xFFFF
0x4E34: FFFF       DW 0xFFFF
0x4E36: FFFF       DW 0xFFFF
0x4E38: FFFF       DW 0xFFFF
0x4E3A: FFFF       DW 0xFFFF
0x4E3C: FFFF       DW 0xFFFF
0x4E3E: FFFF       DW 0xFFFF
0x4E40: FFFF       DW 0xFFFF
0x4E42: FFFF       DW 0xFFFF
0x4E44: FFFF       DW 0xFFFF
0x4E46: FFFF       DW 0xFFFF
0x4E48: FFFF       DW 0xFFFF
0x4E4A: FFFF       DW 0xFFFF
0x4E4C: FFFF       DW 0xFFFF
0x4E4E: FFFF       DW 0xFFFF
0x4E50: FFFF       DW 0xFFFF
0x4E52: FFFF       DW 0xFFFF
0x4E54: FFFF       DW 0xFFFF
0x4E56: FFFF       DW 0xFFFF
0x4E58: FFFF       DW 0xFFFF
0x4E5A: FFFF       DW 0xFFFF
0x4E5C: FFFF       DW 0xFFFF
0x4E5E: FFFF       DW 0xFFFF
0x4E60: FFFF       DW 0xFFFF
0x4E62: FFFF       DW 0xFFFF
0x4E64: FFFF       DW 0xFFFF
0x4E66: FFFF       DW 0xFFFF
0x4E68: FFFF       DW 0xFFFF
0x4E6A: FFFF       DW 0xFFFF
0x4E6C: FFFF       DW 0xFFFF
0x4E6E: FFFF       DW 0xFFFF
0x4E70: FFFF       DW 0xFFFF
0x4E72: FFFF       DW 0xFFFF
0x4E74: FFFF       DW 0xFFFF
0x4E76: FFFF       DW 0xFFFF
0x4E78: FFFF       DW 0xFFFF
0x4E7A: FFFF       DW 0xFFFF
0x4E7C: FFFF       DW 0xFFFF
0x4E7E: FFFF       DW 0xFFFF
0x4E80: FFFF       DW 0xFFFF
0x4E82: FFFF       DW 0xFFFF
0x4E84: FFFF       DW 0xFFFF
0x4E86: FFFF       DW 0xFFFF
0x4E88: FFFF       DW 0xFFFF
0x4E8A: FFFF       DW 0xFFFF
0x4E8C: FFFF       DW 0xFFFF
0x4E8E: FFFF       DW 0xFFFF
0x4E90: FFFF       DW 0xFFFF
0x4E92: FFFF       DW 0xFFFF
0x4E94: FFFF       DW 0xFFFF
0x4E96: FFFF       DW 0xFFFF
0x4E98: FFFF       DW 0xFFFF
0x4E9A: FFFF       DW 0xFFFF
0x4E9C: FFFF       DW 0xFFFF
0x4E9E: FFFF       DW 0xFFFF
0x4EA0: FFFF       DW 0xFFFF
0x4EA2: FFFF       DW 0xFFFF
0x4EA4: FFFF       DW 0xFFFF
0x4EA6: FFFF       DW 0xFFFF
0x4EA8: FFFF       DW 0xFFFF
0x4EAA: FFFF       DW 0xFFFF
0x4EAC: FFFF       DW 0xFFFF
0x4EAE: FFFF       DW 0xFFFF
0x4EB0: FFFF       DW 0xFFFF
0x4EB2: FFFF       DW 0xFFFF
0x4EB4: FFFF       DW 0xFFFF
0x4EB6: FFFF       DW 0xFFFF
0x4EB8: FFFF       DW 0xFFFF
0x4EBA: FFFF       DW 0xFFFF
0x4EBC: FFFF       DW 0xFFFF
0x4EBE: FFFF       DW 0xFFFF
0x4EC0: FFFF       DW 0xFFFF
0x4EC2: FFFF       DW 0xFFFF
0x4EC4: FFFF       DW 0xFFFF
0x4EC6: FFFF       DW 0xFFFF
0x4EC8: FFFF       DW 0xFFFF
0x4ECA: FFFF       DW 0xFFFF
0x4ECC: FFFF       DW 0xFFFF
0x4ECE: FFFF       DW 0xFFFF
0x4ED0: FFFF       DW 0xFFFF
0x4ED2: FFFF       DW 0xFFFF
0x4ED4: FFFF       DW 0xFFFF
0x4ED6: FFFF       DW 0xFFFF
0x4ED8: FFFF       DW 0xFFFF
0x4EDA: FFFF       DW 0xFFFF
0x4EDC: FFFF       DW 0xFFFF
0x4EDE: FFFF       DW 0xFFFF
0x4EE0: FFFF       DW 0xFFFF
0x4EE2: FFFF       DW 0xFFFF
0x4EE4: FFFF       DW 0xFFFF
0x4EE6: FFFF       DW 0xFFFF
0x4EE8: FFFF       DW 0xFFFF
0x4EEA: FFFF       DW 0xFFFF
0x4EEC: FFFF       DW 0xFFFF
0x4EEE: FFFF       DW 0xFFFF
0x4EF0: FFFF       DW 0xFFFF
0x4EF2: FFFF       DW 0xFFFF
0x4EF4: FFFF       DW 0xFFFF
0x4EF6: FFFF       DW 0xFFFF
0x4EF8: FFFF       DW 0xFFFF
0x4EFA: FFFF       DW 0xFFFF
0x4EFC: FFFF       DW 0xFFFF
0x4EFE: FFFF       DW 0xFFFF
0x4F00: FFFF       DW 0xFFFF
0x4F02: FFFF       DW 0xFFFF
0x4F04: FFFF       DW 0xFFFF
0x4F06: FFFF       DW 0xFFFF
0x4F08: FFFF       DW 0xFFFF
0x4F0A: FFFF       DW 0xFFFF
0x4F0C: FFFF       DW 0xFFFF
0x4F0E: FFFF       DW 0xFFFF
0x4F10: FFFF       DW 0xFFFF
0x4F12: FFFF       DW 0xFFFF
0x4F14: FFFF       DW 0xFFFF
0x4F16: FFFF       DW 0xFFFF
0x4F18: FFFF       DW 0xFFFF
0x4F1A: FFFF       DW 0xFFFF
0x4F1C: FFFF       DW 0xFFFF
0x4F1E: FFFF       DW 0xFFFF
0x4F20: FFFF       DW 0xFFFF
0x4F22: FFFF       DW 0xFFFF
0x4F24: FFFF       DW 0xFFFF
0x4F26: FFFF       DW 0xFFFF
0x4F28: FFFF       DW 0xFFFF
0x4F2A: FFFF       DW 0xFFFF
0x4F2C: FFFF       DW 0xFFFF
0x4F2E: FFFF       DW 0xFFFF
0x4F30: FFFF       DW 0xFFFF
0x4F32: FFFF       DW 0xFFFF
0x4F34: FFFF       DW 0xFFFF
0x4F36: FFFF       DW 0xFFFF
0x4F38: FFFF       DW 0xFFFF
0x4F3A: FFFF       DW 0xFFFF
0x4F3C: FFFF       DW 0xFFFF
0x4F3E: FFFF       DW 0xFFFF
0x4F40: FFFF       DW 0xFFFF
0x4F42: FFFF       DW 0xFFFF
0x4F44: FFFF       DW 0xFFFF
0x4F46: FFFF       DW 0xFFFF
0x4F48: FFFF       DW 0xFFFF
0x4F4A: FFFF       DW 0xFFFF
0x4F4C: FFFF       DW 0xFFFF
0x4F4E: FFFF       DW 0xFFFF
0x4F50: FFFF       DW 0xFFFF
0x4F52: FFFF       DW 0xFFFF
0x4F54: FFFF       DW 0xFFFF
0x4F56: FFFF       DW 0xFFFF
0x4F58: FFFF       DW 0xFFFF
0x4F5A: FFFF       DW 0xFFFF
0x4F5C: FFFF       DW 0xFFFF
0x4F5E: FFFF       DW 0xFFFF
0x4F60: FFFF       DW 0xFFFF
0x4F62: FFFF       DW 0xFFFF
0x4F64: FFFF       DW 0xFFFF
0x4F66: FFFF       DW 0xFFFF
0x4F68: FFFF       DW 0xFFFF
0x4F6A: FFFF       DW 0xFFFF
0x4F6C: FFFF       DW 0xFFFF
0x4F6E: FFFF       DW 0xFFFF
0x4F70: FFFF       DW 0xFFFF
0x4F72: FFFF       DW 0xFFFF
0x4F74: FFFF       DW 0xFFFF
0x4F76: FFFF       DW 0xFFFF
0x4F78: FFFF       DW 0xFFFF
0x4F7A: FFFF       DW 0xFFFF
0x4F7C: FFFF       DW 0xFFFF
0x4F7E: FFFF       DW 0xFFFF
0x4F80: FFFF       DW 0xFFFF
0x4F82: FFFF       DW 0xFFFF
0x4F84: FFFF       DW 0xFFFF
0x4F86: FFFF       DW 0xFFFF
0x4F88: FFFF       DW 0xFFFF
0x4F8A: FFFF       DW 0xFFFF
0x4F8C: FFFF       DW 0xFFFF
0x4F8E: FFFF       DW 0xFFFF
0x4F90: FFFF       DW 0xFFFF
0x4F92: FFFF       DW 0xFFFF
0x4F94: FFFF       DW 0xFFFF
0x4F96: FFFF       DW 0xFFFF
0x4F98: FFFF       DW 0xFFFF
0x4F9A: FFFF       DW 0xFFFF
0x4F9C: FFFF       DW 0xFFFF
0x4F9E: FFFF       DW 0xFFFF
0x4FA0: FFFF       DW 0xFFFF
0x4FA2: FFFF       DW 0xFFFF
0x4FA4: FFFF       DW 0xFFFF
0x4FA6: FFFF       DW 0xFFFF
0x4FA8: FFFF       DW 0xFFFF
0x4FAA: FFFF       DW 0xFFFF
0x4FAC: FFFF       DW 0xFFFF
0x4FAE: FFFF       DW 0xFFFF
0x4FB0: FFFF       DW 0xFFFF
0x4FB2: FFFF       DW 0xFFFF
0x4FB4: FFFF       DW 0xFFFF
0x4FB6: FFFF       DW 0xFFFF
0x4FB8: FFFF       DW 0xFFFF
0x4FBA: FFFF       DW 0xFFFF
0x4FBC: FFFF       DW 0xFFFF
0x4FBE: FFFF       DW 0xFFFF
0x4FC0: FFFF       DW 0xFFFF
0x4FC2: FFFF       DW 0xFFFF
0x4FC4: FFFF       DW 0xFFFF
0x4FC6: FFFF       DW 0xFFFF
0x4FC8: FFFF       DW 0xFFFF
0x4FCA: FFFF       DW 0xFFFF
0x4FCC: FFFF       DW 0xFFFF
0x4FCE: FFFF       DW 0xFFFF
0x4FD0: FFFF       DW 0xFFFF
0x4FD2: FFFF       DW 0xFFFF
0x4FD4: FFFF       DW 0xFFFF
0x4FD6: FFFF       DW 0xFFFF
0x4FD8: FFFF       DW 0xFFFF
0x4FDA: FFFF       DW 0xFFFF
0x4FDC: FFFF       DW 0xFFFF
0x4FDE: FFFF       DW 0xFFFF
0x4FE0: FFFF       DW 0xFFFF
0x4FE2: FFFF       DW 0xFFFF
0x4FE4: FFFF       DW 0xFFFF
0x4FE6: FFFF       DW 0xFFFF
0x4FE8: FFFF       DW 0xFFFF
0x4FEA: FFFF       DW 0xFFFF
0x4FEC: FFFF       DW 0xFFFF
0x4FEE: FFFF       DW 0xFFFF
0x4FF0: FFFF       DW 0xFFFF
0x4FF2: FFFF       DW 0xFFFF
0x4FF4: FFFF       DW 0xFFFF
0x4FF6: FFFF       DW 0xFFFF
0x4FF8: FFFF       DW 0xFFFF
0x4FFA: FFFF       DW 0xFFFF
0x4FFC: FFFF       DW 0xFFFF
0x4FFE: FFFF       DW 0xFFFF
0x5000: FFFF       DW 0xFFFF
0x5002: FFFF       DW 0xFFFF
0x5004: FFFF       DW 0xFFFF
0x5006: FFFF       DW 0xFFFF
0x5008: FFFF       DW 0xFFFF
0x500A: FFFF       DW 0xFFFF
0x500C: FFFF       DW 0xFFFF
0x500E: FFFF       DW 0xFFFF
0x5010: FFFF       DW 0xFFFF
0x5012: FFFF       DW 0xFFFF
0x5014: FFFF       DW 0xFFFF
0x5016: FFFF       DW 0xFFFF
0x5018: FFFF       DW 0xFFFF
0x501A: FFFF       DW 0xFFFF
0x501C: FFFF       DW 0xFFFF
0x501E: FFFF       DW 0xFFFF
0x5020: FFFF       DW 0xFFFF
0x5022: FFFF       DW 0xFFFF
0x5024: FFFF       DW 0xFFFF
0x5026: FFFF       DW 0xFFFF
0x5028: FFFF       DW 0xFFFF
0x502A: FFFF       DW 0xFFFF
0x502C: FFFF       DW 0xFFFF
0x502E: FFFF       DW 0xFFFF
0x5030: FFFF       DW 0xFFFF
0x5032: FFFF       DW 0xFFFF
0x5034: FFFF       DW 0xFFFF
0x5036: FFFF       DW 0xFFFF
0x5038: FFFF       DW 0xFFFF
0x503A: FFFF       DW 0xFFFF
0x503C: FFFF       DW 0xFFFF
0x503E: FFFF       DW 0xFFFF
0x5040: FFFF       DW 0xFFFF
0x5042: FFFF       DW 0xFFFF
0x5044: FFFF       DW 0xFFFF
0x5046: FFFF       DW 0xFFFF
0x5048: FFFF       DW 0xFFFF
0x504A: FFFF       DW 0xFFFF
0x504C: FFFF       DW 0xFFFF
0x504E: FFFF       DW 0xFFFF
0x5050: FFFF       DW 0xFFFF
0x5052: FFFF       DW 0xFFFF
0x5054: FFFF       DW 0xFFFF
0x5056: FFFF       DW 0xFFFF
0x5058: FFFF       DW 0xFFFF
0x505A: FFFF       DW 0xFFFF
0x505C: FFFF       DW 0xFFFF
0x505E: FFFF       DW 0xFFFF
0x5060: FFFF       DW 0xFFFF
0x5062: FFFF       DW 0xFFFF
0x5064: FFFF       DW 0xFFFF
0x5066: FFFF       DW 0xFFFF
0x5068: FFFF       DW 0xFFFF
0x506A: FFFF       DW 0xFFFF
0x506C: FFFF       DW 0xFFFF
0x506E: FFFF       DW 0xFFFF
0x5070: FFFF       DW 0xFFFF
0x5072: FFFF       DW 0xFFFF
0x5074: FFFF       DW 0xFFFF
0x5076: FFFF       DW 0xFFFF
0x5078: FFFF       DW 0xFFFF
0x507A: FFFF       DW 0xFFFF
0x507C: FFFF       DW 0xFFFF
0x507E: FFFF       DW 0xFFFF
0x5080: FFFF       DW 0xFFFF
0x5082: FFFF       DW 0xFFFF
0x5084: FFFF       DW 0xFFFF
0x5086: FFFF       DW 0xFFFF
0x5088: FFFF       DW 0xFFFF
0x508A: FFFF       DW 0xFFFF
0x508C: FFFF       DW 0xFFFF
0x508E: FFFF       DW 0xFFFF
0x5090: FFFF       DW 0xFFFF
0x5092: FFFF       DW 0xFFFF
0x5094: FFFF       DW 0xFFFF
0x5096: FFFF       DW 0xFFFF
0x5098: FFFF       DW 0xFFFF
0x509A: FFFF       DW 0xFFFF
0x509C: FFFF       DW 0xFFFF
0x509E: FFFF       DW 0xFFFF
0x50A0: FFFF       DW 0xFFFF
0x50A2: FFFF       DW 0xFFFF
0x50A4: FFFF       DW 0xFFFF
0x50A6: FFFF       DW 0xFFFF
0x50A8: FFFF       DW 0xFFFF
0x50AA: FFFF       DW 0xFFFF
0x50AC: FFFF       DW 0xFFFF
0x50AE: FFFF       DW 0xFFFF
0x50B0: FFFF       DW 0xFFFF
0x50B2: FFFF       DW 0xFFFF
0x50B4: FFFF       DW 0xFFFF
0x50B6: FFFF       DW 0xFFFF
0x50B8: FFFF       DW 0xFFFF
0x50BA: FFFF       DW 0xFFFF
0x50BC: FFFF       DW 0xFFFF
0x50BE: FFFF       DW 0xFFFF
0x50C0: FFFF       DW 0xFFFF
0x50C2: FFFF       DW 0xFFFF
0x50C4: FFFF       DW 0xFFFF
0x50C6: FFFF       DW 0xFFFF
0x50C8: FFFF       DW 0xFFFF
0x50CA: FFFF       DW 0xFFFF
0x50CC: FFFF       DW 0xFFFF
0x50CE: FFFF       DW 0xFFFF
0x50D0: FFFF       DW 0xFFFF
0x50D2: FFFF       DW 0xFFFF
0x50D4: FFFF       DW 0xFFFF
0x50D6: FFFF       DW 0xFFFF
0x50D8: FFFF       DW 0xFFFF
0x50DA: FFFF       DW 0xFFFF
0x50DC: FFFF       DW 0xFFFF
0x50DE: FFFF       DW 0xFFFF
0x50E0: FFFF       DW 0xFFFF
0x50E2: FFFF       DW 0xFFFF
0x50E4: FFFF       DW 0xFFFF
0x50E6: FFFF       DW 0xFFFF
0x50E8: FFFF       DW 0xFFFF
0x50EA: FFFF       DW 0xFFFF
0x50EC: FFFF       DW 0xFFFF
0x50EE: FFFF       DW 0xFFFF
0x50F0: FFFF       DW 0xFFFF
0x50F2: FFFF       DW 0xFFFF
0x50F4: FFFF       DW 0xFFFF
0x50F6: FFFF       DW 0xFFFF
0x50F8: FFFF       DW 0xFFFF
0x50FA: FFFF       DW 0xFFFF
0x50FC: FFFF       DW 0xFFFF
0x50FE: FFFF       DW 0xFFFF
0x5100: FFFF       DW 0xFFFF
0x5102: FFFF       DW 0xFFFF
0x5104: FFFF       DW 0xFFFF
0x5106: FFFF       DW 0xFFFF
0x5108: FFFF       DW 0xFFFF
0x510A: FFFF       DW 0xFFFF
0x510C: FFFF       DW 0xFFFF
0x510E: FFFF       DW 0xFFFF
0x5110: FFFF       DW 0xFFFF
0x5112: FFFF       DW 0xFFFF
0x5114: FFFF       DW 0xFFFF
0x5116: FFFF       DW 0xFFFF
0x5118: FFFF       DW 0xFFFF
0x511A: FFFF       DW 0xFFFF
0x511C: FFFF       DW 0xFFFF
0x511E: FFFF       DW 0xFFFF
0x5120: FFFF       DW 0xFFFF
0x5122: FFFF       DW 0xFFFF
0x5124: FFFF       DW 0xFFFF
0x5126: FFFF       DW 0xFFFF
0x5128: FFFF       DW 0xFFFF
0x512A: FFFF       DW 0xFFFF
0x512C: FFFF       DW 0xFFFF
0x512E: FFFF       DW 0xFFFF
0x5130: FFFF       DW 0xFFFF
0x5132: FFFF       DW 0xFFFF
0x5134: FFFF       DW 0xFFFF
0x5136: FFFF       DW 0xFFFF
0x5138: FFFF       DW 0xFFFF
0x513A: FFFF       DW 0xFFFF
0x513C: FFFF       DW 0xFFFF
0x513E: FFFF       DW 0xFFFF
0x5140: FFFF       DW 0xFFFF
0x5142: FFFF       DW 0xFFFF
0x5144: FFFF       DW 0xFFFF
0x5146: FFFF       DW 0xFFFF
0x5148: FFFF       DW 0xFFFF
0x514A: FFFF       DW 0xFFFF
0x514C: FFFF       DW 0xFFFF
0x514E: FFFF       DW 0xFFFF
0x5150: FFFF       DW 0xFFFF
0x5152: FFFF       DW 0xFFFF
0x5154: FFFF       DW 0xFFFF
0x5156: FFFF       DW 0xFFFF
0x5158: FFFF       DW 0xFFFF
0x515A: FFFF       DW 0xFFFF
0x515C: FFFF       DW 0xFFFF
0x515E: FFFF       DW 0xFFFF
0x5160: FFFF       DW 0xFFFF
0x5162: FFFF       DW 0xFFFF
0x5164: FFFF       DW 0xFFFF
0x5166: FFFF       DW 0xFFFF
0x5168: FFFF       DW 0xFFFF
0x516A: FFFF       DW 0xFFFF
0x516C: FFFF       DW 0xFFFF
0x516E: FFFF       DW 0xFFFF
0x5170: FFFF       DW 0xFFFF
0x5172: FFFF       DW 0xFFFF
0x5174: FFFF       DW 0xFFFF
0x5176: FFFF       DW 0xFFFF
0x5178: FFFF       DW 0xFFFF
0x517A: FFFF       DW 0xFFFF
0x517C: FFFF       DW 0xFFFF
0x517E: FFFF       DW 0xFFFF
0x5180: FFFF       DW 0xFFFF
0x5182: FFFF       DW 0xFFFF
0x5184: FFFF       DW 0xFFFF
0x5186: FFFF       DW 0xFFFF
0x5188: FFFF       DW 0xFFFF
0x518A: FFFF       DW 0xFFFF
0x518C: FFFF       DW 0xFFFF
0x518E: FFFF       DW 0xFFFF
0x5190: FFFF       DW 0xFFFF
0x5192: FFFF       DW 0xFFFF
0x5194: FFFF       DW 0xFFFF
0x5196: FFFF       DW 0xFFFF
0x5198: FFFF       DW 0xFFFF
0x519A: FFFF       DW 0xFFFF
0x519C: FFFF       DW 0xFFFF
0x519E: FFFF       DW 0xFFFF
0x51A0: FFFF       DW 0xFFFF
0x51A2: FFFF       DW 0xFFFF
0x51A4: FFFF       DW 0xFFFF
0x51A6: FFFF       DW 0xFFFF
0x51A8: FFFF       DW 0xFFFF
0x51AA: FFFF       DW 0xFFFF
0x51AC: FFFF       DW 0xFFFF
0x51AE: FFFF       DW 0xFFFF
0x51B0: FFFF       DW 0xFFFF
0x51B2: FFFF       DW 0xFFFF
0x51B4: FFFF       DW 0xFFFF
0x51B6: FFFF       DW 0xFFFF
0x51B8: FFFF       DW 0xFFFF
0x51BA: FFFF       DW 0xFFFF
0x51BC: FFFF       DW 0xFFFF
0x51BE: FFFF       DW 0xFFFF
0x51C0: FFFF       DW 0xFFFF
0x51C2: FFFF       DW 0xFFFF
0x51C4: FFFF       DW 0xFFFF
0x51C6: FFFF       DW 0xFFFF
0x51C8: FFFF       DW 0xFFFF
0x51CA: FFFF       DW 0xFFFF
0x51CC: FFFF       DW 0xFFFF
0x51CE: FFFF       DW 0xFFFF
0x51D0: FFFF       DW 0xFFFF
0x51D2: FFFF       DW 0xFFFF
0x51D4: FFFF       DW 0xFFFF
0x51D6: FFFF       DW 0xFFFF
0x51D8: FFFF       DW 0xFFFF
0x51DA: FFFF       DW 0xFFFF
0x51DC: FFFF       DW 0xFFFF
0x51DE: FFFF       DW 0xFFFF
0x51E0: FFFF       DW 0xFFFF
0x51E2: FFFF       DW 0xFFFF
0x51E4: FFFF       DW 0xFFFF
0x51E6: FFFF       DW 0xFFFF
0x51E8: FFFF       DW 0xFFFF
0x51EA: FFFF       DW 0xFFFF
0x51EC: FFFF       DW 0xFFFF
0x51EE: FFFF       DW 0xFFFF
0x51F0: FFFF       DW 0xFFFF
0x51F2: FFFF       DW 0xFFFF
0x51F4: FFFF       DW 0xFFFF
0x51F6: FFFF       DW 0xFFFF
0x51F8: FFFF       DW 0xFFFF
0x51FA: FFFF       DW 0xFFFF
0x51FC: FFFF       DW 0xFFFF
0x51FE: FFFF       DW 0xFFFF
0x5200: FFFF       DW 0xFFFF
0x5202: FFFF       DW 0xFFFF
0x5204: FFFF       DW 0xFFFF
0x5206: FFFF       DW 0xFFFF
0x5208: FFFF       DW 0xFFFF
0x520A: FFFF       DW 0xFFFF
0x520C: FFFF       DW 0xFFFF
0x520E: FFFF       DW 0xFFFF
0x5210: FFFF       DW 0xFFFF
0x5212: FFFF       DW 0xFFFF
0x5214: FFFF       DW 0xFFFF
0x5216: FFFF       DW 0xFFFF
0x5218: FFFF       DW 0xFFFF
0x521A: FFFF       DW 0xFFFF
0x521C: FFFF       DW 0xFFFF
0x521E: FFFF       DW 0xFFFF
0x5220: FFFF       DW 0xFFFF
0x5222: FFFF       DW 0xFFFF
0x5224: FFFF       DW 0xFFFF
0x5226: FFFF       DW 0xFFFF
0x5228: FFFF       DW 0xFFFF
0x522A: FFFF       DW 0xFFFF
0x522C: FFFF       DW 0xFFFF
0x522E: FFFF       DW 0xFFFF
0x5230: FFFF       DW 0xFFFF
0x5232: FFFF       DW 0xFFFF
0x5234: FFFF       DW 0xFFFF
0x5236: FFFF       DW 0xFFFF
0x5238: FFFF       DW 0xFFFF
0x523A: FFFF       DW 0xFFFF
0x523C: FFFF       DW 0xFFFF
0x523E: FFFF       DW 0xFFFF
0x5240: FFFF       DW 0xFFFF
0x5242: FFFF       DW 0xFFFF
0x5244: FFFF       DW 0xFFFF
0x5246: FFFF       DW 0xFFFF
0x5248: FFFF       DW 0xFFFF
0x524A: FFFF       DW 0xFFFF
0x524C: FFFF       DW 0xFFFF
0x524E: FFFF       DW 0xFFFF
0x5250: FFFF       DW 0xFFFF
0x5252: FFFF       DW 0xFFFF
0x5254: FFFF       DW 0xFFFF
0x5256: FFFF       DW 0xFFFF
0x5258: FFFF       DW 0xFFFF
0x525A: FFFF       DW 0xFFFF
0x525C: FFFF       DW 0xFFFF
0x525E: FFFF       DW 0xFFFF
0x5260: FFFF       DW 0xFFFF
0x5262: FFFF       DW 0xFFFF
0x5264: FFFF       DW 0xFFFF
0x5266: FFFF       DW 0xFFFF
0x5268: FFFF       DW 0xFFFF
0x526A: FFFF       DW 0xFFFF
0x526C: FFFF       DW 0xFFFF
0x526E: FFFF       DW 0xFFFF
0x5270: FFFF       DW 0xFFFF
0x5272: FFFF       DW 0xFFFF
0x5274: FFFF       DW 0xFFFF
0x5276: FFFF       DW 0xFFFF
0x5278: FFFF       DW 0xFFFF
0x527A: FFFF       DW 0xFFFF
0x527C: FFFF       DW 0xFFFF
0x527E: FFFF       DW 0xFFFF
0x5280: FFFF       DW 0xFFFF
0x5282: FFFF       DW 0xFFFF
0x5284: FFFF       DW 0xFFFF
0x5286: FFFF       DW 0xFFFF
0x5288: FFFF       DW 0xFFFF
0x528A: FFFF       DW 0xFFFF
0x528C: FFFF       DW 0xFFFF
0x528E: FFFF       DW 0xFFFF
0x5290: FFFF       DW 0xFFFF
0x5292: FFFF       DW 0xFFFF
0x5294: FFFF       DW 0xFFFF
0x5296: FFFF       DW 0xFFFF
0x5298: FFFF       DW 0xFFFF
0x529A: FFFF       DW 0xFFFF
0x529C: FFFF       DW 0xFFFF
0x529E: FFFF       DW 0xFFFF
0x52A0: FFFF       DW 0xFFFF
0x52A2: FFFF       DW 0xFFFF
0x52A4: FFFF       DW 0xFFFF
0x52A6: FFFF       DW 0xFFFF
0x52A8: FFFF       DW 0xFFFF
0x52AA: FFFF       DW 0xFFFF
0x52AC: FFFF       DW 0xFFFF
0x52AE: FFFF       DW 0xFFFF
0x52B0: FFFF       DW 0xFFFF
0x52B2: FFFF       DW 0xFFFF
0x52B4: FFFF       DW 0xFFFF
0x52B6: FFFF       DW 0xFFFF
0x52B8: FFFF       DW 0xFFFF
0x52BA: FFFF       DW 0xFFFF
0x52BC: FFFF       DW 0xFFFF
0x52BE: FFFF       DW 0xFFFF
0x52C0: FFFF       DW 0xFFFF
0x52C2: FFFF       DW 0xFFFF
0x52C4: FFFF       DW 0xFFFF
0x52C6: FFFF       DW 0xFFFF
0x52C8: FFFF       DW 0xFFFF
0x52CA: FFFF       DW 0xFFFF
0x52CC: FFFF       DW 0xFFFF
0x52CE: FFFF       DW 0xFFFF
0x52D0: FFFF       DW 0xFFFF
0x52D2: FFFF       DW 0xFFFF
0x52D4: FFFF       DW 0xFFFF
0x52D6: FFFF       DW 0xFFFF
0x52D8: FFFF       DW 0xFFFF
0x52DA: FFFF       DW 0xFFFF
0x52DC: FFFF       DW 0xFFFF
0x52DE: FFFF       DW 0xFFFF
0x52E0: FFFF       DW 0xFFFF
0x52E2: FFFF       DW 0xFFFF
0x52E4: FFFF       DW 0xFFFF
0x52E6: FFFF       DW 0xFFFF
0x52E8: FFFF       DW 0xFFFF
0x52EA: FFFF       DW 0xFFFF
0x52EC: FFFF       DW 0xFFFF
0x52EE: FFFF       DW 0xFFFF
0x52F0: FFFF       DW 0xFFFF
0x52F2: FFFF       DW 0xFFFF
0x52F4: FFFF       DW 0xFFFF
0x52F6: FFFF       DW 0xFFFF
0x52F8: FFFF       DW 0xFFFF
0x52FA: FFFF       DW 0xFFFF
0x52FC: FFFF       DW 0xFFFF
0x52FE: FFFF       DW 0xFFFF
0x5300: FFFF       DW 0xFFFF
0x5302: FFFF       DW 0xFFFF
0x5304: FFFF       DW 0xFFFF
0x5306: FFFF       DW 0xFFFF
0x5308: FFFF       DW 0xFFFF
0x530A: FFFF       DW 0xFFFF
0x530C: FFFF       DW 0xFFFF
0x530E: FFFF       DW 0xFFFF
0x5310: FFFF       DW 0xFFFF
0x5312: FFFF       DW 0xFFFF
0x5314: FFFF       DW 0xFFFF
0x5316: FFFF       DW 0xFFFF
0x5318: FFFF       DW 0xFFFF
0x531A: FFFF       DW 0xFFFF
0x531C: FFFF       DW 0xFFFF
0x531E: FFFF       DW 0xFFFF
0x5320: FFFF       DW 0xFFFF
0x5322: FFFF       DW 0xFFFF
0x5324: FFFF       DW 0xFFFF
0x5326: FFFF       DW 0xFFFF
0x5328: FFFF       DW 0xFFFF
0x532A: FFFF       DW 0xFFFF
0x532C: FFFF       DW 0xFFFF
0x532E: FFFF       DW 0xFFFF
0x5330: FFFF       DW 0xFFFF
0x5332: FFFF       DW 0xFFFF
0x5334: FFFF       DW 0xFFFF
0x5336: FFFF       DW 0xFFFF
0x5338: FFFF       DW 0xFFFF
0x533A: FFFF       DW 0xFFFF
0x533C: FFFF       DW 0xFFFF
0x533E: FFFF       DW 0xFFFF
0x5340: FFFF       DW 0xFFFF
0x5342: FFFF       DW 0xFFFF
0x5344: FFFF       DW 0xFFFF
0x5346: FFFF       DW 0xFFFF
0x5348: FFFF       DW 0xFFFF
0x534A: FFFF       DW 0xFFFF
0x534C: FFFF       DW 0xFFFF
0x534E: FFFF       DW 0xFFFF
0x5350: FFFF       DW 0xFFFF
0x5352: FFFF       DW 0xFFFF
0x5354: FFFF       DW 0xFFFF
0x5356: FFFF       DW 0xFFFF
0x5358: FFFF       DW 0xFFFF
0x535A: FFFF       DW 0xFFFF
0x535C: FFFF       DW 0xFFFF
0x535E: FFFF       DW 0xFFFF
0x5360: FFFF       DW 0xFFFF
0x5362: FFFF       DW 0xFFFF
0x5364: FFFF       DW 0xFFFF
0x5366: FFFF       DW 0xFFFF
0x5368: FFFF       DW 0xFFFF
0x536A: FFFF       DW 0xFFFF
0x536C: FFFF       DW 0xFFFF
0x536E: FFFF       DW 0xFFFF
0x5370: FFFF       DW 0xFFFF
0x5372: FFFF       DW 0xFFFF
0x5374: FFFF       DW 0xFFFF
0x5376: FFFF       DW 0xFFFF
0x5378: FFFF       DW 0xFFFF
0x537A: FFFF       DW 0xFFFF
0x537C: FFFF       DW 0xFFFF
0x537E: FFFF       DW 0xFFFF
0x5380: FFFF       DW 0xFFFF
0x5382: FFFF       DW 0xFFFF
0x5384: FFFF       DW 0xFFFF
0x5386: FFFF       DW 0xFFFF
0x5388: FFFF       DW 0xFFFF
0x538A: FFFF       DW 0xFFFF
0x538C: FFFF       DW 0xFFFF
0x538E: FFFF       DW 0xFFFF
0x5390: FFFF       DW 0xFFFF
0x5392: FFFF       DW 0xFFFF
0x5394: FFFF       DW 0xFFFF
0x5396: FFFF       DW 0xFFFF
0x5398: FFFF       DW 0xFFFF
0x539A: FFFF       DW 0xFFFF
0x539C: FFFF       DW 0xFFFF
0x539E: FFFF       DW 0xFFFF
0x53A0: FFFF       DW 0xFFFF
0x53A2: FFFF       DW 0xFFFF
0x53A4: FFFF       DW 0xFFFF
0x53A6: FFFF       DW 0xFFFF
0x53A8: FFFF       DW 0xFFFF
0x53AA: FFFF       DW 0xFFFF
0x53AC: FFFF       DW 0xFFFF
0x53AE: FFFF       DW 0xFFFF
0x53B0: FFFF       DW 0xFFFF
0x53B2: FFFF       DW 0xFFFF
0x53B4: FFFF       DW 0xFFFF
0x53B6: FFFF       DW 0xFFFF
0x53B8: FFFF       DW 0xFFFF
0x53BA: FFFF       DW 0xFFFF
0x53BC: FFFF       DW 0xFFFF
0x53BE: FFFF       DW 0xFFFF
0x53C0: FFFF       DW 0xFFFF
0x53C2: FFFF       DW 0xFFFF
0x53C4: FFFF       DW 0xFFFF
0x53C6: FFFF       DW 0xFFFF
0x53C8: FFFF       DW 0xFFFF
0x53CA: FFFF       DW 0xFFFF
0x53CC: FFFF       DW 0xFFFF
0x53CE: FFFF       DW 0xFFFF
0x53D0: FFFF       DW 0xFFFF
0x53D2: FFFF       DW 0xFFFF
0x53D4: FFFF       DW 0xFFFF
0x53D6: FFFF       DW 0xFFFF
0x53D8: FFFF       DW 0xFFFF
0x53DA: FFFF       DW 0xFFFF
0x53DC: FFFF       DW 0xFFFF
0x53DE: FFFF       DW 0xFFFF
0x53E0: FFFF       DW 0xFFFF
0x53E2: FFFF       DW 0xFFFF
0x53E4: FFFF       DW 0xFFFF
0x53E6: FFFF       DW 0xFFFF
0x53E8: FFFF       DW 0xFFFF
0x53EA: FFFF       DW 0xFFFF
0x53EC: FFFF       DW 0xFFFF
0x53EE: FFFF       DW 0xFFFF
0x53F0: FFFF       DW 0xFFFF
0x53F2: FFFF       DW 0xFFFF
0x53F4: FFFF       DW 0xFFFF
0x53F6: FFFF       DW 0xFFFF
0x53F8: FFFF       DW 0xFFFF
0x53FA: FFFF       DW 0xFFFF
0x53FC: FFFF       DW 0xFFFF
0x53FE: FFFF       DW 0xFFFF
0x5400: FFFF       DW 0xFFFF
0x5402: FFFF       DW 0xFFFF
0x5404: FFFF       DW 0xFFFF
0x5406: FFFF       DW 0xFFFF
0x5408: FFFF       DW 0xFFFF
0x540A: FFFF       DW 0xFFFF
0x540C: FFFF       DW 0xFFFF
0x540E: FFFF       DW 0xFFFF
0x5410: FFFF       DW 0xFFFF
0x5412: FFFF       DW 0xFFFF
0x5414: FFFF       DW 0xFFFF
0x5416: FFFF       DW 0xFFFF
0x5418: FFFF       DW 0xFFFF
0x541A: FFFF       DW 0xFFFF
0x541C: FFFF       DW 0xFFFF
0x541E: FFFF       DW 0xFFFF
0x5420: FFFF       DW 0xFFFF
0x5422: FFFF       DW 0xFFFF
0x5424: FFFF       DW 0xFFFF
0x5426: FFFF       DW 0xFFFF
0x5428: FFFF       DW 0xFFFF
0x542A: FFFF       DW 0xFFFF
0x542C: FFFF       DW 0xFFFF
0x542E: FFFF       DW 0xFFFF
0x5430: FFFF       DW 0xFFFF
0x5432: FFFF       DW 0xFFFF
0x5434: FFFF       DW 0xFFFF
0x5436: FFFF       DW 0xFFFF
0x5438: FFFF       DW 0xFFFF
0x543A: FFFF       DW 0xFFFF
0x543C: FFFF       DW 0xFFFF
0x543E: FFFF       DW 0xFFFF
0x5440: FFFF       DW 0xFFFF
0x5442: FFFF       DW 0xFFFF
0x5444: FFFF       DW 0xFFFF
0x5446: FFFF       DW 0xFFFF
0x5448: FFFF       DW 0xFFFF
0x544A: FFFF       DW 0xFFFF
0x544C: FFFF       DW 0xFFFF
0x544E: FFFF       DW 0xFFFF
0x5450: FFFF       DW 0xFFFF
0x5452: FFFF       DW 0xFFFF
0x5454: FFFF       DW 0xFFFF
0x5456: FFFF       DW 0xFFFF
0x5458: FFFF       DW 0xFFFF
0x545A: FFFF       DW 0xFFFF
0x545C: FFFF       DW 0xFFFF
0x545E: FFFF       DW 0xFFFF
0x5460: FFFF       DW 0xFFFF
0x5462: FFFF       DW 0xFFFF
0x5464: FFFF       DW 0xFFFF
0x5466: FFFF       DW 0xFFFF
0x5468: FFFF       DW 0xFFFF
0x546A: FFFF       DW 0xFFFF
0x546C: FFFF       DW 0xFFFF
0x546E: FFFF       DW 0xFFFF
0x5470: FFFF       DW 0xFFFF
0x5472: FFFF       DW 0xFFFF
0x5474: FFFF       DW 0xFFFF
0x5476: FFFF       DW 0xFFFF
0x5478: FFFF       DW 0xFFFF
0x547A: FFFF       DW 0xFFFF
0x547C: FFFF       DW 0xFFFF
0x547E: FFFF       DW 0xFFFF
0x5480: FFFF       DW 0xFFFF
0x5482: FFFF       DW 0xFFFF
0x5484: FFFF       DW 0xFFFF
0x5486: FFFF       DW 0xFFFF
0x5488: FFFF       DW 0xFFFF
0x548A: FFFF       DW 0xFFFF
0x548C: FFFF       DW 0xFFFF
0x548E: FFFF       DW 0xFFFF
0x5490: FFFF       DW 0xFFFF
0x5492: FFFF       DW 0xFFFF
0x5494: FFFF       DW 0xFFFF
0x5496: FFFF       DW 0xFFFF
0x5498: FFFF       DW 0xFFFF
0x549A: FFFF       DW 0xFFFF
0x549C: FFFF       DW 0xFFFF
0x549E: FFFF       DW 0xFFFF
0x54A0: FFFF       DW 0xFFFF
0x54A2: FFFF       DW 0xFFFF
0x54A4: FFFF       DW 0xFFFF
0x54A6: FFFF       DW 0xFFFF
0x54A8: FFFF       DW 0xFFFF
0x54AA: FFFF       DW 0xFFFF
0x54AC: FFFF       DW 0xFFFF
0x54AE: FFFF       DW 0xFFFF
0x54B0: FFFF       DW 0xFFFF
0x54B2: FFFF       DW 0xFFFF
0x54B4: FFFF       DW 0xFFFF
0x54B6: FFFF       DW 0xFFFF
0x54B8: FFFF       DW 0xFFFF
0x54BA: FFFF       DW 0xFFFF
0x54BC: FFFF       DW 0xFFFF
0x54BE: FFFF       DW 0xFFFF
0x54C0: FFFF       DW 0xFFFF
0x54C2: FFFF       DW 0xFFFF
0x54C4: FFFF       DW 0xFFFF
0x54C6: FFFF       DW 0xFFFF
0x54C8: FFFF       DW 0xFFFF
0x54CA: FFFF       DW 0xFFFF
0x54CC: FFFF       DW 0xFFFF
0x54CE: FFFF       DW 0xFFFF
0x54D0: FFFF       DW 0xFFFF
0x54D2: FFFF       DW 0xFFFF
0x54D4: FFFF       DW 0xFFFF
0x54D6: FFFF       DW 0xFFFF
0x54D8: FFFF       DW 0xFFFF
0x54DA: FFFF       DW 0xFFFF
0x54DC: FFFF       DW 0xFFFF
0x54DE: FFFF       DW 0xFFFF
0x54E0: FFFF       DW 0xFFFF
0x54E2: FFFF       DW 0xFFFF
0x54E4: FFFF       DW 0xFFFF
0x54E6: FFFF       DW 0xFFFF
0x54E8: FFFF       DW 0xFFFF
0x54EA: FFFF       DW 0xFFFF
0x54EC: FFFF       DW 0xFFFF
0x54EE: FFFF       DW 0xFFFF
0x54F0: FFFF       DW 0xFFFF
0x54F2: FFFF       DW 0xFFFF
0x54F4: FFFF       DW 0xFFFF
0x54F6: FFFF       DW 0xFFFF
0x54F8: FFFF       DW 0xFFFF
0x54FA: FFFF       DW 0xFFFF
0x54FC: FFFF       DW 0xFFFF
0x54FE: FFFF       DW 0xFFFF
0x5500: FFFF       DW 0xFFFF
0x5502: FFFF       DW 0xFFFF
0x5504: FFFF       DW 0xFFFF
0x5506: FFFF       DW 0xFFFF
0x5508: FFFF       DW 0xFFFF
0x550A: FFFF       DW 0xFFFF
0x550C: FFFF       DW 0xFFFF
0x550E: FFFF       DW 0xFFFF
0x5510: FFFF       DW 0xFFFF
0x5512: FFFF       DW 0xFFFF
0x5514: FFFF       DW 0xFFFF
0x5516: FFFF       DW 0xFFFF
0x5518: FFFF       DW 0xFFFF
0x551A: FFFF       DW 0xFFFF
0x551C: FFFF       DW 0xFFFF
0x551E: FFFF       DW 0xFFFF
0x5520: FFFF       DW 0xFFFF
0x5522: FFFF       DW 0xFFFF
0x5524: FFFF       DW 0xFFFF
0x5526: FFFF       DW 0xFFFF
0x5528: FFFF       DW 0xFFFF
0x552A: FFFF       DW 0xFFFF
0x552C: FFFF       DW 0xFFFF
0x552E: FFFF       DW 0xFFFF
0x5530: FFFF       DW 0xFFFF
0x5532: FFFF       DW 0xFFFF
0x5534: FFFF       DW 0xFFFF
0x5536: FFFF       DW 0xFFFF
0x5538: FFFF       DW 0xFFFF
0x553A: FFFF       DW 0xFFFF
0x553C: FFFF       DW 0xFFFF
0x553E: FFFF       DW 0xFFFF
0x5540: FFFF       DW 0xFFFF
0x5542: FFFF       DW 0xFFFF
0x5544: FFFF       DW 0xFFFF
0x5546: FFFF       DW 0xFFFF
0x5548: FFFF       DW 0xFFFF
0x554A: FFFF       DW 0xFFFF
0x554C: FFFF       DW 0xFFFF
0x554E: FFFF       DW 0xFFFF
0x5550: FFFF       DW 0xFFFF
0x5552: FFFF       DW 0xFFFF
0x5554: FFFF       DW 0xFFFF
0x5556: FFFF       DW 0xFFFF
0x5558: FFFF       DW 0xFFFF
0x555A: FFFF       DW 0xFFFF
0x555C: FFFF       DW 0xFFFF
0x555E: FFFF       DW 0xFFFF
0x5560: FFFF       DW 0xFFFF
0x5562: FFFF       DW 0xFFFF
0x5564: FFFF       DW 0xFFFF
0x5566: FFFF       DW 0xFFFF
0x5568: FFFF       DW 0xFFFF
0x556A: FFFF       DW 0xFFFF
0x556C: FFFF       DW 0xFFFF
0x556E: FFFF       DW 0xFFFF
0x5570: FFFF       DW 0xFFFF
0x5572: FFFF       DW 0xFFFF
0x5574: FFFF       DW 0xFFFF
0x5576: FFFF       DW 0xFFFF
0x5578: FFFF       DW 0xFFFF
0x557A: FFFF       DW 0xFFFF
0x557C: FFFF       DW 0xFFFF
0x557E: FFFF       DW 0xFFFF
0x5580: FFFF       DW 0xFFFF
0x5582: FFFF       DW 0xFFFF
0x5584: FFFF       DW 0xFFFF
0x5586: FFFF       DW 0xFFFF
0x5588: FFFF       DW 0xFFFF
0x558A: FFFF       DW 0xFFFF
0x558C: FFFF       DW 0xFFFF
0x558E: FFFF       DW 0xFFFF
0x5590: FFFF       DW 0xFFFF
0x5592: FFFF       DW 0xFFFF
0x5594: FFFF       DW 0xFFFF
0x5596: FFFF       DW 0xFFFF
0x5598: FFFF       DW 0xFFFF
0x559A: FFFF       DW 0xFFFF
0x559C: FFFF       DW 0xFFFF
0x559E: FFFF       DW 0xFFFF
0x55A0: FFFF       DW 0xFFFF
0x55A2: FFFF       DW 0xFFFF
0x55A4: FFFF       DW 0xFFFF
0x55A6: FFFF       DW 0xFFFF
0x55A8: FFFF       DW 0xFFFF
0x55AA: FFFF       DW 0xFFFF
0x55AC: FFFF       DW 0xFFFF
0x55AE: FFFF       DW 0xFFFF
0x55B0: FFFF       DW 0xFFFF
0x55B2: FFFF       DW 0xFFFF
0x55B4: FFFF       DW 0xFFFF
0x55B6: FFFF       DW 0xFFFF
0x55B8: FFFF       DW 0xFFFF
0x55BA: FFFF       DW 0xFFFF
0x55BC: FFFF       DW 0xFFFF
0x55BE: FFFF       DW 0xFFFF
0x55C0: FFFF       DW 0xFFFF
0x55C2: FFFF       DW 0xFFFF
0x55C4: FFFF       DW 0xFFFF
0x55C6: FFFF       DW 0xFFFF
0x55C8: FFFF       DW 0xFFFF
0x55CA: FFFF       DW 0xFFFF
0x55CC: FFFF       DW 0xFFFF
0x55CE: FFFF       DW 0xFFFF
0x55D0: FFFF       DW 0xFFFF
0x55D2: FFFF       DW 0xFFFF
0x55D4: FFFF       DW 0xFFFF
0x55D6: FFFF       DW 0xFFFF
0x55D8: FFFF       DW 0xFFFF
0x55DA: FFFF       DW 0xFFFF
0x55DC: FFFF       DW 0xFFFF
0x55DE: FFFF       DW 0xFFFF
0x55E0: FFFF       DW 0xFFFF
0x55E2: FFFF       DW 0xFFFF
0x55E4: FFFF       DW 0xFFFF
0x55E6: FFFF       DW 0xFFFF
0x55E8: FFFF       DW 0xFFFF
0x55EA: FFFF       DW 0xFFFF
0x55EC: FFFF       DW 0xFFFF
0x55EE: FFFF       DW 0xFFFF
0x55F0: FFFF       DW 0xFFFF
0x55F2: FFFF       DW 0xFFFF
0x55F4: FFFF       DW 0xFFFF
0x55F6: FFFF       DW 0xFFFF
0x55F8: FFFF       DW 0xFFFF
0x55FA: FFFF       DW 0xFFFF
0x55FC: FFFF       DW 0xFFFF
0x55FE: FFFF       DW 0xFFFF
0x5600: C801       DW 0xC801
0x5602: 0004       CLRWDT
0x5604: 0000       NOP
0x5606: 0000       NOP
0x5608: 0000       NOP
0x560A: 0000       NOP
0x560C: 0000       NOP
0x560E: 0000       NOP
0x5610: 0000       NOP
0x5612: 0000       NOP
0x5614: 0000       NOP
0x5616: 0000       NOP
0x5618: 3701       DW 0x3701
0x561A: 0014       DW 0x0014
0x561C: 0000       NOP
0x561E: 0000       NOP
0x5620: 0000       NOP
0x5622: 0000       NOP
0x5624: 0000       NOP
0x5626: 0000       NOP
0x5628: 0000       NOP
0x562A: 0000       NOP
0x562C: 0000       NOP
0x562E: 0000       NOP
0x5630: 3801       DW 0x3801
0x5632: 0014       DW 0x0014
0x5634: 0000       NOP
0x5636: 0000       NOP
0x5638: 0000       NOP
0x563A: 0000       NOP
0x563C: 0000       NOP
0x563E: 0000       NOP
0x5640: 0000       NOP
0x5642: 0000       NOP
0x5644: 0000       NOP
0x5646: 0000       NOP
0x5648: 3901       DW 0x3901
0x564A: 0014       DW 0x0014
0x564C: 0000       NOP
0x564E: 0000       NOP
0x5650: 0000       NOP
0x5652: 0000       NOP
0x5654: 0000       NOP
0x5656: 0000       NOP
0x5658: 0000       NOP
0x565A: 0000       NOP
0x565C: 0000       NOP
0x565E: 0000       NOP
0x5660: 3A01       DW 0x3A01
0x5662: 0014       DW 0x0014
0x5664: 0000       NOP
0x5666: 0000       NOP
0x5668: 0000       NOP
0x566A: 0000       NOP
0x566C: 0000       NOP
0x566E: 0000       NOP
0x5670: 0000       NOP
0x5672: 0000       NOP
0x5674: 0000       NOP
0x5676: 0000       NOP
0x5678: 3B01       DW 0x3B01
0x567A: 0014       DW 0x0014
0x567C: 0000       NOP
0x567E: 0000       NOP
0x5680: 0000       NOP
0x5682: 0000       NOP
0x5684: 0000       NOP
0x5686: 0000       NOP
0x5688: 0000       NOP
0x568A: 0000       NOP
0x568C: 0000       NOP
0x568E: 0000       NOP
0x5690: 3C01       INCFSZ 0x01, W, ACCESS
0x5692: 0014       DW 0x0014
0x5694: 0000       NOP
0x5696: 0000       NOP
0x5698: 0000       NOP
0x569A: 0000       NOP
0x569C: 0000       NOP
0x569E: 0000       NOP
0x56A0: 0000       NOP
0x56A2: 0000       NOP
0x56A4: 0000       NOP
0x56A6: 0000       NOP
0x56A8: 3D01       INCFSZ 0x01, W, BSR
0x56AA: 0014       DW 0x0014
0x56AC: 0000       NOP
0x56AE: 0000       NOP
0x56B0: 0000       NOP
0x56B2: 0000       NOP
0x56B4: 0000       NOP
0x56B6: 0000       NOP
0x56B8: 0000       NOP
0x56BA: 0000       NOP
0x56BC: 0000       NOP
0x56BE: 0000       NOP
0x56C0: 3E01       INCFSZ 0x01, F, ACCESS
0x56C2: 0014       DW 0x0014
0x56C4: 0000       NOP
0x56C6: 0000       NOP
0x56C8: 0000       NOP
0x56CA: 0000       NOP
0x56CC: 0000       NOP
0x56CE: 0000       NOP
0x56D0: 0000       NOP
0x56D2: 0000       NOP
0x56D4: 0000       NOP
0x56D6: 0000       NOP
0x56D8: 3F01       INCFSZ 0x01, F, BSR
0x56DA: 0014       DW 0x0014
0x56DC: 0000       NOP
0x56DE: 0000       NOP
0x56E0: 0000       NOP
0x56E2: 0000       NOP
0x56E4: 0000       NOP
0x56E6: 0000       NOP
0x56E8: 0000       NOP
0x56EA: 0000       NOP
0x56EC: 0000       NOP
0x56EE: 0000       NOP
0x56F0: 4001       DW 0x4001
0x56F2: 0014       DW 0x0014
0x56F4: 0000       NOP
0x56F6: 0000       NOP
0x56F8: 0000       NOP
0x56FA: 0000       NOP
0x56FC: 0000       NOP
0x56FE: 0000       NOP
0x5700: 0000       NOP
0x5702: 0000       NOP
0x5704: 0000       NOP
0x5706: 0000       NOP
0x5708: 4101       DW 0x4101
0x570A: 0014       DW 0x0014
0x570C: 0000       NOP
0x570E: 0000       NOP
0x5710: 0000       NOP
0x5712: 0000       NOP
0x5714: 0000       NOP
0x5716: 0000       NOP
0x5718: 0000       NOP
0x571A: 0000       NOP
0x571C: 0000       NOP
0x571E: 0000       NOP
0x5720: 4201       DW 0x4201
0x5722: 0014       DW 0x0014
0x5724: 0000       NOP
0x5726: 0000       NOP
0x5728: 0000       NOP
0x572A: 0000       NOP
0x572C: 0000       NOP
0x572E: 0000       NOP
0x5730: 0000       NOP
0x5732: 0000       NOP
0x5734: 0000       NOP
0x5736: 0000       NOP
0x5738: 4301       DW 0x4301
0x573A: 0014       DW 0x0014
0x573C: 0000       NOP
0x573E: 0000       NOP
0x5740: 0000       NOP
0x5742: 0000       NOP
0x5744: 0000       NOP
0x5746: 0000       NOP
0x5748: 0000       NOP
0x574A: 0000       NOP
0x574C: 0000       NOP
0x574E: 0000       NOP
0x5750: 4401       DW 0x4401
0x5752: 0014       DW 0x0014
0x5754: 0000       NOP
0x5756: 0000       NOP
0x5758: 0000       NOP
0x575A: 0000       NOP
0x575C: 0000       NOP
0x575E: 0000       NOP
0x5760: 0000       NOP
0x5762: 0000       NOP
0x5764: 0000       NOP
0x5766: 0000       NOP
0x5768: 4501       DW 0x4501
0x576A: 0014       DW 0x0014
0x576C: 0000       NOP
0x576E: 0000       NOP
0x5770: 0000       NOP
0x5772: 0000       NOP
0x5774: 0000       NOP
0x5776: 0000       NOP
0x5778: 0000       NOP
0x577A: 0000       NOP
0x577C: 0000       NOP
0x577E: 0000       NOP
0x5780: C901       DW 0xC901
0x5782: 0004       CLRWDT
0x5784: 0000       NOP
0x5786: 0000       NOP
0x5788: 0000       NOP
0x578A: 0000       NOP
0x578C: 0000       NOP
0x578E: 0000       NOP
0x5790: 0000       NOP
0x5792: 0000       NOP
0x5794: 0000       NOP
0x5796: 0000       NOP
0x5798: 4601       DW 0x4601
0x579A: 0014       DW 0x0014
0x579C: 0000       NOP
0x579E: 0000       NOP
0x57A0: 0000       NOP
0x57A2: 0000       NOP
0x57A4: 0000       NOP
0x57A6: 0000       NOP
0x57A8: 0000       NOP
0x57AA: 0000       NOP
0x57AC: 0000       NOP
0x57AE: 0000       NOP
0x57B0: 4701       DW 0x4701
0x57B2: 0014       DW 0x0014
0x57B4: 0000       NOP
0x57B6: 0000       NOP
0x57B8: 0000       NOP
0x57BA: 0000       NOP
0x57BC: 0000       NOP
0x57BE: 0000       NOP
0x57C0: 0000       NOP
0x57C2: 0000       NOP
0x57C4: 0000       NOP
0x57C6: 0000       NOP
0x57C8: 4801       DW 0x4801
0x57CA: 0014       DW 0x0014
0x57CC: 0000       NOP
0x57CE: 0000       NOP
0x57D0: 0000       NOP
0x57D2: 0000       NOP
0x57D4: 0000       NOP
0x57D6: 0000       NOP
0x57D8: 0000       NOP
0x57DA: 0000       NOP
0x57DC: 0000       NOP
0x57DE: 0000       NOP
0x57E0: 4901       DW 0x4901
0x57E2: 0014       DW 0x0014
0x57E4: 0000       NOP
0x57E6: 0000       NOP
0x57E8: 0000       NOP
0x57EA: 0000       NOP
0x57EC: 0000       NOP
0x57EE: 0000       NOP
0x57F0: 0000       NOP
0x57F2: 0000       NOP
0x57F4: 0000       NOP
0x57F6: 0000       NOP
0x57F8: 4A01       DW 0x4A01
0x57FA: 0014       DW 0x0014
0x57FC: 0000       NOP
0x57FE: 0000       NOP
0x5800: 0000       NOP
0x5802: 0000       NOP
0x5804: 0000       NOP
0x5806: 0000       NOP
0x5808: 0000       NOP
0x580A: 0000       NOP
0x580C: 0000       NOP
0x580E: 0000       NOP
0x5810: 4B01       DW 0x4B01
0x5812: 0014       DW 0x0014
0x5814: 0000       NOP
0x5816: 0000       NOP
0x5818: 0000       NOP
0x581A: 0000       NOP
0x581C: 0000       NOP
0x581E: 0000       NOP
0x5820: 0000       NOP
0x5822: 0000       NOP
0x5824: 0000       NOP
0x5826: 0000       NOP
0x5828: 4C01       MOVF 0x01, W, ACCESS
0x582A: 0014       DW 0x0014
0x582C: 0000       NOP
0x582E: 0000       NOP
0x5830: 0000       NOP
0x5832: 0000       NOP
0x5834: 0000       NOP
0x5836: 0000       NOP
0x5838: 0000       NOP
0x583A: 0000       NOP
0x583C: 0000       NOP
0x583E: 0000       NOP
0x5840: 4D01       MOVF 0x01, W, BSR
0x5842: 0014       DW 0x0014
0x5844: 0000       NOP
0x5846: 0000       NOP
0x5848: 0000       NOP
0x584A: 0000       NOP
0x584C: 0000       NOP
0x584E: 0000       NOP
0x5850: 0000       NOP
0x5852: 0000       NOP
0x5854: 0000       NOP
0x5856: 0000       NOP
0x5858: 4E01       MOVF 0x01, F, ACCESS
0x585A: 0014       DW 0x0014
0x585C: 0000       NOP
0x585E: 0000       NOP
0x5860: 0000       NOP
0x5862: 0000       NOP
0x5864: 0000       NOP
0x5866: 0000       NOP
0x5868: 0000       NOP
0x586A: 0000       NOP
0x586C: 0000       NOP
0x586E: 0000       NOP
0x5870: 4F01       MOVF 0x01, F, BSR
0x5872: 0014       DW 0x0014
0x5874: 0000       NOP
0x5876: 0000       NOP
0x5878: 0000       NOP
0x587A: 0000       NOP
0x587C: 0000       NOP
0x587E: 0000       NOP
0x5880: 0000       NOP
0x5882: 0000       NOP
0x5884: 0000       NOP
0x5886: 0000       NOP
0x5888: 5001       DW 0x5001
0x588A: 0014       DW 0x0014
0x588C: 0000       NOP
0x588E: 0000       NOP
0x5890: 0000       NOP
0x5892: 0000       NOP
0x5894: 0000       NOP
0x5896: 0000       NOP
0x5898: 0000       NOP
0x589A: 0000       NOP
0x589C: 0000       NOP
0x589E: 0000       NOP
0x58A0: 5101       DW 0x5101
0x58A2: 0014       DW 0x0014
0x58A4: 0000       NOP
0x58A6: 0000       NOP
0x58A8: 0000       NOP
0x58AA: 0000       NOP
0x58AC: 0000       NOP
0x58AE: 0000       NOP
0x58B0: 0000       NOP
0x58B2: 0000       NOP
0x58B4: 0000       NOP
0x58B6: 0000       NOP
0x58B8: 5201       DW 0x5201
0x58BA: 0014       DW 0x0014
0x58BC: 0000       NOP
0x58BE: 0000       NOP
0x58C0: 0000       NOP
0x58C2: 0000       NOP
0x58C4: 0000       NOP
0x58C6: 0000       NOP
0x58C8: 0000       NOP
0x58CA: 0000       NOP
0x58CC: 0000       NOP
0x58CE: 0000       NOP
0x58D0: 5301       DW 0x5301
0x58D2: 0014       DW 0x0014
0x58D4: 0000       NOP
0x58D6: 0000       NOP
0x58D8: 0000       NOP
0x58DA: 0000       NOP
0x58DC: 0000       NOP
0x58DE: 0000       NOP
0x58E0: 0000       NOP
0x58E2: 0000       NOP
0x58E4: 0000       NOP
0x58E6: 0000       NOP
0x58E8: 5401       DW 0x5401
0x58EA: 0014       DW 0x0014
0x58EC: 0000       NOP
0x58EE: 0000       NOP
0x58F0: 0000       NOP
0x58F2: 0000       NOP
0x58F4: 0000       NOP
0x58F6: 0000       NOP
0x58F8: 0000       NOP
0x58FA: 0000       NOP
0x58FC: 0000       NOP
0x58FE: 0000       NOP
0x5900: CA01       DW 0xCA01
0x5902: 0004       CLRWDT
0x5904: 0000       NOP
0x5906: 0000       NOP
0x5908: 0000       NOP
0x590A: 0000       NOP
0x590C: 0000       NOP
0x590E: 0000       NOP
0x5910: 0000       NOP
0x5912: 0000       NOP
0x5914: 0000       NOP
0x5916: 0000       NOP
0x5918: 5501       DW 0x5501
0x591A: 0014       DW 0x0014
0x591C: 0000       NOP
0x591E: 0000       NOP
0x5920: 0000       NOP
0x5922: 0000       NOP
0x5924: 0000       NOP
0x5926: 0000       NOP
0x5928: 0000       NOP
0x592A: 0000       NOP
0x592C: 0000       NOP
0x592E: 0000       NOP
0x5930: 5601       DW 0x5601
0x5932: 0014       DW 0x0014
0x5934: 0000       NOP
0x5936: 0000       NOP
0x5938: 0000       NOP
0x593A: 0000       NOP
0x593C: 0000       NOP
0x593E: 0000       NOP
0x5940: 0000       NOP
0x5942: 0000       NOP
0x5944: 0000       NOP
0x5946: 0000       NOP
0x5948: 5701       DW 0x5701
0x594A: 0014       DW 0x0014
0x594C: 0000       NOP
0x594E: 0000       NOP
0x5950: 0000       NOP
0x5952: 0000       NOP
0x5954: 0000       NOP
0x5956: 0000       NOP
0x5958: 0000       NOP
0x595A: 0000       NOP
0x595C: 0000       NOP
0x595E: 0000       NOP
0x5960: 5801       DW 0x5801
0x5962: 0014       DW 0x0014
0x5964: 0000       NOP
0x5966: 0000       NOP
0x5968: 0000       NOP
0x596A: 0000       NOP
0x596C: 0000       NOP
0x596E: 0000       NOP
0x5970: 0000       NOP
0x5972: 0000       NOP
0x5974: 0000       NOP
0x5976: 0000       NOP
0x5978: 5901       DW 0x5901
0x597A: 0014       DW 0x0014
0x597C: 0000       NOP
0x597E: 0000       NOP
0x5980: 0000       NOP
0x5982: 0000       NOP
0x5984: 0000       NOP
0x5986: 0000       NOP
0x5988: 0000       NOP
0x598A: 0000       NOP
0x598C: 0000       NOP
0x598E: 0000       NOP
0x5990: 5A01       DW 0x5A01
0x5992: 0014       DW 0x0014
0x5994: 0000       NOP
0x5996: 0000       NOP
0x5998: 0000       NOP
0x599A: 0000       NOP
0x599C: 0000       NOP
0x599E: 0000       NOP
0x59A0: 0000       NOP
0x59A2: 0000       NOP
0x59A4: 0000       NOP
0x59A6: 0000       NOP
0x59A8: 5B01       DW 0x5B01
0x59AA: 0014       DW 0x0014
0x59AC: 0000       NOP
0x59AE: 0000       NOP
0x59B0: 0000       NOP
0x59B2: 0000       NOP
0x59B4: 0000       NOP
0x59B6: 0000       NOP
0x59B8: 0000       NOP
0x59BA: 0000       NOP
0x59BC: 0000       NOP
0x59BE: 0000       NOP
0x59C0: 5C01       DW 0x5C01
0x59C2: 0014       DW 0x0014
0x59C4: 0000       NOP
0x59C6: 0000       NOP
0x59C8: 0000       NOP
0x59CA: 0000       NOP
0x59CC: 0000       NOP
0x59CE: 0000       NOP
0x59D0: 0000       NOP
0x59D2: 0000       NOP
0x59D4: 0000       NOP
0x59D6: 0000       NOP
0x59D8: 5D01       DW 0x5D01
0x59DA: 0014       DW 0x0014
0x59DC: 0000       NOP
0x59DE: 0000       NOP
0x59E0: 0000       NOP
0x59E2: 0000       NOP
0x59E4: 0000       NOP
0x59E6: 0000       NOP
0x59E8: 0000       NOP
0x59EA: 0000       NOP
0x59EC: 0000       NOP
0x59EE: 0000       NOP
0x59F0: 5E01       DW 0x5E01
0x59F2: 0014       DW 0x0014
0x59F4: 0000       NOP
0x59F6: 0000       NOP
0x59F8: 0000       NOP
0x59FA: 0000       NOP
0x59FC: 0000       NOP
0x59FE: 0000       NOP
0x5A00: 0000       NOP
0x5A02: 0000       NOP
0x5A04: 0000       NOP
0x5A06: 0000       NOP
0x5A08: 5F01       DW 0x5F01
0x5A0A: 0014       DW 0x0014
0x5A0C: 0000       NOP
0x5A0E: 0000       NOP
0x5A10: 0000       NOP
0x5A12: 0000       NOP
0x5A14: 0000       NOP
0x5A16: 0000       NOP
0x5A18: 0000       NOP
0x5A1A: 0000       NOP
0x5A1C: 0000       NOP
0x5A1E: 0000       NOP
0x5A20: 6001       SETF 0x01, ACCESS
0x5A22: 0014       DW 0x0014
0x5A24: 0000       NOP
0x5A26: 0000       NOP
0x5A28: 0000       NOP
0x5A2A: 0000       NOP
0x5A2C: 0000       NOP
0x5A2E: 0000       NOP
0x5A30: 0000       NOP
0x5A32: 0000       NOP
0x5A34: 0000       NOP
0x5A36: 0000       NOP
0x5A38: 6101       SETF 0x01, BSR
0x5A3A: 0014       DW 0x0014
0x5A3C: 0000       NOP
0x5A3E: 0000       NOP
0x5A40: 0000       NOP
0x5A42: 0000       NOP
0x5A44: 0000       NOP
0x5A46: 0000       NOP
0x5A48: 0000       NOP
0x5A4A: 0000       NOP
0x5A4C: 0000       NOP
0x5A4E: 0000       NOP
0x5A50: 6201       NEGF 0x01, ACCESS
0x5A52: 0014       DW 0x0014
0x5A54: 0000       NOP
0x5A56: 0000       NOP
0x5A58: 0000       NOP
0x5A5A: 0000       NOP
0x5A5C: 0000       NOP
0x5A5E: 0000       NOP
0x5A60: 0000       NOP
0x5A62: 0000       NOP
0x5A64: 0000       NOP
0x5A66: 0000       NOP
0x5A68: 6301       NEGF 0x01, BSR
0x5A6A: 0014       DW 0x0014
0x5A6C: 0000       NOP
0x5A6E: 0000       NOP
0x5A70: 0000       NOP
0x5A72: 0000       NOP
0x5A74: 0000       NOP
0x5A76: 0000       NOP
0x5A78: 0000       NOP
0x5A7A: 0000       NOP
0x5A7C: 0000       NOP
0x5A7E: 0000       NOP
0x5A80: CB01       DW 0xCB01
0x5A82: 0004       CLRWDT
0x5A84: 0000       NOP
0x5A86: 0000       NOP
0x5A88: 0000       NOP
0x5A8A: 0000       NOP
0x5A8C: 0000       NOP
0x5A8E: 0000       NOP
0x5A90: 0000       NOP
0x5A92: 0000       NOP
0x5A94: 0000       NOP
0x5A96: 0000       NOP
0x5A98: 6401       DW 0x6401
0x5A9A: 0014       DW 0x0014
0x5A9C: 0000       NOP
0x5A9E: 0000       NOP
0x5AA0: 0000       NOP
0x5AA2: 0000       NOP
0x5AA4: 0000       NOP
0x5AA6: 0000       NOP
0x5AA8: 0000       NOP
0x5AAA: 0000       NOP
0x5AAC: 0000       NOP
0x5AAE: 0000       NOP
0x5AB0: 6501       DW 0x6501
0x5AB2: 0014       DW 0x0014
0x5AB4: 0000       NOP
0x5AB6: 0000       NOP
0x5AB8: 0000       NOP
0x5ABA: 0000       NOP
0x5ABC: 0000       NOP
0x5ABE: 0000       NOP
0x5AC0: 0000       NOP
0x5AC2: 0000       NOP
0x5AC4: 0000       NOP
0x5AC6: 0000       NOP
0x5AC8: 6601       DW 0x6601
0x5ACA: 0014       DW 0x0014
0x5ACC: 0000       NOP
0x5ACE: 0000       NOP
0x5AD0: 0000       NOP
0x5AD2: 0000       NOP
0x5AD4: 0000       NOP
0x5AD6: 0000       NOP
0x5AD8: 0000       NOP
0x5ADA: 0000       NOP
0x5ADC: 0000       NOP
0x5ADE: 0000       NOP
0x5AE0: 6701       DW 0x6701
0x5AE2: 0014       DW 0x0014
0x5AE4: 0000       NOP
0x5AE6: 0000       NOP
0x5AE8: 0000       NOP
0x5AEA: 0000       NOP
0x5AEC: 0000       NOP
0x5AEE: 0000       NOP
0x5AF0: 0000       NOP
0x5AF2: 0000       NOP
0x5AF4: 0000       NOP
0x5AF6: 0000       NOP
0x5AF8: 6801       CLRF 0x01, ACCESS
0x5AFA: 0014       DW 0x0014
0x5AFC: 0000       NOP
0x5AFE: 0000       NOP
0x5B00: 0000       NOP
0x5B02: 0000       NOP
0x5B04: 0000       NOP
0x5B06: 0000       NOP
0x5B08: 0000       NOP
0x5B0A: 0000       NOP
0x5B0C: 0000       NOP
0x5B0E: 0000       NOP
0x5B10: 6901       CLRF 0x01, BSR
0x5B12: 0014       DW 0x0014
0x5B14: 0000       NOP
0x5B16: 0000       NOP
0x5B18: 0000       NOP
0x5B1A: 0000       NOP
0x5B1C: 0000       NOP
0x5B1E: 0000       NOP
0x5B20: 0000       NOP
0x5B22: 0000       NOP
0x5B24: 0000       NOP
0x5B26: 0000       NOP
0x5B28: 6A01       MOVWF 0x01, ACCESS
0x5B2A: 0014       DW 0x0014
0x5B2C: 0000       NOP
0x5B2E: 0000       NOP
0x5B30: 0000       NOP
0x5B32: 0000       NOP
0x5B34: 0000       NOP
0x5B36: 0000       NOP
0x5B38: 0000       NOP
0x5B3A: 0000       NOP
0x5B3C: 0000       NOP
0x5B3E: 0000       NOP
0x5B40: 6B01       MOVWF 0x01, BSR
0x5B42: 0014       DW 0x0014
0x5B44: 0000       NOP
0x5B46: 0000       NOP
0x5B48: 0000       NOP
0x5B4A: 0000       NOP
0x5B4C: 0000       NOP
0x5B4E: 0000       NOP
0x5B50: 0000       NOP
0x5B52: 0000       NOP
0x5B54: 0000       NOP
0x5B56: 0000       NOP
0x5B58: 6C01       DW 0x6C01
0x5B5A: 0014       DW 0x0014
0x5B5C: 0000       NOP
0x5B5E: 0000       NOP
0x5B60: 0000       NOP
0x5B62: 0000       NOP
0x5B64: 0000       NOP
0x5B66: 0000       NOP
0x5B68: 0000       NOP
0x5B6A: 0000       NOP
0x5B6C: 0000       NOP
0x5B6E: 0000       NOP
0x5B70: 6D01       DW 0x6D01
0x5B72: 0014       DW 0x0014
0x5B74: 0000       NOP
0x5B76: 0000       NOP
0x5B78: 0000       NOP
0x5B7A: 0000       NOP
0x5B7C: 0000       NOP
0x5B7E: 0000       NOP
0x5B80: 0000       NOP
0x5B82: 0000       NOP
0x5B84: 0000       NOP
0x5B86: 0000       NOP
0x5B88: 6E01       DW 0x6E01
0x5B8A: 0014       DW 0x0014
0x5B8C: 0000       NOP
0x5B8E: 0000       NOP
0x5B90: 0000       NOP
0x5B92: 0000       NOP
0x5B94: 0000       NOP
0x5B96: 0000       NOP
0x5B98: 0000       NOP
0x5B9A: 0000       NOP
0x5B9C: 0000       NOP
0x5B9E: 0000       NOP
0x5BA0: 6F01       DW 0x6F01
0x5BA2: 0014       DW 0x0014
0x5BA4: 0000       NOP
0x5BA6: 0000       NOP
0x5BA8: 0000       NOP
0x5BAA: 0000       NOP
0x5BAC: 0000       NOP
0x5BAE: 0000       NOP
0x5BB0: 0000       NOP
0x5BB2: 0000       NOP
0x5BB4: 0000       NOP
0x5BB6: 0000       NOP
0x5BB8: 7001       DW 0x7001
0x5BBA: 0014       DW 0x0014
0x5BBC: 0000       NOP
0x5BBE: 0000       NOP
0x5BC0: 0000       NOP
0x5BC2: 0000       NOP
0x5BC4: 0000       NOP
0x5BC6: 0000       NOP
0x5BC8: 0000       NOP
0x5BCA: 0000       NOP
0x5BCC: 0000       NOP
0x5BCE: 0000       NOP
0x5BD0: 7101       DW 0x7101
0x5BD2: 0014       DW 0x0014
0x5BD4: 0000       NOP
0x5BD6: 0000       NOP
0x5BD8: 0000       NOP
0x5BDA: 0000       NOP
0x5BDC: 0000       NOP
0x5BDE: 0000       NOP
0x5BE0: 0000       NOP
0x5BE2: 0000       NOP
0x5BE4: 0000       NOP
0x5BE6: 0000       NOP
0x5BE8: 7201       DW 0x7201
0x5BEA: 0014       DW 0x0014
0x5BEC: 0000       NOP
0x5BEE: 0000       NOP
0x5BF0: 0000       NOP
0x5BF2: 0000       NOP
0x5BF4: 0000       NOP
0x5BF6: 0000       NOP
0x5BF8: 0000       NOP
0x5BFA: 0000       NOP
0x5BFC: 0000       NOP
0x5BFE: 0000       NOP
0x5C00: CC01       DW 0xCC01
0x5C02: 0004       CLRWDT
0x5C04: 0000       NOP
0x5C06: 0000       NOP
0x5C08: 0000       NOP
0x5C0A: 0000       NOP
0x5C0C: 0000       NOP
0x5C0E: 0000       NOP
0x5C10: 0000       NOP
0x5C12: 0000       NOP
0x5C14: 0000       NOP
0x5C16: 0000       NOP
0x5C18: 7301       DW 0x7301
0x5C1A: 0014       DW 0x0014
0x5C1C: 0000       NOP
0x5C1E: 0000       NOP
0x5C20: 0000       NOP
0x5C22: 0000       NOP
0x5C24: 0000       NOP
0x5C26: 0000       NOP
0x5C28: 0000       NOP
0x5C2A: 0000       NOP
0x5C2C: 0000       NOP
0x5C2E: 0000       NOP
0x5C30: 7401       DW 0x7401
0x5C32: 0014       DW 0x0014
0x5C34: 0000       NOP
0x5C36: 0000       NOP
0x5C38: 0000       NOP
0x5C3A: 0000       NOP
0x5C3C: 0000       NOP
0x5C3E: 0000       NOP
0x5C40: 0000       NOP
0x5C42: 0000       NOP
0x5C44: 0000       NOP
0x5C46: 0000       NOP
0x5C48: 7501       DW 0x7501
0x5C4A: 0014       DW 0x0014
0x5C4C: 0000       NOP
0x5C4E: 0000       NOP
0x5C50: 0000       NOP
0x5C52: 0000       NOP
0x5C54: 0000       NOP
0x5C56: 0000       NOP
0x5C58: 0000       NOP
0x5C5A: 0000       NOP
0x5C5C: 0000       NOP
0x5C5E: 0000       NOP
0x5C60: 7601       DW 0x7601
0x5C62: 0014       DW 0x0014
0x5C64: 0000       NOP
0x5C66: 0000       NOP
0x5C68: 0000       NOP
0x5C6A: 0000       NOP
0x5C6C: 0000       NOP
0x5C6E: 0000       NOP
0x5C70: 0000       NOP
0x5C72: 0000       NOP
0x5C74: 0000       NOP
0x5C76: 0000       NOP
0x5C78: 7701       DW 0x7701
0x5C7A: 0014       DW 0x0014
0x5C7C: 0000       NOP
0x5C7E: 0000       NOP
0x5C80: 0000       NOP
0x5C82: 0000       NOP
0x5C84: 0000       NOP
0x5C86: 0000       NOP
0x5C88: 0000       NOP
0x5C8A: 0000       NOP
0x5C8C: 0000       NOP
0x5C8E: 0000       NOP
0x5C90: 7801       DW 0x7801
0x5C92: 0014       DW 0x0014
0x5C94: 0000       NOP
0x5C96: 0000       NOP
0x5C98: 0000       NOP
0x5C9A: 0000       NOP
0x5C9C: 0000       NOP
0x5C9E: 0000       NOP
0x5CA0: 0000       NOP
0x5CA2: 0000       NOP
0x5CA4: 0000       NOP
0x5CA6: 0000       NOP
0x5CA8: 7901       DW 0x7901
0x5CAA: 0014       DW 0x0014
0x5CAC: 0000       NOP
0x5CAE: 0000       NOP
0x5CB0: 0000       NOP
0x5CB2: 0000       NOP
0x5CB4: 0000       NOP
0x5CB6: 0000       NOP
0x5CB8: 0000       NOP
0x5CBA: 0000       NOP
0x5CBC: 0000       NOP
0x5CBE: 0000       NOP
0x5CC0: 7A01       DW 0x7A01
0x5CC2: 0014       DW 0x0014
0x5CC4: 0000       NOP
0x5CC6: 0000       NOP
0x5CC8: 0000       NOP
0x5CCA: 0000       NOP
0x5CCC: 0000       NOP
0x5CCE: 0000       NOP
0x5CD0: 0000       NOP
0x5CD2: 0000       NOP
0x5CD4: 0000       NOP
0x5CD6: 0000       NOP
0x5CD8: 7B01       DW 0x7B01
0x5CDA: 0014       DW 0x0014
0x5CDC: 0000       NOP
0x5CDE: 0000       NOP
0x5CE0: 0000       NOP
0x5CE2: 0000       NOP
0x5CE4: 0000       NOP
0x5CE6: 0000       NOP
0x5CE8: 0000       NOP
0x5CEA: 0000       NOP
0x5CEC: 0000       NOP
0x5CEE: 0000       NOP
0x5CF0: 7C01       DW 0x7C01
0x5CF2: 0014       DW 0x0014
0x5CF4: 0000       NOP
0x5CF6: 0000       NOP
0x5CF8: 0000       NOP
0x5CFA: 0000       NOP
0x5CFC: 0000       NOP
0x5CFE: 0000       NOP
0x5D00: 0000       NOP
0x5D02: 0000       NOP
0x5D04: 0000       NOP
0x5D06: 0000       NOP
0x5D08: 7D01       DW 0x7D01
0x5D0A: 0014       DW 0x0014
0x5D0C: 0000       NOP
0x5D0E: 0000       NOP
0x5D10: 0000       NOP
0x5D12: 0000       NOP
0x5D14: 0000       NOP
0x5D16: 0000       NOP
0x5D18: 0000       NOP
0x5D1A: 0000       NOP
0x5D1C: 0000       NOP
0x5D1E: 0000       NOP
0x5D20: 7E01       DW 0x7E01
0x5D22: 0014       DW 0x0014
0x5D24: 0000       NOP
0x5D26: 0000       NOP
0x5D28: 0000       NOP
0x5D2A: 0000       NOP
0x5D2C: 0000       NOP
0x5D2E: 0000       NOP
0x5D30: 0000       NOP
0x5D32: 0000       NOP
0x5D34: 0000       NOP
0x5D36: 0000       NOP
0x5D38: 7F01       DW 0x7F01
0x5D3A: 0014       DW 0x0014
0x5D3C: 0000       NOP
0x5D3E: 0000       NOP
0x5D40: 0000       NOP
0x5D42: 0000       NOP
0x5D44: 0000       NOP
0x5D46: 0000       NOP
0x5D48: 0000       NOP
0x5D4A: 0000       NOP
0x5D4C: 0000       NOP
0x5D4E: 0000       NOP
0x5D50: 8001       BSF 0x01, 0, ACCESS
0x5D52: 0014       DW 0x0014
0x5D54: 0000       NOP
0x5D56: 0000       NOP
0x5D58: 0000       NOP
0x5D5A: 0000       NOP
0x5D5C: 0000       NOP
0x5D5E: 0000       NOP
0x5D60: 0000       NOP
0x5D62: 0000       NOP
0x5D64: 0000       NOP
0x5D66: 0000       NOP
0x5D68: 8101       BSF 0x01, 0, BSR
0x5D6A: 0014       DW 0x0014
0x5D6C: 0000       NOP
0x5D6E: 0000       NOP
0x5D70: 0000       NOP
0x5D72: 0000       NOP
0x5D74: 0000       NOP
0x5D76: 0000       NOP
0x5D78: 0000       NOP
0x5D7A: 0000       NOP
0x5D7C: 0000       NOP
0x5D7E: 0000       NOP
0x5D80: CD01       DW 0xCD01
0x5D82: 0004       CLRWDT
0x5D84: 0000       NOP
0x5D86: 0000       NOP
0x5D88: 0000       NOP
0x5D8A: 0000       NOP
0x5D8C: 0000       NOP
0x5D8E: 0000       NOP
0x5D90: 0000       NOP
0x5D92: 0000       NOP
0x5D94: 0000       NOP
0x5D96: 0000       NOP
0x5D98: 8201       BSF 0x01, 1, ACCESS
0x5D9A: 0014       DW 0x0014
0x5D9C: 0000       NOP
0x5D9E: 0000       NOP
0x5DA0: 0000       NOP
0x5DA2: 0000       NOP
0x5DA4: 0000       NOP
0x5DA6: 0000       NOP
0x5DA8: 0000       NOP
0x5DAA: 0000       NOP
0x5DAC: 0000       NOP
0x5DAE: 0000       NOP
0x5DB0: 8301       BSF 0x01, 1, BSR
0x5DB2: 0014       DW 0x0014
0x5DB4: 0000       NOP
0x5DB6: 0000       NOP
0x5DB8: 0000       NOP
0x5DBA: 0000       NOP
0x5DBC: 0000       NOP
0x5DBE: 0000       NOP
0x5DC0: 0000       NOP
0x5DC2: 0000       NOP
0x5DC4: 0000       NOP
0x5DC6: 0000       NOP
0x5DC8: 8401       BSF 0x01, 2, ACCESS
0x5DCA: 0014       DW 0x0014
0x5DCC: 0000       NOP
0x5DCE: 0000       NOP
0x5DD0: 0000       NOP
0x5DD2: 0000       NOP
0x5DD4: 0000       NOP
0x5DD6: 0000       NOP
0x5DD8: 0000       NOP
0x5DDA: 0000       NOP
0x5DDC: 0000       NOP
0x5DDE: 0000       NOP
0x5DE0: 8501       BSF 0x01, 2, BSR
0x5DE2: 0014       DW 0x0014
0x5DE4: 0000       NOP
0x5DE6: 0000       NOP
0x5DE8: 0000       NOP
0x5DEA: 0000       NOP
0x5DEC: 0000       NOP
0x5DEE: 0000       NOP
0x5DF0: 0000       NOP
0x5DF2: 0000       NOP
0x5DF4: 0000       NOP
0x5DF6: 0000       NOP
0x5DF8: 8601       BSF 0x01, 3, ACCESS
0x5DFA: 0014       DW 0x0014
0x5DFC: 0000       NOP
0x5DFE: 0000       NOP
0x5E00: 0000       NOP
0x5E02: 0000       NOP
0x5E04: 0000       NOP
0x5E06: 0000       NOP
0x5E08: 0000       NOP
0x5E0A: 0000       NOP
0x5E0C: 0000       NOP
0x5E0E: 0000       NOP
0x5E10: 8701       BSF 0x01, 3, BSR
0x5E12: 0014       DW 0x0014
0x5E14: 0000       NOP
0x5E16: 0000       NOP
0x5E18: 0000       NOP
0x5E1A: 0000       NOP
0x5E1C: 0000       NOP
0x5E1E: 0000       NOP
0x5E20: 0000       NOP
0x5E22: 0000       NOP
0x5E24: 0000       NOP
0x5E26: 0000       NOP
0x5E28: 8801       BSF 0x01, 4, ACCESS
0x5E2A: 0014       DW 0x0014
0x5E2C: 0000       NOP
0x5E2E: 0000       NOP
0x5E30: 0000       NOP
0x5E32: 0000       NOP
0x5E34: 0000       NOP
0x5E36: 0000       NOP
0x5E38: 0000       NOP
0x5E3A: 0000       NOP
0x5E3C: 0000       NOP
0x5E3E: 0000       NOP
0x5E40: 8901       BSF 0x01, 4, BSR
0x5E42: 0014       DW 0x0014
0x5E44: 0000       NOP
0x5E46: 0000       NOP
0x5E48: 0000       NOP
0x5E4A: 0000       NOP
0x5E4C: 0000       NOP
0x5E4E: 0000       NOP
0x5E50: 0000       NOP
0x5E52: 0000       NOP
0x5E54: 0000       NOP
0x5E56: 0000       NOP
0x5E58: 8A01       BSF 0x01, 5, ACCESS
0x5E5A: 0014       DW 0x0014
0x5E5C: 0000       NOP
0x5E5E: 0000       NOP
0x5E60: 0000       NOP
0x5E62: 0000       NOP
0x5E64: 0000       NOP
0x5E66: 0000       NOP
0x5E68: 0000       NOP
0x5E6A: 0000       NOP
0x5E6C: 0000       NOP
0x5E6E: 0000       NOP
0x5E70: 8B01       BSF 0x01, 5, BSR
0x5E72: 0014       DW 0x0014
0x5E74: 0000       NOP
0x5E76: 0000       NOP
0x5E78: 0000       NOP
0x5E7A: 0000       NOP
0x5E7C: 0000       NOP
0x5E7E: 0000       NOP
0x5E80: 0000       NOP
0x5E82: 0000       NOP
0x5E84: 0000       NOP
0x5E86: 0000       NOP
0x5E88: 8C01       BSF 0x01, 6, ACCESS
0x5E8A: 0014       DW 0x0014
0x5E8C: 0000       NOP
0x5E8E: 0000       NOP
0x5E90: 0000       NOP
0x5E92: 0000       NOP
0x5E94: 0000       NOP
0x5E96: 0000       NOP
0x5E98: 0000       NOP
0x5E9A: 0000       NOP
0x5E9C: 0000       NOP
0x5E9E: 0000       NOP
0x5EA0: 8D01       BSF 0x01, 6, BSR
0x5EA2: 0014       DW 0x0014
0x5EA4: 0000       NOP
0x5EA6: 0000       NOP
0x5EA8: 0000       NOP
0x5EAA: 0000       NOP
0x5EAC: 0000       NOP
0x5EAE: 0000       NOP
0x5EB0: 0000       NOP
0x5EB2: 0000       NOP
0x5EB4: 0000       NOP
0x5EB6: 0000       NOP
0x5EB8: 8E01       BSF 0x01, 7, ACCESS
0x5EBA: 0014       DW 0x0014
0x5EBC: 0000       NOP
0x5EBE: 0000       NOP
0x5EC0: 0000       NOP
0x5EC2: 0000       NOP
0x5EC4: 0000       NOP
0x5EC6: 0000       NOP
0x5EC8: 0000       NOP
0x5ECA: 0000       NOP
0x5ECC: 0000       NOP
0x5ECE: 0000       NOP
0x5ED0: 8F01       BSF 0x01, 7, BSR
0x5ED2: 0014       DW 0x0014
0x5ED4: 0000       NOP
0x5ED6: 0000       NOP
0x5ED8: 0000       NOP
0x5EDA: 0000       NOP
0x5EDC: 0000       NOP
0x5EDE: 0000       NOP
0x5EE0: 0000       NOP
0x5EE2: 0000       NOP
0x5EE4: 0000       NOP
0x5EE6: 0000       NOP
0x5EE8: 9001       BCF 0x01, 0, ACCESS
0x5EEA: 0014       DW 0x0014
0x5EEC: 0000       NOP
0x5EEE: 0000       NOP
0x5EF0: 0000       NOP
0x5EF2: 0000       NOP
0x5EF4: 0000       NOP
0x5EF6: 0000       NOP
0x5EF8: 0000       NOP
0x5EFA: 0000       NOP
0x5EFC: 0000       NOP
0x5EFE: 0000       NOP
0x5F00: D401       BRA 0x5704
0x5F02: 0004       CLRWDT
0x5F04: 0000       NOP
0x5F06: 0100       MOVLB 0x0
0x5F08: 3101       DW 0x3101
0x5F0A: 0010       RETFIE 0
0x5F0C: 0000       NOP
0x5F0E: 0000       NOP
0x5F10: 0000       NOP
0x5F12: 0000       NOP
0x5F14: 0000       NOP
0x5F16: 0000       NOP
0x5F18: 0000       NOP
0x5F1A: 0000       NOP
0x5F1C: 3101       DW 0x3101
0x5F1E: 0010       RETFIE 0
0x5F20: 8000       BSF 0x00, 0, ACCESS
0x5F22: 0000       NOP
0x5F24: 0000       NOP
0x5F26: 0000       NOP
0x5F28: 0000       NOP
0x5F2A: 0000       NOP
0x5F2C: 0000       NOP
0x5F2E: 0000       NOP
0x5F30: 3201       DW 0x3201
0x5F32: 0010       RETFIE 0
0x5F34: 0000       NOP
0x5F36: 0000       NOP
0x5F38: 0000       NOP
0x5F3A: 0000       NOP
0x5F3C: 0000       NOP
0x5F3E: 0000       NOP
0x5F40: 0000       NOP
0x5F42: 0000       NOP
0x5F44: 3201       DW 0x3201
0x5F46: 0010       RETFIE 0
0x5F48: 8000       BSF 0x00, 0, ACCESS
0x5F4A: 0000       NOP
0x5F4C: 0000       NOP
0x5F4E: 0000       NOP
0x5F50: 0000       NOP
0x5F52: 0000       NOP
0x5F54: 0000       NOP
0x5F56: 0000       NOP
0x5F58: 3301       DW 0x3301
0x5F5A: 0010       RETFIE 0
0x5F5C: 0000       NOP
0x5F5E: 0000       NOP
0x5F60: 0000       NOP
0x5F62: 0000       NOP
0x5F64: 0000       NOP
0x5F66: 0000       NOP
0x5F68: 0000       NOP
0x5F6A: 0000       NOP
0x5F6C: 3301       DW 0x3301
0x5F6E: 0010       RETFIE 0
0x5F70: 8000       BSF 0x00, 0, ACCESS
0x5F72: 0000       NOP
0x5F74: 0000       NOP
0x5F76: 0000       NOP
0x5F78: 0000       NOP
0x5F7A: 0000       NOP
0x5F7C: 0000       NOP
0x5F7E: 0000       NOP
0x5F80: 3401       DW 0x3401
0x5F82: 0010       RETFIE 0
0x5F84: 0000       NOP
0x5F86: 0000       NOP
0x5F88: 0000       NOP
0x5F8A: 0000       NOP
0x5F8C: 0000       NOP
0x5F8E: 0000       NOP
0x5F90: 0000       NOP
0x5F92: 0000       NOP
0x5F94: 3401       DW 0x3401
0x5F96: 0010       RETFIE 0
0x5F98: 8000       BSF 0x00, 0, ACCESS
0x5F9A: 0000       NOP
0x5F9C: 0000       NOP
0x5F9E: 0000       NOP
0x5FA0: 0000       NOP
0x5FA2: 0000       NOP
0x5FA4: 0000       NOP
0x5FA6: 0000       NOP
0x5FA8: 3501       DW 0x3501
0x5FAA: 0010       RETFIE 0
0x5FAC: 0000       NOP
0x5FAE: 0000       NOP
0x5FB0: 0000       NOP
0x5FB2: 0000       NOP
0x5FB4: 0000       NOP
0x5FB6: 0000       NOP
0x5FB8: 0000       NOP
0x5FBA: 0000       NOP
0x5FBC: 3501       DW 0x3501
0x5FBE: 0010       RETFIE 0
0x5FC0: 8000       BSF 0x00, 0, ACCESS
0x5FC2: 0000       NOP
0x5FC4: 0000       NOP
0x5FC6: 0000       NOP
0x5FC8: 0000       NOP
0x5FCA: 0000       NOP
0x5FCC: 0000       NOP
0x5FCE: 0000       NOP
0x5FD0: 3601       DW 0x3601
0x5FD2: 0010       RETFIE 0
0x5FD4: 0000       NOP
0x5FD6: 0000       NOP
0x5FD8: 0000       NOP
0x5FDA: 0000       NOP
0x5FDC: 0000       NOP
0x5FDE: 0000       NOP
0x5FE0: 0000       NOP
0x5FE2: 0000       NOP
0x5FE4: 3601       DW 0x3601
0x5FE6: 0010       RETFIE 0
0x5FE8: 8000       BSF 0x00, 0, ACCESS
0x5FEA: 0000       NOP
0x5FEC: 0000       NOP
0x5FEE: 0000       NOP
0x5FF0: 0000       NOP
0x5FF2: 0000       NOP
0x5FF4: 0000       NOP
0x5FF6: 0000       NOP
0x5FF8: FFFF       DW 0xFFFF
0x5FFA: FFFF       DW 0xFFFF
0x5FFC: FFFF       DW 0xFFFF
0x5FFE: FFFF       DW 0xFFFF