
firmware/stock/PC/HFD_v2.12/Hypex Filter Design 2.12/Hypex Filter Design V2.12.exe:	file format coff-i386

Disassembly of section CODE:

00401000 <CODE>:
  553ff0: 8b 00                        	mov	eax, dword ptr [eax]
  553ff2: e8 51 b9 ff ff               	call	0x54f948 <CODE+0x14e948>
  553ff7: e9 2b 04 00 00               	jmp	0x554427 <CODE+0x153427>
  553ffc: 8a 47 06                     	mov	al, byte ptr [edi + 0x6]
  553fff: 88 47 53                     	mov	byte ptr [edi + 0x53], al
  554002: 8a 47 07                     	mov	al, byte ptr [edi + 0x7]
  554005: 88 47 54                     	mov	byte ptr [edi + 0x54], al
  554008: 8a 47 08                     	mov	al, byte ptr [edi + 0x8]
  55400b: 88 47 55                     	mov	byte ptr [edi + 0x55], al
  55400e: 8a 47 09                     	mov	al, byte ptr [edi + 0x9]
  554011: 88 47 4c                     	mov	byte ptr [edi + 0x4c], al
  554014: 8a 47 0a                     	mov	al, byte ptr [edi + 0xa]
  554017: 88 47 4e                     	mov	byte ptr [edi + 0x4e], al
  55401a: 8a 47 0b                     	mov	al, byte ptr [edi + 0xb]
  55401d: 88 47 51                     	mov	byte ptr [edi + 0x51], al
  554020: 8a 47 0c                     	mov	al, byte ptr [edi + 0xc]
  554023: 88 47 52                     	mov	byte ptr [edi + 0x52], al
  554026: 8a 47 0d                     	mov	al, byte ptr [edi + 0xd]
  554029: 88 47 57                     	mov	byte ptr [edi + 0x57], al
  55402c: 8a 47 0e                     	mov	al, byte ptr [edi + 0xe]
  55402f: 88 47 64                     	mov	byte ptr [edi + 0x64], al
  554032: 8a 47 0f                     	mov	al, byte ptr [edi + 0xf]
  554035: 88 47 7b                     	mov	byte ptr [edi + 0x7b], al
  554038: 8a 47 10                     	mov	al, byte ptr [edi + 0x10]
  55403b: 88 47 7c                     	mov	byte ptr [edi + 0x7c], al
  55403e: 8a 47 11                     	mov	al, byte ptr [edi + 0x11]
  554041: 88 47 7d                     	mov	byte ptr [edi + 0x7d], al
  554044: 8a 47 12                     	mov	al, byte ptr [edi + 0x12]
  554047: 88 47 7e                     	mov	byte ptr [edi + 0x7e], al
  55404a: 8a 47 13                     	mov	al, byte ptr [edi + 0x13]
  55404d: 88 47 7f                     	mov	byte ptr [edi + 0x7f], al
  554050: 8a 47 14                     	mov	al, byte ptr [edi + 0x14]
  554053: 88 87 80 00 00 00            	mov	byte ptr [edi + 0x80], al
  554059: 8a 47 15                     	mov	al, byte ptr [edi + 0x15]
  55405c: 88 87 81 00 00 00            	mov	byte ptr [edi + 0x81], al
  554062: 8a 47 16                     	mov	al, byte ptr [edi + 0x16]
  554065: 88 87 82 00 00 00            	mov	byte ptr [edi + 0x82], al
  55406b: 8a 47 17                     	mov	al, byte ptr [edi + 0x17]
  55406e: 88 87 83 00 00 00            	mov	byte ptr [edi + 0x83], al
  554074: 8a 47 18                     	mov	al, byte ptr [edi + 0x18]
  554077: 88 87 84 00 00 00            	mov	byte ptr [edi + 0x84], al
  55407d: 8a 47 19                     	mov	al, byte ptr [edi + 0x19]
  554080: 88 87 85 00 00 00            	mov	byte ptr [edi + 0x85], al
  554086: 8a 47 1a                     	mov	al, byte ptr [edi + 0x1a]
  554089: 88 87 86 00 00 00            	mov	byte ptr [edi + 0x86], al
  55408f: 8a 47 1b                     	mov	al, byte ptr [edi + 0x1b]
  554092: 88 87 87 00 00 00            	mov	byte ptr [edi + 0x87], al
  554098: 8a 47 1c                     	mov	al, byte ptr [edi + 0x1c]
  55409b: 88 47 59                     	mov	byte ptr [edi + 0x59], al
  55409e: 8a 47 1e                     	mov	al, byte ptr [edi + 0x1e]
  5540a1: 88 47 5a                     	mov	byte ptr [edi + 0x5a], al
  5540a4: 8a 47 1f                     	mov	al, byte ptr [edi + 0x1f]
  5540a7: 88 47 5b                     	mov	byte ptr [edi + 0x5b], al
  5540aa: 8a 47 20                     	mov	al, byte ptr [edi + 0x20]
  5540ad: 88 47 5c                     	mov	byte ptr [edi + 0x5c], al
  5540b0: 8a 47 21                     	mov	al, byte ptr [edi + 0x21]
  5540b3: 88 47 5d                     	mov	byte ptr [edi + 0x5d], al
  5540b6: 8a 47 22                     	mov	al, byte ptr [edi + 0x22]
  5540b9: 88 47 65                     	mov	byte ptr [edi + 0x65], al
  5540bc: 80 7f 59 01                  	cmp	byte ptr [edi + 0x59], 0x1
  5540c0: 76 08                        	jbe	0x5540ca <CODE+0x1530ca>
  5540c2: 8a 47 1d                     	mov	al, byte ptr [edi + 0x1d]
  5540c5: 88 47 58                     	mov	byte ptr [edi + 0x58], al
  5540c8: eb 04                        	jmp	0x5540ce <CODE+0x1530ce>
  5540ca: c6 47 58 00                  	mov	byte ptr [edi + 0x58], 0x0
  5540ce: 33 c0                        	xor	eax, eax
  5540d0: 89 47 6c                     	mov	dword ptr [edi + 0x6c], eax
  5540d3: 33 c0                        	xor	eax, eax
  5540d5: a3 64 b3 57 00               	mov	dword ptr [0x57b364], eax
  5540da: c6 05 60 b3 57 00 00         	mov	byte ptr [0x57b360], 0x0
  5540e1: a1 8c 96 56 00               	mov	eax, dword ptr [0x56968c]
  5540e6: 8b 00                        	mov	eax, dword ptr [eax]
  5540e8: e8 b7 33 00 00               	call	0x5574a4 <CODE+0x1564a4>
  5540ed: a1 fc 98 56 00               	mov	eax, dword ptr [0x5698fc]
  5540f2: 8b 00                        	mov	eax, dword ptr [eax]
  5540f4: c6 80 4c 09 70 00 01         	mov	byte ptr [eax + 0x70094c], 0x1
  5540fb: a1 64 97 56 00               	mov	eax, dword ptr [0x569764]
  554100: 8b 00                        	mov	eax, dword ptr [eax]
  554102: b1 02                        	mov	cl, 0x2
  554104: b2 06                        	mov	dl, 0x6
  554106: e8 45 0e 00 00               	call	0x554f50 <CODE+0x153f50>
  55410b: e9 17 03 00 00               	jmp	0x554427 <CODE+0x153427>
  554110: a1 fc 98 56 00               	mov	eax, dword ptr [0x5698fc]
  554115: 8b 00                        	mov	eax, dword ptr [eax]
  554117: 8b 80 f8 04 00 00            	mov	eax, dword ptr [eax + 0x4f8]
  55411d: 8b 80 08 02 00 00            	mov	eax, dword ptr [eax + 0x208]
  554123: ba 01 00 00 00               	mov	edx, 0x1
  554128: e8 8b d9 ee ff               	call	0x441ab8 <CODE+0x40ab8>
  55412d: ba 0c 45 55 00               	mov	edx, 0x55450c
  554132: e8 dd d8 ee ff               	call	0x441a14 <CODE+0x40a14>
  554137: a1 80 94 56 00               	mov	eax, dword ptr [0x569480]
  55413c: 8b 00                        	mov	eax, dword ptr [eax]
  55413e: 0f b6 40 58                  	movzx	eax, byte ptr [eax + 0x58]
  554142: 69 c0 24 0c 00 00            	imul	eax, eax, 0xc24
  554148: 8b 15 88 96 56 00            	mov	edx, dword ptr [0x569688]
  55414e: 8d 04 c2                     	lea	eax, [edx + 8*eax]
  554151: 33 d2                        	xor	edx, edx
  554153: 8a d3                        	mov	dl, bl
  554155: 69 d2 06 02 00 00            	imul	edx, edx, 0x206
  55415b: 8b 94 d0 c8 8e ff ff         	mov	edx, dword ptr [eax + 8*edx - 0x7138]
  554162: a1 fc 98 56 00               	mov	eax, dword ptr [0x5698fc]
  554167: 8b 00                        	mov	eax, dword ptr [eax]
  554169: 8b 80 3c 09 70 00            	mov	eax, dword ptr [eax + 0x70093c]
  55416f: e8 60 ea ee ff               	call	0x442bd4 <CODE+0x41bd4>
  554174: 33 d2                        	xor	edx, edx
  554176: 8a 57 4f                     	mov	dl, byte ptr [edi + 0x4f]
  554179: a1 fc 98 56 00               	mov	eax, dword ptr [0x5698fc]
  55417e: 8b 00                        	mov	eax, dword ptr [eax]
  554180: 8b 80 3c 09 70 00            	mov	eax, dword ptr [eax + 0x70093c]
  554186: e8 59 ea ee ff               	call	0x442be4 <CODE+0x41be4>
  55418b: 8a 47 06                     	mov	al, byte ptr [edi + 0x6]
  55418e: 40                           	inc	eax
  55418f: 88 47 4f                     	mov	byte ptr [edi + 0x4f], al
  554192: 8b 15 64 97 56 00            	mov	edx, dword ptr [0x569764]
  554198: 8b 12                        	mov	edx, dword ptr [edx]
  55419a: 8b c8                        	mov	ecx, eax
  55419c: 8b c3                        	mov	eax, ebx
  55419e: 92                           	xchg	eax, edx
  55419f: e8 ac 0d 00 00               	call	0x554f50 <CODE+0x153f50>
  5541a4: e9 7e 02 00 00               	jmp	0x554427 <CODE+0x153427>
  5541a9: a1 04 92 56 00               	mov	eax, dword ptr [0x569204]
  5541ae: 8b 00                        	mov	eax, dword ptr [eax]
  5541b0: b9 1e 00 00 00               	mov	ecx, 0x1e
  5541b5: 99                           	cdq
  5541b6: f7 f9                        	idiv	ecx
  5541b8: 40                           	inc	eax
  5541b9: 89 47 68                     	mov	dword ptr [edi + 0x68], eax
  5541bc: a1 04 92 56 00               	mov	eax, dword ptr [0x569204]
  5541c1: 8b 00                        	mov	eax, dword ptr [eax]
  5541c3: b9 1e 00 00 00               	mov	ecx, 0x1e
  5541c8: 99                           	cdq
  5541c9: f7 f9                        	idiv	ecx
  5541cb: 89 15 68 b3 57 00            	mov	dword ptr [0x57b368], edx
  5541d1: ff 05 64 b3 57 00            	inc	dword ptr [0x57b364]
  5541d7: a1 fc 98 56 00               	mov	eax, dword ptr [0x5698fc]
  5541dc: 8b 00                        	mov	eax, dword ptr [eax]
  5541de: 8b 80 f8 04 00 00            	mov	eax, dword ptr [eax + 0x4f8]
  5541e4: 8b 80 08 02 00 00            	mov	eax, dword ptr [eax + 0x208]
  5541ea: ba 01 00 00 00               	mov	edx, 0x1
  5541ef: e8 c4 d8 ee ff               	call	0x441ab8 <CODE+0x40ab8>
  5541f4: ba 0c 45 55 00               	mov	edx, 0x55450c
  5541f9: e8 16 d8 ee ff               	call	0x441a14 <CODE+0x40a14>
  5541fe: a1 fc 98 56 00               	mov	eax, dword ptr [0x5698fc]
  554203: 8b 00                        	mov	eax, dword ptr [eax]
  554205: 8b 80 3c 09 70 00            	mov	eax, dword ptr [eax + 0x70093c]
  55420b: 8b 57 68                     	mov	edx, dword ptr [edi + 0x68]
  55420e: e8 c1 e9 ee ff               	call	0x442bd4 <CODE+0x41bd4>
  554213: a1 fc 98 56 00               	mov	eax, dword ptr [0x5698fc]
  554218: 8b 00                        	mov	eax, dword ptr [eax]
  55421a: 8b 80 3c 09 70 00            	mov	eax, dword ptr [eax + 0x70093c]
  554220: 8b 15 64 b3 57 00            	mov	edx, dword ptr [0x57b364]
  554226: e8 b9 e9 ee ff               	call	0x442be4 <CODE+0x41be4>
  55422b: a1 64 b3 57 00               	mov	eax, dword ptr [0x57b364]
  554230: 3b 47 68                     	cmp	eax, dword ptr [edi + 0x68]
  554233: 75 1c                        	jne	0x554251 <CODE+0x153251>
  554235: c6 05 59 b3 57 00 40         	mov	byte ptr [0x57b359], 0x40
  55423c: a1 64 97 56 00               	mov	eax, dword ptr [0x569764]
  554241: 8b 00                        	mov	eax, dword ptr [eax]
  554243: b1 01                        	mov	cl, 0x1
  554245: b2 41                        	mov	dl, 0x41
  554247: e8 04 0d 00 00               	call	0x554f50 <CODE+0x153f50>
  55424c: e9 d6 01 00 00               	jmp	0x554427 <CODE+0x153427>
  554251: a1 64 97 56 00               	mov	eax, dword ptr [0x569764]
  554256: 8b 00                        	mov	eax, dword ptr [eax]
  554258: b1 01                        	mov	cl, 0x1
  55425a: b2 40                        	mov	dl, 0x40
  55425c: e8 ef 0c 00 00               	call	0x554f50 <CODE+0x153f50>
  554261: e9 c1 01 00 00               	jmp	0x554427 <CODE+0x153427>
  554266: a1 04 92 56 00               	mov	eax, dword ptr [0x569204]
  55426b: 8b 00                        	mov	eax, dword ptr [eax]
  55426d: b9 1e 00 00 00               	mov	ecx, 0x1e
  554272: 99                           	cdq
  554273: f7 f9                        	idiv	ecx
  554275: 40                           	inc	eax
  554276: 89 47 68                     	mov	dword ptr [edi + 0x68], eax
  554279: a1 04 92 56 00               	mov	eax, dword ptr [0x569204]
  55427e: 8b 00                        	mov	eax, dword ptr [eax]
  554280: b9 1e 00 00 00               	mov	ecx, 0x1e
  554285: 99                           	cdq
  554286: f7 f9                        	idiv	ecx
  554288: 89 15 68 b3 57 00            	mov	dword ptr [0x57b368], edx
  55428e: ff 05 64 b3 57 00            	inc	dword ptr [0x57b364]
  554294: a1 fc 98 56 00               	mov	eax, dword ptr [0x5698fc]
  554299: 8b 00                        	mov	eax, dword ptr [eax]
  55429b: 8b 80 f8 04 00 00            	mov	eax, dword ptr [eax + 0x4f8]
  5542a1: 8b 80 08 02 00 00            	mov	eax, dword ptr [eax + 0x208]
  5542a7: ba 01 00 00 00               	mov	edx, 0x1
  5542ac: e8 07 d8 ee ff               	call	0x441ab8 <CODE+0x40ab8>
  5542b1: ba 0c 45 55 00               	mov	edx, 0x55450c
  5542b6: e8 59 d7 ee ff               	call	0x441a14 <CODE+0x40a14>
  5542bb: a1 fc 98 56 00               	mov	eax, dword ptr [0x5698fc]
  5542c0: 8b 00                        	mov	eax, dword ptr [eax]
  5542c2: 8b 80 3c 09 70 00            	mov	eax, dword ptr [eax + 0x70093c]
  5542c8: 8b 57 68                     	mov	edx, dword ptr [edi + 0x68]
  5542cb: e8 04 e9 ee ff               	call	0x442bd4 <CODE+0x41bd4>
  5542d0: a1 fc 98 56 00               	mov	eax, dword ptr [0x5698fc]
  5542d5: 8b 00                        	mov	eax, dword ptr [eax]
  5542d7: 8b 80 3c 09 70 00            	mov	eax, dword ptr [eax + 0x70093c]
  5542dd: 8b 15 64 b3 57 00            	mov	edx, dword ptr [0x57b364]
  5542e3: e8 fc e8 ee ff               	call	0x442be4 <CODE+0x41be4>
  5542e8: a1 64 b3 57 00               	mov	eax, dword ptr [0x57b364]
  5542ed: 3b 47 68                     	cmp	eax, dword ptr [edi + 0x68]
  5542f0: 75 1c                        	jne	0x55430e <CODE+0x15330e>
  5542f2: c6 05 59 b3 57 00 42         	mov	byte ptr [0x57b359], 0x42
  5542f9: a1 64 97 56 00               	mov	eax, dword ptr [0x569764]
  5542fe: 8b 00                        	mov	eax, dword ptr [eax]
  554300: b1 01                        	mov	cl, 0x1
  554302: b2 41                        	mov	dl, 0x41
  554304: e8 47 0c 00 00               	call	0x554f50 <CODE+0x153f50>
  554309: e9 19 01 00 00               	jmp	0x554427 <CODE+0x153427>
  55430e: a1 64 97 56 00               	mov	eax, dword ptr [0x569764]
  554313: 8b 00                        	mov	eax, dword ptr [eax]
  554315: b1 01                        	mov	cl, 0x1
  554317: b2 42                        	mov	dl, 0x42
  554319: e8 32 0c 00 00               	call	0x554f50 <CODE+0x153f50>
  55431e: e9 04 01 00 00               	jmp	0x554427 <CODE+0x153427>
  554323: 33 c0                        	xor	eax, eax
  554325: a3 64 b3 57 00               	mov	dword ptr [0x57b364], eax
  55432a: 66 c7 05 6c b3 57 00 00 00   	mov	word ptr [0x57b36c], 0x0
  554333: 80 7f 07 aa                  	cmp	byte ptr [edi + 0x7], -0x56
  554337: 75 48                        	jne	0x554381 <CODE+0x153381>
  554339: c6 05 60 b3 57 00 00         	mov	byte ptr [0x57b360], 0x0
  554340: a1 fc 98 56 00               	mov	eax, dword ptr [0x5698fc]
  554345: 8b 00                        	mov	eax, dword ptr [eax]
  554347: 8b 80 f8 04 00 00            	mov	eax, dword ptr [eax + 0x4f8]
  55434d: 8b 80 08 02 00 00            	mov	eax, dword ptr [eax + 0x208]
  554353: ba 01 00 00 00               	mov	edx, 0x1
  554358: e8 5b d7 ee ff               	call	0x441ab8 <CODE+0x40ab8>
  55435d: ba 20 45 55 00               	mov	edx, 0x554520
  554362: e8 ad d6 ee ff               	call	0x441a14 <CODE+0x40a14>
  554367: a1 fc 98 56 00               	mov	eax, dword ptr [0x5698fc]
  55436c: 8b 00                        	mov	eax, dword ptr [eax]
  55436e: 8b 80 f8 04 00 00            	mov	eax, dword ptr [eax + 0x4f8]
  554374: 8b 10                        	mov	edx, dword ptr [eax]
  554376: ff 92 88 00 00 00            	call	dword ptr [edx + 0x88]
  55437c: e9 a6 00 00 00               	jmp	0x554427 <CODE+0x153427>
  554381: 80 3d 60 b3 57 00 02         	cmp	byte ptr [0x57b360], 0x2
  554388: 76 1d                        	jbe	0x5543a7 <CODE+0x1533a7>
  55438a: c6 05 60 b3 57 00 00         	mov	byte ptr [0x57b360], 0x0
  554391: a1 44 97 56 00               	mov	eax, dword ptr [0x569744]
  554396: 8b 00                        	mov	eax, dword ptr [eax]
  554398: ba 44 45 55 00               	mov	edx, 0x554544
  55439d: e8 96 77 ff ff               	call	0x54bb38 <CODE+0x14ab38>
  5543a2: e9 80 00 00 00               	jmp	0x554427 <CODE+0x153427>
  5543a7: fe 05 60 b3 57 00            	inc	byte ptr [0x57b360]
  5543ad: 8d 55 dc                     	lea	edx, [ebp - 0x24]
  5543b0: 33 c0                        	xor	eax, eax
  5543b2: a0 60 b3 57 00               	mov	al, byte ptr [0x57b360]
  5543b7: e8 2c 5e eb ff               	call	0x40a1e8 <CODE+0x91e8>
  5543bc: 8b 4d dc                     	mov	ecx, dword ptr [ebp - 0x24]
  5543bf: 8d 45 e0                     	lea	eax, [ebp - 0x20]
  5543c2: ba 70 45 55 00               	mov	edx, 0x554570
  5543c7: e8 74 0f eb ff               	call	0x405340 <CODE+0x4340>
  5543cc: 8b 45 e0                     	mov	eax, dword ptr [ebp - 0x20]
  5543cf: 50                           	push	eax
  5543d0: a1 fc 98 56 00               	mov	eax, dword ptr [0x5698fc]
  5543d5: 8b 00                        	mov	eax, dword ptr [eax]
  5543d7: 8b 80 f8 04 00 00            	mov	eax, dword ptr [eax + 0x4f8]
  5543dd: 8b 80 08 02 00 00            	mov	eax, dword ptr [eax + 0x208]
  5543e3: ba 01 00 00 00               	mov	edx, 0x1
  5543e8: e8 cb d6 ee ff               	call	0x441ab8 <CODE+0x40ab8>
  5543ed: 5a                           	pop	edx
  5543ee: e8 21 d6 ee ff               	call	0x441a14 <CODE+0x40a14>
  5543f3: 80 3d 59 b3 57 00 40         	cmp	byte ptr [0x57b359], 0x40
  5543fa: 75 12                        	jne	0x55440e <CODE+0x15340e>
  5543fc: a1 64 97 56 00               	mov	eax, dword ptr [0x569764]
  554401: 8b 00                        	mov	eax, dword ptr [eax]
  554403: b1 01                        	mov	cl, 0x1
  554405: b2 40                        	mov	dl, 0x40
  554407: e8 44 0b 00 00               	call	0x554f50 <CODE+0x153f50>
  55440c: eb 19                        	jmp	0x554427 <CODE+0x153427>
  55440e: 80 3d 59 b3 57 00 42         	cmp	byte ptr [0x57b359], 0x42
  554415: 75 10                        	jne	0x554427 <CODE+0x153427>
  554417: a1 64 97 56 00               	mov	eax, dword ptr [0x569764]
  55441c: 8b 00                        	mov	eax, dword ptr [eax]
  55441e: b1 01                        	mov	cl, 0x1
  554420: b2 42                        	mov	dl, 0x42
  554422: e8 29 0b 00 00               	call	0x554f50 <CODE+0x153f50>
  554427: 33 c0                        	xor	eax, eax
  554429: 5a                           	pop	edx
  55442a: 59                           	pop	ecx
  55442b: 59                           	pop	ecx
  55442c: 64 89 10                     	mov	dword ptr fs:[eax], edx
  55442f: 68 49 44 55 00               	push	0x554449
  554434: 8d 45 dc                     	lea	eax, [ebp - 0x24]
  554437: ba 09 00 00 00               	mov	edx, 0x9
  55443c: e8 17 0c eb ff               	call	0x405058 <CODE+0x4058>
