
; The recognition of labels and registers is not always good, therefore
; be treated cautiously the results.

;===============================================================================
; DATA address definitions

Common_RAM      equ     0x000000                            ; size: 96 bytes

;===============================================================================
; CODE area

vector_reset:                                               ; address: 0x000000

000000:  ef00  goto    label_282                            ; dest: 0x007800
000002:  f03c
000004:  ffff  dw      0xffff
000006:  ffff  dw      0xffff

vector_int_high:                                            ; address: 0x000008

000008:  efd3  goto    label_032                            ; dest: 0x0003a6
00000a:  f001
00000c:  0e80  movlw   0x80
00000e:  6e01  movwf   (Common_RAM + 1), A                  ; reg: 0x001
000010:  0efe  movlw   0xfe
000012:  ecc8  call    function_009, 0x0                    ; dest: 0x000190
000014:  f000
000016:  0e01  movlw   0x01

vector_int_low:                                             ; address: 0x000018

000018:  ecc8  call    function_009, 0x0                    ; dest: 0x000190
00001a:  f000
00001c:  0e75  movlw   0x75
00001e:  6e0d  movwf   (Common_RAM + 13), A                 ; reg: 0x00d

label_003:                                                  ; address: 0x000020

000020:  d7ff  bra     label_003                            ; dest: 0x000020
000022:  ffff  dw      0xffff
000024:  ffff  dw      0xffff
000026:  ffff  dw      0xffff
000028:  ffff  dw      0xffff
00002a:  ffff  dw      0xffff
00002c:  ffff  dw      0xffff
00002e:  ffff  dw      0xffff
000030:  ffff  dw      0xffff
000032:  ffff  dw      0xffff
000034:  ffff  dw      0xffff
000036:  ffff  dw      0xffff
000038:  ffff  dw      0xffff
00003a:  ffff  dw      0xffff
00003c:  ffff  dw      0xffff
00003e:  ffff  dw      0xffff

label_004:                                                  ; address: 0x000040

000040:  efb3  goto    label_031                            ; dest: 0x000366
000042:  f001
000044:  ffff  dw      0xffff
000046:  ffff  dw      0xffff
000048:  efd3  goto    label_032                            ; dest: 0x0003a6
00004a:  f001

function_000:                                               ; address: 0x00004c

00004c:  0e80  movlw   0x80
00004e:  6e01  movwf   (Common_RAM + 1), A                  ; reg: 0x001
000050:  0efe  movlw   0xfe
000052:  ecc8  call    function_009, 0x0                    ; dest: 0x000190
000054:  f000
000056:  0e01  movlw   0x01
000058:  ecc8  call    function_009, 0x0                    ; dest: 0x000190
00005a:  f000
00005c:  0e75  movlw   0x75
00005e:  6e0d  movwf   (Common_RAM + 13), A                 ; reg: 0x00d
000060:  0e30  movlw   0x30
000062:  efec  goto    function_015                         ; dest: 0x0001d8
000064:  f000

function_001:                                               ; address: 0x000066

000066:  6a01  clrf    (Common_RAM + 1), A                  ; reg: 0x001
000068:  8e01  bsf     (Common_RAM + 1), 0x7, A             ; reg: 0x001
00006a:  6e17  movwf   (Common_RAM + 23), A                 ; reg: 0x017
00006c:  0efe  movlw   0xfe
00006e:  ecc8  call    function_009, 0x0                    ; dest: 0x000190
000070:  f000
000072:  5017  movf    (Common_RAM + 23), W, A              ; reg: 0x017
000074:  efc8  goto    function_009                         ; dest: 0x000190
000076:  f000

function_002:                                               ; address: 0x000078

000078:  6a07  clrf    (Common_RAM + 7), A                  ; reg: 0x007
00007a:  6e10  movwf   (Common_RAM + 16), A                 ; reg: 0x010
00007c:  6a11  clrf    (Common_RAM + 17), A                 ; reg: 0x011
00007e:  9600  bcf     Common_RAM, 0x3, A                   ; reg: 0x000
000080:  5007  movf    (Common_RAM + 7), W, A               ; reg: 0x007
000082:  b4d8  skpnz
000084:  8600  bsf     Common_RAM, 0x3, A                   ; reg: 0x000
000086:  0e05  movlw   0x05
000088:  6e06  movwf   (Common_RAM + 6), A                  ; reg: 0x006
00008a:  0e27  movlw   0x27
00008c:  6e0f  movwf   (Common_RAM + 15), A                 ; reg: 0x00f
00008e:  0e10  movlw   0x10
000090:  d80c  rcall   function_003                         ; dest: 0x0000aa
000092:  0e03  movlw   0x03
000094:  6e0f  movwf   (Common_RAM + 15), A                 ; reg: 0x00f
000096:  0ee8  movlw   0xe8
000098:  d808  rcall   function_003                         ; dest: 0x0000aa
00009a:  6a0f  clrf    (Common_RAM + 15), A                 ; reg: 0x00f
00009c:  0e64  movlw   0x64
00009e:  d805  rcall   function_003                         ; dest: 0x0000aa
0000a0:  6a0f  clrf    (Common_RAM + 15), A                 ; reg: 0x00f
0000a2:  0e0a  movlw   0x0a
0000a4:  d802  rcall   function_003                         ; dest: 0x0000aa
0000a6:  5010  movf    (Common_RAM + 16), W, A              ; reg: 0x010
0000a8:  d008  bra     label_005                            ; dest: 0x0000ba

function_003:                                               ; address: 0x0000aa

0000aa:  6e0e  movwf   (Common_RAM + 14), A                 ; reg: 0x00e
0000ac:  5011  movf    (Common_RAM + 17), W, A              ; reg: 0x011
0000ae:  6e0d  movwf   (Common_RAM + 13), A                 ; reg: 0x00d
0000b0:  5010  movf    (Common_RAM + 16), W, A              ; reg: 0x010
0000b2:  6e0c  movwf   (Common_RAM + 12), A                 ; reg: 0x00c
0000b4:  ecf8  call    function_016, 0x0                    ; dest: 0x0001f0
0000b6:  f000
0000b8:  500c  movf    (Common_RAM + 12), W, A              ; reg: 0x00c

label_005:                                                  ; address: 0x0000ba

0000ba:  6e0c  movwf   (Common_RAM + 12), A                 ; reg: 0x00c
0000bc:  4e06  dcfsnz  (Common_RAM + 6), F, A               ; reg: 0x006
0000be:  9600  bcf     Common_RAM, 0x3, A                   ; reg: 0x000
0000c0:  5007  movf    (Common_RAM + 7), W, A               ; reg: 0x007
0000c2:  e003  bz      label_006
0000c4:  5c06  subwf   (Common_RAM + 6), W, A               ; reg: 0x006
0000c6:  b0d8  skpnc
0000c8:  d008  bra     label_007                            ; dest: 0x0000da

label_006:                                                  ; address: 0x0000ca

0000ca:  500c  movf    (Common_RAM + 12), W, A              ; reg: 0x00c
0000cc:  a4d8  skpz
0000ce:  9600  bcf     Common_RAM, 0x3, A                   ; reg: 0x000
0000d0:  b600  btfsc   Common_RAM, 0x3, A                   ; reg: 0x000
0000d2:  d003  bra     label_007                            ; dest: 0x0000da
0000d4:  0f30  addlw   0x30
0000d6:  efc8  goto    function_009                         ; dest: 0x000190
0000d8:  f000

label_007:                                                  ; address: 0x0000da

0000da:  0012  return  0x0

function_004:                                               ; address: 0x0000dc

0000dc:  6aa6  clrf    EECON1, A                            ; reg: 0xfa6
0000de:  8ea6  bsf     EECON1, EEPGD, A                     ; reg: 0xfa6, bit: 7

label_008:                                                  ; address: 0x0000e0

0000e0:  0009  tblrd*+
0000e2:  50f5  movf    TABLAT, W, A                         ; reg: 0xff5
0000e4:  e002  bz      label_009
0000e6:  d802  rcall   function_005                         ; dest: 0x0000ec
0000e8:  d7fb  bra     label_008                            ; dest: 0x0000e0

label_009:                                                  ; address: 0x0000ea

0000ea:  0012  return  0x0

function_005:                                               ; address: 0x0000ec

0000ec:  6e15  movwf   (Common_RAM + 21), A                 ; reg: 0x015
0000ee:  988a  bcf     LATB, LATB4, A                       ; reg: 0xf8a, bit: 4
0000f0:  9a89  bcf     LATA, LATA5, A                       ; reg: 0xf89, bit: 5
0000f2:  9893  bcf     TRISB, RB4, A                        ; reg: 0xf93, bit: 4
0000f4:  9a92  bcf     TRISA, RA5, A                        ; reg: 0xf92, bit: 5
0000f6:  0ef0  movlw   0xf0
0000f8:  1693  andwf   TRISB, F, A                          ; reg: 0xf93
0000fa:  5015  movf    (Common_RAM + 21), W, A              ; reg: 0x015
0000fc:  b200  btfsc   Common_RAM, 0x1, A                   ; reg: 0x000
0000fe:  efa3  goto    label_010                            ; dest: 0x000146
000100:  f000
000102:  0e3a  movlw   0x3a
000104:  6e0d  movwf   (Common_RAM + 13), A                 ; reg: 0x00d
000106:  0e98  movlw   0x98
000108:  ecec  call    function_015, 0x0                    ; dest: 0x0001d8
00010a:  f000
00010c:  0e33  movlw   0x33
00010e:  6e14  movwf   (Common_RAM + 20), A                 ; reg: 0x014
000110:  d82e  rcall   function_008                         ; dest: 0x00016e
000112:  0e13  movlw   0x13
000114:  6e0d  movwf   (Common_RAM + 13), A                 ; reg: 0x00d
000116:  0e88  movlw   0x88
000118:  ecec  call    function_015, 0x0                    ; dest: 0x0001d8
00011a:  f000
00011c:  d828  rcall   function_008                         ; dest: 0x00016e
00011e:  0e64  movlw   0x64
000120:  eceb  call    function_014, 0x0                    ; dest: 0x0001d6
000122:  f000
000124:  d824  rcall   function_008                         ; dest: 0x00016e
000126:  0e64  movlw   0x64
000128:  eceb  call    function_014, 0x0                    ; dest: 0x0001d6
00012a:  f000
00012c:  0e22  movlw   0x22
00012e:  6e14  movwf   (Common_RAM + 20), A                 ; reg: 0x014
000130:  d81e  rcall   function_008                         ; dest: 0x00016e
000132:  0e28  movlw   0x28
000134:  d807  rcall   function_006                         ; dest: 0x000144
000136:  0e0c  movlw   0x0c
000138:  d805  rcall   function_006                         ; dest: 0x000144
00013a:  0e06  movlw   0x06
00013c:  d803  rcall   function_006                         ; dest: 0x000144
00013e:  8200  bsf     Common_RAM, 0x1, A                   ; reg: 0x000
000140:  5015  movf    (Common_RAM + 21), W, A              ; reg: 0x015
000142:  d001  bra     label_010                            ; dest: 0x000146

function_006:                                               ; address: 0x000144

000144:  8000  bsf     Common_RAM, 0x0, A                   ; reg: 0x000

label_010:                                                  ; address: 0x000146

000146:  6e14  movwf   (Common_RAM + 20), A                 ; reg: 0x014
000148:  a000  btfss   Common_RAM, 0x0, A                   ; reg: 0x000
00014a:  d00b  bra     label_011                            ; dest: 0x000162
00014c:  9a89  bcf     LATA, LATA5, A                       ; reg: 0xf89, bit: 5
00014e:  0803  sublw   0x03
000150:  e30c  bnc     function_007
000152:  d80b  rcall   function_007                         ; dest: 0x00016a
000154:  0e07  movlw   0x07
000156:  6e0d  movwf   (Common_RAM + 13), A                 ; reg: 0x00d
000158:  0ed0  movlw   0xd0
00015a:  ecec  call    function_015, 0x0                    ; dest: 0x0001d8
00015c:  f000
00015e:  80d8  setc
000160:  0012  return  0x0

label_011:                                                  ; address: 0x000162

000162:  8000  bsf     Common_RAM, 0x0, A                   ; reg: 0x000
000164:  08fe  sublw   0xfe
000166:  e012  bz      label_012
000168:  8a89  bsf     LATA, LATA5, A                       ; reg: 0xf89, bit: 5

function_007:                                               ; address: 0x00016a

00016a:  3a14  swapf   (Common_RAM + 20), F, A              ; reg: 0x014
00016c:  a000  btfss   Common_RAM, 0x0, A                   ; reg: 0x000

function_008:                                               ; address: 0x00016e

00016e:  9000  bcf     Common_RAM, 0x0, A                   ; reg: 0x000
000170:  888a  bsf     LATB, LATB4, A                       ; reg: 0xf8a, bit: 4
000172:  0ef0  movlw   0xf0
000174:  1681  andwf   PORTB, F, A                          ; reg: 0xf81
000176:  5014  movf    (Common_RAM + 20), W, A              ; reg: 0x014
000178:  0b0f  andlw   0x0f
00017a:  1281  iorwf   PORTB, F, A                          ; reg: 0xf81
00017c:  988a  bcf     LATB, LATB4, A                       ; reg: 0xf8a, bit: 4
00017e:  3a14  swapf   (Common_RAM + 20), F, A              ; reg: 0x014
000180:  b000  btfsc   Common_RAM, 0x0, A                   ; reg: 0x000
000182:  d7f5  bra     function_008                         ; dest: 0x00016e
000184:  0e32  movlw   0x32
000186:  eceb  call    function_014, 0x0                    ; dest: 0x0001d6
000188:  f000
00018a:  80d8  setc

label_012:                                                  ; address: 0x00018c

00018c:  5015  movf    (Common_RAM + 21), W, A              ; reg: 0x015
00018e:  0012  return  0x0

function_009:                                               ; address: 0x000190

000190:  be01  btfsc   (Common_RAM + 1), 0x7, A             ; reg: 0x001
000192:  ef76  goto    function_005                         ; dest: 0x0000ec
000194:  f000

function_010:                                               ; address: 0x000196

000196:  6ea9  movwf   EEADR, A                             ; reg: 0xfa9
000198:  6aa6  clrf    EECON1, A                            ; reg: 0xfa6
00019a:  80a6  bsf     EECON1, RD, A                        ; reg: 0xfa6, bit: 0
00019c:  50a8  movf    EEDATA, W, A                         ; reg: 0xfa8
00019e:  2aa9  incf    EEADR, F, A                          ; reg: 0xfa9
0001a0:  0012  return  0x0

function_011:                                               ; address: 0x0001a2

0001a2:  6ea8  movwf   EEDATA, A                            ; reg: 0xfa8
0001a4:  6aa6  clrf    EECON1, A                            ; reg: 0xfa6
0001a6:  84a6  bsf     EECON1, WREN, A                      ; reg: 0xfa6, bit: 2
0001a8:  0e55  movlw   0x55
0001aa:  6ea7  movwf   EECON2, A                            ; reg: 0xfa7
0001ac:  0eaa  movlw   0xaa
0001ae:  6ea7  movwf   EECON2, A                            ; reg: 0xfa7
0001b0:  82a6  bsf     EECON1, WR, A                        ; reg: 0xfa6, bit: 1

label_013:                                                  ; address: 0x0001b2

0001b2:  b2a6  btfsc   EECON1, WR, A                        ; reg: 0xfa6, bit: 1
0001b4:  d7fe  bra     label_013                            ; dest: 0x0001b2
0001b6:  94a6  bcf     EECON1, WREN, A                      ; reg: 0xfa6, bit: 2
0001b8:  2aa9  incf    EEADR, F, A                          ; reg: 0xfa9
0001ba:  0012  return  0x0

function_012:                                               ; address: 0x0001bc

0001bc:  6a0f  clrf    (Common_RAM + 15), A                 ; reg: 0x00f

function_013:                                               ; address: 0x0001be

0001be:  6e0e  movwf   (Common_RAM + 14), A                 ; reg: 0x00e

label_014:                                                  ; address: 0x0001c0

0001c0:  0eff  movlw   0xff
0001c2:  260e  addwf   (Common_RAM + 14), F, A              ; reg: 0x00e
0001c4:  220f  addwfc  (Common_RAM + 15), F, A              ; reg: 0x00f
0001c6:  d000  bra     label_015                            ; dest: 0x0001c8

label_015:                                                  ; address: 0x0001c8

0001c8:  a0d8  skpc
0001ca:  0012  return  0x0
0001cc:  0e03  movlw   0x03
0001ce:  6e0d  movwf   (Common_RAM + 13), A                 ; reg: 0x00d
0001d0:  0ee5  movlw   0xe5
0001d2:  d802  rcall   function_015                         ; dest: 0x0001d8
0001d4:  d7f5  bra     label_014                            ; dest: 0x0001c0

function_014:                                               ; address: 0x0001d6

0001d6:  6a0d  clrf    (Common_RAM + 13), A                 ; reg: 0x00d

function_015:                                               ; address: 0x0001d8

0001d8:  0ffa  addlw   0xfa
0001da:  6e0c  movwf   (Common_RAM + 12), A                 ; reg: 0x00c
0001dc:  0000  nop
0001de:  e303  bnc     label_017
0001e0:  d000  bra     label_016                            ; dest: 0x0001e2

label_016:                                                  ; address: 0x0001e2

0001e2:  060c  decf    (Common_RAM + 12), F, A              ; reg: 0x00c
0001e4:  e2fe  bc      label_016

label_017:                                                  ; address: 0x0001e6

0001e6:  060c  decf    (Common_RAM + 12), F, A              ; reg: 0x00c
0001e8:  060d  decf    (Common_RAM + 13), F, A              ; reg: 0x00d
0001ea:  e2fb  bc      label_016
0001ec:  0000  nop
0001ee:  0012  return  0x0

function_016:                                               ; address: 0x0001f0

0001f0:  6a11  clrf    (Common_RAM + 17), A                 ; reg: 0x011
0001f2:  6a10  clrf    (Common_RAM + 16), A                 ; reg: 0x010
0001f4:  0e10  movlw   0x10
0001f6:  6ef3  movwf   PRODL, A                             ; reg: 0xff3

label_018:                                                  ; address: 0x0001f8

0001f8:  340d  rlcf    (Common_RAM + 13), W, A              ; reg: 0x00d
0001fa:  3610  rlcf    (Common_RAM + 16), F, A              ; reg: 0x010
0001fc:  3611  rlcf    (Common_RAM + 17), F, A              ; reg: 0x011
0001fe:  500e  movf    (Common_RAM + 14), W, A              ; reg: 0x00e
000200:  5c10  subwf   (Common_RAM + 16), W, A              ; reg: 0x010
000202:  500f  movf    (Common_RAM + 15), W, A              ; reg: 0x00f
000204:  5811  subwfb  (Common_RAM + 17), W, A              ; reg: 0x011
000206:  e305  bnc     label_019
000208:  500e  movf    (Common_RAM + 14), W, A              ; reg: 0x00e
00020a:  5e10  subwf   (Common_RAM + 16), F, A              ; reg: 0x010
00020c:  500f  movf    (Common_RAM + 15), W, A              ; reg: 0x00f
00020e:  5a11  subwfb  (Common_RAM + 17), F, A              ; reg: 0x011
000210:  80d8  setc

label_019:                                                  ; address: 0x000212

000212:  360c  rlcf    (Common_RAM + 12), F, A              ; reg: 0x00c
000214:  360d  rlcf    (Common_RAM + 13), F, A              ; reg: 0x00d
000216:  2ef3  decfsz  PRODL, F, A                          ; reg: 0xff3
000218:  d7ef  bra     label_018                            ; dest: 0x0001f8
00021a:  500c  movf    (Common_RAM + 12), W, A              ; reg: 0x00c
00021c:  0012  return  0x0

function_017:                                               ; address: 0x00021e

00021e:  8a93  bsf     TRISB, RB5, A                        ; reg: 0xf93, bit: 5
000220:  6a15  clrf    (Common_RAM + 21), A                 ; reg: 0x015
000222:  6a14  clrf    (Common_RAM + 20), A                 ; reg: 0x014
000224:  ee00  lfsr    0x0, 0x010
000226:  f010
000228:  0e01  movlw   0x01
00022a:  6e0d  movwf   (Common_RAM + 13), A                 ; reg: 0x00d
00022c:  0eba  movlw   0xba
00022e:  ecec  call    function_015, 0x0                    ; dest: 0x0001d8
000230:  f000
000232:  ba81  btfsc   PORTB, RB5, A                        ; reg: 0xf81, bit: 5
000234:  d057  bra     label_028                            ; dest: 0x0002e4

label_020:                                                  ; address: 0x000236

000236:  0e03  movlw   0x03
000238:  6e0d  movwf   (Common_RAM + 13), A                 ; reg: 0x00d
00023a:  0e76  movlw   0x76
00023c:  ecec  call    function_015, 0x0                    ; dest: 0x0001d8
00023e:  f000
000240:  2a15  incf    (Common_RAM + 21), F, A              ; reg: 0x015
000242:  0e20  movlw   0x20
000244:  6415  cpfsgt  (Common_RAM + 21), A                 ; reg: 0x015
000246:  d001  bra     label_021                            ; dest: 0x00024a
000248:  d00a  bra     label_023                            ; dest: 0x00025e

label_021:                                                  ; address: 0x00024a

00024a:  80d8  setc
00024c:  ba81  btfsc   PORTB, RB5, A                        ; reg: 0xf81, bit: 5
00024e:  90d8  clrc
000250:  36ef  rlcf    INDF0, F, A                          ; reg: 0xfef
000252:  2a14  incf    (Common_RAM + 20), F, A              ; reg: 0x014
000254:  a614  btfss   (Common_RAM + 20), 0x3, A            ; reg: 0x014
000256:  d002  bra     label_022                            ; dest: 0x00025c
000258:  52ee  movf    POSTINC0, F, A                       ; reg: 0xfee
00025a:  6a14  clrf    (Common_RAM + 20), A                 ; reg: 0x014

label_022:                                                  ; address: 0x00025c

00025c:  d7ec  bra     label_020                            ; dest: 0x000236

label_023:                                                  ; address: 0x00025e

00025e:  ee00  lfsr    0x0, 0x010
000260:  f010
000262:  6a05  clrf    (Common_RAM + 5), A                  ; reg: 0x005
000264:  6a14  clrf    (Common_RAM + 20), A                 ; reg: 0x014
000266:  6a0e  clrf    (Common_RAM + 14), A                 ; reg: 0x00e
000268:  6a0d  clrf    (Common_RAM + 13), A                 ; reg: 0x00d
00026a:  6a0c  clrf    (Common_RAM + 12), A                 ; reg: 0x00c
00026c:  36ef  rlcf    INDF0, F, A                          ; reg: 0xfef
00026e:  3605  rlcf    (Common_RAM + 5), F, A               ; reg: 0x005
000270:  36ef  rlcf    INDF0, F, A                          ; reg: 0xfef
000272:  3605  rlcf    (Common_RAM + 5), F, A               ; reg: 0x005
000274:  2a14  incf    (Common_RAM + 20), F, A              ; reg: 0x014
000276:  d83b  rcall   function_018                         ; dest: 0x0002ee
000278:  b409  btfsc   (Common_RAM + 9), 0x2, A             ; reg: 0x009
00027a:  d034  bra     label_028                            ; dest: 0x0002e4
00027c:  6a05  clrf    (Common_RAM + 5), A                  ; reg: 0x005
00027e:  36ef  rlcf    INDF0, F, A                          ; reg: 0xfef
000280:  3605  rlcf    (Common_RAM + 5), F, A               ; reg: 0x005
000282:  36ef  rlcf    INDF0, F, A                          ; reg: 0xfef
000284:  3605  rlcf    (Common_RAM + 5), F, A               ; reg: 0x005
000286:  2a14  incf    (Common_RAM + 20), F, A              ; reg: 0x014
000288:  d832  rcall   function_018                         ; dest: 0x0002ee
00028a:  b409  btfsc   (Common_RAM + 9), 0x2, A             ; reg: 0x009
00028c:  d02b  bra     label_028                            ; dest: 0x0002e4
00028e:  3209  rrcf    (Common_RAM + 9), F, A               ; reg: 0x009
000290:  360e  rlcf    (Common_RAM + 14), F, A              ; reg: 0x00e
000292:  0e05  movlw   0x05
000294:  6e08  movwf   (Common_RAM + 8), A                  ; reg: 0x008

label_024:                                                  ; address: 0x000296

000296:  6a05  clrf    (Common_RAM + 5), A                  ; reg: 0x005
000298:  36ef  rlcf    INDF0, F, A                          ; reg: 0xfef
00029a:  3605  rlcf    (Common_RAM + 5), F, A               ; reg: 0x005
00029c:  36ef  rlcf    INDF0, F, A                          ; reg: 0xfef
00029e:  3605  rlcf    (Common_RAM + 5), F, A               ; reg: 0x005
0002a0:  2a14  incf    (Common_RAM + 20), F, A              ; reg: 0x014
0002a2:  a414  btfss   (Common_RAM + 20), 0x2, A            ; reg: 0x014
0002a4:  d002  bra     label_025                            ; dest: 0x0002aa
0002a6:  52ee  movf    POSTINC0, F, A                       ; reg: 0xfee
0002a8:  6a14  clrf    (Common_RAM + 20), A                 ; reg: 0x014

label_025:                                                  ; address: 0x0002aa

0002aa:  d821  rcall   function_018                         ; dest: 0x0002ee
0002ac:  b409  btfsc   (Common_RAM + 9), 0x2, A             ; reg: 0x009
0002ae:  d01a  bra     label_028                            ; dest: 0x0002e4
0002b0:  3209  rrcf    (Common_RAM + 9), F, A               ; reg: 0x009
0002b2:  360d  rlcf    (Common_RAM + 13), F, A              ; reg: 0x00d
0002b4:  2e08  decfsz  (Common_RAM + 8), F, A               ; reg: 0x008
0002b6:  d7ef  bra     label_024                            ; dest: 0x000296
0002b8:  0e06  movlw   0x06
0002ba:  6e08  movwf   (Common_RAM + 8), A                  ; reg: 0x008

label_026:                                                  ; address: 0x0002bc

0002bc:  6a05  clrf    (Common_RAM + 5), A                  ; reg: 0x005
0002be:  36ef  rlcf    INDF0, F, A                          ; reg: 0xfef
0002c0:  3605  rlcf    (Common_RAM + 5), F, A               ; reg: 0x005
0002c2:  36ef  rlcf    INDF0, F, A                          ; reg: 0xfef
0002c4:  3605  rlcf    (Common_RAM + 5), F, A               ; reg: 0x005
0002c6:  2a14  incf    (Common_RAM + 20), F, A              ; reg: 0x014
0002c8:  a414  btfss   (Common_RAM + 20), 0x2, A            ; reg: 0x014
0002ca:  d002  bra     label_027                            ; dest: 0x0002d0
0002cc:  52ee  movf    POSTINC0, F, A                       ; reg: 0xfee
0002ce:  6a14  clrf    (Common_RAM + 20), A                 ; reg: 0x014

label_027:                                                  ; address: 0x0002d0

0002d0:  d80e  rcall   function_018                         ; dest: 0x0002ee
0002d2:  b409  btfsc   (Common_RAM + 9), 0x2, A             ; reg: 0x009
0002d4:  d007  bra     label_028                            ; dest: 0x0002e4
0002d6:  3209  rrcf    (Common_RAM + 9), F, A               ; reg: 0x009
0002d8:  360c  rlcf    (Common_RAM + 12), F, A              ; reg: 0x00c
0002da:  2e08  decfsz  (Common_RAM + 8), F, A               ; reg: 0x008
0002dc:  d7ef  bra     label_026                            ; dest: 0x0002bc
0002de:  500c  movf    (Common_RAM + 12), W, A              ; reg: 0x00c
0002e0:  90d8  clrc
0002e2:  0012  return  0x0

label_028:                                                  ; address: 0x0002e4

0002e4:  0eff  movlw   0xff
0002e6:  6e0c  movwf   (Common_RAM + 12), A                 ; reg: 0x00c
0002e8:  6e0d  movwf   (Common_RAM + 13), A                 ; reg: 0x00d
0002ea:  80d8  setc
0002ec:  0012  return  0x0

function_018:                                               ; address: 0x0002ee

0002ee:  6a09  clrf    (Common_RAM + 9), A                  ; reg: 0x009
0002f0:  2c05  decfsz  (Common_RAM + 5), W, A               ; reg: 0x005
0002f2:  d002  bra     label_029                            ; dest: 0x0002f8
0002f4:  8009  bsf     (Common_RAM + 9), 0x0, A             ; reg: 0x009
0002f6:  0012  return  0x0

label_029:                                                  ; address: 0x0002f8

0002f8:  0e02  movlw   0x02
0002fa:  6205  cpfseq  (Common_RAM + 5), A                  ; reg: 0x005
0002fc:  d001  bra     label_030                            ; dest: 0x000300
0002fe:  0012  return  0x0

label_030:                                                  ; address: 0x000300

000300:  8409  bsf     (Common_RAM + 9), 0x2, A             ; reg: 0x009
000302:  0012  return  0x0
000304:  6946  setf    (Common_RAM + 70), B                 ; reg: 0x046
000306:  6d72  negf    0x72, B                              ; reg: 0x072
000308:  6177  cpfslt  0x77, B                              ; reg: 0x077
00030a:  6572  cpfsgt  0x72, B                              ; reg: 0x072
00030c:  5620  subfwb  (Common_RAM + 32), F, A              ; reg: 0x020
00030e:  0000  nop
000310:  6157  cpfslt  (Common_RAM + 87), B                 ; reg: 0x057
000312:  7469  btg     UIE, ACTVIE, A                       ; reg: 0xf69, bit: 2
000314:  6e69  movwf   UIE, A                               ; reg: 0xf69
000316:  2067  addwfc  UFRMH, W, A                          ; reg: 0xf67
000318:  6f66  movwf   0x66, B                              ; reg: 0x066
00031a:  2072  addwfc  UEP2, W, A                           ; reg: 0xf72
00031c:  4c44  dcfsnz  (Common_RAM + 68), W, A              ; reg: 0x044
00031e:  5043  movf    (Common_RAM + 67), W, A              ; reg: 0x043
000320:  0000  nop
000322:  7a5a  btg     (Common_RAM + 90), 0x5, A            ; reg: 0x05a
000324:  2e7a  decfsz  UEP10, F, A                          ; reg: 0xf7a
000326:  2e2e  decfsz  (Common_RAM + 46), F, A              ; reg: 0x02e
000328:  2020  addwfc  (Common_RAM + 32), W, A              ; reg: 0x020
00032a:  2020  addwfc  (Common_RAM + 32), W, A              ; reg: 0x020
00032c:  2020  addwfc  (Common_RAM + 32), W, A              ; reg: 0x020
00032e:  2020  addwfc  (Common_RAM + 32), W, A              ; reg: 0x020
000330:  2020  addwfc  (Common_RAM + 32), W, A              ; reg: 0x020
000332:  0000  nop
000334:  6157  cpfslt  (Common_RAM + 87), B                 ; reg: 0x057
000336:  7469  btg     UIE, ACTVIE, A                       ; reg: 0xf69, bit: 2
000338:  6e69  movwf   UIE, A                               ; reg: 0xf69
00033a:  2067  addwfc  UFRMH, W, A                          ; reg: 0xf67
00033c:  6f66  movwf   0x66, B                              ; reg: 0x066
00033e:  2072  addwfc  UEP2, W, A                           ; reg: 0xf72
000340:  4c44  dcfsnz  (Common_RAM + 68), W, A              ; reg: 0x044
000342:  5043  movf    (Common_RAM + 67), W, A              ; reg: 0x043
000344:  0000  nop
000346:  4264  rrncf   0x64, F, A                           ; reg: 0xf64
000348:  2020  addwfc  (Common_RAM + 32), W, A              ; reg: 0x020
00034a:  2020  addwfc  (Common_RAM + 32), W, A              ; reg: 0x020
00034c:  2020  addwfc  (Common_RAM + 32), W, A              ; reg: 0x020
00034e:  2020  addwfc  (Common_RAM + 32), W, A              ; reg: 0x020
000350:  2020  addwfc  (Common_RAM + 32), W, A              ; reg: 0x020
000352:  0020  dw      0x0020                               ; ' '
000354:  754d  btg     (Common_RAM + 77), 0x2, B            ; reg: 0x04d
000356:  6574  cpfsgt  0x74, B                              ; reg: 0x074
000358:  2020  addwfc  (Common_RAM + 32), W, A              ; reg: 0x020
00035a:  2020  addwfc  (Common_RAM + 32), W, A              ; reg: 0x020
00035c:  2020  addwfc  (Common_RAM + 32), W, A              ; reg: 0x020
00035e:  2020  addwfc  (Common_RAM + 32), W, A              ; reg: 0x020
000360:  2020  addwfc  (Common_RAM + 32), W, A              ; reg: 0x020
000362:  2020  addwfc  (Common_RAM + 32), W, A              ; reg: 0x020
000364:  0000  nop

label_031:                                                  ; address: 0x000366

000366:  6af8  clrf    TBLPTRU, A                           ; reg: 0xff8
000368:  6a00  clrf    Common_RAM, A                        ; reg: 0x000
00036a:  6aab  clrf    RCSTA, A                             ; reg: 0xfab
00036c:  0100  movlb   0x0
00036e:  0edf  movlw   0xdf
000370:  6e92  movwf   TRISA, A                             ; reg: 0xf92
000372:  0e3c  movlw   0x3c
000374:  6e93  movwf   TRISB, A                             ; reg: 0xf93
000376:  0ebd  movlw   0xbd
000378:  6e94  movwf   TRISC, A                             ; reg: 0xf94
00037a:  6a7b  clrf    UEP11, A                             ; reg: 0xf7b
00037c:  6a7a  clrf    UEP10, A                             ; reg: 0xf7a
00037e:  6a7e  clrf    UEP14, A                             ; reg: 0xf7e
000380:  6a7f  clrf    UEP15, A                             ; reg: 0xf7f
000382:  0e0f  movlw   0x0f
000384:  6ec1  movwf   ADCON1, A                            ; reg: 0xfc1
000386:  9e7d  bcf     UEP13, 0x7, A                        ; reg: 0xf7d
000388:  9c7d  bcf     UEP13, 0x6, A                        ; reg: 0xf7d
00038a:  987d  bcf     UEP13, EPHSHK, A                     ; reg: 0xf7d, bit: 4
00038c:  0e05  movlw   0x05
00038e:  6eaf  movwf   SPBRG, A                             ; reg: 0xfaf
000390:  94ac  bcf     TXSTA, BRGH, A                       ; reg: 0xfac, bit: 2
000392:  96b8  bcf     BAUDCON, BRG16, A                    ; reg: 0xfb8, bit: 3
000394:  98ac  bcf     TXSTA, SYNC, A                       ; reg: 0xfac, bit: 4
000396:  8eab  bsf     RCSTA, SPEN, A                       ; reg: 0xfab, bit: 7
000398:  9ed0  bcf     RCON, IPEN, A                        ; reg: 0xfd0, bit: 7
00039a:  989d  bcf     PIE1, TXIE, A                        ; reg: 0xf9d, bit: 4
00039c:  9a9d  bcf     PIE1, RCIE, A                        ; reg: 0xf9d, bit: 5
00039e:  8aac  bsf     TXSTA, TXEN, A                       ; reg: 0xfac, bit: 5
0003a0:  88ab  bsf     RCSTA, CREN, A                       ; reg: 0xfab, bit: 4
0003a2:  ef41  goto    label_193                            ; dest: 0x001082
0003a4:  f008

label_032:                                                  ; address: 0x0003a6

0003a6:  cfd8  movff   STATUS, (Common_RAM + 25)            ; reg1: 0xfd8, reg2: 0x019
0003a8:  f019
0003aa:  6e1a  movwf   (Common_RAM + 26), A                 ; reg: 0x01a
0003ac:  cfe0  movff   BSR, (Common_RAM + 2)                ; reg1: 0xfe0, reg2: 0x002
0003ae:  f002
0003b0:  cfe9  movff   FSR0L, (Common_RAM + 3)              ; reg1: 0xfe9, reg2: 0x003
0003b2:  f003
0003b4:  cfea  movff   FSR0H, (Common_RAM + 4)              ; reg1: 0xfea, reg2: 0x004
0003b6:  f004
0003b8:  0100  movlb   0x0
0003ba:  6ae8  clrw
0003bc:  b89d  btfsc   PIE1, TXIE, A                        ; reg: 0xf9d, bit: 4
0003be:  0e01  movlw   0x01
0003c0:  6e18  movwf   (Common_RAM + 24), A                 ; reg: 0x018
0003c2:  6ae8  clrw
0003c4:  b89e  btfsc   PIR1, TXIF, A                        ; reg: 0xf9e, bit: 4
0003c6:  0e01  movlw   0x01
0003c8:  1618  andwf   (Common_RAM + 24), F, A              ; reg: 0x018
0003ca:  b4d8  skpnz
0003cc:  effb  goto    label_034                            ; dest: 0x0003f6
0003ce:  f001
0003d0:  5196  movf    0x96, W, B                           ; reg: 0x096
0003d2:  6397  cpfseq  0x97, B                              ; reg: 0x097
0003d4:  efef  goto    label_033                            ; dest: 0x0003de
0003d6:  f001
0003d8:  989d  bcf     PIE1, TXIE, A                        ; reg: 0xf9d, bit: 4
0003da:  effb  goto    label_034                            ; dest: 0x0003f6
0003dc:  f001

label_033:                                                  ; address: 0x0003de

0003de:  ee00  lfsr    0x0, 0x036
0003e0:  f036
0003e2:  5196  movf    0x96, W, B                           ; reg: 0x096
0003e4:  50eb  movf    PLUSW0, W, A                         ; reg: 0xfeb
0003e6:  6ead  movwf   TXREG, A                             ; reg: 0xfad
0003e8:  2b96  incf    0x96, F, B                           ; reg: 0x096
0003ea:  0e30  movlw   0x30
0003ec:  5d96  subwf   0x96, W, B                           ; reg: 0x096
0003ee:  a0d8  skpc
0003f0:  effb  goto    label_034                            ; dest: 0x0003f6
0003f2:  f001
0003f4:  6b96  clrf    0x96, B                              ; reg: 0x096

label_034:                                                  ; address: 0x0003f6

0003f6:  aa9e  btfss   PIR1, RCIF, A                        ; reg: 0xf9e, bit: 5
0003f8:  ef0a  goto    label_035                            ; dest: 0x000414
0003fa:  f002
0003fc:  ee00  lfsr    0x0, 0x066
0003fe:  f066
000400:  5199  movf    0x99, W, B                           ; reg: 0x099
000402:  cfae  movff   RCREG, PLUSW0                        ; reg1: 0xfae, reg2: 0xfeb
000404:  ffeb
000406:  2b99  incf    0x99, F, B                           ; reg: 0x099
000408:  0e30  movlw   0x30
00040a:  5d99  subwf   0x99, W, B                           ; reg: 0x099
00040c:  a0d8  skpc
00040e:  ef0a  goto    label_035                            ; dest: 0x000414
000410:  f002
000412:  6b99  clrf    0x99, B                              ; reg: 0x099

label_035:                                                  ; address: 0x000414

000414:  a0f2  btfss   INTCON, RBIF, A                      ; reg: 0xff2, bit: 0
000416:  ef1b  goto    label_037                            ; dest: 0x000436
000418:  f002
00041a:  501c  movf    (Common_RAM + 28), W, A              ; reg: 0x01c
00041c:  101b  iorwf   (Common_RAM + 27), W, A              ; reg: 0x01b
00041e:  a4d8  skpz
000420:  ef1a  goto    label_036                            ; dest: 0x000434
000422:  f002
000424:  a01f  btfss   (Common_RAM + 31), 0x0, A            ; reg: 0x01f
000426:  ef1a  goto    label_036                            ; dest: 0x000434
000428:  f002
00042a:  def9  rcall   function_017                         ; dest: 0x00021e
00042c:  6e1d  movwf   (Common_RAM + 29), A                 ; reg: 0x01d
00042e:  c00d  movff   (Common_RAM + 13), (Common_RAM + 30) ; reg1: 0x00d, reg2: 0x01e
000430:  f01e
000432:  901f  bcf     (Common_RAM + 31), 0x0, A            ; reg: 0x01f

label_036:                                                  ; address: 0x000434

000434:  90f2  bcf     INTCON, RBIF, A                      ; reg: 0xff2, bit: 0

label_037:                                                  ; address: 0x000436

000436:  c003  movff   (Common_RAM + 3), FSR0L              ; reg1: 0x003, reg2: 0xfe9
000438:  ffe9
00043a:  c004  movff   (Common_RAM + 4), FSR0H              ; reg1: 0x004, reg2: 0xfea
00043c:  ffea
00043e:  c002  movff   (Common_RAM + 2), BSR                ; reg1: 0x002, reg2: 0xfe0
000440:  ffe0
000442:  501a  movf    (Common_RAM + 26), W, A              ; reg: 0x01a
000444:  c019  movff   (Common_RAM + 25), STATUS            ; reg1: 0x019, reg2: 0xfd8
000446:  ffd8
000448:  0010  retfie  0x0

function_019:                                               ; address: 0x00044a

00044a:  a2ab  btfss   RCSTA, OERR, A                       ; reg: 0xfab, bit: 1
00044c:  ef2b  goto    label_038                            ; dest: 0x000456
00044e:  f002
000450:  98ab  bcf     RCSTA, CREN, A                       ; reg: 0xfab, bit: 4
000452:  0000  nop
000454:  88ab  bsf     RCSTA, CREN, A                       ; reg: 0xfab, bit: 4

label_038:                                                  ; address: 0x000456

000456:  5199  movf    0x99, W, B                           ; reg: 0x099
000458:  6398  cpfseq  0x98, B                              ; reg: 0x098
00045a:  ef30  goto    label_039                            ; dest: 0x000460
00045c:  f002
00045e:  0012  return  0x0

label_039:                                                  ; address: 0x000460

000460:  ee00  lfsr    0x0, 0x066
000462:  f066
000464:  5198  movf    0x98, W, B                           ; reg: 0x098
000466:  50eb  movf    PLUSW0, W, A                         ; reg: 0xfeb
000468:  6fb6  movwf   0xb6, B                              ; reg: 0x0b6
00046a:  2b98  incf    0x98, F, B                           ; reg: 0x098
00046c:  0e30  movlw   0x30
00046e:  5d98  subwf   0x98, W, B                           ; reg: 0x098
000470:  a0d8  skpc
000472:  ef3c  goto    label_040                            ; dest: 0x000478
000474:  f002
000476:  6b98  clrf    0x98, B                              ; reg: 0x098

label_040:                                                  ; address: 0x000478

000478:  0efe  movlw   0xfe
00047a:  63b6  cpfseq  0xb6, B                              ; reg: 0x0b6
00047c:  ef45  goto    label_041                            ; dest: 0x00048a
00047e:  f002
000480:  c0b6  movff   0x0b6, (Common_RAM + 39)             ; reg2: 0x027
000482:  f027
000484:  ecf1  call    function_020, 0x0                    ; dest: 0x0005e2
000486:  f002
000488:  d7e0  bra     function_019                         ; dest: 0x00044a

label_041:                                                  ; address: 0x00048a

00048a:  0e80  movlw   0x80
00048c:  5db6  subwf   0xb6, W, B                           ; reg: 0x0b6
00048e:  a0d8  skpc
000490:  ef6b  goto    label_046                            ; dest: 0x0004d6
000492:  f002
000494:  0ef1  movlw   0xf1
000496:  15b6  andwf   0xb6, W, B                           ; reg: 0x0b6
000498:  6e0a  movwf   (Common_RAM + 10), A                 ; reg: 0x00a
00049a:  6a0b  clrf    (Common_RAM + 11), A                 ; reg: 0x00b
00049c:  500a  movf    (Common_RAM + 10), W, A              ; reg: 0x00a
00049e:  0ab1  xorlw   0xb1
0004a0:  100b  iorwf   (Common_RAM + 11), W, A              ; reg: 0x00b
0004a2:  a4d8  skpz
0004a4:  ef56  goto    label_042                            ; dest: 0x0004ac
0004a6:  f002
0004a8:  0eb1  movlw   0xb1
0004aa:  6fb6  movwf   0xb6, B                              ; reg: 0x0b6

label_042:                                                  ; address: 0x0004ac

0004ac:  0eb0  movlw   0xb0
0004ae:  63b6  cpfseq  0xb6, B                              ; reg: 0x0b6
0004b0:  ef5f  goto    label_043                            ; dest: 0x0004be
0004b2:  f002
0004b4:  0e01  movlw   0x01
0004b6:  6fa6  movwf   0xa6, B                              ; reg: 0x0a6
0004b8:  841f  bsf     (Common_RAM + 31), 0x2, A            ; reg: 0x01f
0004ba:  ef6a  goto    label_045                            ; dest: 0x0004d4
0004bc:  f002

label_043:                                                  ; address: 0x0004be

0004be:  0eb1  movlw   0xb1
0004c0:  63b6  cpfseq  0xb6, B                              ; reg: 0x0b6
0004c2:  ef68  goto    label_044                            ; dest: 0x0004d0
0004c4:  f002
0004c6:  0e01  movlw   0x01
0004c8:  6fa6  movwf   0xa6, B                              ; reg: 0x0a6
0004ca:  841f  bsf     (Common_RAM + 31), 0x2, A            ; reg: 0x01f
0004cc:  ef6a  goto    label_045                            ; dest: 0x0004d4
0004ce:  f002

label_044:                                                  ; address: 0x0004d0

0004d0:  6ba6  clrf    0xa6, B                              ; reg: 0x0a6
0004d2:  841f  bsf     (Common_RAM + 31), 0x2, A            ; reg: 0x01f

label_045:                                                  ; address: 0x0004d4

0004d4:  d7ba  bra     function_019                         ; dest: 0x00044a

label_046:                                                  ; address: 0x0004d6

0004d6:  53a6  movf    0xa6, F, B                           ; reg: 0x0a6
0004d8:  b4d8  skpnz
0004da:  ef70  goto    label_047                            ; dest: 0x0004e0
0004dc:  f002
0004de:  2ba6  incf    0xa6, F, B                           ; reg: 0x0a6

label_047:                                                  ; address: 0x0004e0

0004e0:  0e02  movlw   0x02
0004e2:  61a6  cpfslt  0xa6, B                              ; reg: 0x0a6
0004e4:  ef75  goto    label_048                            ; dest: 0x0004ea
0004e6:  f002
0004e8:  d7b0  bra     function_019                         ; dest: 0x00044a

label_048:                                                  ; address: 0x0004ea

0004ea:  0e02  movlw   0x02
0004ec:  63a6  cpfseq  0xa6, B                              ; reg: 0x0a6
0004ee:  ef7c  goto    label_049                            ; dest: 0x0004f8
0004f0:  f002
0004f2:  c0b6  movff   0x0b6, (Common_RAM + 47)             ; reg2: 0x02f
0004f4:  f02f
0004f6:  d7a9  bra     function_019                         ; dest: 0x00044a

label_049:                                                  ; address: 0x0004f8

0004f8:  c0b6  movff   0x0b6, (Common_RAM + 48)             ; reg2: 0x030
0004fa:  f030
0004fc:  0e01  movlw   0x01
0004fe:  6fa6  movwf   0xa6, B                              ; reg: 0x0a6
000500:  0e03  movlw   0x03
000502:  622f  cpfseq  (Common_RAM + 47), A                 ; reg: 0x02f
000504:  efab  goto    label_055                            ; dest: 0x000556
000506:  f002
000508:  2c30  decfsz  (Common_RAM + 48), W, A              ; reg: 0x030
00050a:  ef8a  goto    label_050                            ; dest: 0x000514
00050c:  f002
00050e:  821f  bsf     (Common_RAM + 31), 0x1, A            ; reg: 0x01f
000510:  efa9  goto    label_054                            ; dest: 0x000552
000512:  f002

label_050:                                                  ; address: 0x000514

000514:  5230  movf    (Common_RAM + 48), F, A              ; reg: 0x030
000516:  a4d8  skpz
000518:  ef91  goto    label_051                            ; dest: 0x000522
00051a:  f002
00051c:  921f  bcf     (Common_RAM + 31), 0x1, A            ; reg: 0x01f
00051e:  efa9  goto    label_054                            ; dest: 0x000552
000520:  f002

label_051:                                                  ; address: 0x000522

000522:  0e02  movlw   0x02
000524:  6230  cpfseq  (Common_RAM + 48), A                 ; reg: 0x030
000526:  efa0  goto    label_053                            ; dest: 0x000540
000528:  f002
00052a:  ba1f  btfsc   (Common_RAM + 31), 0x5, A            ; reg: 0x01f
00052c:  ef9e  goto    label_052                            ; dest: 0x00053c
00052e:  f002
000530:  0e2f  movlw   0x2f
000532:  6fb4  movwf   0xb4, B                              ; reg: 0x0b4
000534:  0e75  movlw   0x75
000536:  6fb5  movwf   0xb5, B                              ; reg: 0x0b5
000538:  8a1f  bsf     (Common_RAM + 31), 0x5, A            ; reg: 0x01f
00053a:  861f  bsf     (Common_RAM + 31), 0x3, A            ; reg: 0x01f

label_052:                                                  ; address: 0x00053c

00053c:  efa9  goto    label_054                            ; dest: 0x000552
00053e:  f002

label_053:                                                  ; address: 0x000540

000540:  0e03  movlw   0x03
000542:  6230  cpfseq  (Common_RAM + 48), A                 ; reg: 0x030
000544:  efa9  goto    label_054                            ; dest: 0x000552
000546:  f002
000548:  aa1f  btfss   (Common_RAM + 31), 0x5, A            ; reg: 0x01f
00054a:  efa9  goto    label_054                            ; dest: 0x000552
00054c:  f002
00054e:  9a1f  bcf     (Common_RAM + 31), 0x5, A            ; reg: 0x01f
000550:  861f  bsf     (Common_RAM + 31), 0x3, A            ; reg: 0x01f

label_054:                                                  ; address: 0x000552

000552:  eff0  goto    label_064                            ; dest: 0x0005e0
000554:  f002

label_055:                                                  ; address: 0x000556

000556:  0e04  movlw   0x04
000558:  622f  cpfseq  (Common_RAM + 47), A                 ; reg: 0x02f
00055a:  efb1  goto    label_056                            ; dest: 0x000562
00055c:  f002
00055e:  eff0  goto    label_064                            ; dest: 0x0005e0
000560:  f002

label_056:                                                  ; address: 0x000562

000562:  0e05  movlw   0x05
000564:  622f  cpfseq  (Common_RAM + 47), A                 ; reg: 0x02f
000566:  efbd  goto    label_058                            ; dest: 0x00057a
000568:  f002
00056a:  0e04  movlw   0x04
00056c:  6030  cpfslt  (Common_RAM + 48), A                 ; reg: 0x030
00056e:  efbb  goto    label_057                            ; dest: 0x000576
000570:  f002
000572:  c030  movff   (Common_RAM + 48), 0x0a1             ; reg1: 0x030
000574:  f0a1

label_057:                                                  ; address: 0x000576

000576:  eff0  goto    label_064                            ; dest: 0x0005e0
000578:  f002

label_058:                                                  ; address: 0x00057a

00057a:  0e06  movlw   0x06
00057c:  622f  cpfseq  (Common_RAM + 47), A                 ; reg: 0x02f
00057e:  efd1  goto    label_060                            ; dest: 0x0005a2
000580:  f002
000582:  0e09  movlw   0x09
000584:  6030  cpfslt  (Common_RAM + 48), A                 ; reg: 0x030
000586:  efcf  goto    label_059                            ; dest: 0x00059e
000588:  f002
00058a:  51b8  movf    0xb8, W, B                           ; reg: 0x0b8
00058c:  5c30  subwf   (Common_RAM + 48), W, A              ; reg: 0x030
00058e:  b4d8  skpnz
000590:  efcf  goto    label_059                            ; dest: 0x00059e
000592:  f002
000594:  c030  movff   (Common_RAM + 48), 0x0b8             ; reg1: 0x030
000596:  f0b8
000598:  861f  bsf     (Common_RAM + 31), 0x3, A            ; reg: 0x01f
00059a:  ec09  call    function_021, 0x0                    ; dest: 0x000612
00059c:  f003

label_059:                                                  ; address: 0x00059e

00059e:  eff0  goto    label_064                            ; dest: 0x0005e0
0005a0:  f002

label_060:                                                  ; address: 0x0005a2

0005a2:  0e07  movlw   0x07
0005a4:  622f  cpfseq  (Common_RAM + 47), A                 ; reg: 0x02f
0005a6:  efe3  goto    label_063                            ; dest: 0x0005c6
0005a8:  f002
0005aa:  0e73  movlw   0x73
0005ac:  6030  cpfslt  (Common_RAM + 48), A                 ; reg: 0x030
0005ae:  efe1  goto    label_062                            ; dest: 0x0005c2
0005b0:  f002
0005b2:  51b9  movf    0xb9, W, B                           ; reg: 0x0b9
0005b4:  5c30  subwf   (Common_RAM + 48), W, A              ; reg: 0x030
0005b6:  b4d8  skpnz
0005b8:  efdf  goto    label_061                            ; dest: 0x0005be
0005ba:  f002
0005bc:  861f  bsf     (Common_RAM + 31), 0x3, A            ; reg: 0x01f

label_061:                                                  ; address: 0x0005be

0005be:  c030  movff   (Common_RAM + 48), 0x0b9             ; reg1: 0x030
0005c0:  f0b9

label_062:                                                  ; address: 0x0005c2

0005c2:  eff0  goto    label_064                            ; dest: 0x0005e0
0005c4:  f002

label_063:                                                  ; address: 0x0005c6

0005c6:  0e1d  movlw   0x1d
0005c8:  622f  cpfseq  (Common_RAM + 47), A                 ; reg: 0x02f
0005ca:  eff0  goto    label_064                            ; dest: 0x0005e0
0005cc:  f002
0005ce:  51a7  movf    0xa7, W, B                           ; reg: 0x0a7
0005d0:  5c30  subwf   (Common_RAM + 48), W, A              ; reg: 0x030
0005d2:  b4d8  skpnz
0005d4:  eff0  goto    label_064                            ; dest: 0x0005e0
0005d6:  f002
0005d8:  c030  movff   (Common_RAM + 48), 0x0a7             ; reg1: 0x030
0005da:  f0a7
0005dc:  eccd  call    function_044, 0x0                    ; dest: 0x000f9a
0005de:  f007

label_064:                                                  ; address: 0x0005e0

0005e0:  d734  bra     function_019                         ; dest: 0x00044a

function_020:                                               ; address: 0x0005e2

0005e2:  ee00  lfsr    0x0, 0x036
0005e4:  f036
0005e6:  5197  movf    0x97, W, B                           ; reg: 0x097
0005e8:  c027  movff   (Common_RAM + 39), PLUSW0            ; reg1: 0x027, reg2: 0xfeb
0005ea:  ffeb
0005ec:  2997  incf    0x97, W, B                           ; reg: 0x097
0005ee:  6e27  movwf   (Common_RAM + 39), A                 ; reg: 0x027
0005f0:  0e30  movlw   0x30
0005f2:  5c27  subwf   (Common_RAM + 39), W, A              ; reg: 0x027
0005f4:  a0d8  skpc
0005f6:  effe  goto    label_065                            ; dest: 0x0005fc
0005f8:  f002
0005fa:  6a27  clrf    (Common_RAM + 39), A                 ; reg: 0x027

label_065:                                                  ; address: 0x0005fc

0005fc:  a89d  btfss   PIE1, TXIE, A                        ; reg: 0xf9d, bit: 4
0005fe:  ef05  goto    label_067                            ; dest: 0x00060a
000600:  f003

label_066:                                                  ; address: 0x000602

000602:  5027  movf    (Common_RAM + 39), W, A              ; reg: 0x027
000604:  5d96  subwf   0x96, W, B                           ; reg: 0x096
000606:  b4d8  skpnz
000608:  d7fc  bra     label_066                            ; dest: 0x000602

label_067:                                                  ; address: 0x00060a

00060a:  c027  movff   (Common_RAM + 39), 0x097             ; reg1: 0x027
00060c:  f097
00060e:  889d  bsf     PIE1, TXIE, A                        ; reg: 0xf9d, bit: 4
000610:  0012  return  0x0

function_021:                                               ; address: 0x000612

000612:  5230  movf    (Common_RAM + 48), F, A              ; reg: 0x030
000614:  a4d8  skpz
000616:  ef10  goto    label_068                            ; dest: 0x000620
000618:  f003
00061a:  6bb7  clrf    0xb7, B                              ; reg: 0x0b7
00061c:  efaf  goto    label_097                            ; dest: 0x00075e
00061e:  f003

label_068:                                                  ; address: 0x000620

000620:  2c30  decfsz  (Common_RAM + 48), W, A              ; reg: 0x030
000622:  ef17  goto    label_069                            ; dest: 0x00062e
000624:  f003
000626:  0e05  movlw   0x05
000628:  6fb7  movwf   0xb7, B                              ; reg: 0x0b7
00062a:  efaf  goto    label_097                            ; dest: 0x00075e
00062c:  f003

label_069:                                                  ; address: 0x00062e

00062e:  0e02  movlw   0x02
000630:  6230  cpfseq  (Common_RAM + 48), A                 ; reg: 0x030
000632:  ef27  goto    label_072                            ; dest: 0x00064e
000634:  f003
000636:  53a1  movf    0xa1, F, B                           ; reg: 0x0a1
000638:  b4d8  skpnz
00063a:  ef23  goto    label_070                            ; dest: 0x000646
00063c:  f003
00063e:  0e06  movlw   0x06
000640:  6fb7  movwf   0xb7, B                              ; reg: 0x0b7
000642:  ef25  goto    label_071                            ; dest: 0x00064a
000644:  f003

label_070:                                                  ; address: 0x000646

000646:  0e01  movlw   0x01
000648:  6fb7  movwf   0xb7, B                              ; reg: 0x0b7

label_071:                                                  ; address: 0x00064a

00064a:  efaf  goto    label_097                            ; dest: 0x00075e
00064c:  f003

label_072:                                                  ; address: 0x00064e

00064e:  0e03  movlw   0x03
000650:  6230  cpfseq  (Common_RAM + 48), A                 ; reg: 0x030
000652:  ef3e  goto    label_077                            ; dest: 0x00067c
000654:  f003
000656:  53a1  movf    0xa1, F, B                           ; reg: 0x0a1
000658:  b4d8  skpnz
00065a:  ef3a  goto    label_075                            ; dest: 0x000674
00065c:  f003
00065e:  2da1  decfsz  0xa1, W, B                           ; reg: 0x0a1
000660:  ef36  goto    label_073                            ; dest: 0x00066c
000662:  f003
000664:  0e01  movlw   0x01
000666:  6fb7  movwf   0xb7, B                              ; reg: 0x0b7
000668:  ef38  goto    label_074                            ; dest: 0x000670
00066a:  f003

label_073:                                                  ; address: 0x00066c

00066c:  0e07  movlw   0x07
00066e:  6fb7  movwf   0xb7, B                              ; reg: 0x0b7

label_074:                                                  ; address: 0x000670

000670:  ef3c  goto    label_076                            ; dest: 0x000678
000672:  f003

label_075:                                                  ; address: 0x000674

000674:  0e02  movlw   0x02
000676:  6fb7  movwf   0xb7, B                              ; reg: 0x0b7

label_076:                                                  ; address: 0x000678

000678:  efaf  goto    label_097                            ; dest: 0x00075e
00067a:  f003

label_077:                                                  ; address: 0x00067c

00067c:  0e04  movlw   0x04
00067e:  6230  cpfseq  (Common_RAM + 48), A                 ; reg: 0x030
000680:  ef5d  goto    label_083                            ; dest: 0x0006ba
000682:  f003
000684:  53a1  movf    0xa1, F, B                           ; reg: 0x0a1
000686:  b4d8  skpnz
000688:  ef59  goto    label_081                            ; dest: 0x0006b2
00068a:  f003
00068c:  2da1  decfsz  0xa1, W, B                           ; reg: 0x0a1
00068e:  ef4b  goto    label_078                            ; dest: 0x000696
000690:  f003
000692:  0e02  movlw   0x02
000694:  6fb7  movwf   0xb7, B                              ; reg: 0x0b7

label_078:                                                  ; address: 0x000696

000696:  0e02  movlw   0x02
000698:  63a1  cpfseq  0xa1, B                              ; reg: 0x0a1
00069a:  ef51  goto    label_079                            ; dest: 0x0006a2
00069c:  f003
00069e:  0e01  movlw   0x01
0006a0:  6fb7  movwf   0xb7, B                              ; reg: 0x0b7

label_079:                                                  ; address: 0x0006a2

0006a2:  0e03  movlw   0x03
0006a4:  63a1  cpfseq  0xa1, B                              ; reg: 0x0a1
0006a6:  ef57  goto    label_080                            ; dest: 0x0006ae
0006a8:  f003
0006aa:  0e08  movlw   0x08
0006ac:  6fb7  movwf   0xb7, B                              ; reg: 0x0b7

label_080:                                                  ; address: 0x0006ae

0006ae:  ef5b  goto    label_082                            ; dest: 0x0006b6
0006b0:  f003

label_081:                                                  ; address: 0x0006b2

0006b2:  0e03  movlw   0x03
0006b4:  6fb7  movwf   0xb7, B                              ; reg: 0x0b7

label_082:                                                  ; address: 0x0006b6

0006b6:  efaf  goto    label_097                            ; dest: 0x00075e
0006b8:  f003

label_083:                                                  ; address: 0x0006ba

0006ba:  0e05  movlw   0x05
0006bc:  6230  cpfseq  (Common_RAM + 48), A                 ; reg: 0x030
0006be:  ef7c  goto    label_089                            ; dest: 0x0006f8
0006c0:  f003
0006c2:  53a1  movf    0xa1, F, B                           ; reg: 0x0a1
0006c4:  b4d8  skpnz
0006c6:  ef78  goto    label_087                            ; dest: 0x0006f0
0006c8:  f003
0006ca:  2da1  decfsz  0xa1, W, B                           ; reg: 0x0a1
0006cc:  ef6a  goto    label_084                            ; dest: 0x0006d4
0006ce:  f003
0006d0:  0e03  movlw   0x03
0006d2:  6fb7  movwf   0xb7, B                              ; reg: 0x0b7

label_084:                                                  ; address: 0x0006d4

0006d4:  0e02  movlw   0x02
0006d6:  63a1  cpfseq  0xa1, B                              ; reg: 0x0a1
0006d8:  ef70  goto    label_085                            ; dest: 0x0006e0
0006da:  f003
0006dc:  0e02  movlw   0x02
0006de:  6fb7  movwf   0xb7, B                              ; reg: 0x0b7

label_085:                                                  ; address: 0x0006e0

0006e0:  0e03  movlw   0x03
0006e2:  63a1  cpfseq  0xa1, B                              ; reg: 0x0a1
0006e4:  ef76  goto    label_086                            ; dest: 0x0006ec
0006e6:  f003
0006e8:  0e01  movlw   0x01
0006ea:  6fb7  movwf   0xb7, B                              ; reg: 0x0b7

label_086:                                                  ; address: 0x0006ec

0006ec:  ef7a  goto    label_088                            ; dest: 0x0006f4
0006ee:  f003

label_087:                                                  ; address: 0x0006f0

0006f0:  0e04  movlw   0x04
0006f2:  6fb7  movwf   0xb7, B                              ; reg: 0x0b7

label_088:                                                  ; address: 0x0006f4

0006f4:  efaf  goto    label_097                            ; dest: 0x00075e
0006f6:  f003

label_089:                                                  ; address: 0x0006f8

0006f8:  0e06  movlw   0x06
0006fa:  6230  cpfseq  (Common_RAM + 48), A                 ; reg: 0x030
0006fc:  ef93  goto    label_093                            ; dest: 0x000726
0006fe:  f003
000700:  2da1  decfsz  0xa1, W, B                           ; reg: 0x0a1
000702:  ef85  goto    label_090                            ; dest: 0x00070a
000704:  f003
000706:  0e04  movlw   0x04
000708:  6fb7  movwf   0xb7, B                              ; reg: 0x0b7

label_090:                                                  ; address: 0x00070a

00070a:  0e02  movlw   0x02
00070c:  63a1  cpfseq  0xa1, B                              ; reg: 0x0a1
00070e:  ef8b  goto    label_091                            ; dest: 0x000716
000710:  f003
000712:  0e03  movlw   0x03
000714:  6fb7  movwf   0xb7, B                              ; reg: 0x0b7

label_091:                                                  ; address: 0x000716

000716:  0e03  movlw   0x03
000718:  63a1  cpfseq  0xa1, B                              ; reg: 0x0a1
00071a:  ef91  goto    label_092                            ; dest: 0x000722
00071c:  f003
00071e:  0e02  movlw   0x02
000720:  6fb7  movwf   0xb7, B                              ; reg: 0x0b7

label_092:                                                  ; address: 0x000722

000722:  efaf  goto    label_097                            ; dest: 0x00075e
000724:  f003

label_093:                                                  ; address: 0x000726

000726:  0e07  movlw   0x07
000728:  6230  cpfseq  (Common_RAM + 48), A                 ; reg: 0x030
00072a:  efa5  goto    label_096                            ; dest: 0x00074a
00072c:  f003
00072e:  0e02  movlw   0x02
000730:  63a1  cpfseq  0xa1, B                              ; reg: 0x0a1
000732:  ef9d  goto    label_094                            ; dest: 0x00073a
000734:  f003
000736:  0e04  movlw   0x04
000738:  6fb7  movwf   0xb7, B                              ; reg: 0x0b7

label_094:                                                  ; address: 0x00073a

00073a:  0e03  movlw   0x03
00073c:  63a1  cpfseq  0xa1, B                              ; reg: 0x0a1
00073e:  efa3  goto    label_095                            ; dest: 0x000746
000740:  f003
000742:  0e03  movlw   0x03
000744:  6fb7  movwf   0xb7, B                              ; reg: 0x0b7

label_095:                                                  ; address: 0x000746

000746:  efaf  goto    label_097                            ; dest: 0x00075e
000748:  f003

label_096:                                                  ; address: 0x00074a

00074a:  0e08  movlw   0x08
00074c:  6230  cpfseq  (Common_RAM + 48), A                 ; reg: 0x030
00074e:  efaf  goto    label_097                            ; dest: 0x00075e
000750:  f003
000752:  0e03  movlw   0x03
000754:  63a1  cpfseq  0xa1, B                              ; reg: 0x0a1
000756:  efaf  goto    label_097                            ; dest: 0x00075e
000758:  f003
00075a:  0e04  movlw   0x04
00075c:  6fb7  movwf   0xb7, B                              ; reg: 0x0b7

label_097:                                                  ; address: 0x00075e

00075e:  0012  return  0x0

function_022:                                               ; address: 0x000760

000760:  53b7  movf    0xb7, F, B                           ; reg: 0x0b7
000762:  a4d8  skpz
000764:  efb7  goto    label_098                            ; dest: 0x00076e
000766:  f003
000768:  6bb8  clrf    0xb8, B                              ; reg: 0x0b8
00076a:  ef50  goto    label_126                            ; dest: 0x0008a0
00076c:  f004

label_098:                                                  ; address: 0x00076e

00076e:  2db7  decfsz  0xb7, W, B                           ; reg: 0x0b7
000770:  efd5  goto    label_104                            ; dest: 0x0007aa
000772:  f003
000774:  53a1  movf    0xa1, F, B                           ; reg: 0x0a1
000776:  b4d8  skpnz
000778:  efd1  goto    label_102                            ; dest: 0x0007a2
00077a:  f003
00077c:  2da1  decfsz  0xa1, W, B                           ; reg: 0x0a1
00077e:  efc3  goto    label_099                            ; dest: 0x000786
000780:  f003
000782:  0e03  movlw   0x03
000784:  6fb8  movwf   0xb8, B                              ; reg: 0x0b8

label_099:                                                  ; address: 0x000786

000786:  0e02  movlw   0x02
000788:  63a1  cpfseq  0xa1, B                              ; reg: 0x0a1
00078a:  efc9  goto    label_100                            ; dest: 0x000792
00078c:  f003
00078e:  0e04  movlw   0x04
000790:  6fb8  movwf   0xb8, B                              ; reg: 0x0b8

label_100:                                                  ; address: 0x000792

000792:  0e03  movlw   0x03
000794:  63a1  cpfseq  0xa1, B                              ; reg: 0x0a1
000796:  efcf  goto    label_101                            ; dest: 0x00079e
000798:  f003
00079a:  0e05  movlw   0x05
00079c:  6fb8  movwf   0xb8, B                              ; reg: 0x0b8

label_101:                                                  ; address: 0x00079e

00079e:  efd3  goto    label_103                            ; dest: 0x0007a6
0007a0:  f003

label_102:                                                  ; address: 0x0007a2

0007a2:  0e02  movlw   0x02
0007a4:  6fb8  movwf   0xb8, B                              ; reg: 0x0b8

label_103:                                                  ; address: 0x0007a6

0007a6:  ef50  goto    label_126                            ; dest: 0x0008a0
0007a8:  f004

label_104:                                                  ; address: 0x0007aa

0007aa:  0e02  movlw   0x02
0007ac:  63b7  cpfseq  0xb7, B                              ; reg: 0x0b7
0007ae:  eff4  goto    label_110                            ; dest: 0x0007e8
0007b0:  f003
0007b2:  53a1  movf    0xa1, F, B                           ; reg: 0x0a1
0007b4:  b4d8  skpnz
0007b6:  eff0  goto    label_108                            ; dest: 0x0007e0
0007b8:  f003
0007ba:  2da1  decfsz  0xa1, W, B                           ; reg: 0x0a1
0007bc:  efe2  goto    label_105                            ; dest: 0x0007c4
0007be:  f003
0007c0:  0e04  movlw   0x04
0007c2:  6fb8  movwf   0xb8, B                              ; reg: 0x0b8

label_105:                                                  ; address: 0x0007c4

0007c4:  0e02  movlw   0x02
0007c6:  63a1  cpfseq  0xa1, B                              ; reg: 0x0a1
0007c8:  efe8  goto    label_106                            ; dest: 0x0007d0
0007ca:  f003
0007cc:  0e05  movlw   0x05
0007ce:  6fb8  movwf   0xb8, B                              ; reg: 0x0b8

label_106:                                                  ; address: 0x0007d0

0007d0:  0e03  movlw   0x03
0007d2:  63a1  cpfseq  0xa1, B                              ; reg: 0x0a1
0007d4:  efee  goto    label_107                            ; dest: 0x0007dc
0007d6:  f003
0007d8:  0e06  movlw   0x06
0007da:  6fb8  movwf   0xb8, B                              ; reg: 0x0b8

label_107:                                                  ; address: 0x0007dc

0007dc:  eff2  goto    label_109                            ; dest: 0x0007e4
0007de:  f003

label_108:                                                  ; address: 0x0007e0

0007e0:  0e03  movlw   0x03
0007e2:  6fb8  movwf   0xb8, B                              ; reg: 0x0b8

label_109:                                                  ; address: 0x0007e4

0007e4:  ef50  goto    label_126                            ; dest: 0x0008a0
0007e6:  f004

label_110:                                                  ; address: 0x0007e8

0007e8:  0e03  movlw   0x03
0007ea:  63b7  cpfseq  0xb7, B                              ; reg: 0x0b7
0007ec:  ef13  goto    label_116                            ; dest: 0x000826
0007ee:  f004
0007f0:  53a1  movf    0xa1, F, B                           ; reg: 0x0a1
0007f2:  b4d8  skpnz
0007f4:  ef0f  goto    label_114                            ; dest: 0x00081e
0007f6:  f004
0007f8:  2da1  decfsz  0xa1, W, B                           ; reg: 0x0a1
0007fa:  ef01  goto    label_111                            ; dest: 0x000802
0007fc:  f004
0007fe:  0e05  movlw   0x05
000800:  6fb8  movwf   0xb8, B                              ; reg: 0x0b8

label_111:                                                  ; address: 0x000802

000802:  0e02  movlw   0x02
000804:  63a1  cpfseq  0xa1, B                              ; reg: 0x0a1
000806:  ef07  goto    label_112                            ; dest: 0x00080e
000808:  f004
00080a:  0e06  movlw   0x06
00080c:  6fb8  movwf   0xb8, B                              ; reg: 0x0b8

label_112:                                                  ; address: 0x00080e

00080e:  0e03  movlw   0x03
000810:  63a1  cpfseq  0xa1, B                              ; reg: 0x0a1
000812:  ef0d  goto    label_113                            ; dest: 0x00081a
000814:  f004
000816:  0e07  movlw   0x07
000818:  6fb8  movwf   0xb8, B                              ; reg: 0x0b8

label_113:                                                  ; address: 0x00081a

00081a:  ef11  goto    label_115                            ; dest: 0x000822
00081c:  f004

label_114:                                                  ; address: 0x00081e

00081e:  0e04  movlw   0x04
000820:  6fb8  movwf   0xb8, B                              ; reg: 0x0b8

label_115:                                                  ; address: 0x000822

000822:  ef50  goto    label_126                            ; dest: 0x0008a0
000824:  f004

label_116:                                                  ; address: 0x000826

000826:  0e04  movlw   0x04
000828:  63b7  cpfseq  0xb7, B                              ; reg: 0x0b7
00082a:  ef32  goto    label_122                            ; dest: 0x000864
00082c:  f004
00082e:  53a1  movf    0xa1, F, B                           ; reg: 0x0a1
000830:  b4d8  skpnz
000832:  ef2e  goto    label_120                            ; dest: 0x00085c
000834:  f004
000836:  2da1  decfsz  0xa1, W, B                           ; reg: 0x0a1
000838:  ef20  goto    label_117                            ; dest: 0x000840
00083a:  f004
00083c:  0e06  movlw   0x06
00083e:  6fb8  movwf   0xb8, B                              ; reg: 0x0b8

label_117:                                                  ; address: 0x000840

000840:  0e02  movlw   0x02
000842:  63a1  cpfseq  0xa1, B                              ; reg: 0x0a1
000844:  ef26  goto    label_118                            ; dest: 0x00084c
000846:  f004
000848:  0e07  movlw   0x07
00084a:  6fb8  movwf   0xb8, B                              ; reg: 0x0b8

label_118:                                                  ; address: 0x00084c

00084c:  0e03  movlw   0x03
00084e:  63a1  cpfseq  0xa1, B                              ; reg: 0x0a1
000850:  ef2c  goto    label_119                            ; dest: 0x000858
000852:  f004
000854:  0e08  movlw   0x08
000856:  6fb8  movwf   0xb8, B                              ; reg: 0x0b8

label_119:                                                  ; address: 0x000858

000858:  ef30  goto    label_121                            ; dest: 0x000860
00085a:  f004

label_120:                                                  ; address: 0x00085c

00085c:  0e05  movlw   0x05
00085e:  6fb8  movwf   0xb8, B                              ; reg: 0x0b8

label_121:                                                  ; address: 0x000860

000860:  ef50  goto    label_126                            ; dest: 0x0008a0
000862:  f004

label_122:                                                  ; address: 0x000864

000864:  0e05  movlw   0x05
000866:  63b7  cpfseq  0xb7, B                              ; reg: 0x0b7
000868:  ef3a  goto    label_123                            ; dest: 0x000874
00086a:  f004
00086c:  0e01  movlw   0x01
00086e:  6fb8  movwf   0xb8, B                              ; reg: 0x0b8
000870:  ef50  goto    label_126                            ; dest: 0x0008a0
000872:  f004

label_123:                                                  ; address: 0x000874

000874:  0e06  movlw   0x06
000876:  63b7  cpfseq  0xb7, B                              ; reg: 0x0b7
000878:  ef42  goto    label_124                            ; dest: 0x000884
00087a:  f004
00087c:  0e02  movlw   0x02
00087e:  6fb8  movwf   0xb8, B                              ; reg: 0x0b8
000880:  ef50  goto    label_126                            ; dest: 0x0008a0
000882:  f004

label_124:                                                  ; address: 0x000884

000884:  0e07  movlw   0x07
000886:  63b7  cpfseq  0xb7, B                              ; reg: 0x0b7
000888:  ef4a  goto    label_125                            ; dest: 0x000894
00088a:  f004
00088c:  0e03  movlw   0x03
00088e:  6fb8  movwf   0xb8, B                              ; reg: 0x0b8
000890:  ef50  goto    label_126                            ; dest: 0x0008a0
000892:  f004

label_125:                                                  ; address: 0x000894

000894:  0e08  movlw   0x08
000896:  63b7  cpfseq  0xb7, B                              ; reg: 0x0b7
000898:  ef50  goto    label_126                            ; dest: 0x0008a0
00089a:  f004
00089c:  0e04  movlw   0x04
00089e:  6fb8  movwf   0xb8, B                              ; reg: 0x0b8

label_126:                                                  ; address: 0x0008a0

0008a0:  0012  return  0x0

function_023:                                               ; address: 0x0008a2

0008a2:  6827  setf    (Common_RAM + 39), A                 ; reg: 0x027
0008a4:  8027  bsf     (Common_RAM + 39), 0x0, A            ; reg: 0x027
0008a6:  a680  btfss   PORTA, RA3, A                        ; reg: 0xf80, bit: 3
0008a8:  9027  bcf     (Common_RAM + 39), 0x0, A            ; reg: 0x027
0008aa:  8227  bsf     (Common_RAM + 39), 0x1, A            ; reg: 0x027
0008ac:  a082  btfss   PORTC, RC0, A                        ; reg: 0xf82, bit: 0
0008ae:  9227  bcf     (Common_RAM + 39), 0x1, A            ; reg: 0x027
0008b0:  8427  bsf     (Common_RAM + 39), 0x2, A            ; reg: 0x027
0008b2:  a480  btfss   PORTA, RA2, A                        ; reg: 0xf80, bit: 2
0008b4:  9427  bcf     (Common_RAM + 39), 0x2, A            ; reg: 0x027
0008b6:  8627  bsf     (Common_RAM + 39), 0x3, A            ; reg: 0x027
0008b8:  a280  btfss   PORTA, RA1, A                        ; reg: 0xf80, bit: 1
0008ba:  9627  bcf     (Common_RAM + 39), 0x3, A            ; reg: 0x027
0008bc:  8827  bsf     (Common_RAM + 39), 0x4, A            ; reg: 0x027
0008be:  aa82  btfss   PORTC, RC5, A                        ; reg: 0xf82, bit: 5
0008c0:  9827  bcf     (Common_RAM + 39), 0x4, A            ; reg: 0x027
0008c2:  8a27  bsf     (Common_RAM + 39), 0x5, A            ; reg: 0x027
0008c4:  a880  btfss   PORTA, RA4, A                        ; reg: 0xf80, bit: 4
0008c6:  9a27  bcf     (Common_RAM + 39), 0x5, A            ; reg: 0x027
0008c8:  0eff  movlw   0xff
0008ca:  1a27  xorwf   (Common_RAM + 39), F, A              ; reg: 0x027
0008cc:  5027  movf    (Common_RAM + 39), W, A              ; reg: 0x027
0008ce:  5dbc  subwf   0xbc, W, B                           ; reg: 0x0bc
0008d0:  b4d8  skpnz
0008d2:  ef70  goto    label_127                            ; dest: 0x0008e0
0008d4:  f004
0008d6:  6bbb  clrf    0xbb, B                              ; reg: 0x0bb
0008d8:  c027  movff   (Common_RAM + 39), 0x0bc             ; reg1: 0x027
0008da:  f0bc
0008dc:  ef79  goto    label_129                            ; dest: 0x0008f2
0008de:  f004

label_127:                                                  ; address: 0x0008e0

0008e0:  0e04  movlw   0x04
0008e2:  61bb  cpfslt  0xbb, B                              ; reg: 0x0bb
0008e4:  ef77  goto    label_128                            ; dest: 0x0008ee
0008e6:  f004
0008e8:  2bbb  incf    0xbb, F, B                           ; reg: 0x0bb
0008ea:  ef79  goto    label_129                            ; dest: 0x0008f2
0008ec:  f004

label_128:                                                  ; address: 0x0008ee

0008ee:  c0bc  movff   0x0bc, 0x0be
0008f0:  f0be

label_129:                                                  ; address: 0x0008f2

0008f2:  6b9a  clrf    0x9a, B                              ; reg: 0x09a
0008f4:  51be  movf    0xbe, W, B                           ; reg: 0x0be
0008f6:  5dbd  subwf   0xbd, W, B                           ; reg: 0x0bd
0008f8:  b4d8  skpnz
0008fa:  ef87  goto    label_130                            ; dest: 0x00090e
0008fc:  f004
0008fe:  c0be  movff   0x0be, 0x0bd
000900:  f0bd
000902:  6b9b  clrf    0x9b, B                              ; reg: 0x09b
000904:  6b9c  clrf    0x9c, B                              ; reg: 0x09c
000906:  c0be  movff   0x0be, 0x09a
000908:  f09a
00090a:  ef8d  goto    label_131                            ; dest: 0x00091a
00090c:  f004

label_130:                                                  ; address: 0x00090e

00090e:  31be  rrcf    0xbe, W, B                           ; reg: 0x0be
000910:  b0d8  skpnc
000912:  ef8d  goto    label_131                            ; dest: 0x00091a
000914:  f004
000916:  4b9b  infsnz  0x9b, F, B                           ; reg: 0x09b
000918:  2b9c  incf    0x9c, F, B                           ; reg: 0x09c

label_131:                                                  ; address: 0x00091a

00091a:  0ec9  movlw   0xc9
00091c:  5d9b  subwf   0x9b, W, B                           ; reg: 0x09b
00091e:  0e32  movlw   0x32
000920:  599c  subwfb  0x9c, W, B                           ; reg: 0x09c
000922:  a0d8  skpc
000924:  ef9a  goto    label_132                            ; dest: 0x000934
000926:  f004
000928:  0e28  movlw   0x28
00092a:  6f9b  movwf   0x9b, B                              ; reg: 0x09b
00092c:  0e23  movlw   0x23
00092e:  6f9c  movwf   0x9c, B                              ; reg: 0x09c
000930:  c0be  movff   0x0be, 0x09a
000932:  f09a

label_132:                                                  ; address: 0x000934

000934:  0012  return  0x0

function_024:                                               ; address: 0x000936

000936:  c027  movff   (Common_RAM + 39), (Common_RAM + 43) ; reg1: 0x027, reg2: 0x02b
000938:  f02b
00093a:  6a2c  clrf    (Common_RAM + 44), A                 ; reg: 0x02c
00093c:  502c  movf    (Common_RAM + 44), W, A              ; reg: 0x02c
00093e:  0d10  mullw   0x10
000940:  cff3  movff   PRODL, (Common_RAM + 44)             ; reg1: 0xff3, reg2: 0x02c
000942:  f02c
000944:  502b  movf    (Common_RAM + 43), W, A              ; reg: 0x02b
000946:  0d10  mullw   0x10
000948:  cff3  movff   PRODL, (Common_RAM + 43)             ; reg1: 0xff3, reg2: 0x02b
00094a:  f02b
00094c:  50f4  movf    PRODH, W, A                          ; reg: 0xff4
00094e:  262c  addwf   (Common_RAM + 44), F, A              ; reg: 0x02c
000950:  502b  movf    (Common_RAM + 43), W, A              ; reg: 0x02b
000952:  2629  addwf   (Common_RAM + 41), F, A              ; reg: 0x029
000954:  502c  movf    (Common_RAM + 44), W, A              ; reg: 0x02c
000956:  222a  addwfc  (Common_RAM + 42), F, A              ; reg: 0x02a
000958:  6a27  clrf    (Common_RAM + 39), A                 ; reg: 0x027

label_133:                                                  ; address: 0x00095a

00095a:  0e10  movlw   0x10
00095c:  6027  cpfslt  (Common_RAM + 39), A                 ; reg: 0x027
00095e:  efc2  goto    label_134                            ; dest: 0x000984
000960:  f004
000962:  5027  movf    (Common_RAM + 39), W, A              ; reg: 0x027
000964:  2429  addwf   (Common_RAM + 41), W, A              ; reg: 0x029
000966:  6ef6  movwf   TBLPTRL, A                           ; reg: 0xff6
000968:  0e00  movlw   0x00
00096a:  202a  addwfc  (Common_RAM + 42), W, A              ; reg: 0x02a
00096c:  6ef7  movwf   TBLPTRH, A                           ; reg: 0xff7
00096e:  6aa6  clrf    EECON1, A                            ; reg: 0xfa6
000970:  8ea6  bsf     EECON1, EEPGD, A                     ; reg: 0xfa6, bit: 7
000972:  0008  tblrd*
000974:  cff5  movff   TABLAT, (Common_RAM + 40)            ; reg1: 0xff5, reg2: 0x028
000976:  f028
000978:  5028  movf    (Common_RAM + 40), W, A              ; reg: 0x028
00097a:  ec76  call    function_005, 0x0                    ; dest: 0x0000ec
00097c:  f000
00097e:  2a27  incf    (Common_RAM + 39), F, A              ; reg: 0x027
000980:  a4d8  skpz
000982:  d7eb  bra     label_133                            ; dest: 0x00095a

label_134:                                                  ; address: 0x000984

000984:  0012  return  0x0

function_025:                                               ; address: 0x000986

000986:  6aa9  clrf    EEADR, A                             ; reg: 0xfa9
000988:  51bf  movf    0xbf, W, B                           ; reg: 0x0bf
00098a:  ecd1  call    function_011, 0x0                    ; dest: 0x0001a2
00098c:  f000
00098e:  0e01  movlw   0x01
000990:  6ea9  movwf   EEADR, A                             ; reg: 0xfa9
000992:  51ba  movf    0xba, W, B                           ; reg: 0x0ba
000994:  ecd1  call    function_011, 0x0                    ; dest: 0x0001a2
000996:  f000
000998:  0e02  movlw   0x02
00099a:  6ea9  movwf   EEADR, A                             ; reg: 0xfa9
00099c:  51c0  movf    0xc0, W, B                           ; reg: 0x0c0
00099e:  ecd1  call    function_011, 0x0                    ; dest: 0x0001a2
0009a0:  f000
0009a2:  6a27  clrf    (Common_RAM + 39), A                 ; reg: 0x027

label_135:                                                  ; address: 0x0009a4

0009a4:  0e06  movlw   0x06
0009a6:  6027  cpfslt  (Common_RAM + 39), A                 ; reg: 0x027
0009a8:  ef18  goto    label_136                            ; dest: 0x000a30
0009aa:  f005
0009ac:  0e03  movlw   0x03
0009ae:  2427  addwf   (Common_RAM + 39), W, A              ; reg: 0x027
0009b0:  6ea9  movwf   EEADR, A                             ; reg: 0xfa9
0009b2:  ee00  lfsr    0x0, 0x0c1
0009b4:  f0c1
0009b6:  5027  movf    (Common_RAM + 39), W, A              ; reg: 0x027
0009b8:  50eb  movf    PLUSW0, W, A                         ; reg: 0xfeb
0009ba:  ecd1  call    function_011, 0x0                    ; dest: 0x0001a2
0009bc:  f000
0009be:  0e09  movlw   0x09
0009c0:  2427  addwf   (Common_RAM + 39), W, A              ; reg: 0x027
0009c2:  6ea9  movwf   EEADR, A                             ; reg: 0xfa9
0009c4:  ee00  lfsr    0x0, 0x0c7
0009c6:  f0c7
0009c8:  5027  movf    (Common_RAM + 39), W, A              ; reg: 0x027
0009ca:  50eb  movf    PLUSW0, W, A                         ; reg: 0xfeb
0009cc:  ecd1  call    function_011, 0x0                    ; dest: 0x0001a2
0009ce:  f000
0009d0:  0e0f  movlw   0x0f
0009d2:  2427  addwf   (Common_RAM + 39), W, A              ; reg: 0x027
0009d4:  6ea9  movwf   EEADR, A                             ; reg: 0xfa9
0009d6:  ee00  lfsr    0x0, 0x0cd
0009d8:  f0cd
0009da:  5027  movf    (Common_RAM + 39), W, A              ; reg: 0x027
0009dc:  50eb  movf    PLUSW0, W, A                         ; reg: 0xfeb
0009de:  ecd1  call    function_011, 0x0                    ; dest: 0x0001a2
0009e0:  f000
0009e2:  0e15  movlw   0x15
0009e4:  2427  addwf   (Common_RAM + 39), W, A              ; reg: 0x027
0009e6:  6ea9  movwf   EEADR, A                             ; reg: 0xfa9
0009e8:  ee00  lfsr    0x0, 0x0d3
0009ea:  f0d3
0009ec:  5027  movf    (Common_RAM + 39), W, A              ; reg: 0x027
0009ee:  50eb  movf    PLUSW0, W, A                         ; reg: 0xfeb
0009f0:  ecd1  call    function_011, 0x0                    ; dest: 0x0001a2
0009f2:  f000
0009f4:  0e1b  movlw   0x1b
0009f6:  2427  addwf   (Common_RAM + 39), W, A              ; reg: 0x027
0009f8:  6ea9  movwf   EEADR, A                             ; reg: 0xfa9
0009fa:  ee00  lfsr    0x0, 0x0d9
0009fc:  f0d9
0009fe:  5027  movf    (Common_RAM + 39), W, A              ; reg: 0x027
000a00:  50eb  movf    PLUSW0, W, A                         ; reg: 0xfeb
000a02:  ecd1  call    function_011, 0x0                    ; dest: 0x0001a2
000a04:  f000
000a06:  0e21  movlw   0x21
000a08:  2427  addwf   (Common_RAM + 39), W, A              ; reg: 0x027
000a0a:  6ea9  movwf   EEADR, A                             ; reg: 0xfa9
000a0c:  ee00  lfsr    0x0, 0x0df
000a0e:  f0df
000a10:  5027  movf    (Common_RAM + 39), W, A              ; reg: 0x027
000a12:  50eb  movf    PLUSW0, W, A                         ; reg: 0xfeb
000a14:  ecd1  call    function_011, 0x0                    ; dest: 0x0001a2
000a16:  f000
000a18:  0e27  movlw   0x27
000a1a:  2427  addwf   (Common_RAM + 39), W, A              ; reg: 0x027
000a1c:  6ea9  movwf   EEADR, A                             ; reg: 0xfa9
000a1e:  ee00  lfsr    0x0, 0x0e5
000a20:  f0e5
000a22:  5027  movf    (Common_RAM + 39), W, A              ; reg: 0x027
000a24:  50eb  movf    PLUSW0, W, A                         ; reg: 0xfeb
000a26:  ecd1  call    function_011, 0x0                    ; dest: 0x0001a2
000a28:  f000
000a2a:  2a27  incf    (Common_RAM + 39), F, A              ; reg: 0x027
000a2c:  a4d8  skpz
000a2e:  d7ba  bra     label_135                            ; dest: 0x0009a4

label_136:                                                  ; address: 0x000a30

000a30:  0e73  movlw   0x73
000a32:  6ea9  movwf   EEADR, A                             ; reg: 0xfa9
000a34:  51eb  movf    0xeb, W, B                           ; reg: 0x0eb
000a36:  ecd1  call    function_011, 0x0                    ; dest: 0x0001a2
000a38:  f000
000a3a:  0012  return  0x0

function_026:                                               ; address: 0x000a3c

000a3c:  0e00  movlw   0x00
000a3e:  eccb  call    function_010, 0x0                    ; dest: 0x000196
000a40:  f000
000a42:  6fbf  movwf   0xbf, B                              ; reg: 0x0bf
000a44:  0e01  movlw   0x01
000a46:  eccb  call    function_010, 0x0                    ; dest: 0x000196
000a48:  f000
000a4a:  6fba  movwf   0xba, B                              ; reg: 0x0ba
000a4c:  0e02  movlw   0x02
000a4e:  eccb  call    function_010, 0x0                    ; dest: 0x000196
000a50:  f000
000a52:  6fc0  movwf   0xc0, B                              ; reg: 0x0c0
000a54:  6a27  clrf    (Common_RAM + 39), A                 ; reg: 0x027

label_137:                                                  ; address: 0x000a56

000a56:  0e06  movlw   0x06
000a58:  6027  cpfslt  (Common_RAM + 39), A                 ; reg: 0x027
000a5a:  ef78  goto    label_138                            ; dest: 0x000af0
000a5c:  f005
000a5e:  0e03  movlw   0x03
000a60:  2427  addwf   (Common_RAM + 39), W, A              ; reg: 0x027
000a62:  eccb  call    function_010, 0x0                    ; dest: 0x000196
000a64:  f000
000a66:  6e0a  movwf   (Common_RAM + 10), A                 ; reg: 0x00a
000a68:  ee00  lfsr    0x0, 0x0c1
000a6a:  f0c1
000a6c:  5027  movf    (Common_RAM + 39), W, A              ; reg: 0x027
000a6e:  c00a  movff   (Common_RAM + 10), PLUSW0            ; reg1: 0x00a, reg2: 0xfeb
000a70:  ffeb
000a72:  0e09  movlw   0x09
000a74:  2427  addwf   (Common_RAM + 39), W, A              ; reg: 0x027
000a76:  eccb  call    function_010, 0x0                    ; dest: 0x000196
000a78:  f000
000a7a:  6e0a  movwf   (Common_RAM + 10), A                 ; reg: 0x00a
000a7c:  ee00  lfsr    0x0, 0x0c7
000a7e:  f0c7
000a80:  5027  movf    (Common_RAM + 39), W, A              ; reg: 0x027
000a82:  c00a  movff   (Common_RAM + 10), PLUSW0            ; reg1: 0x00a, reg2: 0xfeb
000a84:  ffeb
000a86:  0e0f  movlw   0x0f
000a88:  2427  addwf   (Common_RAM + 39), W, A              ; reg: 0x027
000a8a:  eccb  call    function_010, 0x0                    ; dest: 0x000196
000a8c:  f000
000a8e:  6e0a  movwf   (Common_RAM + 10), A                 ; reg: 0x00a
000a90:  ee00  lfsr    0x0, 0x0cd
000a92:  f0cd
000a94:  5027  movf    (Common_RAM + 39), W, A              ; reg: 0x027
000a96:  c00a  movff   (Common_RAM + 10), PLUSW0            ; reg1: 0x00a, reg2: 0xfeb
000a98:  ffeb
000a9a:  0e15  movlw   0x15
000a9c:  2427  addwf   (Common_RAM + 39), W, A              ; reg: 0x027
000a9e:  eccb  call    function_010, 0x0                    ; dest: 0x000196
000aa0:  f000
000aa2:  6e0a  movwf   (Common_RAM + 10), A                 ; reg: 0x00a
000aa4:  ee00  lfsr    0x0, 0x0d3
000aa6:  f0d3
000aa8:  5027  movf    (Common_RAM + 39), W, A              ; reg: 0x027
000aaa:  c00a  movff   (Common_RAM + 10), PLUSW0            ; reg1: 0x00a, reg2: 0xfeb
000aac:  ffeb
000aae:  0e1b  movlw   0x1b
000ab0:  2427  addwf   (Common_RAM + 39), W, A              ; reg: 0x027
000ab2:  eccb  call    function_010, 0x0                    ; dest: 0x000196
000ab4:  f000
000ab6:  6e0a  movwf   (Common_RAM + 10), A                 ; reg: 0x00a
000ab8:  ee00  lfsr    0x0, 0x0d9
000aba:  f0d9
000abc:  5027  movf    (Common_RAM + 39), W, A              ; reg: 0x027
000abe:  c00a  movff   (Common_RAM + 10), PLUSW0            ; reg1: 0x00a, reg2: 0xfeb
000ac0:  ffeb
000ac2:  0e21  movlw   0x21
000ac4:  2427  addwf   (Common_RAM + 39), W, A              ; reg: 0x027
000ac6:  eccb  call    function_010, 0x0                    ; dest: 0x000196
000ac8:  f000
000aca:  6e0a  movwf   (Common_RAM + 10), A                 ; reg: 0x00a
000acc:  ee00  lfsr    0x0, 0x0df
000ace:  f0df
000ad0:  5027  movf    (Common_RAM + 39), W, A              ; reg: 0x027
000ad2:  c00a  movff   (Common_RAM + 10), PLUSW0            ; reg1: 0x00a, reg2: 0xfeb
000ad4:  ffeb
000ad6:  0e27  movlw   0x27
000ad8:  2427  addwf   (Common_RAM + 39), W, A              ; reg: 0x027
000ada:  eccb  call    function_010, 0x0                    ; dest: 0x000196
000adc:  f000
000ade:  6e0a  movwf   (Common_RAM + 10), A                 ; reg: 0x00a
000ae0:  ee00  lfsr    0x0, 0x0e5
000ae2:  f0e5
000ae4:  5027  movf    (Common_RAM + 39), W, A              ; reg: 0x027
000ae6:  c00a  movff   (Common_RAM + 10), PLUSW0            ; reg1: 0x00a, reg2: 0xfeb
000ae8:  ffeb
000aea:  2a27  incf    (Common_RAM + 39), F, A              ; reg: 0x027
000aec:  a4d8  skpz
000aee:  d7b3  bra     label_137                            ; dest: 0x000a56

label_138:                                                  ; address: 0x000af0

000af0:  0e73  movlw   0x73
000af2:  eccb  call    function_010, 0x0                    ; dest: 0x000196
000af4:  f000
000af6:  6feb  movwf   0xeb, B                              ; reg: 0x0eb
000af8:  0e05  movlw   0x05
000afa:  5deb  subwf   0xeb, W, B                           ; reg: 0x0eb
000afc:  a0d8  skpc
000afe:  ef83  goto    label_139                            ; dest: 0x000b06
000b00:  f005
000b02:  0e01  movlw   0x01
000b04:  6feb  movwf   0xeb, B                              ; reg: 0x0eb

label_139:                                                  ; address: 0x000b06

000b06:  ecac  call    function_048, 0x0                    ; dest: 0x001558
000b08:  f00a
000b0a:  0012  return  0x0

function_027:                                               ; address: 0x000b0c

000b0c:  0eb0  movlw   0xb0
000b0e:  2433  addwf   (Common_RAM + 51), W, A              ; reg: 0x033
000b10:  6e27  movwf   (Common_RAM + 39), A                 ; reg: 0x027
000b12:  ecf1  call    function_020, 0x0                    ; dest: 0x0005e2
000b14:  f002
000b16:  c034  movff   (Common_RAM + 52), (Common_RAM + 39) ; reg1: 0x034, reg2: 0x027
000b18:  f027
000b1a:  ecf1  call    function_020, 0x0                    ; dest: 0x0005e2
000b1c:  f002
000b1e:  c035  movff   (Common_RAM + 53), (Common_RAM + 39) ; reg1: 0x035, reg2: 0x027
000b20:  f027
000b22:  ecf1  call    function_020, 0x0                    ; dest: 0x0005e2
000b24:  f002
000b26:  6b9f  clrf    0x9f, B                              ; reg: 0x09f
000b28:  6ba0  clrf    0xa0, B                              ; reg: 0x0a0
000b2a:  0012  return  0x0

function_028:                                               ; address: 0x000b2c

000b2c:  6a28  clrf    (Common_RAM + 40), A                 ; reg: 0x028

label_140:                                                  ; address: 0x000b2e

000b2e:  0e06  movlw   0x06
000b30:  6028  cpfslt  (Common_RAM + 40), A                 ; reg: 0x028
000b32:  efc1  goto    label_141                            ; dest: 0x000b82
000b34:  f005
000b36:  ece4  call    function_030, 0x0                    ; dest: 0x000bc8
000b38:  f005
000b3a:  0e02  movlw   0x02
000b3c:  ecde  call    function_012, 0x0                    ; dest: 0x0001bc
000b3e:  f000
000b40:  ecef  call    function_031, 0x0                    ; dest: 0x000bde
000b42:  f005
000b44:  0e02  movlw   0x02
000b46:  ecde  call    function_012, 0x0                    ; dest: 0x0001bc
000b48:  f000
000b4a:  ecfa  call    function_032, 0x0                    ; dest: 0x000bf4
000b4c:  f005
000b4e:  0e02  movlw   0x02
000b50:  ecde  call    function_012, 0x0                    ; dest: 0x0001bc
000b52:  f000
000b54:  ec05  call    function_033, 0x0                    ; dest: 0x000c0a
000b56:  f006
000b58:  0e02  movlw   0x02
000b5a:  ecde  call    function_012, 0x0                    ; dest: 0x0001bc
000b5c:  f000
000b5e:  ec10  call    function_034, 0x0                    ; dest: 0x000c20
000b60:  f006
000b62:  0e02  movlw   0x02
000b64:  ecde  call    function_012, 0x0                    ; dest: 0x0001bc
000b66:  f000
000b68:  ec1b  call    function_035, 0x0                    ; dest: 0x000c36
000b6a:  f006
000b6c:  0e02  movlw   0x02
000b6e:  ecde  call    function_012, 0x0                    ; dest: 0x0001bc
000b70:  f000
000b72:  ec26  call    function_036, 0x0                    ; dest: 0x000c4c
000b74:  f006
000b76:  0e02  movlw   0x02
000b78:  ecde  call    function_012, 0x0                    ; dest: 0x0001bc
000b7a:  f000
000b7c:  2a28  incf    (Common_RAM + 40), F, A              ; reg: 0x028
000b7e:  a4d8  skpz
000b80:  d7d6  bra     label_140                            ; dest: 0x000b2e

label_141:                                                  ; address: 0x000b82

000b82:  ec46  call    function_038, 0x0                    ; dest: 0x000c8c
000b84:  f006
000b86:  0e05  movlw   0x05
000b88:  ecde  call    function_012, 0x0                    ; dest: 0x0001bc
000b8a:  f000
000b8c:  ec37  call    function_037, 0x0                    ; dest: 0x000c6e
000b8e:  f006
000b90:  0e05  movlw   0x05
000b92:  ecde  call    function_012, 0x0                    ; dest: 0x0001bc
000b94:  f000
000b96:  ec64  call    function_040, 0x0                    ; dest: 0x000cc8
000b98:  f006
000b9a:  0e05  movlw   0x05
000b9c:  ecde  call    function_012, 0x0                    ; dest: 0x0001bc
000b9e:  f000
000ba0:  ec55  call    function_039, 0x0                    ; dest: 0x000caa
000ba2:  f006
000ba4:  0e05  movlw   0x05
000ba6:  ecde  call    function_012, 0x0                    ; dest: 0x0001bc
000ba8:  f000
000baa:  ec72  call    function_041, 0x0                    ; dest: 0x000ce4
000bac:  f006
000bae:  0012  return  0x0

function_029:                                               ; address: 0x000bb0

000bb0:  0eb1  movlw   0xb1
000bb2:  6e27  movwf   (Common_RAM + 39), A                 ; reg: 0x027
000bb4:  ecf1  call    function_020, 0x0                    ; dest: 0x0005e2
000bb6:  f002
000bb8:  0e04  movlw   0x04
000bba:  6e27  movwf   (Common_RAM + 39), A                 ; reg: 0x027
000bbc:  ecf1  call    function_020, 0x0                    ; dest: 0x0005e2
000bbe:  f002
000bc0:  6a27  clrf    (Common_RAM + 39), A                 ; reg: 0x027
000bc2:  ecf1  call    function_020, 0x0                    ; dest: 0x0005e2
000bc4:  f002
000bc6:  0012  return  0x0

function_030:                                               ; address: 0x000bc8

000bc8:  2828  incf    (Common_RAM + 40), W, A              ; reg: 0x028
000bca:  6e33  movwf   (Common_RAM + 51), A                 ; reg: 0x033
000bcc:  0e17  movlw   0x17
000bce:  6e34  movwf   (Common_RAM + 52), A                 ; reg: 0x034
000bd0:  ee00  lfsr    0x0, 0x0c1
000bd2:  f0c1
000bd4:  5028  movf    (Common_RAM + 40), W, A              ; reg: 0x028
000bd6:  50eb  movf    PLUSW0, W, A                         ; reg: 0xfeb
000bd8:  6e35  movwf   (Common_RAM + 53), A                 ; reg: 0x035
000bda:  df98  rcall   function_027                         ; dest: 0x000b0c
000bdc:  0012  return  0x0

function_031:                                               ; address: 0x000bde

000bde:  2828  incf    (Common_RAM + 40), W, A              ; reg: 0x028
000be0:  6e33  movwf   (Common_RAM + 51), A                 ; reg: 0x033
000be2:  0e18  movlw   0x18
000be4:  6e34  movwf   (Common_RAM + 52), A                 ; reg: 0x034
000be6:  ee00  lfsr    0x0, 0x0c7
000be8:  f0c7
000bea:  5028  movf    (Common_RAM + 40), W, A              ; reg: 0x028
000bec:  50eb  movf    PLUSW0, W, A                         ; reg: 0xfeb
000bee:  6e35  movwf   (Common_RAM + 53), A                 ; reg: 0x035
000bf0:  df8d  rcall   function_027                         ; dest: 0x000b0c
000bf2:  0012  return  0x0

function_032:                                               ; address: 0x000bf4

000bf4:  2828  incf    (Common_RAM + 40), W, A              ; reg: 0x028
000bf6:  6e33  movwf   (Common_RAM + 51), A                 ; reg: 0x033
000bf8:  0e19  movlw   0x19
000bfa:  6e34  movwf   (Common_RAM + 52), A                 ; reg: 0x034
000bfc:  ee00  lfsr    0x0, 0x0cd
000bfe:  f0cd
000c00:  5028  movf    (Common_RAM + 40), W, A              ; reg: 0x028
000c02:  50eb  movf    PLUSW0, W, A                         ; reg: 0xfeb
000c04:  6e35  movwf   (Common_RAM + 53), A                 ; reg: 0x035
000c06:  df82  rcall   function_027                         ; dest: 0x000b0c
000c08:  0012  return  0x0

function_033:                                               ; address: 0x000c0a

000c0a:  2828  incf    (Common_RAM + 40), W, A              ; reg: 0x028
000c0c:  6e33  movwf   (Common_RAM + 51), A                 ; reg: 0x033
000c0e:  0e1a  movlw   0x1a
000c10:  6e34  movwf   (Common_RAM + 52), A                 ; reg: 0x034
000c12:  ee00  lfsr    0x0, 0x0d3
000c14:  f0d3
000c16:  5028  movf    (Common_RAM + 40), W, A              ; reg: 0x028
000c18:  50eb  movf    PLUSW0, W, A                         ; reg: 0xfeb
000c1a:  6e35  movwf   (Common_RAM + 53), A                 ; reg: 0x035
000c1c:  df77  rcall   function_027                         ; dest: 0x000b0c
000c1e:  0012  return  0x0

function_034:                                               ; address: 0x000c20

000c20:  2828  incf    (Common_RAM + 40), W, A              ; reg: 0x028
000c22:  6e33  movwf   (Common_RAM + 51), A                 ; reg: 0x033
000c24:  0e1b  movlw   0x1b
000c26:  6e34  movwf   (Common_RAM + 52), A                 ; reg: 0x034
000c28:  ee00  lfsr    0x0, 0x0d9
000c2a:  f0d9
000c2c:  5028  movf    (Common_RAM + 40), W, A              ; reg: 0x028
000c2e:  50eb  movf    PLUSW0, W, A                         ; reg: 0xfeb
000c30:  6e35  movwf   (Common_RAM + 53), A                 ; reg: 0x035
000c32:  df6c  rcall   function_027                         ; dest: 0x000b0c
000c34:  0012  return  0x0

function_035:                                               ; address: 0x000c36

000c36:  2828  incf    (Common_RAM + 40), W, A              ; reg: 0x028
000c38:  6e33  movwf   (Common_RAM + 51), A                 ; reg: 0x033
000c3a:  0e1c  movlw   0x1c
000c3c:  6e34  movwf   (Common_RAM + 52), A                 ; reg: 0x034
000c3e:  ee00  lfsr    0x0, 0x0df
000c40:  f0df
000c42:  5028  movf    (Common_RAM + 40), W, A              ; reg: 0x028
000c44:  50eb  movf    PLUSW0, W, A                         ; reg: 0xfeb
000c46:  6e35  movwf   (Common_RAM + 53), A                 ; reg: 0x035
000c48:  df61  rcall   function_027                         ; dest: 0x000b0c
000c4a:  0012  return  0x0

function_036:                                               ; address: 0x000c4c

000c4c:  2828  incf    (Common_RAM + 40), W, A              ; reg: 0x028
000c4e:  6e33  movwf   (Common_RAM + 51), A                 ; reg: 0x033
000c50:  0e1e  movlw   0x1e
000c52:  6e34  movwf   (Common_RAM + 52), A                 ; reg: 0x034
000c54:  ee00  lfsr    0x0, 0x0e5
000c56:  f0e5
000c58:  5028  movf    (Common_RAM + 40), W, A              ; reg: 0x028
000c5a:  50eb  movf    PLUSW0, W, A                         ; reg: 0xfeb
000c5c:  6e35  movwf   (Common_RAM + 53), A                 ; reg: 0x035
000c5e:  5235  movf    (Common_RAM + 53), F, A              ; reg: 0x035
000c60:  a4d8  skpz
000c62:  ef35  goto    label_142                            ; dest: 0x000c6a
000c64:  f006
000c66:  0e03  movlw   0x03
000c68:  6e35  movwf   (Common_RAM + 53), A                 ; reg: 0x035

label_142:                                                  ; address: 0x000c6a

000c6a:  df50  rcall   function_027                         ; dest: 0x000b0c
000c6c:  0012  return  0x0

function_037:                                               ; address: 0x000c6e

000c6e:  0eb0  movlw   0xb0
000c70:  6e27  movwf   (Common_RAM + 39), A                 ; reg: 0x027
000c72:  ecf1  call    function_020, 0x0                    ; dest: 0x0005e2
000c74:  f002
000c76:  0e06  movlw   0x06
000c78:  6e27  movwf   (Common_RAM + 39), A                 ; reg: 0x027
000c7a:  ecf1  call    function_020, 0x0                    ; dest: 0x0005e2
000c7c:  f002
000c7e:  c0b8  movff   0x0b8, (Common_RAM + 39)             ; reg2: 0x027
000c80:  f027
000c82:  ecf1  call    function_020, 0x0                    ; dest: 0x0005e2
000c84:  f002
000c86:  6b9f  clrf    0x9f, B                              ; reg: 0x09f
000c88:  6ba0  clrf    0xa0, B                              ; reg: 0x0a0
000c8a:  0012  return  0x0

function_038:                                               ; address: 0x000c8c

000c8c:  0eb0  movlw   0xb0
000c8e:  6e27  movwf   (Common_RAM + 39), A                 ; reg: 0x027
000c90:  ecf1  call    function_020, 0x0                    ; dest: 0x0005e2
000c92:  f002
000c94:  0e07  movlw   0x07
000c96:  6e27  movwf   (Common_RAM + 39), A                 ; reg: 0x027
000c98:  ecf1  call    function_020, 0x0                    ; dest: 0x0005e2
000c9a:  f002
000c9c:  c0b9  movff   0x0b9, (Common_RAM + 39)             ; reg2: 0x027
000c9e:  f027
000ca0:  ecf1  call    function_020, 0x0                    ; dest: 0x0005e2
000ca2:  f002
000ca4:  6b9f  clrf    0x9f, B                              ; reg: 0x09f
000ca6:  6ba0  clrf    0xa0, B                              ; reg: 0x0a0
000ca8:  0012  return  0x0

function_039:                                               ; address: 0x000caa

000caa:  0eb0  movlw   0xb0
000cac:  6e27  movwf   (Common_RAM + 39), A                 ; reg: 0x027
000cae:  ecf1  call    function_020, 0x0                    ; dest: 0x0005e2
000cb0:  f002
000cb2:  0e1d  movlw   0x1d
000cb4:  6e27  movwf   (Common_RAM + 39), A                 ; reg: 0x027
000cb6:  ecf1  call    function_020, 0x0                    ; dest: 0x0005e2
000cb8:  f002
000cba:  c0a7  movff   0x0a7, (Common_RAM + 39)             ; reg2: 0x027
000cbc:  f027
000cbe:  ecf1  call    function_020, 0x0                    ; dest: 0x0005e2
000cc0:  f002
000cc2:  6b9f  clrf    0x9f, B                              ; reg: 0x09f
000cc4:  6ba0  clrf    0xa0, B                              ; reg: 0x0a0
000cc6:  0012  return  0x0

function_040:                                               ; address: 0x000cc8

000cc8:  6a33  clrf    (Common_RAM + 51), A                 ; reg: 0x033
000cca:  0e03  movlw   0x03
000ccc:  6e34  movwf   (Common_RAM + 52), A                 ; reg: 0x034
000cce:  aa1f  btfss   (Common_RAM + 31), 0x5, A            ; reg: 0x01f
000cd0:  ef6e  goto    label_143                            ; dest: 0x000cdc
000cd2:  f006
000cd4:  0e02  movlw   0x02
000cd6:  6e35  movwf   (Common_RAM + 53), A                 ; reg: 0x035
000cd8:  ef70  goto    label_144                            ; dest: 0x000ce0
000cda:  f006

label_143:                                                  ; address: 0x000cdc

000cdc:  0e03  movlw   0x03
000cde:  6e35  movwf   (Common_RAM + 53), A                 ; reg: 0x035

label_144:                                                  ; address: 0x000ce0

000ce0:  df15  rcall   function_027                         ; dest: 0x000b0c
000ce2:  0012  return  0x0

function_041:                                               ; address: 0x000ce4

000ce4:  6a33  clrf    (Common_RAM + 51), A                 ; reg: 0x033
000ce6:  0e03  movlw   0x03
000ce8:  6e34  movwf   (Common_RAM + 52), A                 ; reg: 0x034
000cea:  b21f  btfsc   (Common_RAM + 31), 0x1, A            ; reg: 0x01f
000cec:  ef7b  goto    label_145                            ; dest: 0x000cf6
000cee:  f006
000cf0:  6a35  clrf    (Common_RAM + 53), A                 ; reg: 0x035
000cf2:  ef7d  goto    label_146                            ; dest: 0x000cfa
000cf4:  f006

label_145:                                                  ; address: 0x000cf6

000cf6:  0e01  movlw   0x01
000cf8:  6e35  movwf   (Common_RAM + 53), A                 ; reg: 0x035

label_146:                                                  ; address: 0x000cfa

000cfa:  df08  rcall   function_027                         ; dest: 0x000b0c
000cfc:  0012  return  0x0

function_042:                                               ; address: 0x000cfe

000cfe:  86f2  bsf     INTCON, RBIE, A                      ; reg: 0xff2, bit: 3

label_147:                                                  ; address: 0x000d00

000d00:  ec51  call    function_023, 0x0                    ; dest: 0x0008a2
000d02:  f004
000d04:  ec25  call    function_019, 0x0                    ; dest: 0x00044a
000d06:  f002
000d08:  519e  movf    0x9e, W, B                           ; reg: 0x09e
000d0a:  0aea  xorlw   0xea
000d0c:  0e60  movlw   0x60
000d0e:  b4d8  skpnz
000d10:  199d  xorwf   0x9d, W, B                           ; reg: 0x09d
000d12:  a4d8  skpz
000d14:  ef8d  goto    label_148                            ; dest: 0x000d1a
000d16:  f006
000d18:  de36  rcall   function_025                         ; dest: 0x000986

label_148:                                                  ; address: 0x000d1a

000d1a:  0e61  movlw   0x61
000d1c:  5d9d  subwf   0x9d, W, B                           ; reg: 0x09d
000d1e:  0eea  movlw   0xea
000d20:  599e  subwfb  0x9e, W, B                           ; reg: 0x09e
000d22:  b0d8  skpnc
000d24:  ef96  goto    label_149                            ; dest: 0x000d2c
000d26:  f006
000d28:  4b9d  infsnz  0x9d, F, B                           ; reg: 0x09d
000d2a:  2b9e  incf    0x9e, F, B                           ; reg: 0x09e

label_149:                                                  ; address: 0x000d2c

000d2c:  ec0d  call    function_043, 0x0                    ; dest: 0x000e1a
000d2e:  f007
000d30:  51a0  movf    0xa0, W, B                           ; reg: 0x0a0
000d32:  0a4e  xorlw   0x4e
000d34:  0e20  movlw   0x20
000d36:  b4d8  skpnz
000d38:  199f  xorwf   0x9f, W, B                           ; reg: 0x09f
000d3a:  a4d8  skpz
000d3c:  efa5  goto    label_150                            ; dest: 0x000d4a
000d3e:  f006
000d40:  def5  rcall   function_028                         ; dest: 0x000b2c
000d42:  6b9f  clrf    0x9f, B                              ; reg: 0x09f
000d44:  6ba0  clrf    0xa0, B                              ; reg: 0x0a0
000d46:  efa7  goto    label_151                            ; dest: 0x000d4e
000d48:  f006

label_150:                                                  ; address: 0x000d4a

000d4a:  4b9f  infsnz  0x9f, F, B                           ; reg: 0x09f
000d4c:  2ba0  incf    0xa0, F, B                           ; reg: 0x0a0

label_151:                                                  ; address: 0x000d4e

000d4e:  b21f  btfsc   (Common_RAM + 31), 0x1, A            ; reg: 0x01f
000d50:  efae  goto    label_152                            ; dest: 0x000d5c
000d52:  f006
000d54:  9294  bcf     TRISC, RC1, A                        ; reg: 0xf94, bit: 1
000d56:  928b  bcf     LATC, LATC1, A                       ; reg: 0xf8b, bit: 1
000d58:  efe3  goto    label_159                            ; dest: 0x000dc6
000d5a:  f006

label_152:                                                  ; address: 0x000d5c

000d5c:  53eb  movf    0xeb, F, B                           ; reg: 0x0eb
000d5e:  b4d8  skpnz
000d60:  efe1  goto    label_158                            ; dest: 0x000dc2
000d62:  f006
000d64:  51ec  movf    0xec, W, B                           ; reg: 0x0ec
000d66:  5db0  subwf   0xb0, W, B                           ; reg: 0x0b0
000d68:  51ed  movf    0xed, W, B                           ; reg: 0x0ed
000d6a:  59b1  subwfb  0xb1, W, B                           ; reg: 0x0b1
000d6c:  51ee  movf    0xee, W, B                           ; reg: 0x0ee
000d6e:  59b2  subwfb  0xb2, W, B                           ; reg: 0x0b2
000d70:  51ef  movf    0xef, W, B                           ; reg: 0x0ef
000d72:  59b3  subwfb  0xb3, W, B                           ; reg: 0x0b3
000d74:  51b3  movf    0xb3, W, B                           ; reg: 0x0b3
000d76:  19ef  xorwf   0xef, W, B                           ; reg: 0x0ef
000d78:  b0d8  skpnc
000d7a:  0a80  xorlw   0x80
000d7c:  a8d8  skpn
000d7e:  efc5  goto    label_153                            ; dest: 0x000d8a
000d80:  f006
000d82:  9294  bcf     TRISC, RC1, A                        ; reg: 0xf94, bit: 1
000d84:  928b  bcf     LATC, LATC1, A                       ; reg: 0xf8b, bit: 1
000d86:  efdf  goto    label_157                            ; dest: 0x000dbe
000d88:  f006

label_153:                                                  ; address: 0x000d8a

000d8a:  aa1f  btfss   (Common_RAM + 31), 0x5, A            ; reg: 0x01f
000d8c:  efd8  goto    label_155                            ; dest: 0x000db0
000d8e:  f006
000d90:  4bb4  infsnz  0xb4, F, B                           ; reg: 0x0b4
000d92:  2bb5  incf    0xb5, F, B                           ; reg: 0x0b5
000d94:  51b5  movf    0xb5, W, B                           ; reg: 0x0b5
000d96:  0a75  xorlw   0x75
000d98:  0e30  movlw   0x30
000d9a:  b4d8  skpnz
000d9c:  19b4  xorwf   0xb4, W, B                           ; reg: 0x0b4
000d9e:  a4d8  skpz
000da0:  efd6  goto    label_154                            ; dest: 0x000dac
000da2:  f006
000da4:  7282  btg     PORTC, RC1, A                        ; reg: 0xf82, bit: 1
000da6:  9294  bcf     TRISC, RC1, A                        ; reg: 0xf94, bit: 1
000da8:  6bb4  clrf    0xb4, B                              ; reg: 0x0b4
000daa:  6bb5  clrf    0xb5, B                              ; reg: 0x0b5

label_154:                                                  ; address: 0x000dac

000dac:  efda  goto    label_156                            ; dest: 0x000db4
000dae:  f006

label_155:                                                  ; address: 0x000db0

000db0:  9294  bcf     TRISC, RC1, A                        ; reg: 0xf94, bit: 1
000db2:  828b  bsf     LATC, LATC1, A                       ; reg: 0xf8b, bit: 1

label_156:                                                  ; address: 0x000db4

000db4:  2bb0  incf    0xb0, F, B                           ; reg: 0x0b0
000db6:  0e00  movlw   0x00
000db8:  23b1  addwfc  0xb1, F, B                           ; reg: 0x0b1
000dba:  23b2  addwfc  0xb2, F, B                           ; reg: 0x0b2
000dbc:  23b3  addwfc  0xb3, F, B                           ; reg: 0x0b3

label_157:                                                  ; address: 0x000dbe

000dbe:  efe3  goto    label_159                            ; dest: 0x000dc6
000dc0:  f006

label_158:                                                  ; address: 0x000dc2

000dc2:  9294  bcf     TRISC, RC1, A                        ; reg: 0xf94, bit: 1
000dc4:  828b  bsf     LATC, LATC1, A                       ; reg: 0xf8b, bit: 1

label_159:                                                  ; address: 0x000dc6

000dc6:  0e00  movlw   0x00
000dc8:  539a  movf    0x9a, F, B                           ; reg: 0x09a
000dca:  a4d8  skpz
000dcc:  0e01  movlw   0x01
000dce:  6e18  movwf   (Common_RAM + 24), A                 ; reg: 0x018
000dd0:  6ae8  clrw
000dd2:  b61f  btfsc   (Common_RAM + 31), 0x3, A            ; reg: 0x01f
000dd4:  0e01  movlw   0x01
000dd6:  1218  iorwf   (Common_RAM + 24), F, A              ; reg: 0x018
000dd8:  b4d8  skpnz
000dda:  d792  bra     label_147                            ; dest: 0x000d00
000ddc:  0e00  movlw   0x00
000dde:  539a  movf    0x9a, F, B                           ; reg: 0x09a
000de0:  a4d8  skpz
000de2:  0e01  movlw   0x01
000de4:  6e18  movwf   (Common_RAM + 24), A                 ; reg: 0x018
000de6:  6ae8  clrw
000de8:  b81f  btfsc   (Common_RAM + 31), 0x4, A            ; reg: 0x01f
000dea:  0e01  movlw   0x01
000dec:  1218  iorwf   (Common_RAM + 24), F, A              ; reg: 0x018
000dee:  b4d8  skpnz
000df0:  effe  goto    label_160                            ; dest: 0x000dfc
000df2:  f006
000df4:  6bb3  clrf    0xb3, B                              ; reg: 0x0b3
000df6:  6bb2  clrf    0xb2, B                              ; reg: 0x0b2
000df8:  6bb1  clrf    0xb1, B                              ; reg: 0x0b1
000dfa:  6bb0  clrf    0xb0, B                              ; reg: 0x0b0

label_160:                                                  ; address: 0x000dfc

000dfc:  981f  bcf     (Common_RAM + 31), 0x4, A            ; reg: 0x01f
000dfe:  319a  rrcf    0x9a, W, B                           ; reg: 0x09a
000e00:  a0d8  skpc
000e02:  ef0a  goto    label_161                            ; dest: 0x000e14
000e04:  f007
000e06:  96d8  clrov
000e08:  a19a  btfss   0x9a, 0x0, B                         ; reg: 0x09a
000e0a:  86d8  setov
000e0c:  b6d8  skpnov
000e0e:  ef0a  goto    label_161                            ; dest: 0x000e14
000e10:  f007
000e12:  721f  btg     (Common_RAM + 31), 0x1, A            ; reg: 0x01f

label_161:                                                  ; address: 0x000e14

000e14:  6b9d  clrf    0x9d, B                              ; reg: 0x09d
000e16:  6b9e  clrf    0x9e, B                              ; reg: 0x09e
000e18:  0012  return  0x0

function_043:                                               ; address: 0x000e1a

000e1a:  521b  movf    (Common_RAM + 27), F, A              ; reg: 0x01b
000e1c:  a4d8  skpz
000e1e:  ef15  goto    label_162                            ; dest: 0x000e2a
000e20:  f007
000e22:  521c  movf    (Common_RAM + 28), F, A              ; reg: 0x01c
000e24:  b4d8  skpnz
000e26:  ef18  goto    label_163                            ; dest: 0x000e30
000e28:  f007

label_162:                                                  ; address: 0x000e2a

000e2a:  061b  decf    (Common_RAM + 27), F, A              ; reg: 0x01b
000e2c:  0e00  movlw   0x00
000e2e:  5a1c  subwfb  (Common_RAM + 28), F, A              ; reg: 0x01c

label_163:                                                  ; address: 0x000e30

000e30:  a01f  btfss   (Common_RAM + 31), 0x0, A            ; reg: 0x01f
000e32:  ef1c  goto    label_164                            ; dest: 0x000e38
000e34:  f007
000e36:  0012  return  0x0

label_164:                                                  ; address: 0x000e38

000e38:  501e  movf    (Common_RAM + 30), W, A              ; reg: 0x01e
000e3a:  6220  cpfseq  (Common_RAM + 32), A                 ; reg: 0x020
000e3c:  efcb  goto    label_185                            ; dest: 0x000f96
000e3e:  f007
000e40:  501d  movf    (Common_RAM + 29), W, A              ; reg: 0x01d
000e42:  6221  cpfseq  (Common_RAM + 33), A                 ; reg: 0x021
000e44:  ef2c  goto    label_165                            ; dest: 0x000e58
000e46:  f007
000e48:  0e50  movlw   0x50
000e4a:  6e1b  movwf   (Common_RAM + 27), A                 ; reg: 0x01b
000e4c:  0ec3  movlw   0xc3
000e4e:  6e1c  movwf   (Common_RAM + 28), A                 ; reg: 0x01c
000e50:  721f  btg     (Common_RAM + 31), 0x1, A            ; reg: 0x01f
000e52:  861f  bsf     (Common_RAM + 31), 0x3, A            ; reg: 0x01f
000e54:  efcb  goto    label_185                            ; dest: 0x000f96
000e56:  f007

label_165:                                                  ; address: 0x000e58

000e58:  501d  movf    (Common_RAM + 29), W, A              ; reg: 0x01d
000e5a:  6222  cpfseq  (Common_RAM + 34), A                 ; reg: 0x022
000e5c:  ef3f  goto    label_167                            ; dest: 0x000e7e
000e5e:  f007
000e60:  0ed0  movlw   0xd0
000e62:  6e1b  movwf   (Common_RAM + 27), A                 ; reg: 0x01b
000e64:  0e07  movlw   0x07
000e66:  6e1c  movwf   (Common_RAM + 28), A                 ; reg: 0x01c
000e68:  0e72  movlw   0x72
000e6a:  61b9  cpfslt  0xb9, B                              ; reg: 0x0b9
000e6c:  ef3d  goto    label_166                            ; dest: 0x000e7a
000e6e:  f007
000e70:  2bb9  incf    0xb9, F, B                           ; reg: 0x0b9
000e72:  9a1f  bcf     (Common_RAM + 31), 0x5, A            ; reg: 0x01f
000e74:  df0b  rcall   function_038                         ; dest: 0x000c8c
000e76:  861f  bsf     (Common_RAM + 31), 0x3, A            ; reg: 0x01f
000e78:  881f  bsf     (Common_RAM + 31), 0x4, A            ; reg: 0x01f

label_166:                                                  ; address: 0x000e7a

000e7a:  efcb  goto    label_185                            ; dest: 0x000f96
000e7c:  f007

label_167:                                                  ; address: 0x000e7e

000e7e:  501d  movf    (Common_RAM + 29), W, A              ; reg: 0x01d
000e80:  6223  cpfseq  (Common_RAM + 35), A                 ; reg: 0x023
000e82:  ef52  goto    label_169                            ; dest: 0x000ea4
000e84:  f007
000e86:  0ed0  movlw   0xd0
000e88:  6e1b  movwf   (Common_RAM + 27), A                 ; reg: 0x01b
000e8a:  0e07  movlw   0x07
000e8c:  6e1c  movwf   (Common_RAM + 28), A                 ; reg: 0x01c
000e8e:  53b9  movf    0xb9, F, B                           ; reg: 0x0b9
000e90:  b4d8  skpnz
000e92:  ef50  goto    label_168                            ; dest: 0x000ea0
000e94:  f007
000e96:  07b9  decf    0xb9, F, B                           ; reg: 0x0b9
000e98:  9a1f  bcf     (Common_RAM + 31), 0x5, A            ; reg: 0x01f
000e9a:  def8  rcall   function_038                         ; dest: 0x000c8c
000e9c:  861f  bsf     (Common_RAM + 31), 0x3, A            ; reg: 0x01f
000e9e:  881f  bsf     (Common_RAM + 31), 0x4, A            ; reg: 0x01f

label_168:                                                  ; address: 0x000ea0

000ea0:  efcb  goto    label_185                            ; dest: 0x000f96
000ea2:  f007

label_169:                                                  ; address: 0x000ea4

000ea4:  501d  movf    (Common_RAM + 29), W, A              ; reg: 0x01d
000ea6:  6226  cpfseq  (Common_RAM + 38), A                 ; reg: 0x026
000ea8:  ef63  goto    label_170                            ; dest: 0x000ec6
000eaa:  f007
000eac:  0e2f  movlw   0x2f
000eae:  6fb4  movwf   0xb4, B                              ; reg: 0x0b4
000eb0:  0e75  movlw   0x75
000eb2:  6fb5  movwf   0xb5, B                              ; reg: 0x0b5
000eb4:  7a1f  btg     (Common_RAM + 31), 0x5, A            ; reg: 0x01f
000eb6:  0e20  movlw   0x20
000eb8:  6e1b  movwf   (Common_RAM + 27), A                 ; reg: 0x01b
000eba:  0e4e  movlw   0x4e
000ebc:  6e1c  movwf   (Common_RAM + 28), A                 ; reg: 0x01c
000ebe:  861f  bsf     (Common_RAM + 31), 0x3, A            ; reg: 0x01f
000ec0:  df03  rcall   function_040                         ; dest: 0x000cc8
000ec2:  efcb  goto    label_185                            ; dest: 0x000f96
000ec4:  f007

label_170:                                                  ; address: 0x000ec6

000ec6:  501d  movf    (Common_RAM + 29), W, A              ; reg: 0x01d
000ec8:  6225  cpfseq  (Common_RAM + 37), A                 ; reg: 0x025
000eca:  ef97  goto    label_177                            ; dest: 0x000f2e
000ecc:  f007
000ece:  53a1  movf    0xa1, F, B                           ; reg: 0x0a1
000ed0:  a4d8  skpz
000ed2:  ef6f  goto    label_171                            ; dest: 0x000ede
000ed4:  f007
000ed6:  0e05  movlw   0x05
000ed8:  6e27  movwf   (Common_RAM + 39), A                 ; reg: 0x027
000eda:  ef84  goto    label_174                            ; dest: 0x000f08
000edc:  f007

label_171:                                                  ; address: 0x000ede

000ede:  2da1  decfsz  0xa1, W, B                           ; reg: 0x0a1
000ee0:  ef76  goto    label_172                            ; dest: 0x000eec
000ee2:  f007
000ee4:  0e06  movlw   0x06
000ee6:  6e27  movwf   (Common_RAM + 39), A                 ; reg: 0x027
000ee8:  ef84  goto    label_174                            ; dest: 0x000f08
000eea:  f007

label_172:                                                  ; address: 0x000eec

000eec:  0e02  movlw   0x02
000eee:  63a1  cpfseq  0xa1, B                              ; reg: 0x0a1
000ef0:  ef7e  goto    label_173                            ; dest: 0x000efc
000ef2:  f007
000ef4:  0e07  movlw   0x07
000ef6:  6e27  movwf   (Common_RAM + 39), A                 ; reg: 0x027
000ef8:  ef84  goto    label_174                            ; dest: 0x000f08
000efa:  f007

label_173:                                                  ; address: 0x000efc

000efc:  0e03  movlw   0x03
000efe:  63a1  cpfseq  0xa1, B                              ; reg: 0x0a1
000f00:  ef84  goto    label_174                            ; dest: 0x000f08
000f02:  f007
000f04:  0e08  movlw   0x08
000f06:  6e27  movwf   (Common_RAM + 39), A                 ; reg: 0x027

label_174:                                                  ; address: 0x000f08

000f08:  53b7  movf    0xb7, F, B                           ; reg: 0x0b7
000f0a:  b4d8  skpnz
000f0c:  ef8b  goto    label_175                            ; dest: 0x000f16
000f0e:  f007
000f10:  07b7  decf    0xb7, F, B                           ; reg: 0x0b7
000f12:  ef8d  goto    label_176                            ; dest: 0x000f1a
000f14:  f007

label_175:                                                  ; address: 0x000f16

000f16:  c027  movff   (Common_RAM + 39), 0x0b7             ; reg1: 0x027
000f18:  f0b7

label_176:                                                  ; address: 0x000f1a

000f1a:  861f  bsf     (Common_RAM + 31), 0x3, A            ; reg: 0x01f
000f1c:  0e58  movlw   0x58
000f1e:  6e1b  movwf   (Common_RAM + 27), A                 ; reg: 0x01b
000f20:  0e1b  movlw   0x1b
000f22:  6e1c  movwf   (Common_RAM + 28), A                 ; reg: 0x01c
000f24:  ecb0  call    function_022, 0x0                    ; dest: 0x000760
000f26:  f003
000f28:  dea2  rcall   function_037                         ; dest: 0x000c6e
000f2a:  efcb  goto    label_185                            ; dest: 0x000f96
000f2c:  f007

label_177:                                                  ; address: 0x000f2e

000f2e:  501d  movf    (Common_RAM + 29), W, A              ; reg: 0x01d
000f30:  6224  cpfseq  (Common_RAM + 36), A                 ; reg: 0x024
000f32:  efca  goto    label_184                            ; dest: 0x000f94
000f34:  f007
000f36:  53a1  movf    0xa1, F, B                           ; reg: 0x0a1
000f38:  a4d8  skpz
000f3a:  efa3  goto    label_178                            ; dest: 0x000f46
000f3c:  f007
000f3e:  0e05  movlw   0x05
000f40:  6e27  movwf   (Common_RAM + 39), A                 ; reg: 0x027
000f42:  efb8  goto    label_181                            ; dest: 0x000f70
000f44:  f007

label_178:                                                  ; address: 0x000f46

000f46:  2da1  decfsz  0xa1, W, B                           ; reg: 0x0a1
000f48:  efaa  goto    label_179                            ; dest: 0x000f54
000f4a:  f007
000f4c:  0e06  movlw   0x06
000f4e:  6e27  movwf   (Common_RAM + 39), A                 ; reg: 0x027
000f50:  efb8  goto    label_181                            ; dest: 0x000f70
000f52:  f007

label_179:                                                  ; address: 0x000f54

000f54:  0e02  movlw   0x02
000f56:  63a1  cpfseq  0xa1, B                              ; reg: 0x0a1
000f58:  efb2  goto    label_180                            ; dest: 0x000f64
000f5a:  f007
000f5c:  0e07  movlw   0x07
000f5e:  6e27  movwf   (Common_RAM + 39), A                 ; reg: 0x027
000f60:  efb8  goto    label_181                            ; dest: 0x000f70
000f62:  f007

label_180:                                                  ; address: 0x000f64

000f64:  0e03  movlw   0x03
000f66:  63a1  cpfseq  0xa1, B                              ; reg: 0x0a1
000f68:  efb8  goto    label_181                            ; dest: 0x000f70
000f6a:  f007
000f6c:  0e08  movlw   0x08
000f6e:  6e27  movwf   (Common_RAM + 39), A                 ; reg: 0x027

label_181:                                                  ; address: 0x000f70

000f70:  5027  movf    (Common_RAM + 39), W, A              ; reg: 0x027
000f72:  61b7  cpfslt  0xb7, B                              ; reg: 0x0b7
000f74:  efbf  goto    label_182                            ; dest: 0x000f7e
000f76:  f007
000f78:  2bb7  incf    0xb7, F, B                           ; reg: 0x0b7
000f7a:  efc0  goto    label_183                            ; dest: 0x000f80
000f7c:  f007

label_182:                                                  ; address: 0x000f7e

000f7e:  6bb7  clrf    0xb7, B                              ; reg: 0x0b7

label_183:                                                  ; address: 0x000f80

000f80:  861f  bsf     (Common_RAM + 31), 0x3, A            ; reg: 0x01f
000f82:  0e58  movlw   0x58
000f84:  6e1b  movwf   (Common_RAM + 27), A                 ; reg: 0x01b
000f86:  0e1b  movlw   0x1b
000f88:  6e1c  movwf   (Common_RAM + 28), A                 ; reg: 0x01c
000f8a:  ecb0  call    function_022, 0x0                    ; dest: 0x000760
000f8c:  f003
000f8e:  de6f  rcall   function_037                         ; dest: 0x000c6e
000f90:  efcb  goto    label_185                            ; dest: 0x000f96
000f92:  f007

label_184:                                                  ; address: 0x000f94

000f94:  801f  bsf     (Common_RAM + 31), 0x0, A            ; reg: 0x01f

label_185:                                                  ; address: 0x000f96

000f96:  801f  bsf     (Common_RAM + 31), 0x0, A            ; reg: 0x01f
000f98:  0012  return  0x0

function_044:                                               ; address: 0x000f9a

000f9a:  0e04  movlw   0x04
000f9c:  63a7  cpfseq  0xa7, B                              ; reg: 0x0a7
000f9e:  efe1  goto    label_186                            ; dest: 0x000fc2
000fa0:  f007
000fa2:  0e10  movlw   0x10
000fa4:  6e20  movwf   (Common_RAM + 32), A                 ; reg: 0x020
000fa6:  0e32  movlw   0x32
000fa8:  6e21  movwf   (Common_RAM + 33), A                 ; reg: 0x021
000faa:  0e33  movlw   0x33
000fac:  6e22  movwf   (Common_RAM + 34), A                 ; reg: 0x022
000fae:  0e34  movlw   0x34
000fb0:  6e23  movwf   (Common_RAM + 35), A                 ; reg: 0x023
000fb2:  0e35  movlw   0x35
000fb4:  6e26  movwf   (Common_RAM + 38), A                 ; reg: 0x026
000fb6:  0e36  movlw   0x36
000fb8:  6e24  movwf   (Common_RAM + 36), A                 ; reg: 0x024
000fba:  0e37  movlw   0x37
000fbc:  6e25  movwf   (Common_RAM + 37), A                 ; reg: 0x025
000fbe:  eff2  goto    label_187                            ; dest: 0x000fe4
000fc0:  f007

label_186:                                                  ; address: 0x000fc2

000fc2:  0e03  movlw   0x03
000fc4:  63a7  cpfseq  0xa7, B                              ; reg: 0x0a7
000fc6:  eff2  goto    label_187                            ; dest: 0x000fe4
000fc8:  f007
000fca:  6a20  clrf    (Common_RAM + 32), A                 ; reg: 0x020
000fcc:  0e0c  movlw   0x0c
000fce:  6e21  movwf   (Common_RAM + 33), A                 ; reg: 0x021
000fd0:  0e10  movlw   0x10
000fd2:  6e22  movwf   (Common_RAM + 34), A                 ; reg: 0x022
000fd4:  0e11  movlw   0x11
000fd6:  6e23  movwf   (Common_RAM + 35), A                 ; reg: 0x023
000fd8:  0e20  movlw   0x20
000fda:  6e24  movwf   (Common_RAM + 36), A                 ; reg: 0x024
000fdc:  0e21  movlw   0x21
000fde:  6e25  movwf   (Common_RAM + 37), A                 ; reg: 0x025
000fe0:  0e0d  movlw   0x0d
000fe2:  6e26  movwf   (Common_RAM + 38), A                 ; reg: 0x026

label_187:                                                  ; address: 0x000fe4

000fe4:  0012  return  0x0

function_045:                                               ; address: 0x000fe6

000fe6:  c0a2  movff   0x0a2, (Common_RAM + 41)             ; reg2: 0x029
000fe8:  f029
000fea:  c0a3  movff   0x0a3, (Common_RAM + 42)             ; reg2: 0x02a
000fec:  f02a
000fee:  c0a5  movff   0x0a5, (Common_RAM + 39)             ; reg2: 0x027
000ff0:  f027
000ff2:  0e80  movlw   0x80
000ff4:  6e01  movwf   (Common_RAM + 1), A                  ; reg: 0x001
000ff6:  0ec0  movlw   0xc0
000ff8:  ec33  call    function_001, 0x0                    ; dest: 0x000066
000ffa:  f000
000ffc:  ec9b  call    function_024, 0x0                    ; dest: 0x000936
000ffe:  f004

label_188:                                                  ; address: 0x001000

001000:  de7e  rcall   function_042                         ; dest: 0x000cfe
001002:  0e00  movlw   0x00
001004:  539a  movf    0x9a, F, B                           ; reg: 0x09a
001006:  a4d8  skpz
001008:  0e01  movlw   0x01
00100a:  6e18  movwf   (Common_RAM + 24), A                 ; reg: 0x018
00100c:  6ae8  clrw
00100e:  b61f  btfsc   (Common_RAM + 31), 0x3, A            ; reg: 0x01f
001010:  0e01  movlw   0x01
001012:  1218  iorwf   (Common_RAM + 24), F, A              ; reg: 0x018
001014:  b4d8  skpnz
001016:  d7f4  bra     label_188                            ; dest: 0x001000
001018:  319a  rrcf    0x9a, W, B                           ; reg: 0x09a
00101a:  32e8  rrcf    WREG, F, A                           ; reg: 0xfe8
00101c:  a0d8  skpc
00101e:  ef19  goto    label_190                            ; dest: 0x001032
001020:  f008
001022:  51a5  movf    0xa5, W, B                           ; reg: 0x0a5
001024:  63a4  cpfseq  0xa4, B                              ; reg: 0x0a4
001026:  ef18  goto    label_189                            ; dest: 0x001030
001028:  f008
00102a:  6ba5  clrf    0xa5, B                              ; reg: 0x0a5
00102c:  ef19  goto    label_190                            ; dest: 0x001032
00102e:  f008

label_189:                                                  ; address: 0x001030

001030:  2ba5  incf    0xa5, F, B                           ; reg: 0x0a5

label_190:                                                  ; address: 0x001032

001032:  96d8  clrov
001034:  a59a  btfss   0x9a, 0x2, B                         ; reg: 0x09a
001036:  86d8  setov
001038:  b6d8  skpnov
00103a:  ef28  goto    label_192                            ; dest: 0x001050
00103c:  f008
00103e:  53a5  movf    0xa5, F, B                           ; reg: 0x0a5
001040:  a4d8  skpz
001042:  ef27  goto    label_191                            ; dest: 0x00104e
001044:  f008
001046:  c0a4  movff   0x0a4, 0x0a5
001048:  f0a5
00104a:  ef28  goto    label_192                            ; dest: 0x001050
00104c:  f008

label_191:                                                  ; address: 0x00104e

00104e:  07a5  decf    0xa5, F, B                           ; reg: 0x0a5

label_192:                                                  ; address: 0x001050

001050:  0012  return  0x0
001052:  6f56  movwf   (Common_RAM + 86), B                 ; reg: 0x056
001054:  756c  btg     0x6c, 0x2, B                         ; reg: 0x06c
001056:  656d  cpfsgt  0x6d, B                              ; reg: 0x06d
001058:  203a  addwfc  (Common_RAM + 58), W, A              ; reg: 0x03a
00105a:  2020  addwfc  (Common_RAM + 32), W, A              ; reg: 0x020
00105c:  2020  addwfc  (Common_RAM + 32), W, A              ; reg: 0x020
00105e:  2020  addwfc  (Common_RAM + 32), W, A              ; reg: 0x020
001060:  2020  addwfc  (Common_RAM + 32), W, A              ; reg: 0x020
001062:  6e49  movwf   (Common_RAM + 73), A                 ; reg: 0x049
001064:  7570  btg     0x70, 0x2, B                         ; reg: 0x070
001066:  3a74  swapf   UEP4, F, A                           ; reg: 0xf74
001068:  2020  addwfc  (Common_RAM + 32), W, A              ; reg: 0x020
00106a:  2020  addwfc  (Common_RAM + 32), W, A              ; reg: 0x020
00106c:  2020  addwfc  (Common_RAM + 32), W, A              ; reg: 0x020
00106e:  2020  addwfc  (Common_RAM + 32), W, A              ; reg: 0x020
001070:  2020  addwfc  (Common_RAM + 32), W, A              ; reg: 0x020
001072:  6553  cpfsgt  (Common_RAM + 83), B                 ; reg: 0x053
001074:  7574  btg     0x74, 0x2, B                         ; reg: 0x074
001076:  2070  addwfc  UEP0, W, A                           ; reg: 0xf70
001078:  2020  addwfc  (Common_RAM + 32), W, A              ; reg: 0x020
00107a:  2020  addwfc  (Common_RAM + 32), W, A              ; reg: 0x020
00107c:  2020  addwfc  (Common_RAM + 32), W, A              ; reg: 0x020
00107e:  2020  addwfc  (Common_RAM + 32), W, A              ; reg: 0x020
001080:  2020  addwfc  (Common_RAM + 32), W, A              ; reg: 0x020

label_193:                                                  ; address: 0x001082

001082:  9294  bcf     TRISC, RC1, A                        ; reg: 0xf94, bit: 1
001084:  928b  bcf     LATC, LATC1, A                       ; reg: 0xf8b, bit: 1
001086:  0e0a  movlw   0x0a
001088:  6e1b  movwf   (Common_RAM + 27), A                 ; reg: 0x01b
00108a:  6a1c  clrf    (Common_RAM + 28), A                 ; reg: 0x01c
00108c:  8a7d  bsf     UEP13, 0x5, A                        ; reg: 0xf7d
00108e:  90f2  bcf     INTCON, RBIF, A                      ; reg: 0xff2, bit: 0
001090:  96f2  bcf     INTCON, RBIE, A                      ; reg: 0xff2, bit: 3
001092:  8a9d  bsf     PIE1, RCIE, A                        ; reg: 0xf9d, bit: 5
001094:  8ef2  bsf     INTCON, GIE, A                       ; reg: 0xff2, bit: 7
001096:  8cf2  bsf     INTCON, PEIE, A                      ; reg: 0xff2, bit: 6
001098:  6b96  clrf    0x96, B                              ; reg: 0x096
00109a:  6b97  clrf    0x97, B                              ; reg: 0x097
00109c:  6b98  clrf    0x98, B                              ; reg: 0x098
00109e:  6b99  clrf    0x99, B                              ; reg: 0x099
0010a0:  941f  bcf     (Common_RAM + 31), 0x2, A            ; reg: 0x01f
0010a2:  6ba6  clrf    0xa6, B                              ; reg: 0x0a6
0010a4:  6a1d  clrf    (Common_RAM + 29), A                 ; reg: 0x01d
0010a6:  6a1d  clrf    (Common_RAM + 29), A                 ; reg: 0x01d
0010a8:  6a1e  clrf    (Common_RAM + 30), A                 ; reg: 0x01e
0010aa:  6b9b  clrf    0x9b, B                              ; reg: 0x09b
0010ac:  6b9c  clrf    0x9c, B                              ; reg: 0x09c
0010ae:  ee00  lfsr    0x0, 0x0c1
0010b0:  f0c1
0010b2:  0e06  movlw   0x06

label_194:                                                  ; address: 0x0010b4

0010b4:  6aee  clrf    POSTINC0, A                          ; reg: 0xfee
0010b6:  2ee8  decfsz  WREG, F, A                           ; reg: 0xfe8
0010b8:  d7fd  bra     label_194                            ; dest: 0x0010b4
0010ba:  ee00  lfsr    0x0, 0x0c7
0010bc:  f0c7
0010be:  0e06  movlw   0x06

label_195:                                                  ; address: 0x0010c0

0010c0:  6aee  clrf    POSTINC0, A                          ; reg: 0xfee
0010c2:  2ee8  decfsz  WREG, F, A                           ; reg: 0xfe8
0010c4:  d7fd  bra     label_195                            ; dest: 0x0010c0
0010c6:  ee00  lfsr    0x0, 0x0cd
0010c8:  f0cd
0010ca:  0e06  movlw   0x06

label_196:                                                  ; address: 0x0010cc

0010cc:  6aee  clrf    POSTINC0, A                          ; reg: 0xfee
0010ce:  2ee8  decfsz  WREG, F, A                           ; reg: 0xfe8
0010d0:  d7fd  bra     label_196                            ; dest: 0x0010cc
0010d2:  ee00  lfsr    0x0, 0x0d3
0010d4:  f0d3
0010d6:  0e06  movlw   0x06

label_197:                                                  ; address: 0x0010d8

0010d8:  6aee  clrf    POSTINC0, A                          ; reg: 0xfee
0010da:  2ee8  decfsz  WREG, F, A                           ; reg: 0xfe8
0010dc:  d7fd  bra     label_197                            ; dest: 0x0010d8
0010de:  ee00  lfsr    0x0, 0x0d9
0010e0:  f0d9
0010e2:  0e06  movlw   0x06

label_198:                                                  ; address: 0x0010e4

0010e4:  6aee  clrf    POSTINC0, A                          ; reg: 0xfee
0010e6:  2ee8  decfsz  WREG, F, A                           ; reg: 0xfe8
0010e8:  d7fd  bra     label_198                            ; dest: 0x0010e4
0010ea:  ee00  lfsr    0x0, 0x0df
0010ec:  f0df
0010ee:  0e06  movlw   0x06

label_199:                                                  ; address: 0x0010f0

0010f0:  6aee  clrf    POSTINC0, A                          ; reg: 0xfee
0010f2:  2ee8  decfsz  WREG, F, A                           ; reg: 0xfe8
0010f4:  d7fd  bra     label_199                            ; dest: 0x0010f0
0010f6:  961f  bcf     (Common_RAM + 31), 0x3, A            ; reg: 0x01f
0010f8:  981f  bcf     (Common_RAM + 31), 0x4, A            ; reg: 0x01f
0010fa:  68a9  setf    EEADR, A                             ; reg: 0xfa9
0010fc:  0e02  movlw   0x02
0010fe:  ecd1  call    function_011, 0x0                    ; dest: 0x0001a2
001100:  f000
001102:  0e70  movlw   0x70
001104:  eccb  call    function_010, 0x0                    ; dest: 0x000196
001106:  f000
001108:  6e27  movwf   (Common_RAM + 39), A                 ; reg: 0x027
00110a:  0e01  movlw   0x01
00110c:  5c27  subwf   (Common_RAM + 39), W, A              ; reg: 0x027
00110e:  b4d8  skpnz
001110:  ef8f  goto    label_200                            ; dest: 0x00111e
001112:  f008
001114:  0e70  movlw   0x70
001116:  6ea9  movwf   EEADR, A                             ; reg: 0xfa9
001118:  0e01  movlw   0x01
00111a:  ecd1  call    function_011, 0x0                    ; dest: 0x0001a2
00111c:  f000

label_200:                                                  ; address: 0x00111e

00111e:  0e71  movlw   0x71
001120:  eccb  call    function_010, 0x0                    ; dest: 0x000196
001122:  f000
001124:  6e27  movwf   (Common_RAM + 39), A                 ; reg: 0x027
001126:  0e04  movlw   0x04
001128:  5c27  subwf   (Common_RAM + 39), W, A              ; reg: 0x027
00112a:  b4d8  skpnz
00112c:  ef9d  goto    label_201                            ; dest: 0x00113a
00112e:  f008
001130:  0e71  movlw   0x71
001132:  6ea9  movwf   EEADR, A                             ; reg: 0xfa9
001134:  0e04  movlw   0x04
001136:  ecd1  call    function_011, 0x0                    ; dest: 0x0001a2
001138:  f000

label_201:                                                  ; address: 0x00113a

00113a:  6bbc  clrf    0xbc, B                              ; reg: 0x0bc
00113c:  6bbe  clrf    0xbe, B                              ; reg: 0x0be
00113e:  6bbd  clrf    0xbd, B                              ; reg: 0x0bd
001140:  6bb4  clrf    0xb4, B                              ; reg: 0x0b4
001142:  6bb5  clrf    0xb5, B                              ; reg: 0x0b5
001144:  6bb3  clrf    0xb3, B                              ; reg: 0x0b3
001146:  6bb2  clrf    0xb2, B                              ; reg: 0x0b2
001148:  6bb1  clrf    0xb1, B                              ; reg: 0x0b1
00114a:  6bb0  clrf    0xb0, B                              ; reg: 0x0b0
00114c:  0e01  movlw   0x01
00114e:  6e0f  movwf   (Common_RAM + 15), A                 ; reg: 0x00f
001150:  0e2c  movlw   0x2c
001152:  ecdf  call    function_013, 0x0                    ; dest: 0x0001be
001154:  f000
001156:  ec26  call    function_000, 0x0                    ; dest: 0x00004c
001158:  f000
00115a:  0ec8  movlw   0xc8
00115c:  ecde  call    function_012, 0x0                    ; dest: 0x0001bc
00115e:  f000
001160:  ec1e  call    function_026, 0x0                    ; dest: 0x000a3c
001162:  f005
001164:  0e01  movlw   0x01
001166:  6e0f  movwf   (Common_RAM + 15), A                 ; reg: 0x00f
001168:  0ef4  movlw   0xf4
00116a:  ecdf  call    function_013, 0x0                    ; dest: 0x0001be
00116c:  f000
00116e:  0e80  movlw   0x80
001170:  6e01  movwf   (Common_RAM + 1), A                  ; reg: 0x001
001172:  ec33  call    function_001, 0x0                    ; dest: 0x000066
001174:  f000
001176:  0e03  movlw   0x03
001178:  6ef7  movwf   TBLPTRH, A                           ; reg: 0xff7
00117a:  0e04  movlw   0x04
00117c:  6ef6  movwf   TBLPTRL, A                           ; reg: 0xff6
00117e:  ec6e  call    function_004, 0x0                    ; dest: 0x0000dc
001180:  f000
001182:  0e80  movlw   0x80
001184:  6e01  movwf   (Common_RAM + 1), A                  ; reg: 0x001
001186:  0e01  movlw   0x01
001188:  ec3c  call    function_002, 0x0                    ; dest: 0x000078
00118a:  f000
00118c:  0e2e  movlw   0x2e
00118e:  ec76  call    function_005, 0x0                    ; dest: 0x0000ec
001190:  f000
001192:  0e80  movlw   0x80
001194:  6e01  movwf   (Common_RAM + 1), A                  ; reg: 0x001
001196:  0e04  movlw   0x04
001198:  ec3c  call    function_002, 0x0                    ; dest: 0x000078
00119a:  f000
00119c:  0e03  movlw   0x03
00119e:  6e0f  movwf   (Common_RAM + 15), A                 ; reg: 0x00f
0011a0:  0ee8  movlw   0xe8
0011a2:  ecdf  call    function_013, 0x0                    ; dest: 0x0001be
0011a4:  f000
0011a6:  0e80  movlw   0x80
0011a8:  6fb8  movwf   0xb8, B                              ; reg: 0x0b8
0011aa:  6fb9  movwf   0xb9, B                              ; reg: 0x0b9
0011ac:  6fa7  movwf   0xa7, B                              ; reg: 0x0a7
0011ae:  6fa1  movwf   0xa1, B                              ; reg: 0x0a1
0011b0:  6e01  movwf   (Common_RAM + 1), A                  ; reg: 0x001
0011b2:  ec33  call    function_001, 0x0                    ; dest: 0x000066
0011b4:  f000
0011b6:  0e03  movlw   0x03
0011b8:  6ef7  movwf   TBLPTRH, A                           ; reg: 0xff7
0011ba:  0e10  movlw   0x10
0011bc:  6ef6  movwf   TBLPTRL, A                           ; reg: 0xff6
0011be:  ec6e  call    function_004, 0x0                    ; dest: 0x0000dc
0011c0:  f000
0011c2:  9294  bcf     TRISC, RC1, A                        ; reg: 0xf94, bit: 1
0011c4:  828b  bsf     LATC, LATC1, A                       ; reg: 0xf8b, bit: 1
0011c6:  0e0f  movlw   0x0f
0011c8:  6e0f  movwf   (Common_RAM + 15), A                 ; reg: 0x00f
0011ca:  0ea0  movlw   0xa0
0011cc:  ecdf  call    function_013, 0x0                    ; dest: 0x0001be
0011ce:  f000

label_202:                                                  ; address: 0x0011d0

0011d0:  ecd8  call    function_029, 0x0                    ; dest: 0x000bb0
0011d2:  f005
0011d4:  0ec8  movlw   0xc8
0011d6:  ecde  call    function_012, 0x0                    ; dest: 0x0001bc
0011d8:  f000
0011da:  ec25  call    function_019, 0x0                    ; dest: 0x00044a
0011dc:  f002
0011de:  0e80  movlw   0x80
0011e0:  5db8  subwf   0xb8, W, B                           ; reg: 0x0b8
0011e2:  a4d8  skpz
0011e4:  0e01  movlw   0x01
0011e6:  6e18  movwf   (Common_RAM + 24), A                 ; reg: 0x018
0011e8:  0e80  movlw   0x80
0011ea:  5db9  subwf   0xb9, W, B                           ; reg: 0x0b9
0011ec:  a4d8  skpz
0011ee:  0e01  movlw   0x01
0011f0:  1618  andwf   (Common_RAM + 24), F, A              ; reg: 0x018
0011f2:  0e80  movlw   0x80
0011f4:  5da7  subwf   0xa7, W, B                           ; reg: 0x0a7
0011f6:  a4d8  skpz
0011f8:  0e01  movlw   0x01
0011fa:  1618  andwf   (Common_RAM + 24), F, A              ; reg: 0x018
0011fc:  0e80  movlw   0x80
0011fe:  5da1  subwf   0xa1, W, B                           ; reg: 0x0a1
001200:  a4d8  skpz
001202:  0e01  movlw   0x01
001204:  1618  andwf   (Common_RAM + 24), F, A              ; reg: 0x018
001206:  b4d8  skpnz
001208:  d7e3  bra     label_202                            ; dest: 0x0011d0
00120a:  0e61  movlw   0x61
00120c:  6f9d  movwf   0x9d, B                              ; reg: 0x09d
00120e:  0eea  movlw   0xea
001210:  6f9e  movwf   0x9e, B                              ; reg: 0x09e
001212:  6b9f  clrf    0x9f, B                              ; reg: 0x09f
001214:  6ba0  clrf    0xa0, B                              ; reg: 0x0a0
001216:  9a1f  bcf     (Common_RAM + 31), 0x5, A            ; reg: 0x01f

label_203:                                                  ; address: 0x001218

001218:  a21f  btfss   (Common_RAM + 31), 0x1, A            ; reg: 0x01f
00121a:  ef48  goto    label_212                            ; dest: 0x001290
00121c:  f009

label_204:                                                  ; address: 0x00121e

00121e:  961f  bcf     (Common_RAM + 31), 0x3, A            ; reg: 0x01f
001220:  53bf  movf    0xbf, F, B                           ; reg: 0x0bf
001222:  a4d8  skpz
001224:  ef18  goto    label_205                            ; dest: 0x001230
001226:  f009
001228:  ec88  call    function_046, 0x0                    ; dest: 0x001310
00122a:  f009
00122c:  ef25  goto    label_207                            ; dest: 0x00124a
00122e:  f009

label_205:                                                  ; address: 0x001230

001230:  2dbf  decfsz  0xbf, W, B                           ; reg: 0x0bf
001232:  ef1f  goto    label_206                            ; dest: 0x00123e
001234:  f009
001236:  ecf9  call    function_052, 0x0                    ; dest: 0x0019f2
001238:  f00c
00123a:  ef25  goto    label_207                            ; dest: 0x00124a
00123c:  f009

label_206:                                                  ; address: 0x00123e

00123e:  0e02  movlw   0x02
001240:  63bf  cpfseq  0xbf, B                              ; reg: 0x0bf
001242:  ef25  goto    label_207                            ; dest: 0x00124a
001244:  f009
001246:  ec42  call    function_047, 0x0                    ; dest: 0x001484
001248:  f00a

label_207:                                                  ; address: 0x00124a

00124a:  96d8  clrov
00124c:  ab9a  btfss   0x9a, 0x5, B                         ; reg: 0x09a
00124e:  86d8  setov
001250:  b6d8  skpnov
001252:  ef33  goto    label_209                            ; dest: 0x001266
001254:  f009
001256:  0e02  movlw   0x02
001258:  63bf  cpfseq  0xbf, B                              ; reg: 0x0bf
00125a:  ef32  goto    label_208                            ; dest: 0x001264
00125c:  f009
00125e:  6bbf  clrf    0xbf, B                              ; reg: 0x0bf
001260:  ef33  goto    label_209                            ; dest: 0x001266
001262:  f009

label_208:                                                  ; address: 0x001264

001264:  2bbf  incf    0xbf, F, B                           ; reg: 0x0bf

label_209:                                                  ; address: 0x001266

001266:  96d8  clrov
001268:  a99a  btfss   0x9a, 0x4, B                         ; reg: 0x09a
00126a:  86d8  setov
00126c:  b6d8  skpnov
00126e:  ef42  goto    label_211                            ; dest: 0x001284
001270:  f009
001272:  53bf  movf    0xbf, F, B                           ; reg: 0x0bf
001274:  a4d8  skpz
001276:  ef41  goto    label_210                            ; dest: 0x001282
001278:  f009
00127a:  0e02  movlw   0x02
00127c:  6fbf  movwf   0xbf, B                              ; reg: 0x0bf
00127e:  ef42  goto    label_211                            ; dest: 0x001284
001280:  f009

label_210:                                                  ; address: 0x001282

001282:  07bf  decf    0xbf, F, B                           ; reg: 0x0bf

label_211:                                                  ; address: 0x001284

001284:  ec51  call    function_023, 0x0                    ; dest: 0x0008a2
001286:  f004
001288:  b21f  btfsc   (Common_RAM + 31), 0x1, A            ; reg: 0x01f
00128a:  d7c9  bra     label_204                            ; dest: 0x00121e
00128c:  ef87  goto    label_215                            ; dest: 0x00130e
00128e:  f009

label_212:                                                  ; address: 0x001290

001290:  921f  bcf     (Common_RAM + 31), 0x1, A            ; reg: 0x01f
001292:  ec72  call    function_041, 0x0                    ; dest: 0x000ce4
001294:  f006
001296:  ec26  call    function_000, 0x0                    ; dest: 0x00004c
001298:  f000
00129a:  0e80  movlw   0x80
00129c:  6e01  movwf   (Common_RAM + 1), A                  ; reg: 0x001
00129e:  ec33  call    function_001, 0x0                    ; dest: 0x000066
0012a0:  f000
0012a2:  0e03  movlw   0x03
0012a4:  6ef7  movwf   TBLPTRH, A                           ; reg: 0xff7
0012a6:  0e22  movlw   0x22
0012a8:  6ef6  movwf   TBLPTRL, A                           ; reg: 0xff6
0012aa:  ec6e  call    function_004, 0x0                    ; dest: 0x0000dc
0012ac:  f000

label_213:                                                  ; address: 0x0012ae

0012ae:  ec7f  call    function_042, 0x0                    ; dest: 0x000cfe
0012b0:  f006
0012b2:  961f  bcf     (Common_RAM + 31), 0x3, A            ; reg: 0x01f
0012b4:  0e00  movlw   0x00
0012b6:  539a  movf    0x9a, F, B                           ; reg: 0x09a
0012b8:  a4d8  skpz
0012ba:  0e01  movlw   0x01
0012bc:  6e18  movwf   (Common_RAM + 24), A                 ; reg: 0x018
0012be:  6ae8  clrw
0012c0:  b21f  btfsc   (Common_RAM + 31), 0x1, A            ; reg: 0x01f
0012c2:  0e01  movlw   0x01
0012c4:  1218  iorwf   (Common_RAM + 24), F, A              ; reg: 0x018
0012c6:  b4d8  skpnz
0012c8:  d7f2  bra     label_213                            ; dest: 0x0012ae
0012ca:  6bb3  clrf    0xb3, B                              ; reg: 0x0b3
0012cc:  6bb2  clrf    0xb2, B                              ; reg: 0x0b2
0012ce:  6bb1  clrf    0xb1, B                              ; reg: 0x0b1
0012d0:  6bb0  clrf    0xb0, B                              ; reg: 0x0b0
0012d2:  821f  bsf     (Common_RAM + 31), 0x1, A            ; reg: 0x01f
0012d4:  ec72  call    function_041, 0x0                    ; dest: 0x000ce4
0012d6:  f006
0012d8:  0e80  movlw   0x80
0012da:  6e01  movwf   (Common_RAM + 1), A                  ; reg: 0x001
0012dc:  ec33  call    function_001, 0x0                    ; dest: 0x000066
0012de:  f000
0012e0:  0e03  movlw   0x03
0012e2:  6ef7  movwf   TBLPTRH, A                           ; reg: 0xff7
0012e4:  0e34  movlw   0x34
0012e6:  6ef6  movwf   TBLPTRL, A                           ; reg: 0xff6
0012e8:  ec6e  call    function_004, 0x0                    ; dest: 0x0000dc
0012ea:  f000
0012ec:  9294  bcf     TRISC, RC1, A                        ; reg: 0xf94, bit: 1
0012ee:  828b  bsf     LATC, LATC1, A                       ; reg: 0xf8b, bit: 1
0012f0:  0e13  movlw   0x13
0012f2:  6e0f  movwf   (Common_RAM + 15), A                 ; reg: 0x00f
0012f4:  0e88  movlw   0x88
0012f6:  ecdf  call    function_013, 0x0                    ; dest: 0x0001be
0012f8:  f000
0012fa:  921f  bcf     (Common_RAM + 31), 0x1, A            ; reg: 0x01f

label_214:                                                  ; address: 0x0012fc

0012fc:  ecd8  call    function_029, 0x0                    ; dest: 0x000bb0
0012fe:  f005
001300:  0ec8  movlw   0xc8
001302:  ecde  call    function_012, 0x0                    ; dest: 0x0001bc
001304:  f000
001306:  ec25  call    function_019, 0x0                    ; dest: 0x00044a
001308:  f002
00130a:  a21f  btfss   (Common_RAM + 31), 0x1, A            ; reg: 0x01f
00130c:  d7f7  bra     label_214                            ; dest: 0x0012fc

label_215:                                                  ; address: 0x00130e

00130e:  d784  bra     label_203                            ; dest: 0x001218

function_046:                                               ; address: 0x001310

001310:  0e80  movlw   0x80
001312:  6e01  movwf   (Common_RAM + 1), A                  ; reg: 0x001
001314:  ec33  call    function_001, 0x0                    ; dest: 0x000066
001316:  f000
001318:  c0bf  movff   0x0bf, (Common_RAM + 39)             ; reg2: 0x027
00131a:  f027
00131c:  0e10  movlw   0x10
00131e:  6e2a  movwf   (Common_RAM + 42), A                 ; reg: 0x02a
001320:  0e52  movlw   0x52
001322:  6e29  movwf   (Common_RAM + 41), A                 ; reg: 0x029
001324:  ec9b  call    function_024, 0x0                    ; dest: 0x000936
001326:  f004

label_216:                                                  ; address: 0x001328

001328:  0e80  movlw   0x80
00132a:  6e01  movwf   (Common_RAM + 1), A                  ; reg: 0x001
00132c:  0ec0  movlw   0xc0
00132e:  ec33  call    function_001, 0x0                    ; dest: 0x000066
001330:  f000
001332:  ba1f  btfsc   (Common_RAM + 31), 0x5, A            ; reg: 0x01f
001334:  efca  goto    label_220                            ; dest: 0x001394
001336:  f009
001338:  0e60  movlw   0x60
00133a:  61b9  cpfslt  0xb9, B                              ; reg: 0x0b9
00133c:  efa8  goto    label_217                            ; dest: 0x001350
00133e:  f009
001340:  0e2d  movlw   0x2d
001342:  ec76  call    function_005, 0x0                    ; dest: 0x0000ec
001344:  f000
001346:  51b9  movf    0xb9, W, B                           ; reg: 0x0b9
001348:  0860  sublw   0x60
00134a:  6e27  movwf   (Common_RAM + 39), A                 ; reg: 0x027
00134c:  efb7  goto    label_219                            ; dest: 0x00136e
00134e:  f009

label_217:                                                  ; address: 0x001350

001350:  0e60  movlw   0x60
001352:  63b9  cpfseq  0xb9, B                              ; reg: 0x0b9
001354:  efb1  goto    label_218                            ; dest: 0x001362
001356:  f009
001358:  0e60  movlw   0x60
00135a:  5db9  subwf   0xb9, W, B                           ; reg: 0x0b9
00135c:  6e27  movwf   (Common_RAM + 39), A                 ; reg: 0x027
00135e:  efb7  goto    label_219                            ; dest: 0x00136e
001360:  f009

label_218:                                                  ; address: 0x001362

001362:  0e2b  movlw   0x2b
001364:  ec76  call    function_005, 0x0                    ; dest: 0x0000ec
001366:  f000
001368:  0e60  movlw   0x60
00136a:  5db9  subwf   0xb9, W, B                           ; reg: 0x0b9
00136c:  6e27  movwf   (Common_RAM + 39), A                 ; reg: 0x027

label_219:                                                  ; address: 0x00136e

00136e:  0e80  movlw   0x80
001370:  6e01  movwf   (Common_RAM + 1), A                  ; reg: 0x001
001372:  5027  movf    (Common_RAM + 39), W, A              ; reg: 0x027
001374:  ec3c  call    function_002, 0x0                    ; dest: 0x000078
001376:  f000
001378:  0e2e  movlw   0x2e
00137a:  ec76  call    function_005, 0x0                    ; dest: 0x0000ec
00137c:  f000
00137e:  0e30  movlw   0x30
001380:  ec76  call    function_005, 0x0                    ; dest: 0x0000ec
001382:  f000
001384:  0e03  movlw   0x03
001386:  6ef7  movwf   TBLPTRH, A                           ; reg: 0xff7
001388:  0e46  movlw   0x46
00138a:  6ef6  movwf   TBLPTRL, A                           ; reg: 0xff6
00138c:  ec6e  call    function_004, 0x0                    ; dest: 0x0000dc
00138e:  f000
001390:  efd0  goto    label_221                            ; dest: 0x0013a0
001392:  f009

label_220:                                                  ; address: 0x001394

001394:  0e03  movlw   0x03
001396:  6ef7  movwf   TBLPTRH, A                           ; reg: 0xff7
001398:  0e54  movlw   0x54
00139a:  6ef6  movwf   TBLPTRL, A                           ; reg: 0xff6
00139c:  ec6e  call    function_004, 0x0                    ; dest: 0x0000dc
00139e:  f000

label_221:                                                  ; address: 0x0013a0

0013a0:  ec7f  call    function_042, 0x0                    ; dest: 0x000cfe
0013a2:  f006
0013a4:  319a  rrcf    0x9a, W, B                           ; reg: 0x09a
0013a6:  32e8  rrcf    WREG, F, A                           ; reg: 0xfe8
0013a8:  a0d8  skpc
0013aa:  efdf  goto    label_223                            ; dest: 0x0013be
0013ac:  f009
0013ae:  0e72  movlw   0x72
0013b0:  61b9  cpfslt  0xb9, B                              ; reg: 0x0b9
0013b2:  efdc  goto    label_222                            ; dest: 0x0013b8
0013b4:  f009
0013b6:  2bb9  incf    0xb9, F, B                           ; reg: 0x0b9

label_222:                                                  ; address: 0x0013b8

0013b8:  9a1f  bcf     (Common_RAM + 31), 0x5, A            ; reg: 0x01f
0013ba:  ec46  call    function_038, 0x0                    ; dest: 0x000c8c
0013bc:  f006

label_223:                                                  ; address: 0x0013be

0013be:  96d8  clrov
0013c0:  a59a  btfss   0x9a, 0x2, B                         ; reg: 0x09a
0013c2:  86d8  setov
0013c4:  b6d8  skpnov
0013c6:  efed  goto    label_225                            ; dest: 0x0013da
0013c8:  f009
0013ca:  53b9  movf    0xb9, F, B                           ; reg: 0x0b9
0013cc:  b4d8  skpnz
0013ce:  efea  goto    label_224                            ; dest: 0x0013d4
0013d0:  f009
0013d2:  07b9  decf    0xb9, F, B                           ; reg: 0x0b9

label_224:                                                  ; address: 0x0013d4

0013d4:  9a1f  bcf     (Common_RAM + 31), 0x5, A            ; reg: 0x01f
0013d6:  ec46  call    function_038, 0x0                    ; dest: 0x000c8c
0013d8:  f006

label_225:                                                  ; address: 0x0013da

0013da:  96d8  clrov
0013dc:  a79a  btfss   0x9a, 0x3, B                         ; reg: 0x09a
0013de:  86d8  setov
0013e0:  b6d8  skpnov
0013e2:  effa  goto    label_226                            ; dest: 0x0013f4
0013e4:  f009
0013e6:  7a1f  btg     (Common_RAM + 31), 0x5, A            ; reg: 0x01f
0013e8:  0e2f  movlw   0x2f
0013ea:  6fb4  movwf   0xb4, B                              ; reg: 0x0b4
0013ec:  0e75  movlw   0x75
0013ee:  6fb5  movwf   0xb5, B                              ; reg: 0x0b5
0013f0:  ec64  call    function_040, 0x0                    ; dest: 0x000cc8
0013f2:  f006

label_226:                                                  ; address: 0x0013f4

0013f4:  961f  bcf     (Common_RAM + 31), 0x3, A            ; reg: 0x01f
0013f6:  6ae8  clrw
0013f8:  bb9a  btfsc   0x9a, 0x5, B                         ; reg: 0x09a
0013fa:  0e01  movlw   0x01
0013fc:  6e18  movwf   (Common_RAM + 24), A                 ; reg: 0x018
0013fe:  6ae8  clrw
001400:  b99a  btfsc   0x9a, 0x4, B                         ; reg: 0x09a
001402:  0e01  movlw   0x01
001404:  1218  iorwf   (Common_RAM + 24), F, A              ; reg: 0x018
001406:  0e01  movlw   0x01
001408:  b21f  btfsc   (Common_RAM + 31), 0x1, A            ; reg: 0x01f
00140a:  6ae8  clrw
00140c:  1218  iorwf   (Common_RAM + 24), F, A              ; reg: 0x018
00140e:  b4d8  skpnz
001410:  d78b  bra     label_216                            ; dest: 0x001328
001412:  0012  return  0x0
001414:  4c44  dcfsnz  (Common_RAM + 68), W, A              ; reg: 0x044
001416:  5043  movf    (Common_RAM + 67), W, A              ; reg: 0x043
001418:  3120  rrcf    (Common_RAM + 32), W, B              ; reg: 0x020
00141a:  2020  addwfc  (Common_RAM + 32), W, A              ; reg: 0x020
00141c:  2020  addwfc  (Common_RAM + 32), W, A              ; reg: 0x020
00141e:  2020  addwfc  (Common_RAM + 32), W, A              ; reg: 0x020
001420:  2020  addwfc  (Common_RAM + 32), W, A              ; reg: 0x020
001422:  2020  addwfc  (Common_RAM + 32), W, A              ; reg: 0x020
001424:  4c44  dcfsnz  (Common_RAM + 68), W, A              ; reg: 0x044
001426:  5043  movf    (Common_RAM + 67), W, A              ; reg: 0x043
001428:  3220  rrcf    (Common_RAM + 32), F, A              ; reg: 0x020
00142a:  2020  addwfc  (Common_RAM + 32), W, A              ; reg: 0x020
00142c:  2020  addwfc  (Common_RAM + 32), W, A              ; reg: 0x020
00142e:  2020  addwfc  (Common_RAM + 32), W, A              ; reg: 0x020
001430:  2020  addwfc  (Common_RAM + 32), W, A              ; reg: 0x020
001432:  2020  addwfc  (Common_RAM + 32), W, A              ; reg: 0x020
001434:  4c44  dcfsnz  (Common_RAM + 68), W, A              ; reg: 0x044
001436:  5043  movf    (Common_RAM + 67), W, A              ; reg: 0x043
001438:  3320  rrcf    (Common_RAM + 32), F, B              ; reg: 0x020
00143a:  2020  addwfc  (Common_RAM + 32), W, A              ; reg: 0x020
00143c:  2020  addwfc  (Common_RAM + 32), W, A              ; reg: 0x020
00143e:  2020  addwfc  (Common_RAM + 32), W, A              ; reg: 0x020
001440:  2020  addwfc  (Common_RAM + 32), W, A              ; reg: 0x020
001442:  2020  addwfc  (Common_RAM + 32), W, A              ; reg: 0x020
001444:  4c44  dcfsnz  (Common_RAM + 68), W, A              ; reg: 0x044
001446:  5043  movf    (Common_RAM + 67), W, A              ; reg: 0x043
001448:  3420  rlcf    (Common_RAM + 32), W, A              ; reg: 0x020
00144a:  2020  addwfc  (Common_RAM + 32), W, A              ; reg: 0x020
00144c:  2020  addwfc  (Common_RAM + 32), W, A              ; reg: 0x020
00144e:  2020  addwfc  (Common_RAM + 32), W, A              ; reg: 0x020
001450:  2020  addwfc  (Common_RAM + 32), W, A              ; reg: 0x020
001452:  2020  addwfc  (Common_RAM + 32), W, A              ; reg: 0x020
001454:  4c44  dcfsnz  (Common_RAM + 68), W, A              ; reg: 0x044
001456:  5043  movf    (Common_RAM + 67), W, A              ; reg: 0x043
001458:  3520  rlcf    (Common_RAM + 32), W, B              ; reg: 0x020
00145a:  2020  addwfc  (Common_RAM + 32), W, A              ; reg: 0x020
00145c:  2020  addwfc  (Common_RAM + 32), W, A              ; reg: 0x020
00145e:  2020  addwfc  (Common_RAM + 32), W, A              ; reg: 0x020
001460:  2020  addwfc  (Common_RAM + 32), W, A              ; reg: 0x020
001462:  2020  addwfc  (Common_RAM + 32), W, A              ; reg: 0x020
001464:  4c44  dcfsnz  (Common_RAM + 68), W, A              ; reg: 0x044
001466:  5043  movf    (Common_RAM + 67), W, A              ; reg: 0x043
001468:  3620  rlcf    (Common_RAM + 32), F, A              ; reg: 0x020
00146a:  2020  addwfc  (Common_RAM + 32), W, A              ; reg: 0x020
00146c:  2020  addwfc  (Common_RAM + 32), W, A              ; reg: 0x020
00146e:  2020  addwfc  (Common_RAM + 32), W, A              ; reg: 0x020
001470:  2020  addwfc  (Common_RAM + 32), W, A              ; reg: 0x020
001472:  2020  addwfc  (Common_RAM + 32), W, A              ; reg: 0x020
001474:  4c42  dcfsnz  (Common_RAM + 66), W, A              ; reg: 0x042
001476:  5420  subfwb  (Common_RAM + 32), W, A              ; reg: 0x020
001478:  6d69  negf    0x69, B                              ; reg: 0x069
00147a:  6f65  movwf   0x65, B                              ; reg: 0x065
00147c:  7475  btg     UEP5, EPOUTEN, A                     ; reg: 0xf75, bit: 2
00147e:  2020  addwfc  (Common_RAM + 32), W, A              ; reg: 0x020
001480:  2020  addwfc  (Common_RAM + 32), W, A              ; reg: 0x020
001482:  2020  addwfc  (Common_RAM + 32), W, A              ; reg: 0x020

function_047:                                               ; address: 0x001484

001484:  0e80  movlw   0x80
001486:  6e01  movwf   (Common_RAM + 1), A                  ; reg: 0x001
001488:  ec33  call    function_001, 0x0                    ; dest: 0x000066
00148a:  f000
00148c:  c0bf  movff   0x0bf, (Common_RAM + 39)             ; reg2: 0x027
00148e:  f027
001490:  0e10  movlw   0x10
001492:  6e2a  movwf   (Common_RAM + 42), A                 ; reg: 0x02a
001494:  0e52  movlw   0x52
001496:  6e29  movwf   (Common_RAM + 41), A                 ; reg: 0x029
001498:  ec9b  call    function_024, 0x0                    ; dest: 0x000936
00149a:  f004
00149c:  c0ba  movff   0x0ba, (Common_RAM + 39)             ; reg2: 0x027
00149e:  f027
0014a0:  0e14  movlw   0x14
0014a2:  6e2a  movwf   (Common_RAM + 42), A                 ; reg: 0x02a
0014a4:  0e14  movlw   0x14
0014a6:  6e29  movwf   (Common_RAM + 41), A                 ; reg: 0x029
0014a8:  c0ba  movff   0x0ba, 0x0a5
0014aa:  f0a5
0014ac:  0e06  movlw   0x06
0014ae:  6fa4  movwf   0xa4, B                              ; reg: 0x0a4
0014b0:  0e80  movlw   0x80
0014b2:  6e01  movwf   (Common_RAM + 1), A                  ; reg: 0x001
0014b4:  0ec0  movlw   0xc0
0014b6:  ec33  call    function_001, 0x0                    ; dest: 0x000066
0014b8:  f000
0014ba:  ec9b  call    function_024, 0x0                    ; dest: 0x000936
0014bc:  f004
0014be:  ec7f  call    function_042, 0x0                    ; dest: 0x000cfe
0014c0:  f006
0014c2:  a61f  btfss   (Common_RAM + 31), 0x3, A            ; reg: 0x01f
0014c4:  ef65  goto    label_227                            ; dest: 0x0014ca
0014c6:  f00a
0014c8:  961f  bcf     (Common_RAM + 31), 0x3, A            ; reg: 0x01f

label_227:                                                  ; address: 0x0014ca

0014ca:  319a  rrcf    0x9a, W, B                           ; reg: 0x09a
0014cc:  32e8  rrcf    WREG, F, A                           ; reg: 0xfe8
0014ce:  a0d8  skpc
0014d0:  ef76  goto    label_230                            ; dest: 0x0014ec
0014d2:  f00a
0014d4:  51a5  movf    0xa5, W, B                           ; reg: 0x0a5
0014d6:  63a4  cpfseq  0xa4, B                              ; reg: 0x0a4
0014d8:  ef71  goto    label_228                            ; dest: 0x0014e2
0014da:  f00a
0014dc:  6ba5  clrf    0xa5, B                              ; reg: 0x0a5
0014de:  ef72  goto    label_229                            ; dest: 0x0014e4
0014e0:  f00a

label_228:                                                  ; address: 0x0014e2

0014e2:  2ba5  incf    0xa5, F, B                           ; reg: 0x0a5

label_229:                                                  ; address: 0x0014e4

0014e4:  ec51  call    function_023, 0x0                    ; dest: 0x0008a2
0014e6:  f004
0014e8:  c0a5  movff   0x0a5, 0x0ba
0014ea:  f0ba

label_230:                                                  ; address: 0x0014ec

0014ec:  96d8  clrov
0014ee:  a59a  btfss   0x9a, 0x2, B                         ; reg: 0x09a
0014f0:  86d8  setov
0014f2:  b6d8  skpnov
0014f4:  ef89  goto    label_233                            ; dest: 0x001512
0014f6:  f00a
0014f8:  53a5  movf    0xa5, F, B                           ; reg: 0x0a5
0014fa:  a4d8  skpz
0014fc:  ef84  goto    label_231                            ; dest: 0x001508
0014fe:  f00a
001500:  c0a4  movff   0x0a4, 0x0a5
001502:  f0a5
001504:  ef85  goto    label_232                            ; dest: 0x00150a
001506:  f00a

label_231:                                                  ; address: 0x001508

001508:  07a5  decf    0xa5, F, B                           ; reg: 0x0a5

label_232:                                                  ; address: 0x00150a

00150a:  ec51  call    function_023, 0x0                    ; dest: 0x0008a2
00150c:  f004
00150e:  c0a5  movff   0x0a5, 0x0ba
001510:  f0ba

label_233:                                                  ; address: 0x001512

001512:  96d8  clrov
001514:  a79a  btfss   0x9a, 0x3, B                         ; reg: 0x09a
001516:  86d8  setov
001518:  b6d8  skpnov
00151a:  ef99  goto    label_235                            ; dest: 0x001532
00151c:  f00a
00151e:  0e06  movlw   0x06
001520:  61ba  cpfslt  0xba, B                              ; reg: 0x0ba
001522:  ef97  goto    label_234                            ; dest: 0x00152e
001524:  f00a
001526:  ec91  call    function_050, 0x0                    ; dest: 0x001722
001528:  f00b
00152a:  ef99  goto    label_235                            ; dest: 0x001532
00152c:  f00a

label_234:                                                  ; address: 0x00152e

00152e:  ecf7  call    function_049, 0x0                    ; dest: 0x0015ee
001530:  f00a

label_235:                                                  ; address: 0x001532

001532:  0e01  movlw   0x01
001534:  b21f  btfsc   (Common_RAM + 31), 0x1, A            ; reg: 0x01f
001536:  6ae8  clrw
001538:  6e18  movwf   (Common_RAM + 24), A                 ; reg: 0x018
00153a:  6ae8  clrw
00153c:  b79a  btfsc   0x9a, 0x3, B                         ; reg: 0x09a
00153e:  0e01  movlw   0x01
001540:  1218  iorwf   (Common_RAM + 24), F, A              ; reg: 0x018
001542:  6ae8  clrw
001544:  bb9a  btfsc   0x9a, 0x5, B                         ; reg: 0x09a
001546:  0e01  movlw   0x01
001548:  1218  iorwf   (Common_RAM + 24), F, A              ; reg: 0x018
00154a:  6ae8  clrw
00154c:  b99a  btfsc   0x9a, 0x4, B                         ; reg: 0x09a
00154e:  0e01  movlw   0x01
001550:  1218  iorwf   (Common_RAM + 24), F, A              ; reg: 0x018
001552:  b4d8  skpnz
001554:  d797  bra     function_047                         ; dest: 0x001484
001556:  0012  return  0x0

function_048:                                               ; address: 0x001558

001558:  2deb  decfsz  0xeb, W, B                           ; reg: 0x0eb
00155a:  efb8  goto    label_236                            ; dest: 0x001570
00155c:  f00a
00155e:  6bef  clrf    0xef, B                              ; reg: 0x0ef
001560:  0e08  movlw   0x08
001562:  6fee  movwf   0xee, B                              ; reg: 0x0ee
001564:  0e91  movlw   0x91
001566:  6fed  movwf   0xed, B                              ; reg: 0x0ed
001568:  0e3a  movlw   0x3a
00156a:  6fec  movwf   0xec, B                              ; reg: 0x0ec
00156c:  efd6  goto    label_239                            ; dest: 0x0015ac
00156e:  f00a

label_236:                                                  ; address: 0x001570

001570:  0e02  movlw   0x02
001572:  63eb  cpfseq  0xeb, B                              ; reg: 0x0eb
001574:  efc5  goto    label_237                            ; dest: 0x00158a
001576:  f00a
001578:  6bef  clrf    0xef, B                              ; reg: 0x0ef
00157a:  0e22  movlw   0x22
00157c:  6fee  movwf   0xee, B                              ; reg: 0x0ee
00157e:  0e44  movlw   0x44
001580:  6fed  movwf   0xed, B                              ; reg: 0x0ed
001582:  0eeb  movlw   0xeb
001584:  6fec  movwf   0xec, B                              ; reg: 0x0ec
001586:  efd6  goto    label_239                            ; dest: 0x0015ac
001588:  f00a

label_237:                                                  ; address: 0x00158a

00158a:  0e03  movlw   0x03
00158c:  63eb  cpfseq  0xeb, B                              ; reg: 0x0eb
00158e:  efd2  goto    label_238                            ; dest: 0x0015a4
001590:  f00a
001592:  6bef  clrf    0xef, B                              ; reg: 0x0ef
001594:  0e55  movlw   0x55
001596:  6fee  movwf   0xee, B                              ; reg: 0x0ee
001598:  0eac  movlw   0xac
00159a:  6fed  movwf   0xed, B                              ; reg: 0x0ed
00159c:  0e44  movlw   0x44
00159e:  6fec  movwf   0xec, B                              ; reg: 0x0ec
0015a0:  efd6  goto    label_239                            ; dest: 0x0015ac
0015a2:  f00a

label_238:                                                  ; address: 0x0015a4

0015a4:  6bef  clrf    0xef, B                              ; reg: 0x0ef
0015a6:  6bee  clrf    0xee, B                              ; reg: 0x0ee
0015a8:  6bed  clrf    0xed, B                              ; reg: 0x0ed
0015aa:  6bec  clrf    0xec, B                              ; reg: 0x0ec

label_239:                                                  ; address: 0x0015ac

0015ac:  0012  return  0x0
0015ae:  664f  tstfsz  (Common_RAM + 79), A                 ; reg: 0x04f
0015b0:  2066  addwfc  UFRML, W, A                          ; reg: 0xf66
0015b2:  6e28  movwf   (Common_RAM + 40), A                 ; reg: 0x028
0015b4:  206f  addwfc  UCFG, W, A                           ; reg: 0xf6f
0015b6:  6974  setf    0x74, B                              ; reg: 0x074
0015b8:  656d  cpfsgt  0x6d, B                              ; reg: 0x06d
0015ba:  756f  btg     0x6f, 0x2, B                         ; reg: 0x06f
0015bc:  2974  incf    0x74, W, B                           ; reg: 0x074
0015be:  3033  rrcf    (Common_RAM + 51), W, A              ; reg: 0x033
0015c0:  7320  btg     (Common_RAM + 32), 0x1, B            ; reg: 0x020
0015c2:  6365  cpfseq  0x65, B                              ; reg: 0x065
0015c4:  2020  addwfc  (Common_RAM + 32), W, A              ; reg: 0x020
0015c6:  2020  addwfc  (Common_RAM + 32), W, A              ; reg: 0x020
0015c8:  2020  addwfc  (Common_RAM + 32), W, A              ; reg: 0x020
0015ca:  2020  addwfc  (Common_RAM + 32), W, A              ; reg: 0x020
0015cc:  2020  addwfc  (Common_RAM + 32), W, A              ; reg: 0x020
0015ce:  2032  addwfc  (Common_RAM + 50), W, A              ; reg: 0x032
0015d0:  696d  setf    0x6d, B                              ; reg: 0x06d
0015d2:  206e  addwfc  UADDR, W, A                          ; reg: 0xf6e
0015d4:  2020  addwfc  (Common_RAM + 32), W, A              ; reg: 0x020
0015d6:  2020  addwfc  (Common_RAM + 32), W, A              ; reg: 0x020
0015d8:  2020  addwfc  (Common_RAM + 32), W, A              ; reg: 0x020
0015da:  2020  addwfc  (Common_RAM + 32), W, A              ; reg: 0x020
0015dc:  2020  addwfc  (Common_RAM + 32), W, A              ; reg: 0x020
0015de:  2035  addwfc  (Common_RAM + 53), W, A              ; reg: 0x035
0015e0:  696d  setf    0x6d, B                              ; reg: 0x06d
0015e2:  206e  addwfc  UADDR, W, A                          ; reg: 0xf6e
0015e4:  2020  addwfc  (Common_RAM + 32), W, A              ; reg: 0x020
0015e6:  2020  addwfc  (Common_RAM + 32), W, A              ; reg: 0x020
0015e8:  2020  addwfc  (Common_RAM + 32), W, A              ; reg: 0x020
0015ea:  2020  addwfc  (Common_RAM + 32), W, A              ; reg: 0x020
0015ec:  2020  addwfc  (Common_RAM + 32), W, A              ; reg: 0x020

function_049:                                               ; address: 0x0015ee

0015ee:  c0ba  movff   0x0ba, (Common_RAM + 39)             ; reg2: 0x027
0015f0:  f027
0015f2:  0e14  movlw   0x14
0015f4:  6e2a  movwf   (Common_RAM + 42), A                 ; reg: 0x02a
0015f6:  0e14  movlw   0x14
0015f8:  6e29  movwf   (Common_RAM + 41), A                 ; reg: 0x029
0015fa:  0e80  movlw   0x80
0015fc:  6e01  movwf   (Common_RAM + 1), A                  ; reg: 0x001
0015fe:  ec33  call    function_001, 0x0                    ; dest: 0x000066
001600:  f000
001602:  ec9b  call    function_024, 0x0                    ; dest: 0x000936
001604:  f004
001606:  0e03  movlw   0x03
001608:  6fa4  movwf   0xa4, B                              ; reg: 0x0a4
00160a:  0e15  movlw   0x15
00160c:  6fa3  movwf   0xa3, B                              ; reg: 0x0a3
00160e:  0eae  movlw   0xae
001610:  6fa2  movwf   0xa2, B                              ; reg: 0x0a2

label_240:                                                  ; address: 0x001612

001612:  c0eb  movff   0x0eb, 0x0a5
001614:  f0a5
001616:  ecf3  call    function_045, 0x0                    ; dest: 0x000fe6
001618:  f007
00161a:  961f  bcf     (Common_RAM + 31), 0x3, A            ; reg: 0x01f
00161c:  6ae8  clrw
00161e:  b39a  btfsc   0x9a, 0x1, B                         ; reg: 0x09a
001620:  0e01  movlw   0x01
001622:  6e18  movwf   (Common_RAM + 24), A                 ; reg: 0x018
001624:  6ae8  clrw
001626:  b59a  btfsc   0x9a, 0x2, B                         ; reg: 0x09a
001628:  0e01  movlw   0x01
00162a:  1218  iorwf   (Common_RAM + 24), F, A              ; reg: 0x018
00162c:  b4d8  skpnz
00162e:  ef1c  goto    label_241                            ; dest: 0x001638
001630:  f00b
001632:  c0a5  movff   0x0a5, 0x0eb
001634:  f0eb
001636:  df90  rcall   function_048                         ; dest: 0x001558

label_241:                                                  ; address: 0x001638

001638:  6ae8  clrw
00163a:  b79a  btfsc   0x9a, 0x3, B                         ; reg: 0x09a
00163c:  0e01  movlw   0x01
00163e:  6e18  movwf   (Common_RAM + 24), A                 ; reg: 0x018
001640:  0e01  movlw   0x01
001642:  b21f  btfsc   (Common_RAM + 31), 0x1, A            ; reg: 0x01f
001644:  6ae8  clrw
001646:  1218  iorwf   (Common_RAM + 24), F, A              ; reg: 0x018
001648:  b4d8  skpnz
00164a:  d7e3  bra     label_240                            ; dest: 0x001612
00164c:  ec51  call    function_023, 0x0                    ; dest: 0x0008a2
00164e:  f004
001650:  0012  return  0x0
001652:  6f53  movwf   (Common_RAM + 83), B                 ; reg: 0x053
001654:  7275  btg     UEP5, EPINEN, A                      ; reg: 0xf75, bit: 1
001656:  6563  cpfsgt  0x63, B                              ; reg: 0x063
001658:  4320  rrncf   (Common_RAM + 32), F, B              ; reg: 0x020
00165a:  3148  rrcf    (Common_RAM + 72), W, B              ; reg: 0x048
00165c:  203a  addwfc  (Common_RAM + 58), W, A              ; reg: 0x03a
00165e:  2020  addwfc  (Common_RAM + 32), W, A              ; reg: 0x020
001660:  2020  addwfc  (Common_RAM + 32), W, A              ; reg: 0x020
001662:  6f53  movwf   (Common_RAM + 83), B                 ; reg: 0x053
001664:  7275  btg     UEP5, EPINEN, A                      ; reg: 0xf75, bit: 1
001666:  6563  cpfsgt  0x63, B                              ; reg: 0x063
001668:  4320  rrncf   (Common_RAM + 32), F, B              ; reg: 0x020
00166a:  3248  rrcf    (Common_RAM + 72), F, A              ; reg: 0x048
00166c:  203a  addwfc  (Common_RAM + 58), W, A              ; reg: 0x03a
00166e:  2020  addwfc  (Common_RAM + 32), W, A              ; reg: 0x020
001670:  2020  addwfc  (Common_RAM + 32), W, A              ; reg: 0x020
001672:  6f53  movwf   (Common_RAM + 83), B                 ; reg: 0x053
001674:  7275  btg     UEP5, EPINEN, A                      ; reg: 0xf75, bit: 1
001676:  6563  cpfsgt  0x63, B                              ; reg: 0x063
001678:  4320  rrncf   (Common_RAM + 32), F, B              ; reg: 0x020
00167a:  3348  rrcf    (Common_RAM + 72), F, B              ; reg: 0x048
00167c:  203a  addwfc  (Common_RAM + 58), W, A              ; reg: 0x03a
00167e:  2020  addwfc  (Common_RAM + 32), W, A              ; reg: 0x020
001680:  2020  addwfc  (Common_RAM + 32), W, A              ; reg: 0x020
001682:  6f53  movwf   (Common_RAM + 83), B                 ; reg: 0x053
001684:  7275  btg     UEP5, EPINEN, A                      ; reg: 0xf75, bit: 1
001686:  6563  cpfsgt  0x63, B                              ; reg: 0x063
001688:  4320  rrncf   (Common_RAM + 32), F, B              ; reg: 0x020
00168a:  3448  rlcf    (Common_RAM + 72), W, A              ; reg: 0x048
00168c:  203a  addwfc  (Common_RAM + 58), W, A              ; reg: 0x03a
00168e:  2020  addwfc  (Common_RAM + 32), W, A              ; reg: 0x020
001690:  2020  addwfc  (Common_RAM + 32), W, A              ; reg: 0x020
001692:  6f53  movwf   (Common_RAM + 83), B                 ; reg: 0x053
001694:  7275  btg     UEP5, EPINEN, A                      ; reg: 0xf75, bit: 1
001696:  6563  cpfsgt  0x63, B                              ; reg: 0x063
001698:  4320  rrncf   (Common_RAM + 32), F, B              ; reg: 0x020
00169a:  3548  rlcf    (Common_RAM + 72), W, B              ; reg: 0x048
00169c:  203a  addwfc  (Common_RAM + 58), W, A              ; reg: 0x03a
00169e:  2020  addwfc  (Common_RAM + 32), W, A              ; reg: 0x020
0016a0:  2020  addwfc  (Common_RAM + 32), W, A              ; reg: 0x020
0016a2:  6f53  movwf   (Common_RAM + 83), B                 ; reg: 0x053
0016a4:  7275  btg     UEP5, EPINEN, A                      ; reg: 0xf75, bit: 1
0016a6:  6563  cpfsgt  0x63, B                              ; reg: 0x063
0016a8:  4320  rrncf   (Common_RAM + 32), F, B              ; reg: 0x020
0016aa:  3648  rlcf    (Common_RAM + 72), F, A              ; reg: 0x048
0016ac:  203a  addwfc  (Common_RAM + 58), W, A              ; reg: 0x03a
0016ae:  2020  addwfc  (Common_RAM + 32), W, A              ; reg: 0x020
0016b0:  2020  addwfc  (Common_RAM + 32), W, A              ; reg: 0x020
0016b2:  5355  movf    (Common_RAM + 85), F, B              ; reg: 0x055
0016b4:  6142  cpfslt  (Common_RAM + 66), B                 ; reg: 0x042
0016b6:  6475  cpfsgt  UEP5, A                              ; reg: 0xf75
0016b8:  6f69  movwf   0x69, B                              ; reg: 0x069
0016ba:  203a  addwfc  (Common_RAM + 58), W, A              ; reg: 0x03a
0016bc:  2020  addwfc  (Common_RAM + 32), W, A              ; reg: 0x020
0016be:  2020  addwfc  (Common_RAM + 32), W, A              ; reg: 0x020
0016c0:  2020  addwfc  (Common_RAM + 32), W, A              ; reg: 0x020
0016c2:  654c  cpfsgt  (Common_RAM + 76), B                 ; reg: 0x04c
0016c4:  7466  btg     UFRML, FRM2, A                       ; reg: 0xf66, bit: 2
0016c6:  2020  addwfc  (Common_RAM + 32), W, A              ; reg: 0x020
0016c8:  2020  addwfc  (Common_RAM + 32), W, A              ; reg: 0x020
0016ca:  2020  addwfc  (Common_RAM + 32), W, A              ; reg: 0x020
0016cc:  2020  addwfc  (Common_RAM + 32), W, A              ; reg: 0x020
0016ce:  2020  addwfc  (Common_RAM + 32), W, A              ; reg: 0x020
0016d0:  2020  addwfc  (Common_RAM + 32), W, A              ; reg: 0x020
0016d2:  6952  setf    (Common_RAM + 82), B                 ; reg: 0x052
0016d4:  6867  setf    UFRMH, A                             ; reg: 0xf67
0016d6:  2074  addwfc  UEP4, W, A                           ; reg: 0xf74
0016d8:  2020  addwfc  (Common_RAM + 32), W, A              ; reg: 0x020
0016da:  2020  addwfc  (Common_RAM + 32), W, A              ; reg: 0x020
0016dc:  2020  addwfc  (Common_RAM + 32), W, A              ; reg: 0x020
0016de:  2020  addwfc  (Common_RAM + 32), W, A              ; reg: 0x020
0016e0:  2020  addwfc  (Common_RAM + 32), W, A              ; reg: 0x020
0016e2:  2b4c  incf    (Common_RAM + 76), F, B              ; reg: 0x04c
0016e4:  2052  addwfc  (Common_RAM + 82), W, A              ; reg: 0x052
0016e6:  2020  addwfc  (Common_RAM + 32), W, A              ; reg: 0x020
0016e8:  2020  addwfc  (Common_RAM + 32), W, A              ; reg: 0x020
0016ea:  2020  addwfc  (Common_RAM + 32), W, A              ; reg: 0x020
0016ec:  2020  addwfc  (Common_RAM + 32), W, A              ; reg: 0x020
0016ee:  2020  addwfc  (Common_RAM + 32), W, A              ; reg: 0x020
0016f0:  2020  addwfc  (Common_RAM + 32), W, A              ; reg: 0x020
0016f2:  2d4c  decfsz  (Common_RAM + 76), W, B              ; reg: 0x04c
0016f4:  2052  addwfc  (Common_RAM + 82), W, A              ; reg: 0x052
0016f6:  2020  addwfc  (Common_RAM + 32), W, A              ; reg: 0x020
0016f8:  2020  addwfc  (Common_RAM + 32), W, A              ; reg: 0x020
0016fa:  2020  addwfc  (Common_RAM + 32), W, A              ; reg: 0x020
0016fc:  2020  addwfc  (Common_RAM + 32), W, A              ; reg: 0x020
0016fe:  2020  addwfc  (Common_RAM + 32), W, A              ; reg: 0x020
001700:  2020  addwfc  (Common_RAM + 32), W, A              ; reg: 0x020
001702:  4143  rrncf   (Common_RAM + 67), W, B              ; reg: 0x043
001704:  2f54  decfsz  (Common_RAM + 84), F, B              ; reg: 0x054
001706:  4541  rlncf   (Common_RAM + 65), W, B              ; reg: 0x041
001708:  2053  addwfc  (Common_RAM + 83), W, A              ; reg: 0x053
00170a:  2020  addwfc  (Common_RAM + 32), W, A              ; reg: 0x020
00170c:  2020  addwfc  (Common_RAM + 32), W, A              ; reg: 0x020
00170e:  2020  addwfc  (Common_RAM + 32), W, A              ; reg: 0x020
001710:  2020  addwfc  (Common_RAM + 32), W, A              ; reg: 0x020
001712:  2f53  decfsz  (Common_RAM + 83), F, B              ; reg: 0x053
001714:  4450  rlncf   (Common_RAM + 80), W, A              ; reg: 0x050
001716:  4649  rlncf   (Common_RAM + 73), F, A              ; reg: 0x049
001718:  2020  addwfc  (Common_RAM + 32), W, A              ; reg: 0x020
00171a:  2020  addwfc  (Common_RAM + 32), W, A              ; reg: 0x020
00171c:  2020  addwfc  (Common_RAM + 32), W, A              ; reg: 0x020
00171e:  2020  addwfc  (Common_RAM + 32), W, A              ; reg: 0x020
001720:  2020  addwfc  (Common_RAM + 32), W, A              ; reg: 0x020

function_050:                                               ; address: 0x001722

001722:  0e80  movlw   0x80
001724:  6e01  movwf   (Common_RAM + 1), A                  ; reg: 0x001
001726:  ec33  call    function_001, 0x0                    ; dest: 0x000066
001728:  f000
00172a:  c0ba  movff   0x0ba, (Common_RAM + 39)             ; reg2: 0x027
00172c:  f027
00172e:  0e14  movlw   0x14
001730:  6e2a  movwf   (Common_RAM + 42), A                 ; reg: 0x02a
001732:  0e14  movlw   0x14
001734:  6e29  movwf   (Common_RAM + 41), A                 ; reg: 0x029
001736:  ec9b  call    function_024, 0x0                    ; dest: 0x000936
001738:  f004

label_242:                                                  ; address: 0x00173a

00173a:  c0c0  movff   0x0c0, (Common_RAM + 39)             ; reg2: 0x027
00173c:  f027
00173e:  0e16  movlw   0x16
001740:  6e2a  movwf   (Common_RAM + 42), A                 ; reg: 0x02a
001742:  0e52  movlw   0x52
001744:  6e29  movwf   (Common_RAM + 41), A                 ; reg: 0x029
001746:  0e80  movlw   0x80
001748:  6e01  movwf   (Common_RAM + 1), A                  ; reg: 0x001
00174a:  0ec0  movlw   0xc0
00174c:  ec33  call    function_001, 0x0                    ; dest: 0x000066
00174e:  f000
001750:  ec9b  call    function_024, 0x0                    ; dest: 0x000936
001752:  f004
001754:  0e06  movlw   0x06
001756:  61c0  cpfslt  0xc0, B                              ; reg: 0x0c0
001758:  effc  goto    label_249                            ; dest: 0x0017f8
00175a:  f00b
00175c:  53c0  movf    0xc0, F, B                           ; reg: 0x0c0
00175e:  a4d8  skpz
001760:  efb9  goto    label_243                            ; dest: 0x001772
001762:  f00b
001764:  ee00  lfsr    0x0, 0x0c1
001766:  f0c1
001768:  51ba  movf    0xba, W, B                           ; reg: 0x0ba
00176a:  50eb  movf    PLUSW0, W, A                         ; reg: 0xfeb
00176c:  6fa5  movwf   0xa5, B                              ; reg: 0x0a5
00176e:  efed  goto    label_248                            ; dest: 0x0017da
001770:  f00b

label_243:                                                  ; address: 0x001772

001772:  2dc0  decfsz  0xc0, W, B                           ; reg: 0x0c0
001774:  efc3  goto    label_244                            ; dest: 0x001786
001776:  f00b
001778:  ee00  lfsr    0x0, 0x0c7
00177a:  f0c7
00177c:  51ba  movf    0xba, W, B                           ; reg: 0x0ba
00177e:  50eb  movf    PLUSW0, W, A                         ; reg: 0xfeb
001780:  6fa5  movwf   0xa5, B                              ; reg: 0x0a5
001782:  efed  goto    label_248                            ; dest: 0x0017da
001784:  f00b

label_244:                                                  ; address: 0x001786

001786:  0e02  movlw   0x02
001788:  63c0  cpfseq  0xc0, B                              ; reg: 0x0c0
00178a:  efce  goto    label_245                            ; dest: 0x00179c
00178c:  f00b
00178e:  ee00  lfsr    0x0, 0x0cd
001790:  f0cd
001792:  51ba  movf    0xba, W, B                           ; reg: 0x0ba
001794:  50eb  movf    PLUSW0, W, A                         ; reg: 0xfeb
001796:  6fa5  movwf   0xa5, B                              ; reg: 0x0a5
001798:  efed  goto    label_248                            ; dest: 0x0017da
00179a:  f00b

label_245:                                                  ; address: 0x00179c

00179c:  0e03  movlw   0x03
00179e:  63c0  cpfseq  0xc0, B                              ; reg: 0x0c0
0017a0:  efd9  goto    label_246                            ; dest: 0x0017b2
0017a2:  f00b
0017a4:  ee00  lfsr    0x0, 0x0d3
0017a6:  f0d3
0017a8:  51ba  movf    0xba, W, B                           ; reg: 0x0ba
0017aa:  50eb  movf    PLUSW0, W, A                         ; reg: 0xfeb
0017ac:  6fa5  movwf   0xa5, B                              ; reg: 0x0a5
0017ae:  efed  goto    label_248                            ; dest: 0x0017da
0017b0:  f00b

label_246:                                                  ; address: 0x0017b2

0017b2:  0e04  movlw   0x04
0017b4:  63c0  cpfseq  0xc0, B                              ; reg: 0x0c0
0017b6:  efe4  goto    label_247                            ; dest: 0x0017c8
0017b8:  f00b
0017ba:  ee00  lfsr    0x0, 0x0d9
0017bc:  f0d9
0017be:  51ba  movf    0xba, W, B                           ; reg: 0x0ba
0017c0:  50eb  movf    PLUSW0, W, A                         ; reg: 0xfeb
0017c2:  6fa5  movwf   0xa5, B                              ; reg: 0x0a5
0017c4:  efed  goto    label_248                            ; dest: 0x0017da
0017c6:  f00b

label_247:                                                  ; address: 0x0017c8

0017c8:  0e05  movlw   0x05
0017ca:  63c0  cpfseq  0xc0, B                              ; reg: 0x0c0
0017cc:  efed  goto    label_248                            ; dest: 0x0017da
0017ce:  f00b
0017d0:  ee00  lfsr    0x0, 0x0df
0017d2:  f0df
0017d4:  51ba  movf    0xba, W, B                           ; reg: 0x0ba
0017d6:  50eb  movf    PLUSW0, W, A                         ; reg: 0xfeb
0017d8:  6fa5  movwf   0xa5, B                              ; reg: 0x0a5

label_248:                                                  ; address: 0x0017da

0017da:  0e03  movlw   0x03
0017dc:  6fa4  movwf   0xa4, B                              ; reg: 0x0a4
0017de:  c0a5  movff   0x0a5, (Common_RAM + 39)             ; reg2: 0x027
0017e0:  f027
0017e2:  0e16  movlw   0x16
0017e4:  6e2a  movwf   (Common_RAM + 42), A                 ; reg: 0x02a
0017e6:  0ec2  movlw   0xc2
0017e8:  6e29  movwf   (Common_RAM + 41), A                 ; reg: 0x029
0017ea:  0e80  movlw   0x80
0017ec:  6e01  movwf   (Common_RAM + 1), A                  ; reg: 0x001
0017ee:  0ecb  movlw   0xcb
0017f0:  ec33  call    function_001, 0x0                    ; dest: 0x000066
0017f2:  f000
0017f4:  ef0e  goto    label_250                            ; dest: 0x00181c
0017f6:  f00c

label_249:                                                  ; address: 0x0017f8

0017f8:  ee00  lfsr    0x0, 0x0e5
0017fa:  f0e5
0017fc:  51ba  movf    0xba, W, B                           ; reg: 0x0ba
0017fe:  50eb  movf    PLUSW0, W, A                         ; reg: 0xfeb
001800:  6fa5  movwf   0xa5, B                              ; reg: 0x0a5
001802:  0e01  movlw   0x01
001804:  6fa4  movwf   0xa4, B                              ; reg: 0x0a4
001806:  c0a5  movff   0x0a5, (Common_RAM + 39)             ; reg2: 0x027
001808:  f027
00180a:  0e17  movlw   0x17
00180c:  6e2a  movwf   (Common_RAM + 42), A                 ; reg: 0x02a
00180e:  0e02  movlw   0x02
001810:  6e29  movwf   (Common_RAM + 41), A                 ; reg: 0x029
001812:  0e80  movlw   0x80
001814:  6e01  movwf   (Common_RAM + 1), A                  ; reg: 0x001
001816:  0ec9  movlw   0xc9
001818:  ec33  call    function_001, 0x0                    ; dest: 0x000066
00181a:  f000

label_250:                                                  ; address: 0x00181c

00181c:  ec9b  call    function_024, 0x0                    ; dest: 0x000936
00181e:  f004
001820:  ec7f  call    function_042, 0x0                    ; dest: 0x000cfe
001822:  f006
001824:  a61f  btfss   (Common_RAM + 31), 0x3, A            ; reg: 0x01f
001826:  ef1a  goto    label_251                            ; dest: 0x001834
001828:  f00c
00182a:  961f  bcf     (Common_RAM + 31), 0x3, A            ; reg: 0x01f
00182c:  a21f  btfss   (Common_RAM + 31), 0x1, A            ; reg: 0x01f
00182e:  ef1a  goto    label_251                            ; dest: 0x001834
001830:  f00c
001832:  d777  bra     function_050                         ; dest: 0x001722

label_251:                                                  ; address: 0x001834

001834:  319a  rrcf    0x9a, W, B                           ; reg: 0x09a
001836:  32e8  rrcf    WREG, F, A                           ; reg: 0xfe8
001838:  a0d8  skpc
00183a:  ef29  goto    label_254                            ; dest: 0x001852
00183c:  f00c
00183e:  51a5  movf    0xa5, W, B                           ; reg: 0x0a5
001840:  63a4  cpfseq  0xa4, B                              ; reg: 0x0a4
001842:  ef26  goto    label_252                            ; dest: 0x00184c
001844:  f00c
001846:  6ba5  clrf    0xa5, B                              ; reg: 0x0a5
001848:  ef27  goto    label_253                            ; dest: 0x00184e
00184a:  f00c

label_252:                                                  ; address: 0x00184c

00184c:  2ba5  incf    0xa5, F, B                           ; reg: 0x0a5

label_253:                                                  ; address: 0x00184e

00184e:  ec64  call    function_051, 0x0                    ; dest: 0x0018c8
001850:  f00c

label_254:                                                  ; address: 0x001852

001852:  96d8  clrov
001854:  a59a  btfss   0x9a, 0x2, B                         ; reg: 0x09a
001856:  86d8  setov
001858:  b6d8  skpnov
00185a:  ef3a  goto    label_257                            ; dest: 0x001874
00185c:  f00c
00185e:  53a5  movf    0xa5, F, B                           ; reg: 0x0a5
001860:  a4d8  skpz
001862:  ef37  goto    label_255                            ; dest: 0x00186e
001864:  f00c
001866:  c0a4  movff   0x0a4, 0x0a5
001868:  f0a5
00186a:  ef38  goto    label_256                            ; dest: 0x001870
00186c:  f00c

label_255:                                                  ; address: 0x00186e

00186e:  07a5  decf    0xa5, F, B                           ; reg: 0x0a5

label_256:                                                  ; address: 0x001870

001870:  ec64  call    function_051, 0x0                    ; dest: 0x0018c8
001872:  f00c

label_257:                                                  ; address: 0x001874

001874:  96d8  clrov
001876:  ab9a  btfss   0x9a, 0x5, B                         ; reg: 0x09a
001878:  86d8  setov
00187a:  b6d8  skpnov
00187c:  ef48  goto    label_259                            ; dest: 0x001890
00187e:  f00c
001880:  0e06  movlw   0x06
001882:  63c0  cpfseq  0xc0, B                              ; reg: 0x0c0
001884:  ef47  goto    label_258                            ; dest: 0x00188e
001886:  f00c
001888:  6bc0  clrf    0xc0, B                              ; reg: 0x0c0
00188a:  ef48  goto    label_259                            ; dest: 0x001890
00188c:  f00c

label_258:                                                  ; address: 0x00188e

00188e:  2bc0  incf    0xc0, F, B                           ; reg: 0x0c0

label_259:                                                  ; address: 0x001890

001890:  96d8  clrov
001892:  a99a  btfss   0x9a, 0x4, B                         ; reg: 0x09a
001894:  86d8  setov
001896:  b6d8  skpnov
001898:  ef57  goto    label_261                            ; dest: 0x0018ae
00189a:  f00c
00189c:  53c0  movf    0xc0, F, B                           ; reg: 0x0c0
00189e:  a4d8  skpz
0018a0:  ef56  goto    label_260                            ; dest: 0x0018ac
0018a2:  f00c
0018a4:  0e06  movlw   0x06
0018a6:  6fc0  movwf   0xc0, B                              ; reg: 0x0c0
0018a8:  ef57  goto    label_261                            ; dest: 0x0018ae
0018aa:  f00c

label_260:                                                  ; address: 0x0018ac

0018ac:  07c0  decf    0xc0, F, B                           ; reg: 0x0c0

label_261:                                                  ; address: 0x0018ae

0018ae:  6ae8  clrw
0018b0:  b79a  btfsc   0x9a, 0x3, B                         ; reg: 0x09a
0018b2:  0e01  movlw   0x01
0018b4:  6e18  movwf   (Common_RAM + 24), A                 ; reg: 0x018
0018b6:  0e01  movlw   0x01
0018b8:  b21f  btfsc   (Common_RAM + 31), 0x1, A            ; reg: 0x01f
0018ba:  6ae8  clrw
0018bc:  1218  iorwf   (Common_RAM + 24), F, A              ; reg: 0x018
0018be:  b4d8  skpnz
0018c0:  d73c  bra     label_242                            ; dest: 0x00173a
0018c2:  ec51  call    function_023, 0x0                    ; dest: 0x0008a2
0018c4:  f004
0018c6:  0012  return  0x0

function_051:                                               ; address: 0x0018c8

0018c8:  ec51  call    function_023, 0x0                    ; dest: 0x0008a2
0018ca:  f004
0018cc:  0e06  movlw   0x06
0018ce:  61c0  cpfslt  0xc0, B                              ; reg: 0x0c0
0018d0:  efab  goto    label_268                            ; dest: 0x001956
0018d2:  f00c
0018d4:  53c0  movf    0xc0, F, B                           ; reg: 0x0c0
0018d6:  a4d8  skpz
0018d8:  ef75  goto    label_262                            ; dest: 0x0018ea
0018da:  f00c
0018dc:  ee00  lfsr    0x0, 0x0c1
0018de:  f0c1
0018e0:  51ba  movf    0xba, W, B                           ; reg: 0x0ba
0018e2:  c0a5  movff   0x0a5, PLUSW0                        ; reg2: 0xfeb
0018e4:  ffeb
0018e6:  efa9  goto    label_267                            ; dest: 0x001952
0018e8:  f00c

label_262:                                                  ; address: 0x0018ea

0018ea:  2dc0  decfsz  0xc0, W, B                           ; reg: 0x0c0
0018ec:  ef7f  goto    label_263                            ; dest: 0x0018fe
0018ee:  f00c
0018f0:  ee00  lfsr    0x0, 0x0c7
0018f2:  f0c7
0018f4:  51ba  movf    0xba, W, B                           ; reg: 0x0ba
0018f6:  c0a5  movff   0x0a5, PLUSW0                        ; reg2: 0xfeb
0018f8:  ffeb
0018fa:  efa9  goto    label_267                            ; dest: 0x001952
0018fc:  f00c

label_263:                                                  ; address: 0x0018fe

0018fe:  0e02  movlw   0x02
001900:  63c0  cpfseq  0xc0, B                              ; reg: 0x0c0
001902:  ef8a  goto    label_264                            ; dest: 0x001914
001904:  f00c
001906:  ee00  lfsr    0x0, 0x0cd
001908:  f0cd
00190a:  51ba  movf    0xba, W, B                           ; reg: 0x0ba
00190c:  c0a5  movff   0x0a5, PLUSW0                        ; reg2: 0xfeb
00190e:  ffeb
001910:  efa9  goto    label_267                            ; dest: 0x001952
001912:  f00c

label_264:                                                  ; address: 0x001914

001914:  0e03  movlw   0x03
001916:  63c0  cpfseq  0xc0, B                              ; reg: 0x0c0
001918:  ef95  goto    label_265                            ; dest: 0x00192a
00191a:  f00c
00191c:  ee00  lfsr    0x0, 0x0d3
00191e:  f0d3
001920:  51ba  movf    0xba, W, B                           ; reg: 0x0ba
001922:  c0a5  movff   0x0a5, PLUSW0                        ; reg2: 0xfeb
001924:  ffeb
001926:  efa9  goto    label_267                            ; dest: 0x001952
001928:  f00c

label_265:                                                  ; address: 0x00192a

00192a:  0e04  movlw   0x04
00192c:  63c0  cpfseq  0xc0, B                              ; reg: 0x0c0
00192e:  efa0  goto    label_266                            ; dest: 0x001940
001930:  f00c
001932:  ee00  lfsr    0x0, 0x0d9
001934:  f0d9
001936:  51ba  movf    0xba, W, B                           ; reg: 0x0ba
001938:  c0a5  movff   0x0a5, PLUSW0                        ; reg2: 0xfeb
00193a:  ffeb
00193c:  efa9  goto    label_267                            ; dest: 0x001952
00193e:  f00c

label_266:                                                  ; address: 0x001940

001940:  0e05  movlw   0x05
001942:  63c0  cpfseq  0xc0, B                              ; reg: 0x0c0
001944:  efa9  goto    label_267                            ; dest: 0x001952
001946:  f00c
001948:  ee00  lfsr    0x0, 0x0df
00194a:  f0df
00194c:  51ba  movf    0xba, W, B                           ; reg: 0x0ba
00194e:  c0a5  movff   0x0a5, PLUSW0                        ; reg2: 0xfeb
001950:  ffeb

label_267:                                                  ; address: 0x001952

001952:  efb0  goto    label_269                            ; dest: 0x001960
001954:  f00c

label_268:                                                  ; address: 0x001956

001956:  ee00  lfsr    0x0, 0x0e5
001958:  f0e5
00195a:  51ba  movf    0xba, W, B                           ; reg: 0x0ba
00195c:  c0a5  movff   0x0a5, PLUSW0                        ; reg2: 0xfeb
00195e:  ffeb

label_269:                                                  ; address: 0x001960

001960:  0012  return  0x0
001962:  7541  btg     (Common_RAM + 65), 0x2, B            ; reg: 0x041
001964:  6f74  movwf   0x74, B                              ; reg: 0x074
001966:  4420  rlncf   (Common_RAM + 32), W, A              ; reg: 0x020
001968:  7465  btg     0x65, 0x2, A                         ; reg: 0xf65
00196a:  6365  cpfseq  0x65, B                              ; reg: 0x065
00196c:  2074  addwfc  UEP4, W, A                           ; reg: 0xf74
00196e:  2020  addwfc  (Common_RAM + 32), W, A              ; reg: 0x020
001970:  2020  addwfc  (Common_RAM + 32), W, A              ; reg: 0x020
001972:  2f53  decfsz  (Common_RAM + 83), F, B              ; reg: 0x053
001974:  4450  rlncf   (Common_RAM + 80), W, A              ; reg: 0x050
001976:  4649  rlncf   (Common_RAM + 73), F, A              ; reg: 0x049
001978:  2020  addwfc  (Common_RAM + 32), W, A              ; reg: 0x020
00197a:  2020  addwfc  (Common_RAM + 32), W, A              ; reg: 0x020
00197c:  2020  addwfc  (Common_RAM + 32), W, A              ; reg: 0x020
00197e:  2020  addwfc  (Common_RAM + 32), W, A              ; reg: 0x020
001980:  2020  addwfc  (Common_RAM + 32), W, A              ; reg: 0x020
001982:  5355  movf    (Common_RAM + 85), F, B              ; reg: 0x055
001984:  2042  addwfc  (Common_RAM + 66), W, A              ; reg: 0x042
001986:  7541  btg     (Common_RAM + 65), 0x2, B            ; reg: 0x041
001988:  6964  setf    0x64, B                              ; reg: 0x064
00198a:  206f  addwfc  UCFG, W, A                           ; reg: 0xf6f
00198c:  2020  addwfc  (Common_RAM + 32), W, A              ; reg: 0x020
00198e:  2020  addwfc  (Common_RAM + 32), W, A              ; reg: 0x020
001990:  2020  addwfc  (Common_RAM + 32), W, A              ; reg: 0x020
001992:  4541  rlncf   (Common_RAM + 65), W, B              ; reg: 0x041
001994:  2053  addwfc  (Common_RAM + 83), W, A              ; reg: 0x053
001996:  2020  addwfc  (Common_RAM + 32), W, A              ; reg: 0x020
001998:  2020  addwfc  (Common_RAM + 32), W, A              ; reg: 0x020
00199a:  2020  addwfc  (Common_RAM + 32), W, A              ; reg: 0x020
00199c:  2020  addwfc  (Common_RAM + 32), W, A              ; reg: 0x020
00199e:  2020  addwfc  (Common_RAM + 32), W, A              ; reg: 0x020
0019a0:  2020  addwfc  (Common_RAM + 32), W, A              ; reg: 0x020
0019a2:  704f  btg     (Common_RAM + 79), 0x0, A            ; reg: 0x04f
0019a4:  6974  setf    0x74, B                              ; reg: 0x074
0019a6:  6163  cpfslt  0x63, B                              ; reg: 0x063
0019a8:  206c  addwfc  USTAT, W, A                          ; reg: 0xf6c
0019aa:  2020  addwfc  (Common_RAM + 32), W, A              ; reg: 0x020
0019ac:  2020  addwfc  (Common_RAM + 32), W, A              ; reg: 0x020
0019ae:  2020  addwfc  (Common_RAM + 32), W, A              ; reg: 0x020
0019b0:  2020  addwfc  (Common_RAM + 32), W, A              ; reg: 0x020
0019b2:  6e41  movwf   (Common_RAM + 65), A                 ; reg: 0x041
0019b4:  6c61  negf    0x61, A                              ; reg: 0xf61
0019b6:  676f  tstfsz  0x6f, B                              ; reg: 0x06f
0019b8:  6575  cpfsgt  0x75, B                              ; reg: 0x075
0019ba:  3120  rrcf    (Common_RAM + 32), W, B              ; reg: 0x020
0019bc:  2020  addwfc  (Common_RAM + 32), W, A              ; reg: 0x020
0019be:  2020  addwfc  (Common_RAM + 32), W, A              ; reg: 0x020
0019c0:  2020  addwfc  (Common_RAM + 32), W, A              ; reg: 0x020
0019c2:  6e41  movwf   (Common_RAM + 65), A                 ; reg: 0x041
0019c4:  6c61  negf    0x61, A                              ; reg: 0xf61
0019c6:  676f  tstfsz  0x6f, B                              ; reg: 0x06f
0019c8:  6575  cpfsgt  0x75, B                              ; reg: 0x075
0019ca:  3220  rrcf    (Common_RAM + 32), F, A              ; reg: 0x020
0019cc:  2020  addwfc  (Common_RAM + 32), W, A              ; reg: 0x020
0019ce:  2020  addwfc  (Common_RAM + 32), W, A              ; reg: 0x020
0019d0:  2020  addwfc  (Common_RAM + 32), W, A              ; reg: 0x020
0019d2:  6e41  movwf   (Common_RAM + 65), A                 ; reg: 0x041
0019d4:  6c61  negf    0x61, A                              ; reg: 0xf61
0019d6:  676f  tstfsz  0x6f, B                              ; reg: 0x06f
0019d8:  6575  cpfsgt  0x75, B                              ; reg: 0x075
0019da:  3320  rrcf    (Common_RAM + 32), F, B              ; reg: 0x020
0019dc:  2020  addwfc  (Common_RAM + 32), W, A              ; reg: 0x020
0019de:  2020  addwfc  (Common_RAM + 32), W, A              ; reg: 0x020
0019e0:  2020  addwfc  (Common_RAM + 32), W, A              ; reg: 0x020
0019e2:  6e41  movwf   (Common_RAM + 65), A                 ; reg: 0x041
0019e4:  6c61  negf    0x61, A                              ; reg: 0xf61
0019e6:  676f  tstfsz  0x6f, B                              ; reg: 0x06f
0019e8:  6575  cpfsgt  0x75, B                              ; reg: 0x075
0019ea:  3420  rlcf    (Common_RAM + 32), W, A              ; reg: 0x020
0019ec:  2020  addwfc  (Common_RAM + 32), W, A              ; reg: 0x020
0019ee:  2020  addwfc  (Common_RAM + 32), W, A              ; reg: 0x020
0019f0:  2020  addwfc  (Common_RAM + 32), W, A              ; reg: 0x020

function_052:                                               ; address: 0x0019f2

0019f2:  0e80  movlw   0x80
0019f4:  6e01  movwf   (Common_RAM + 1), A                  ; reg: 0x001
0019f6:  ec33  call    function_001, 0x0                    ; dest: 0x000066
0019f8:  f000
0019fa:  c0bf  movff   0x0bf, (Common_RAM + 39)             ; reg2: 0x027
0019fc:  f027
0019fe:  0e10  movlw   0x10
001a00:  6e2a  movwf   (Common_RAM + 42), A                 ; reg: 0x02a
001a02:  0e52  movlw   0x52
001a04:  6e29  movwf   (Common_RAM + 41), A                 ; reg: 0x029
001a06:  ec9b  call    function_024, 0x0                    ; dest: 0x000936
001a08:  f004

label_270:                                                  ; address: 0x001a0a

001a0a:  c0b7  movff   0x0b7, (Common_RAM + 39)             ; reg2: 0x027
001a0c:  f027
001a0e:  0e19  movlw   0x19
001a10:  6e2a  movwf   (Common_RAM + 42), A                 ; reg: 0x02a
001a12:  0e62  movlw   0x62
001a14:  6e29  movwf   (Common_RAM + 41), A                 ; reg: 0x029
001a16:  c0b7  movff   0x0b7, 0x0a5
001a18:  f0a5
001a1a:  53a1  movf    0xa1, F, B                           ; reg: 0x0a1
001a1c:  a4d8  skpz
001a1e:  ef15  goto    label_271                            ; dest: 0x001a2a
001a20:  f00d
001a22:  0e05  movlw   0x05
001a24:  6fa4  movwf   0xa4, B                              ; reg: 0x0a4
001a26:  ef2a  goto    label_274                            ; dest: 0x001a54
001a28:  f00d

label_271:                                                  ; address: 0x001a2a

001a2a:  2da1  decfsz  0xa1, W, B                           ; reg: 0x0a1
001a2c:  ef1c  goto    label_272                            ; dest: 0x001a38
001a2e:  f00d
001a30:  0e06  movlw   0x06
001a32:  6fa4  movwf   0xa4, B                              ; reg: 0x0a4
001a34:  ef2a  goto    label_274                            ; dest: 0x001a54
001a36:  f00d

label_272:                                                  ; address: 0x001a38

001a38:  0e02  movlw   0x02
001a3a:  63a1  cpfseq  0xa1, B                              ; reg: 0x0a1
001a3c:  ef24  goto    label_273                            ; dest: 0x001a48
001a3e:  f00d
001a40:  0e07  movlw   0x07
001a42:  6fa4  movwf   0xa4, B                              ; reg: 0x0a4
001a44:  ef2a  goto    label_274                            ; dest: 0x001a54
001a46:  f00d

label_273:                                                  ; address: 0x001a48

001a48:  0e03  movlw   0x03
001a4a:  63a1  cpfseq  0xa1, B                              ; reg: 0x0a1
001a4c:  ef2a  goto    label_274                            ; dest: 0x001a54
001a4e:  f00d
001a50:  0e08  movlw   0x08
001a52:  6fa4  movwf   0xa4, B                              ; reg: 0x0a4

label_274:                                                  ; address: 0x001a54

001a54:  0e80  movlw   0x80
001a56:  6e01  movwf   (Common_RAM + 1), A                  ; reg: 0x001
001a58:  0ec0  movlw   0xc0
001a5a:  ec33  call    function_001, 0x0                    ; dest: 0x000066
001a5c:  f000
001a5e:  ec9b  call    function_024, 0x0                    ; dest: 0x000936
001a60:  f004
001a62:  ec7f  call    function_042, 0x0                    ; dest: 0x000cfe
001a64:  f006
001a66:  a61f  btfss   (Common_RAM + 31), 0x3, A            ; reg: 0x01f
001a68:  ef3b  goto    label_275                            ; dest: 0x001a76
001a6a:  f00d
001a6c:  961f  bcf     (Common_RAM + 31), 0x3, A            ; reg: 0x01f
001a6e:  a21f  btfss   (Common_RAM + 31), 0x1, A            ; reg: 0x01f
001a70:  ef3b  goto    label_275                            ; dest: 0x001a76
001a72:  f00d
001a74:  d7be  bra     function_052                         ; dest: 0x0019f2

label_275:                                                  ; address: 0x001a76

001a76:  319a  rrcf    0x9a, W, B                           ; reg: 0x09a
001a78:  32e8  rrcf    WREG, F, A                           ; reg: 0xfe8
001a7a:  a0d8  skpc
001a7c:  ef50  goto    label_278                            ; dest: 0x001aa0
001a7e:  f00d
001a80:  51a5  movf    0xa5, W, B                           ; reg: 0x0a5
001a82:  63a4  cpfseq  0xa4, B                              ; reg: 0x0a4
001a84:  ef47  goto    label_276                            ; dest: 0x001a8e
001a86:  f00d
001a88:  6ba5  clrf    0xa5, B                              ; reg: 0x0a5
001a8a:  ef48  goto    label_277                            ; dest: 0x001a90
001a8c:  f00d

label_276:                                                  ; address: 0x001a8e

001a8e:  2ba5  incf    0xa5, F, B                           ; reg: 0x0a5

label_277:                                                  ; address: 0x001a90

001a90:  ec51  call    function_023, 0x0                    ; dest: 0x0008a2
001a92:  f004
001a94:  c0a5  movff   0x0a5, 0x0b7
001a96:  f0b7
001a98:  ecb0  call    function_022, 0x0                    ; dest: 0x000760
001a9a:  f003
001a9c:  ec37  call    function_037, 0x0                    ; dest: 0x000c6e
001a9e:  f006

label_278:                                                  ; address: 0x001aa0

001aa0:  96d8  clrov
001aa2:  a59a  btfss   0x9a, 0x2, B                         ; reg: 0x09a
001aa4:  86d8  setov
001aa6:  b6d8  skpnov
001aa8:  ef67  goto    label_281                            ; dest: 0x001ace
001aaa:  f00d
001aac:  53a5  movf    0xa5, F, B                           ; reg: 0x0a5
001aae:  a4d8  skpz
001ab0:  ef5e  goto    label_279                            ; dest: 0x001abc
001ab2:  f00d
001ab4:  c0a4  movff   0x0a4, 0x0a5
001ab6:  f0a5
001ab8:  ef5f  goto    label_280                            ; dest: 0x001abe
001aba:  f00d

label_279:                                                  ; address: 0x001abc

001abc:  07a5  decf    0xa5, F, B                           ; reg: 0x0a5

label_280:                                                  ; address: 0x001abe

001abe:  ec51  call    function_023, 0x0                    ; dest: 0x0008a2
001ac0:  f004
001ac2:  c0a5  movff   0x0a5, 0x0b7
001ac4:  f0b7
001ac6:  ecb0  call    function_022, 0x0                    ; dest: 0x000760
001ac8:  f003
001aca:  ec37  call    function_037, 0x0                    ; dest: 0x000c6e
001acc:  f006

label_281:                                                  ; address: 0x001ace

001ace:  6ae8  clrw
001ad0:  bb9a  btfsc   0x9a, 0x5, B                         ; reg: 0x09a
001ad2:  0e01  movlw   0x01
001ad4:  6e18  movwf   (Common_RAM + 24), A                 ; reg: 0x018
001ad6:  6ae8  clrw
001ad8:  b99a  btfsc   0x9a, 0x4, B                         ; reg: 0x09a
001ada:  0e01  movlw   0x01
001adc:  1218  iorwf   (Common_RAM + 24), F, A              ; reg: 0x018
001ade:  0e01  movlw   0x01
001ae0:  b21f  btfsc   (Common_RAM + 31), 0x1, A            ; reg: 0x01f
001ae2:  6ae8  clrw
001ae4:  1218  iorwf   (Common_RAM + 24), F, A              ; reg: 0x018
001ae6:  b4d8  skpnz
001ae8:  d790  bra     label_270                            ; dest: 0x001a0a
001aea:  0012  return  0x0
001aec:  ffff  dw      0xffff
001aee:  ffff  dw      0xffff
001af0:  ffff  dw      0xffff
001af2:  ffff  dw      0xffff
001af4:  ffff  dw      0xffff
001af6:  ffff  dw      0xffff
001af8:  ffff  dw      0xffff
001afa:  ffff  dw      0xffff
001afc:  ffff  dw      0xffff
001afe:  ffff  dw      0xffff
001b00:  ffff  dw      0xffff
001b02:  ffff  dw      0xffff
001b04:  ffff  dw      0xffff
001b06:  ffff  dw      0xffff
001b08:  ffff  dw      0xffff
001b0a:  ffff  dw      0xffff
001b0c:  ffff  dw      0xffff
001b0e:  ffff  dw      0xffff
001b10:  ffff  dw      0xffff
001b12:  ffff  dw      0xffff
001b14:  ffff  dw      0xffff
001b16:  ffff  dw      0xffff
001b18:  ffff  dw      0xffff
001b1a:  ffff  dw      0xffff
001b1c:  ffff  dw      0xffff
001b1e:  ffff  dw      0xffff
001b20:  ffff  dw      0xffff
001b22:  ffff  dw      0xffff
001b24:  ffff  dw      0xffff
001b26:  ffff  dw      0xffff
001b28:  ffff  dw      0xffff
001b2a:  ffff  dw      0xffff
001b2c:  ffff  dw      0xffff
001b2e:  ffff  dw      0xffff
001b30:  ffff  dw      0xffff
001b32:  ffff  dw      0xffff
001b34:  ffff  dw      0xffff
001b36:  ffff  dw      0xffff
001b38:  ffff  dw      0xffff
001b3a:  ffff  dw      0xffff
001b3c:  ffff  dw      0xffff
001b3e:  ffff  dw      0xffff
001b40:  ffff  dw      0xffff
001b42:  ffff  dw      0xffff
001b44:  ffff  dw      0xffff
001b46:  ffff  dw      0xffff
001b48:  ffff  dw      0xffff
001b4a:  ffff  dw      0xffff
001b4c:  ffff  dw      0xffff
001b4e:  ffff  dw      0xffff
001b50:  ffff  dw      0xffff
001b52:  ffff  dw      0xffff
001b54:  ffff  dw      0xffff
001b56:  ffff  dw      0xffff
001b58:  ffff  dw      0xffff
001b5a:  ffff  dw      0xffff
001b5c:  ffff  dw      0xffff
001b5e:  ffff  dw      0xffff
001b60:  ffff  dw      0xffff
001b62:  ffff  dw      0xffff
001b64:  ffff  dw      0xffff
001b66:  ffff  dw      0xffff
001b68:  ffff  dw      0xffff
001b6a:  ffff  dw      0xffff
001b6c:  ffff  dw      0xffff
001b6e:  ffff  dw      0xffff
001b70:  ffff  dw      0xffff
001b72:  ffff  dw      0xffff
001b74:  ffff  dw      0xffff
001b76:  ffff  dw      0xffff
001b78:  ffff  dw      0xffff
001b7a:  ffff  dw      0xffff
001b7c:  ffff  dw      0xffff
001b7e:  ffff  dw      0xffff
001b80:  ffff  dw      0xffff
001b82:  ffff  dw      0xffff
001b84:  ffff  dw      0xffff
001b86:  ffff  dw      0xffff
001b88:  ffff  dw      0xffff
001b8a:  ffff  dw      0xffff
001b8c:  ffff  dw      0xffff
001b8e:  ffff  dw      0xffff
001b90:  ffff  dw      0xffff
001b92:  ffff  dw      0xffff
001b94:  ffff  dw      0xffff
001b96:  ffff  dw      0xffff
001b98:  ffff  dw      0xffff
001b9a:  ffff  dw      0xffff
001b9c:  ffff  dw      0xffff
001b9e:  ffff  dw      0xffff
001ba0:  ffff  dw      0xffff
001ba2:  ffff  dw      0xffff
001ba4:  ffff  dw      0xffff
001ba6:  ffff  dw      0xffff
001ba8:  ffff  dw      0xffff
001baa:  ffff  dw      0xffff
001bac:  ffff  dw      0xffff
001bae:  ffff  dw      0xffff
001bb0:  ffff  dw      0xffff
001bb2:  ffff  dw      0xffff
001bb4:  ffff  dw      0xffff
001bb6:  ffff  dw      0xffff
001bb8:  ffff  dw      0xffff
001bba:  ffff  dw      0xffff
001bbc:  ffff  dw      0xffff
001bbe:  ffff  dw      0xffff
001bc0:  ffff  dw      0xffff
001bc2:  ffff  dw      0xffff
001bc4:  ffff  dw      0xffff
001bc6:  ffff  dw      0xffff
001bc8:  ffff  dw      0xffff
001bca:  ffff  dw      0xffff
001bcc:  ffff  dw      0xffff
001bce:  ffff  dw      0xffff
001bd0:  ffff  dw      0xffff
001bd2:  ffff  dw      0xffff
001bd4:  ffff  dw      0xffff
001bd6:  ffff  dw      0xffff
001bd8:  ffff  dw      0xffff
001bda:  ffff  dw      0xffff
001bdc:  ffff  dw      0xffff
001bde:  ffff  dw      0xffff
001be0:  ffff  dw      0xffff
001be2:  ffff  dw      0xffff
001be4:  ffff  dw      0xffff
001be6:  ffff  dw      0xffff
001be8:  ffff  dw      0xffff
001bea:  ffff  dw      0xffff
001bec:  ffff  dw      0xffff
001bee:  ffff  dw      0xffff
001bf0:  ffff  dw      0xffff
001bf2:  ffff  dw      0xffff
001bf4:  ffff  dw      0xffff
001bf6:  ffff  dw      0xffff
001bf8:  ffff  dw      0xffff
001bfa:  ffff  dw      0xffff
001bfc:  ffff  dw      0xffff
001bfe:  ffff  dw      0xffff
001c00:  ffff  dw      0xffff
001c02:  ffff  dw      0xffff
001c04:  ffff  dw      0xffff
001c06:  ffff  dw      0xffff
001c08:  ffff  dw      0xffff
001c0a:  ffff  dw      0xffff
001c0c:  ffff  dw      0xffff
001c0e:  ffff  dw      0xffff
001c10:  ffff  dw      0xffff
001c12:  ffff  dw      0xffff
001c14:  ffff  dw      0xffff
001c16:  ffff  dw      0xffff
001c18:  ffff  dw      0xffff
001c1a:  ffff  dw      0xffff
001c1c:  ffff  dw      0xffff
001c1e:  ffff  dw      0xffff
001c20:  ffff  dw      0xffff
001c22:  ffff  dw      0xffff
001c24:  ffff  dw      0xffff
001c26:  ffff  dw      0xffff
001c28:  ffff  dw      0xffff
001c2a:  ffff  dw      0xffff
001c2c:  ffff  dw      0xffff
001c2e:  ffff  dw      0xffff
001c30:  ffff  dw      0xffff
001c32:  ffff  dw      0xffff
001c34:  ffff  dw      0xffff
001c36:  ffff  dw      0xffff
001c38:  ffff  dw      0xffff
001c3a:  ffff  dw      0xffff
001c3c:  ffff  dw      0xffff
001c3e:  ffff  dw      0xffff
001c40:  ffff  dw      0xffff
001c42:  ffff  dw      0xffff
001c44:  ffff  dw      0xffff
001c46:  ffff  dw      0xffff
001c48:  ffff  dw      0xffff
001c4a:  ffff  dw      0xffff
001c4c:  ffff  dw      0xffff
001c4e:  ffff  dw      0xffff
001c50:  ffff  dw      0xffff
001c52:  ffff  dw      0xffff
001c54:  ffff  dw      0xffff
001c56:  ffff  dw      0xffff
001c58:  ffff  dw      0xffff
001c5a:  ffff  dw      0xffff
001c5c:  ffff  dw      0xffff
001c5e:  ffff  dw      0xffff
001c60:  ffff  dw      0xffff
001c62:  ffff  dw      0xffff
001c64:  ffff  dw      0xffff
001c66:  ffff  dw      0xffff
001c68:  ffff  dw      0xffff
001c6a:  ffff  dw      0xffff
001c6c:  ffff  dw      0xffff
001c6e:  ffff  dw      0xffff
001c70:  ffff  dw      0xffff
001c72:  ffff  dw      0xffff
001c74:  ffff  dw      0xffff
001c76:  ffff  dw      0xffff
001c78:  ffff  dw      0xffff
001c7a:  ffff  dw      0xffff
001c7c:  ffff  dw      0xffff
001c7e:  ffff  dw      0xffff
001c80:  ffff  dw      0xffff
001c82:  ffff  dw      0xffff
001c84:  ffff  dw      0xffff
001c86:  ffff  dw      0xffff
001c88:  ffff  dw      0xffff
001c8a:  ffff  dw      0xffff
001c8c:  ffff  dw      0xffff
001c8e:  ffff  dw      0xffff
001c90:  ffff  dw      0xffff
001c92:  ffff  dw      0xffff
001c94:  ffff  dw      0xffff
001c96:  ffff  dw      0xffff
001c98:  ffff  dw      0xffff
001c9a:  ffff  dw      0xffff
001c9c:  ffff  dw      0xffff
001c9e:  ffff  dw      0xffff
001ca0:  ffff  dw      0xffff
001ca2:  ffff  dw      0xffff
001ca4:  ffff  dw      0xffff
001ca6:  ffff  dw      0xffff
001ca8:  ffff  dw      0xffff
001caa:  ffff  dw      0xffff
001cac:  ffff  dw      0xffff
001cae:  ffff  dw      0xffff
001cb0:  ffff  dw      0xffff
001cb2:  ffff  dw      0xffff
001cb4:  ffff  dw      0xffff
001cb6:  ffff  dw      0xffff
001cb8:  ffff  dw      0xffff
001cba:  ffff  dw      0xffff
001cbc:  ffff  dw      0xffff
001cbe:  ffff  dw      0xffff
001cc0:  ffff  dw      0xffff
001cc2:  ffff  dw      0xffff
001cc4:  ffff  dw      0xffff
001cc6:  ffff  dw      0xffff
001cc8:  ffff  dw      0xffff
001cca:  ffff  dw      0xffff
001ccc:  ffff  dw      0xffff
001cce:  ffff  dw      0xffff
001cd0:  ffff  dw      0xffff
001cd2:  ffff  dw      0xffff
001cd4:  ffff  dw      0xffff
001cd6:  ffff  dw      0xffff
001cd8:  ffff  dw      0xffff
001cda:  ffff  dw      0xffff
001cdc:  ffff  dw      0xffff
001cde:  ffff  dw      0xffff
001ce0:  ffff  dw      0xffff
001ce2:  ffff  dw      0xffff
001ce4:  ffff  dw      0xffff
001ce6:  ffff  dw      0xffff
001ce8:  ffff  dw      0xffff
001cea:  ffff  dw      0xffff
001cec:  ffff  dw      0xffff
001cee:  ffff  dw      0xffff
001cf0:  ffff  dw      0xffff
001cf2:  ffff  dw      0xffff
001cf4:  ffff  dw      0xffff
001cf6:  ffff  dw      0xffff
001cf8:  ffff  dw      0xffff
001cfa:  ffff  dw      0xffff
001cfc:  ffff  dw      0xffff
001cfe:  ffff  dw      0xffff
001d00:  ffff  dw      0xffff
001d02:  ffff  dw      0xffff
001d04:  ffff  dw      0xffff
001d06:  ffff  dw      0xffff
001d08:  ffff  dw      0xffff
001d0a:  ffff  dw      0xffff
001d0c:  ffff  dw      0xffff
001d0e:  ffff  dw      0xffff
001d10:  ffff  dw      0xffff
001d12:  ffff  dw      0xffff
001d14:  ffff  dw      0xffff
001d16:  ffff  dw      0xffff
001d18:  ffff  dw      0xffff
001d1a:  ffff  dw      0xffff
001d1c:  ffff  dw      0xffff
001d1e:  ffff  dw      0xffff
001d20:  ffff  dw      0xffff
001d22:  ffff  dw      0xffff
001d24:  ffff  dw      0xffff
001d26:  ffff  dw      0xffff
001d28:  ffff  dw      0xffff
001d2a:  ffff  dw      0xffff
001d2c:  ffff  dw      0xffff
001d2e:  ffff  dw      0xffff
001d30:  ffff  dw      0xffff
001d32:  ffff  dw      0xffff
001d34:  ffff  dw      0xffff
001d36:  ffff  dw      0xffff
001d38:  ffff  dw      0xffff
001d3a:  ffff  dw      0xffff
001d3c:  ffff  dw      0xffff
001d3e:  ffff  dw      0xffff
001d40:  ffff  dw      0xffff
001d42:  ffff  dw      0xffff
001d44:  ffff  dw      0xffff
001d46:  ffff  dw      0xffff
001d48:  ffff  dw      0xffff
001d4a:  ffff  dw      0xffff
001d4c:  ffff  dw      0xffff
001d4e:  ffff  dw      0xffff
001d50:  ffff  dw      0xffff
001d52:  ffff  dw      0xffff
001d54:  ffff  dw      0xffff
001d56:  ffff  dw      0xffff
001d58:  ffff  dw      0xffff
001d5a:  ffff  dw      0xffff
001d5c:  ffff  dw      0xffff
001d5e:  ffff  dw      0xffff
001d60:  ffff  dw      0xffff
001d62:  ffff  dw      0xffff
001d64:  ffff  dw      0xffff
001d66:  ffff  dw      0xffff
001d68:  ffff  dw      0xffff
001d6a:  ffff  dw      0xffff
001d6c:  ffff  dw      0xffff
001d6e:  ffff  dw      0xffff
001d70:  ffff  dw      0xffff
001d72:  ffff  dw      0xffff
001d74:  ffff  dw      0xffff
001d76:  ffff  dw      0xffff
001d78:  ffff  dw      0xffff
001d7a:  ffff  dw      0xffff
001d7c:  ffff  dw      0xffff
001d7e:  ffff  dw      0xffff
001d80:  ffff  dw      0xffff
001d82:  ffff  dw      0xffff
001d84:  ffff  dw      0xffff
001d86:  ffff  dw      0xffff
001d88:  ffff  dw      0xffff
001d8a:  ffff  dw      0xffff
001d8c:  ffff  dw      0xffff
001d8e:  ffff  dw      0xffff
001d90:  ffff  dw      0xffff
001d92:  ffff  dw      0xffff
001d94:  ffff  dw      0xffff
001d96:  ffff  dw      0xffff
001d98:  ffff  dw      0xffff
001d9a:  ffff  dw      0xffff
001d9c:  ffff  dw      0xffff
001d9e:  ffff  dw      0xffff
001da0:  ffff  dw      0xffff
001da2:  ffff  dw      0xffff
001da4:  ffff  dw      0xffff
001da6:  ffff  dw      0xffff
001da8:  ffff  dw      0xffff
001daa:  ffff  dw      0xffff
001dac:  ffff  dw      0xffff
001dae:  ffff  dw      0xffff
001db0:  ffff  dw      0xffff
001db2:  ffff  dw      0xffff
001db4:  ffff  dw      0xffff
001db6:  ffff  dw      0xffff
001db8:  ffff  dw      0xffff
001dba:  ffff  dw      0xffff
001dbc:  ffff  dw      0xffff
001dbe:  ffff  dw      0xffff
001dc0:  ffff  dw      0xffff
001dc2:  ffff  dw      0xffff
001dc4:  ffff  dw      0xffff
001dc6:  ffff  dw      0xffff
001dc8:  ffff  dw      0xffff
001dca:  ffff  dw      0xffff
001dcc:  ffff  dw      0xffff
001dce:  ffff  dw      0xffff
001dd0:  ffff  dw      0xffff
001dd2:  ffff  dw      0xffff
001dd4:  ffff  dw      0xffff
001dd6:  ffff  dw      0xffff
001dd8:  ffff  dw      0xffff
001dda:  ffff  dw      0xffff
001ddc:  ffff  dw      0xffff
001dde:  ffff  dw      0xffff
001de0:  ffff  dw      0xffff
001de2:  ffff  dw      0xffff
001de4:  ffff  dw      0xffff
001de6:  ffff  dw      0xffff
001de8:  ffff  dw      0xffff
001dea:  ffff  dw      0xffff
001dec:  ffff  dw      0xffff
001dee:  ffff  dw      0xffff
001df0:  ffff  dw      0xffff
001df2:  ffff  dw      0xffff
001df4:  ffff  dw      0xffff
001df6:  ffff  dw      0xffff
001df8:  ffff  dw      0xffff
001dfa:  ffff  dw      0xffff
001dfc:  ffff  dw      0xffff
001dfe:  ffff  dw      0xffff
001e00:  ffff  dw      0xffff
001e02:  ffff  dw      0xffff
001e04:  ffff  dw      0xffff
001e06:  ffff  dw      0xffff
001e08:  ffff  dw      0xffff
001e0a:  ffff  dw      0xffff
001e0c:  ffff  dw      0xffff
001e0e:  ffff  dw      0xffff
001e10:  ffff  dw      0xffff
001e12:  ffff  dw      0xffff
001e14:  ffff  dw      0xffff
001e16:  ffff  dw      0xffff
001e18:  ffff  dw      0xffff
001e1a:  ffff  dw      0xffff
001e1c:  ffff  dw      0xffff
001e1e:  ffff  dw      0xffff
001e20:  ffff  dw      0xffff
001e22:  ffff  dw      0xffff
001e24:  ffff  dw      0xffff
001e26:  ffff  dw      0xffff
001e28:  ffff  dw      0xffff
001e2a:  ffff  dw      0xffff
001e2c:  ffff  dw      0xffff
001e2e:  ffff  dw      0xffff
001e30:  ffff  dw      0xffff
001e32:  ffff  dw      0xffff
001e34:  ffff  dw      0xffff
001e36:  ffff  dw      0xffff
001e38:  ffff  dw      0xffff
001e3a:  ffff  dw      0xffff
001e3c:  ffff  dw      0xffff
001e3e:  ffff  dw      0xffff
001e40:  ffff  dw      0xffff
001e42:  ffff  dw      0xffff
001e44:  ffff  dw      0xffff
001e46:  ffff  dw      0xffff
001e48:  ffff  dw      0xffff
001e4a:  ffff  dw      0xffff
001e4c:  ffff  dw      0xffff
001e4e:  ffff  dw      0xffff
001e50:  ffff  dw      0xffff
001e52:  ffff  dw      0xffff
001e54:  ffff  dw      0xffff
001e56:  ffff  dw      0xffff
001e58:  ffff  dw      0xffff
001e5a:  ffff  dw      0xffff
001e5c:  ffff  dw      0xffff
001e5e:  ffff  dw      0xffff
001e60:  ffff  dw      0xffff
001e62:  ffff  dw      0xffff
001e64:  ffff  dw      0xffff
001e66:  ffff  dw      0xffff
001e68:  ffff  dw      0xffff
001e6a:  ffff  dw      0xffff
001e6c:  ffff  dw      0xffff
001e6e:  ffff  dw      0xffff
001e70:  ffff  dw      0xffff
001e72:  ffff  dw      0xffff
001e74:  ffff  dw      0xffff
001e76:  ffff  dw      0xffff
001e78:  ffff  dw      0xffff
001e7a:  ffff  dw      0xffff
001e7c:  ffff  dw      0xffff
001e7e:  ffff  dw      0xffff
001e80:  ffff  dw      0xffff
001e82:  ffff  dw      0xffff
001e84:  ffff  dw      0xffff
001e86:  ffff  dw      0xffff
001e88:  ffff  dw      0xffff
001e8a:  ffff  dw      0xffff
001e8c:  ffff  dw      0xffff
001e8e:  ffff  dw      0xffff
001e90:  ffff  dw      0xffff
001e92:  ffff  dw      0xffff
001e94:  ffff  dw      0xffff
001e96:  ffff  dw      0xffff
001e98:  ffff  dw      0xffff
001e9a:  ffff  dw      0xffff
001e9c:  ffff  dw      0xffff
001e9e:  ffff  dw      0xffff
001ea0:  ffff  dw      0xffff
001ea2:  ffff  dw      0xffff
001ea4:  ffff  dw      0xffff
001ea6:  ffff  dw      0xffff
001ea8:  ffff  dw      0xffff
001eaa:  ffff  dw      0xffff
001eac:  ffff  dw      0xffff
001eae:  ffff  dw      0xffff
001eb0:  ffff  dw      0xffff
001eb2:  ffff  dw      0xffff
001eb4:  ffff  dw      0xffff
001eb6:  ffff  dw      0xffff
001eb8:  ffff  dw      0xffff
001eba:  ffff  dw      0xffff
001ebc:  ffff  dw      0xffff
001ebe:  ffff  dw      0xffff
001ec0:  ffff  dw      0xffff
001ec2:  ffff  dw      0xffff
001ec4:  ffff  dw      0xffff
001ec6:  ffff  dw      0xffff
001ec8:  ffff  dw      0xffff
001eca:  ffff  dw      0xffff
001ecc:  ffff  dw      0xffff
001ece:  ffff  dw      0xffff
001ed0:  ffff  dw      0xffff
001ed2:  ffff  dw      0xffff
001ed4:  ffff  dw      0xffff
001ed6:  ffff  dw      0xffff
001ed8:  ffff  dw      0xffff
001eda:  ffff  dw      0xffff
001edc:  ffff  dw      0xffff
001ede:  ffff  dw      0xffff
001ee0:  ffff  dw      0xffff
001ee2:  ffff  dw      0xffff
001ee4:  ffff  dw      0xffff
001ee6:  ffff  dw      0xffff
001ee8:  ffff  dw      0xffff
001eea:  ffff  dw      0xffff
001eec:  ffff  dw      0xffff
001eee:  ffff  dw      0xffff
001ef0:  ffff  dw      0xffff
001ef2:  ffff  dw      0xffff
001ef4:  ffff  dw      0xffff
001ef6:  ffff  dw      0xffff
001ef8:  ffff  dw      0xffff
001efa:  ffff  dw      0xffff
001efc:  ffff  dw      0xffff
001efe:  ffff  dw      0xffff
001f00:  ffff  dw      0xffff
001f02:  ffff  dw      0xffff
001f04:  ffff  dw      0xffff
001f06:  ffff  dw      0xffff
001f08:  ffff  dw      0xffff
001f0a:  ffff  dw      0xffff
001f0c:  ffff  dw      0xffff
001f0e:  ffff  dw      0xffff
001f10:  ffff  dw      0xffff
001f12:  ffff  dw      0xffff
001f14:  ffff  dw      0xffff
001f16:  ffff  dw      0xffff
001f18:  ffff  dw      0xffff
001f1a:  ffff  dw      0xffff
001f1c:  ffff  dw      0xffff
001f1e:  ffff  dw      0xffff
001f20:  ffff  dw      0xffff
001f22:  ffff  dw      0xffff
001f24:  ffff  dw      0xffff
001f26:  ffff  dw      0xffff
001f28:  ffff  dw      0xffff
001f2a:  ffff  dw      0xffff
001f2c:  ffff  dw      0xffff
001f2e:  ffff  dw      0xffff
001f30:  ffff  dw      0xffff
001f32:  ffff  dw      0xffff
001f34:  ffff  dw      0xffff
001f36:  ffff  dw      0xffff
001f38:  ffff  dw      0xffff
001f3a:  ffff  dw      0xffff
001f3c:  ffff  dw      0xffff
001f3e:  ffff  dw      0xffff
001f40:  ffff  dw      0xffff
001f42:  ffff  dw      0xffff
001f44:  ffff  dw      0xffff
001f46:  ffff  dw      0xffff
001f48:  ffff  dw      0xffff
001f4a:  ffff  dw      0xffff
001f4c:  ffff  dw      0xffff
001f4e:  ffff  dw      0xffff
001f50:  ffff  dw      0xffff
001f52:  ffff  dw      0xffff
001f54:  ffff  dw      0xffff
001f56:  ffff  dw      0xffff
001f58:  ffff  dw      0xffff
001f5a:  ffff  dw      0xffff
001f5c:  ffff  dw      0xffff
001f5e:  ffff  dw      0xffff
001f60:  ffff  dw      0xffff
001f62:  ffff  dw      0xffff
001f64:  ffff  dw      0xffff
001f66:  ffff  dw      0xffff
001f68:  ffff  dw      0xffff
001f6a:  ffff  dw      0xffff
001f6c:  ffff  dw      0xffff
001f6e:  ffff  dw      0xffff
001f70:  ffff  dw      0xffff
001f72:  ffff  dw      0xffff
001f74:  ffff  dw      0xffff
001f76:  ffff  dw      0xffff
001f78:  ffff  dw      0xffff
001f7a:  ffff  dw      0xffff
001f7c:  ffff  dw      0xffff
001f7e:  ffff  dw      0xffff
001f80:  ffff  dw      0xffff
001f82:  ffff  dw      0xffff
001f84:  ffff  dw      0xffff
001f86:  ffff  dw      0xffff
001f88:  ffff  dw      0xffff
001f8a:  ffff  dw      0xffff
001f8c:  ffff  dw      0xffff
001f8e:  ffff  dw      0xffff
001f90:  ffff  dw      0xffff
001f92:  ffff  dw      0xffff
001f94:  ffff  dw      0xffff
001f96:  ffff  dw      0xffff
001f98:  ffff  dw      0xffff
001f9a:  ffff  dw      0xffff
001f9c:  ffff  dw      0xffff
001f9e:  ffff  dw      0xffff
001fa0:  ffff  dw      0xffff
001fa2:  ffff  dw      0xffff
001fa4:  ffff  dw      0xffff
001fa6:  ffff  dw      0xffff
001fa8:  ffff  dw      0xffff
001faa:  ffff  dw      0xffff
001fac:  ffff  dw      0xffff
001fae:  ffff  dw      0xffff
001fb0:  ffff  dw      0xffff
001fb2:  ffff  dw      0xffff
001fb4:  ffff  dw      0xffff
001fb6:  ffff  dw      0xffff
001fb8:  ffff  dw      0xffff
001fba:  ffff  dw      0xffff
001fbc:  ffff  dw      0xffff
001fbe:  ffff  dw      0xffff
001fc0:  ffff  dw      0xffff
001fc2:  ffff  dw      0xffff
001fc4:  ffff  dw      0xffff
001fc6:  ffff  dw      0xffff
001fc8:  ffff  dw      0xffff
001fca:  ffff  dw      0xffff
001fcc:  ffff  dw      0xffff
001fce:  ffff  dw      0xffff
001fd0:  ffff  dw      0xffff
001fd2:  ffff  dw      0xffff
001fd4:  ffff  dw      0xffff
001fd6:  ffff  dw      0xffff
001fd8:  ffff  dw      0xffff
001fda:  ffff  dw      0xffff
001fdc:  ffff  dw      0xffff
001fde:  ffff  dw      0xffff
001fe0:  ffff  dw      0xffff
001fe2:  ffff  dw      0xffff
001fe4:  ffff  dw      0xffff
001fe6:  ffff  dw      0xffff
001fe8:  ffff  dw      0xffff
001fea:  ffff  dw      0xffff
001fec:  ffff  dw      0xffff
001fee:  ffff  dw      0xffff
001ff0:  ffff  dw      0xffff
001ff2:  ffff  dw      0xffff
001ff4:  ffff  dw      0xffff
001ff6:  ffff  dw      0xffff
001ff8:  ffff  dw      0xffff
001ffa:  ffff  dw      0xffff
001ffc:  ffff  dw      0xffff
001ffe:  ffff  dw      0xffff
002000:  ffff  dw      0xffff
002002:  ffff  dw      0xffff
002004:  ffff  dw      0xffff
002006:  ffff  dw      0xffff
002008:  ffff  dw      0xffff
00200a:  ffff  dw      0xffff
00200c:  ffff  dw      0xffff
00200e:  ffff  dw      0xffff
002010:  ffff  dw      0xffff
002012:  ffff  dw      0xffff
002014:  ffff  dw      0xffff
002016:  ffff  dw      0xffff
002018:  ffff  dw      0xffff
00201a:  ffff  dw      0xffff
00201c:  ffff  dw      0xffff
00201e:  ffff  dw      0xffff
002020:  ffff  dw      0xffff
002022:  ffff  dw      0xffff
002024:  ffff  dw      0xffff
002026:  ffff  dw      0xffff
002028:  ffff  dw      0xffff
00202a:  ffff  dw      0xffff
00202c:  ffff  dw      0xffff
00202e:  ffff  dw      0xffff
002030:  ffff  dw      0xffff
002032:  ffff  dw      0xffff
002034:  ffff  dw      0xffff
002036:  ffff  dw      0xffff
002038:  ffff  dw      0xffff
00203a:  ffff  dw      0xffff
00203c:  ffff  dw      0xffff
00203e:  ffff  dw      0xffff
002040:  ffff  dw      0xffff
002042:  ffff  dw      0xffff
002044:  ffff  dw      0xffff
002046:  ffff  dw      0xffff
002048:  ffff  dw      0xffff
00204a:  ffff  dw      0xffff
00204c:  ffff  dw      0xffff
00204e:  ffff  dw      0xffff
002050:  ffff  dw      0xffff
002052:  ffff  dw      0xffff
002054:  ffff  dw      0xffff
002056:  ffff  dw      0xffff
002058:  ffff  dw      0xffff
00205a:  ffff  dw      0xffff
00205c:  ffff  dw      0xffff
00205e:  ffff  dw      0xffff
002060:  ffff  dw      0xffff
002062:  ffff  dw      0xffff
002064:  ffff  dw      0xffff
002066:  ffff  dw      0xffff
002068:  ffff  dw      0xffff
00206a:  ffff  dw      0xffff
00206c:  ffff  dw      0xffff
00206e:  ffff  dw      0xffff
002070:  ffff  dw      0xffff
002072:  ffff  dw      0xffff
002074:  ffff  dw      0xffff
002076:  ffff  dw      0xffff
002078:  ffff  dw      0xffff
00207a:  ffff  dw      0xffff
00207c:  ffff  dw      0xffff
00207e:  ffff  dw      0xffff
002080:  ffff  dw      0xffff
002082:  ffff  dw      0xffff
002084:  ffff  dw      0xffff
002086:  ffff  dw      0xffff
002088:  ffff  dw      0xffff
00208a:  ffff  dw      0xffff
00208c:  ffff  dw      0xffff
00208e:  ffff  dw      0xffff
002090:  ffff  dw      0xffff
002092:  ffff  dw      0xffff
002094:  ffff  dw      0xffff
002096:  ffff  dw      0xffff
002098:  ffff  dw      0xffff
00209a:  ffff  dw      0xffff
00209c:  ffff  dw      0xffff
00209e:  ffff  dw      0xffff
0020a0:  ffff  dw      0xffff
0020a2:  ffff  dw      0xffff
0020a4:  ffff  dw      0xffff
0020a6:  ffff  dw      0xffff
0020a8:  ffff  dw      0xffff
0020aa:  ffff  dw      0xffff
0020ac:  ffff  dw      0xffff
0020ae:  ffff  dw      0xffff
0020b0:  ffff  dw      0xffff
0020b2:  ffff  dw      0xffff
0020b4:  ffff  dw      0xffff
0020b6:  ffff  dw      0xffff
0020b8:  ffff  dw      0xffff
0020ba:  ffff  dw      0xffff
0020bc:  ffff  dw      0xffff
0020be:  ffff  dw      0xffff
0020c0:  ffff  dw      0xffff
0020c2:  ffff  dw      0xffff
0020c4:  ffff  dw      0xffff
0020c6:  ffff  dw      0xffff
0020c8:  ffff  dw      0xffff
0020ca:  ffff  dw      0xffff
0020cc:  ffff  dw      0xffff
0020ce:  ffff  dw      0xffff
0020d0:  ffff  dw      0xffff
0020d2:  ffff  dw      0xffff
0020d4:  ffff  dw      0xffff
0020d6:  ffff  dw      0xffff
0020d8:  ffff  dw      0xffff
0020da:  ffff  dw      0xffff
0020dc:  ffff  dw      0xffff
0020de:  ffff  dw      0xffff
0020e0:  ffff  dw      0xffff
0020e2:  ffff  dw      0xffff
0020e4:  ffff  dw      0xffff
0020e6:  ffff  dw      0xffff
0020e8:  ffff  dw      0xffff
0020ea:  ffff  dw      0xffff
0020ec:  ffff  dw      0xffff
0020ee:  ffff  dw      0xffff
0020f0:  ffff  dw      0xffff
0020f2:  ffff  dw      0xffff
0020f4:  ffff  dw      0xffff
0020f6:  ffff  dw      0xffff
0020f8:  ffff  dw      0xffff
0020fa:  ffff  dw      0xffff
0020fc:  ffff  dw      0xffff
0020fe:  ffff  dw      0xffff
002100:  ffff  dw      0xffff
002102:  ffff  dw      0xffff
002104:  ffff  dw      0xffff
002106:  ffff  dw      0xffff
002108:  ffff  dw      0xffff
00210a:  ffff  dw      0xffff
00210c:  ffff  dw      0xffff
00210e:  ffff  dw      0xffff
002110:  ffff  dw      0xffff
002112:  ffff  dw      0xffff
002114:  ffff  dw      0xffff
002116:  ffff  dw      0xffff
002118:  ffff  dw      0xffff
00211a:  ffff  dw      0xffff
00211c:  ffff  dw      0xffff
00211e:  ffff  dw      0xffff
002120:  ffff  dw      0xffff
002122:  ffff  dw      0xffff
002124:  ffff  dw      0xffff
002126:  ffff  dw      0xffff
002128:  ffff  dw      0xffff
00212a:  ffff  dw      0xffff
00212c:  ffff  dw      0xffff
00212e:  ffff  dw      0xffff
002130:  ffff  dw      0xffff
002132:  ffff  dw      0xffff
002134:  ffff  dw      0xffff
002136:  ffff  dw      0xffff
002138:  ffff  dw      0xffff
00213a:  ffff  dw      0xffff
00213c:  ffff  dw      0xffff
00213e:  ffff  dw      0xffff
002140:  ffff  dw      0xffff
002142:  ffff  dw      0xffff
002144:  ffff  dw      0xffff
002146:  ffff  dw      0xffff
002148:  ffff  dw      0xffff
00214a:  ffff  dw      0xffff
00214c:  ffff  dw      0xffff
00214e:  ffff  dw      0xffff
002150:  ffff  dw      0xffff
002152:  ffff  dw      0xffff
002154:  ffff  dw      0xffff
002156:  ffff  dw      0xffff
002158:  ffff  dw      0xffff
00215a:  ffff  dw      0xffff
00215c:  ffff  dw      0xffff
00215e:  ffff  dw      0xffff
002160:  ffff  dw      0xffff
002162:  ffff  dw      0xffff
002164:  ffff  dw      0xffff
002166:  ffff  dw      0xffff
002168:  ffff  dw      0xffff
00216a:  ffff  dw      0xffff
00216c:  ffff  dw      0xffff
00216e:  ffff  dw      0xffff
002170:  ffff  dw      0xffff
002172:  ffff  dw      0xffff
002174:  ffff  dw      0xffff
002176:  ffff  dw      0xffff
002178:  ffff  dw      0xffff
00217a:  ffff  dw      0xffff
00217c:  ffff  dw      0xffff
00217e:  ffff  dw      0xffff
002180:  ffff  dw      0xffff
002182:  ffff  dw      0xffff
002184:  ffff  dw      0xffff
002186:  ffff  dw      0xffff
002188:  ffff  dw      0xffff
00218a:  ffff  dw      0xffff
00218c:  ffff  dw      0xffff
00218e:  ffff  dw      0xffff
002190:  ffff  dw      0xffff
002192:  ffff  dw      0xffff
002194:  ffff  dw      0xffff
002196:  ffff  dw      0xffff
002198:  ffff  dw      0xffff
00219a:  ffff  dw      0xffff
00219c:  ffff  dw      0xffff
00219e:  ffff  dw      0xffff
0021a0:  ffff  dw      0xffff
0021a2:  ffff  dw      0xffff
0021a4:  ffff  dw      0xffff
0021a6:  ffff  dw      0xffff
0021a8:  ffff  dw      0xffff
0021aa:  ffff  dw      0xffff
0021ac:  ffff  dw      0xffff
0021ae:  ffff  dw      0xffff
0021b0:  ffff  dw      0xffff
0021b2:  ffff  dw      0xffff
0021b4:  ffff  dw      0xffff
0021b6:  ffff  dw      0xffff
0021b8:  ffff  dw      0xffff
0021ba:  ffff  dw      0xffff
0021bc:  ffff  dw      0xffff
0021be:  ffff  dw      0xffff
0021c0:  ffff  dw      0xffff
0021c2:  ffff  dw      0xffff
0021c4:  ffff  dw      0xffff
0021c6:  ffff  dw      0xffff
0021c8:  ffff  dw      0xffff
0021ca:  ffff  dw      0xffff
0021cc:  ffff  dw      0xffff
0021ce:  ffff  dw      0xffff
0021d0:  ffff  dw      0xffff
0021d2:  ffff  dw      0xffff
0021d4:  ffff  dw      0xffff
0021d6:  ffff  dw      0xffff
0021d8:  ffff  dw      0xffff
0021da:  ffff  dw      0xffff
0021dc:  ffff  dw      0xffff
0021de:  ffff  dw      0xffff
0021e0:  ffff  dw      0xffff
0021e2:  ffff  dw      0xffff
0021e4:  ffff  dw      0xffff
0021e6:  ffff  dw      0xffff
0021e8:  ffff  dw      0xffff
0021ea:  ffff  dw      0xffff
0021ec:  ffff  dw      0xffff
0021ee:  ffff  dw      0xffff
0021f0:  ffff  dw      0xffff
0021f2:  ffff  dw      0xffff
0021f4:  ffff  dw      0xffff
0021f6:  ffff  dw      0xffff
0021f8:  ffff  dw      0xffff
0021fa:  ffff  dw      0xffff
0021fc:  ffff  dw      0xffff
0021fe:  ffff  dw      0xffff
002200:  ffff  dw      0xffff
002202:  ffff  dw      0xffff
002204:  ffff  dw      0xffff
002206:  ffff  dw      0xffff
002208:  ffff  dw      0xffff
00220a:  ffff  dw      0xffff
00220c:  ffff  dw      0xffff
00220e:  ffff  dw      0xffff
002210:  ffff  dw      0xffff
002212:  ffff  dw      0xffff
002214:  ffff  dw      0xffff
002216:  ffff  dw      0xffff
002218:  ffff  dw      0xffff
00221a:  ffff  dw      0xffff
00221c:  ffff  dw      0xffff
00221e:  ffff  dw      0xffff
002220:  ffff  dw      0xffff
002222:  ffff  dw      0xffff
002224:  ffff  dw      0xffff
002226:  ffff  dw      0xffff
002228:  ffff  dw      0xffff
00222a:  ffff  dw      0xffff
00222c:  ffff  dw      0xffff
00222e:  ffff  dw      0xffff
002230:  ffff  dw      0xffff
002232:  ffff  dw      0xffff
002234:  ffff  dw      0xffff
002236:  ffff  dw      0xffff
002238:  ffff  dw      0xffff
00223a:  ffff  dw      0xffff
00223c:  ffff  dw      0xffff
00223e:  ffff  dw      0xffff
002240:  ffff  dw      0xffff
002242:  ffff  dw      0xffff
002244:  ffff  dw      0xffff
002246:  ffff  dw      0xffff
002248:  ffff  dw      0xffff
00224a:  ffff  dw      0xffff
00224c:  ffff  dw      0xffff
00224e:  ffff  dw      0xffff
002250:  ffff  dw      0xffff
002252:  ffff  dw      0xffff
002254:  ffff  dw      0xffff
002256:  ffff  dw      0xffff
002258:  ffff  dw      0xffff
00225a:  ffff  dw      0xffff
00225c:  ffff  dw      0xffff
00225e:  ffff  dw      0xffff
002260:  ffff  dw      0xffff
002262:  ffff  dw      0xffff
002264:  ffff  dw      0xffff
002266:  ffff  dw      0xffff
002268:  ffff  dw      0xffff
00226a:  ffff  dw      0xffff
00226c:  ffff  dw      0xffff
00226e:  ffff  dw      0xffff
002270:  ffff  dw      0xffff
002272:  ffff  dw      0xffff
002274:  ffff  dw      0xffff
002276:  ffff  dw      0xffff
002278:  ffff  dw      0xffff
00227a:  ffff  dw      0xffff
00227c:  ffff  dw      0xffff
00227e:  ffff  dw      0xffff
002280:  ffff  dw      0xffff
002282:  ffff  dw      0xffff
002284:  ffff  dw      0xffff
002286:  ffff  dw      0xffff
002288:  ffff  dw      0xffff
00228a:  ffff  dw      0xffff
00228c:  ffff  dw      0xffff
00228e:  ffff  dw      0xffff
002290:  ffff  dw      0xffff
002292:  ffff  dw      0xffff
002294:  ffff  dw      0xffff
002296:  ffff  dw      0xffff
002298:  ffff  dw      0xffff
00229a:  ffff  dw      0xffff
00229c:  ffff  dw      0xffff
00229e:  ffff  dw      0xffff
0022a0:  ffff  dw      0xffff
0022a2:  ffff  dw      0xffff
0022a4:  ffff  dw      0xffff
0022a6:  ffff  dw      0xffff
0022a8:  ffff  dw      0xffff
0022aa:  ffff  dw      0xffff
0022ac:  ffff  dw      0xffff
0022ae:  ffff  dw      0xffff
0022b0:  ffff  dw      0xffff
0022b2:  ffff  dw      0xffff
0022b4:  ffff  dw      0xffff
0022b6:  ffff  dw      0xffff
0022b8:  ffff  dw      0xffff
0022ba:  ffff  dw      0xffff
0022bc:  ffff  dw      0xffff
0022be:  ffff  dw      0xffff
0022c0:  ffff  dw      0xffff
0022c2:  ffff  dw      0xffff
0022c4:  ffff  dw      0xffff
0022c6:  ffff  dw      0xffff
0022c8:  ffff  dw      0xffff
0022ca:  ffff  dw      0xffff
0022cc:  ffff  dw      0xffff
0022ce:  ffff  dw      0xffff
0022d0:  ffff  dw      0xffff
0022d2:  ffff  dw      0xffff
0022d4:  ffff  dw      0xffff
0022d6:  ffff  dw      0xffff
0022d8:  ffff  dw      0xffff
0022da:  ffff  dw      0xffff
0022dc:  ffff  dw      0xffff
0022de:  ffff  dw      0xffff
0022e0:  ffff  dw      0xffff
0022e2:  ffff  dw      0xffff
0022e4:  ffff  dw      0xffff
0022e6:  ffff  dw      0xffff
0022e8:  ffff  dw      0xffff
0022ea:  ffff  dw      0xffff
0022ec:  ffff  dw      0xffff
0022ee:  ffff  dw      0xffff
0022f0:  ffff  dw      0xffff
0022f2:  ffff  dw      0xffff
0022f4:  ffff  dw      0xffff
0022f6:  ffff  dw      0xffff
0022f8:  ffff  dw      0xffff
0022fa:  ffff  dw      0xffff
0022fc:  ffff  dw      0xffff
0022fe:  ffff  dw      0xffff
002300:  ffff  dw      0xffff
002302:  ffff  dw      0xffff
002304:  ffff  dw      0xffff
002306:  ffff  dw      0xffff
002308:  ffff  dw      0xffff
00230a:  ffff  dw      0xffff
00230c:  ffff  dw      0xffff
00230e:  ffff  dw      0xffff
002310:  ffff  dw      0xffff
002312:  ffff  dw      0xffff
002314:  ffff  dw      0xffff
002316:  ffff  dw      0xffff
002318:  ffff  dw      0xffff
00231a:  ffff  dw      0xffff
00231c:  ffff  dw      0xffff
00231e:  ffff  dw      0xffff
002320:  ffff  dw      0xffff
002322:  ffff  dw      0xffff
002324:  ffff  dw      0xffff
002326:  ffff  dw      0xffff
002328:  ffff  dw      0xffff
00232a:  ffff  dw      0xffff
00232c:  ffff  dw      0xffff
00232e:  ffff  dw      0xffff
002330:  ffff  dw      0xffff
002332:  ffff  dw      0xffff
002334:  ffff  dw      0xffff
002336:  ffff  dw      0xffff
002338:  ffff  dw      0xffff
00233a:  ffff  dw      0xffff
00233c:  ffff  dw      0xffff
00233e:  ffff  dw      0xffff
002340:  ffff  dw      0xffff
002342:  ffff  dw      0xffff
002344:  ffff  dw      0xffff
002346:  ffff  dw      0xffff
002348:  ffff  dw      0xffff
00234a:  ffff  dw      0xffff
00234c:  ffff  dw      0xffff
00234e:  ffff  dw      0xffff
002350:  ffff  dw      0xffff
002352:  ffff  dw      0xffff
002354:  ffff  dw      0xffff
002356:  ffff  dw      0xffff
002358:  ffff  dw      0xffff
00235a:  ffff  dw      0xffff
00235c:  ffff  dw      0xffff
00235e:  ffff  dw      0xffff
002360:  ffff  dw      0xffff
002362:  ffff  dw      0xffff
002364:  ffff  dw      0xffff
002366:  ffff  dw      0xffff
002368:  ffff  dw      0xffff
00236a:  ffff  dw      0xffff
00236c:  ffff  dw      0xffff
00236e:  ffff  dw      0xffff
002370:  ffff  dw      0xffff
002372:  ffff  dw      0xffff
002374:  ffff  dw      0xffff
002376:  ffff  dw      0xffff
002378:  ffff  dw      0xffff
00237a:  ffff  dw      0xffff
00237c:  ffff  dw      0xffff
00237e:  ffff  dw      0xffff
002380:  ffff  dw      0xffff
002382:  ffff  dw      0xffff
002384:  ffff  dw      0xffff
002386:  ffff  dw      0xffff
002388:  ffff  dw      0xffff
00238a:  ffff  dw      0xffff
00238c:  ffff  dw      0xffff
00238e:  ffff  dw      0xffff
002390:  ffff  dw      0xffff
002392:  ffff  dw      0xffff
002394:  ffff  dw      0xffff
002396:  ffff  dw      0xffff
002398:  ffff  dw      0xffff
00239a:  ffff  dw      0xffff
00239c:  ffff  dw      0xffff
00239e:  ffff  dw      0xffff
0023a0:  ffff  dw      0xffff
0023a2:  ffff  dw      0xffff
0023a4:  ffff  dw      0xffff
0023a6:  ffff  dw      0xffff
0023a8:  ffff  dw      0xffff
0023aa:  ffff  dw      0xffff
0023ac:  ffff  dw      0xffff
0023ae:  ffff  dw      0xffff
0023b0:  ffff  dw      0xffff
0023b2:  ffff  dw      0xffff
0023b4:  ffff  dw      0xffff
0023b6:  ffff  dw      0xffff
0023b8:  ffff  dw      0xffff
0023ba:  ffff  dw      0xffff
0023bc:  ffff  dw      0xffff
0023be:  ffff  dw      0xffff
0023c0:  ffff  dw      0xffff
0023c2:  ffff  dw      0xffff
0023c4:  ffff  dw      0xffff
0023c6:  ffff  dw      0xffff
0023c8:  ffff  dw      0xffff
0023ca:  ffff  dw      0xffff
0023cc:  ffff  dw      0xffff
0023ce:  ffff  dw      0xffff
0023d0:  ffff  dw      0xffff
0023d2:  ffff  dw      0xffff
0023d4:  ffff  dw      0xffff
0023d6:  ffff  dw      0xffff
0023d8:  ffff  dw      0xffff
0023da:  ffff  dw      0xffff
0023dc:  ffff  dw      0xffff
0023de:  ffff  dw      0xffff
0023e0:  ffff  dw      0xffff
0023e2:  ffff  dw      0xffff
0023e4:  ffff  dw      0xffff
0023e6:  ffff  dw      0xffff
0023e8:  ffff  dw      0xffff
0023ea:  ffff  dw      0xffff
0023ec:  ffff  dw      0xffff
0023ee:  ffff  dw      0xffff
0023f0:  ffff  dw      0xffff
0023f2:  ffff  dw      0xffff
0023f4:  ffff  dw      0xffff
0023f6:  ffff  dw      0xffff
0023f8:  ffff  dw      0xffff
0023fa:  ffff  dw      0xffff
0023fc:  ffff  dw      0xffff
0023fe:  ffff  dw      0xffff
002400:  ffff  dw      0xffff
002402:  ffff  dw      0xffff
002404:  ffff  dw      0xffff
002406:  ffff  dw      0xffff
002408:  ffff  dw      0xffff
00240a:  ffff  dw      0xffff
00240c:  ffff  dw      0xffff
00240e:  ffff  dw      0xffff
002410:  ffff  dw      0xffff
002412:  ffff  dw      0xffff
002414:  ffff  dw      0xffff
002416:  ffff  dw      0xffff
002418:  ffff  dw      0xffff
00241a:  ffff  dw      0xffff
00241c:  ffff  dw      0xffff
00241e:  ffff  dw      0xffff
002420:  ffff  dw      0xffff
002422:  ffff  dw      0xffff
002424:  ffff  dw      0xffff
002426:  ffff  dw      0xffff
002428:  ffff  dw      0xffff
00242a:  ffff  dw      0xffff
00242c:  ffff  dw      0xffff
00242e:  ffff  dw      0xffff
002430:  ffff  dw      0xffff
002432:  ffff  dw      0xffff
002434:  ffff  dw      0xffff
002436:  ffff  dw      0xffff
002438:  ffff  dw      0xffff
00243a:  ffff  dw      0xffff
00243c:  ffff  dw      0xffff
00243e:  ffff  dw      0xffff
002440:  ffff  dw      0xffff
002442:  ffff  dw      0xffff
002444:  ffff  dw      0xffff
002446:  ffff  dw      0xffff
002448:  ffff  dw      0xffff
00244a:  ffff  dw      0xffff
00244c:  ffff  dw      0xffff
00244e:  ffff  dw      0xffff
002450:  ffff  dw      0xffff
002452:  ffff  dw      0xffff
002454:  ffff  dw      0xffff
002456:  ffff  dw      0xffff
002458:  ffff  dw      0xffff
00245a:  ffff  dw      0xffff
00245c:  ffff  dw      0xffff
00245e:  ffff  dw      0xffff
002460:  ffff  dw      0xffff
002462:  ffff  dw      0xffff
002464:  ffff  dw      0xffff
002466:  ffff  dw      0xffff
002468:  ffff  dw      0xffff
00246a:  ffff  dw      0xffff
00246c:  ffff  dw      0xffff
00246e:  ffff  dw      0xffff
002470:  ffff  dw      0xffff
002472:  ffff  dw      0xffff
002474:  ffff  dw      0xffff
002476:  ffff  dw      0xffff
002478:  ffff  dw      0xffff
00247a:  ffff  dw      0xffff
00247c:  ffff  dw      0xffff
00247e:  ffff  dw      0xffff
002480:  ffff  dw      0xffff
002482:  ffff  dw      0xffff
002484:  ffff  dw      0xffff
002486:  ffff  dw      0xffff
002488:  ffff  dw      0xffff
00248a:  ffff  dw      0xffff
00248c:  ffff  dw      0xffff
00248e:  ffff  dw      0xffff
002490:  ffff  dw      0xffff
002492:  ffff  dw      0xffff
002494:  ffff  dw      0xffff
002496:  ffff  dw      0xffff
002498:  ffff  dw      0xffff
00249a:  ffff  dw      0xffff
00249c:  ffff  dw      0xffff
00249e:  ffff  dw      0xffff
0024a0:  ffff  dw      0xffff
0024a2:  ffff  dw      0xffff
0024a4:  ffff  dw      0xffff
0024a6:  ffff  dw      0xffff
0024a8:  ffff  dw      0xffff
0024aa:  ffff  dw      0xffff
0024ac:  ffff  dw      0xffff
0024ae:  ffff  dw      0xffff
0024b0:  ffff  dw      0xffff
0024b2:  ffff  dw      0xffff
0024b4:  ffff  dw      0xffff
0024b6:  ffff  dw      0xffff
0024b8:  ffff  dw      0xffff
0024ba:  ffff  dw      0xffff
0024bc:  ffff  dw      0xffff
0024be:  ffff  dw      0xffff
0024c0:  ffff  dw      0xffff
0024c2:  ffff  dw      0xffff
0024c4:  ffff  dw      0xffff
0024c6:  ffff  dw      0xffff
0024c8:  ffff  dw      0xffff
0024ca:  ffff  dw      0xffff
0024cc:  ffff  dw      0xffff
0024ce:  ffff  dw      0xffff
0024d0:  ffff  dw      0xffff
0024d2:  ffff  dw      0xffff
0024d4:  ffff  dw      0xffff
0024d6:  ffff  dw      0xffff
0024d8:  ffff  dw      0xffff
0024da:  ffff  dw      0xffff
0024dc:  ffff  dw      0xffff
0024de:  ffff  dw      0xffff
0024e0:  ffff  dw      0xffff
0024e2:  ffff  dw      0xffff
0024e4:  ffff  dw      0xffff
0024e6:  ffff  dw      0xffff
0024e8:  ffff  dw      0xffff
0024ea:  ffff  dw      0xffff
0024ec:  ffff  dw      0xffff
0024ee:  ffff  dw      0xffff
0024f0:  ffff  dw      0xffff
0024f2:  ffff  dw      0xffff
0024f4:  ffff  dw      0xffff
0024f6:  ffff  dw      0xffff
0024f8:  ffff  dw      0xffff
0024fa:  ffff  dw      0xffff
0024fc:  ffff  dw      0xffff
0024fe:  ffff  dw      0xffff
002500:  ffff  dw      0xffff
002502:  ffff  dw      0xffff
002504:  ffff  dw      0xffff
002506:  ffff  dw      0xffff
002508:  ffff  dw      0xffff
00250a:  ffff  dw      0xffff
00250c:  ffff  dw      0xffff
00250e:  ffff  dw      0xffff
002510:  ffff  dw      0xffff
002512:  ffff  dw      0xffff
002514:  ffff  dw      0xffff
002516:  ffff  dw      0xffff
002518:  ffff  dw      0xffff
00251a:  ffff  dw      0xffff
00251c:  ffff  dw      0xffff
00251e:  ffff  dw      0xffff
002520:  ffff  dw      0xffff
002522:  ffff  dw      0xffff
002524:  ffff  dw      0xffff
002526:  ffff  dw      0xffff
002528:  ffff  dw      0xffff
00252a:  ffff  dw      0xffff
00252c:  ffff  dw      0xffff
00252e:  ffff  dw      0xffff
002530:  ffff  dw      0xffff
002532:  ffff  dw      0xffff
002534:  ffff  dw      0xffff
002536:  ffff  dw      0xffff
002538:  ffff  dw      0xffff
00253a:  ffff  dw      0xffff
00253c:  ffff  dw      0xffff
00253e:  ffff  dw      0xffff
002540:  ffff  dw      0xffff
002542:  ffff  dw      0xffff
002544:  ffff  dw      0xffff
002546:  ffff  dw      0xffff
002548:  ffff  dw      0xffff
00254a:  ffff  dw      0xffff
00254c:  ffff  dw      0xffff
00254e:  ffff  dw      0xffff
002550:  ffff  dw      0xffff
002552:  ffff  dw      0xffff
002554:  ffff  dw      0xffff
002556:  ffff  dw      0xffff
002558:  ffff  dw      0xffff
00255a:  ffff  dw      0xffff
00255c:  ffff  dw      0xffff
00255e:  ffff  dw      0xffff
002560:  ffff  dw      0xffff
002562:  ffff  dw      0xffff
002564:  ffff  dw      0xffff
002566:  ffff  dw      0xffff
002568:  ffff  dw      0xffff
00256a:  ffff  dw      0xffff
00256c:  ffff  dw      0xffff
00256e:  ffff  dw      0xffff
002570:  ffff  dw      0xffff
002572:  ffff  dw      0xffff
002574:  ffff  dw      0xffff
002576:  ffff  dw      0xffff
002578:  ffff  dw      0xffff
00257a:  ffff  dw      0xffff
00257c:  ffff  dw      0xffff
00257e:  ffff  dw      0xffff
002580:  ffff  dw      0xffff
002582:  ffff  dw      0xffff
002584:  ffff  dw      0xffff
002586:  ffff  dw      0xffff
002588:  ffff  dw      0xffff
00258a:  ffff  dw      0xffff
00258c:  ffff  dw      0xffff
00258e:  ffff  dw      0xffff
002590:  ffff  dw      0xffff
002592:  ffff  dw      0xffff
002594:  ffff  dw      0xffff
002596:  ffff  dw      0xffff
002598:  ffff  dw      0xffff
00259a:  ffff  dw      0xffff
00259c:  ffff  dw      0xffff
00259e:  ffff  dw      0xffff
0025a0:  ffff  dw      0xffff
0025a2:  ffff  dw      0xffff
0025a4:  ffff  dw      0xffff
0025a6:  ffff  dw      0xffff
0025a8:  ffff  dw      0xffff
0025aa:  ffff  dw      0xffff
0025ac:  ffff  dw      0xffff
0025ae:  ffff  dw      0xffff
0025b0:  ffff  dw      0xffff
0025b2:  ffff  dw      0xffff
0025b4:  ffff  dw      0xffff
0025b6:  ffff  dw      0xffff
0025b8:  ffff  dw      0xffff
0025ba:  ffff  dw      0xffff
0025bc:  ffff  dw      0xffff
0025be:  ffff  dw      0xffff
0025c0:  ffff  dw      0xffff
0025c2:  ffff  dw      0xffff
0025c4:  ffff  dw      0xffff
0025c6:  ffff  dw      0xffff
0025c8:  ffff  dw      0xffff
0025ca:  ffff  dw      0xffff
0025cc:  ffff  dw      0xffff
0025ce:  ffff  dw      0xffff
0025d0:  ffff  dw      0xffff
0025d2:  ffff  dw      0xffff
0025d4:  ffff  dw      0xffff
0025d6:  ffff  dw      0xffff
0025d8:  ffff  dw      0xffff
0025da:  ffff  dw      0xffff
0025dc:  ffff  dw      0xffff
0025de:  ffff  dw      0xffff
0025e0:  ffff  dw      0xffff
0025e2:  ffff  dw      0xffff
0025e4:  ffff  dw      0xffff
0025e6:  ffff  dw      0xffff
0025e8:  ffff  dw      0xffff
0025ea:  ffff  dw      0xffff
0025ec:  ffff  dw      0xffff
0025ee:  ffff  dw      0xffff
0025f0:  ffff  dw      0xffff
0025f2:  ffff  dw      0xffff
0025f4:  ffff  dw      0xffff
0025f6:  ffff  dw      0xffff
0025f8:  ffff  dw      0xffff
0025fa:  ffff  dw      0xffff
0025fc:  ffff  dw      0xffff
0025fe:  ffff  dw      0xffff
002600:  ffff  dw      0xffff
002602:  ffff  dw      0xffff
002604:  ffff  dw      0xffff
002606:  ffff  dw      0xffff
002608:  ffff  dw      0xffff
00260a:  ffff  dw      0xffff
00260c:  ffff  dw      0xffff
00260e:  ffff  dw      0xffff
002610:  ffff  dw      0xffff
002612:  ffff  dw      0xffff
002614:  ffff  dw      0xffff
002616:  ffff  dw      0xffff
002618:  ffff  dw      0xffff
00261a:  ffff  dw      0xffff
00261c:  ffff  dw      0xffff
00261e:  ffff  dw      0xffff
002620:  ffff  dw      0xffff
002622:  ffff  dw      0xffff
002624:  ffff  dw      0xffff
002626:  ffff  dw      0xffff
002628:  ffff  dw      0xffff
00262a:  ffff  dw      0xffff
00262c:  ffff  dw      0xffff
00262e:  ffff  dw      0xffff
002630:  ffff  dw      0xffff
002632:  ffff  dw      0xffff
002634:  ffff  dw      0xffff
002636:  ffff  dw      0xffff
002638:  ffff  dw      0xffff
00263a:  ffff  dw      0xffff
00263c:  ffff  dw      0xffff
00263e:  ffff  dw      0xffff
002640:  ffff  dw      0xffff
002642:  ffff  dw      0xffff
002644:  ffff  dw      0xffff
002646:  ffff  dw      0xffff
002648:  ffff  dw      0xffff
00264a:  ffff  dw      0xffff
00264c:  ffff  dw      0xffff
00264e:  ffff  dw      0xffff
002650:  ffff  dw      0xffff
002652:  ffff  dw      0xffff
002654:  ffff  dw      0xffff
002656:  ffff  dw      0xffff
002658:  ffff  dw      0xffff
00265a:  ffff  dw      0xffff
00265c:  ffff  dw      0xffff
00265e:  ffff  dw      0xffff
002660:  ffff  dw      0xffff
002662:  ffff  dw      0xffff
002664:  ffff  dw      0xffff
002666:  ffff  dw      0xffff
002668:  ffff  dw      0xffff
00266a:  ffff  dw      0xffff
00266c:  ffff  dw      0xffff
00266e:  ffff  dw      0xffff
002670:  ffff  dw      0xffff
002672:  ffff  dw      0xffff
002674:  ffff  dw      0xffff
002676:  ffff  dw      0xffff
002678:  ffff  dw      0xffff
00267a:  ffff  dw      0xffff
00267c:  ffff  dw      0xffff
00267e:  ffff  dw      0xffff
002680:  ffff  dw      0xffff
002682:  ffff  dw      0xffff
002684:  ffff  dw      0xffff
002686:  ffff  dw      0xffff
002688:  ffff  dw      0xffff
00268a:  ffff  dw      0xffff
00268c:  ffff  dw      0xffff
00268e:  ffff  dw      0xffff
002690:  ffff  dw      0xffff
002692:  ffff  dw      0xffff
002694:  ffff  dw      0xffff
002696:  ffff  dw      0xffff
002698:  ffff  dw      0xffff
00269a:  ffff  dw      0xffff
00269c:  ffff  dw      0xffff
00269e:  ffff  dw      0xffff
0026a0:  ffff  dw      0xffff
0026a2:  ffff  dw      0xffff
0026a4:  ffff  dw      0xffff
0026a6:  ffff  dw      0xffff
0026a8:  ffff  dw      0xffff
0026aa:  ffff  dw      0xffff
0026ac:  ffff  dw      0xffff
0026ae:  ffff  dw      0xffff
0026b0:  ffff  dw      0xffff
0026b2:  ffff  dw      0xffff
0026b4:  ffff  dw      0xffff
0026b6:  ffff  dw      0xffff
0026b8:  ffff  dw      0xffff
0026ba:  ffff  dw      0xffff
0026bc:  ffff  dw      0xffff
0026be:  ffff  dw      0xffff
0026c0:  ffff  dw      0xffff
0026c2:  ffff  dw      0xffff
0026c4:  ffff  dw      0xffff
0026c6:  ffff  dw      0xffff
0026c8:  ffff  dw      0xffff
0026ca:  ffff  dw      0xffff
0026cc:  ffff  dw      0xffff
0026ce:  ffff  dw      0xffff
0026d0:  ffff  dw      0xffff
0026d2:  ffff  dw      0xffff
0026d4:  ffff  dw      0xffff
0026d6:  ffff  dw      0xffff
0026d8:  ffff  dw      0xffff
0026da:  ffff  dw      0xffff
0026dc:  ffff  dw      0xffff
0026de:  ffff  dw      0xffff
0026e0:  ffff  dw      0xffff
0026e2:  ffff  dw      0xffff
0026e4:  ffff  dw      0xffff
0026e6:  ffff  dw      0xffff
0026e8:  ffff  dw      0xffff
0026ea:  ffff  dw      0xffff
0026ec:  ffff  dw      0xffff
0026ee:  ffff  dw      0xffff
0026f0:  ffff  dw      0xffff
0026f2:  ffff  dw      0xffff
0026f4:  ffff  dw      0xffff
0026f6:  ffff  dw      0xffff
0026f8:  ffff  dw      0xffff
0026fa:  ffff  dw      0xffff
0026fc:  ffff  dw      0xffff
0026fe:  ffff  dw      0xffff
002700:  ffff  dw      0xffff
002702:  ffff  dw      0xffff
002704:  ffff  dw      0xffff
002706:  ffff  dw      0xffff
002708:  ffff  dw      0xffff
00270a:  ffff  dw      0xffff
00270c:  ffff  dw      0xffff
00270e:  ffff  dw      0xffff
002710:  ffff  dw      0xffff
002712:  ffff  dw      0xffff
002714:  ffff  dw      0xffff
002716:  ffff  dw      0xffff
002718:  ffff  dw      0xffff
00271a:  ffff  dw      0xffff
00271c:  ffff  dw      0xffff
00271e:  ffff  dw      0xffff
002720:  ffff  dw      0xffff
002722:  ffff  dw      0xffff
002724:  ffff  dw      0xffff
002726:  ffff  dw      0xffff
002728:  ffff  dw      0xffff
00272a:  ffff  dw      0xffff
00272c:  ffff  dw      0xffff
00272e:  ffff  dw      0xffff
002730:  ffff  dw      0xffff
002732:  ffff  dw      0xffff
002734:  ffff  dw      0xffff
002736:  ffff  dw      0xffff
002738:  ffff  dw      0xffff
00273a:  ffff  dw      0xffff
00273c:  ffff  dw      0xffff
00273e:  ffff  dw      0xffff
002740:  ffff  dw      0xffff
002742:  ffff  dw      0xffff
002744:  ffff  dw      0xffff
002746:  ffff  dw      0xffff
002748:  ffff  dw      0xffff
00274a:  ffff  dw      0xffff
00274c:  ffff  dw      0xffff
00274e:  ffff  dw      0xffff
002750:  ffff  dw      0xffff
002752:  ffff  dw      0xffff
002754:  ffff  dw      0xffff
002756:  ffff  dw      0xffff
002758:  ffff  dw      0xffff
00275a:  ffff  dw      0xffff
00275c:  ffff  dw      0xffff
00275e:  ffff  dw      0xffff
002760:  ffff  dw      0xffff
002762:  ffff  dw      0xffff
002764:  ffff  dw      0xffff
002766:  ffff  dw      0xffff
002768:  ffff  dw      0xffff
00276a:  ffff  dw      0xffff
00276c:  ffff  dw      0xffff
00276e:  ffff  dw      0xffff
002770:  ffff  dw      0xffff
002772:  ffff  dw      0xffff
002774:  ffff  dw      0xffff
002776:  ffff  dw      0xffff
002778:  ffff  dw      0xffff
00277a:  ffff  dw      0xffff
00277c:  ffff  dw      0xffff
00277e:  ffff  dw      0xffff
002780:  ffff  dw      0xffff
002782:  ffff  dw      0xffff
002784:  ffff  dw      0xffff
002786:  ffff  dw      0xffff
002788:  ffff  dw      0xffff
00278a:  ffff  dw      0xffff
00278c:  ffff  dw      0xffff
00278e:  ffff  dw      0xffff
002790:  ffff  dw      0xffff
002792:  ffff  dw      0xffff
002794:  ffff  dw      0xffff
002796:  ffff  dw      0xffff
002798:  ffff  dw      0xffff
00279a:  ffff  dw      0xffff
00279c:  ffff  dw      0xffff
00279e:  ffff  dw      0xffff
0027a0:  ffff  dw      0xffff
0027a2:  ffff  dw      0xffff
0027a4:  ffff  dw      0xffff
0027a6:  ffff  dw      0xffff
0027a8:  ffff  dw      0xffff
0027aa:  ffff  dw      0xffff
0027ac:  ffff  dw      0xffff
0027ae:  ffff  dw      0xffff
0027b0:  ffff  dw      0xffff
0027b2:  ffff  dw      0xffff
0027b4:  ffff  dw      0xffff
0027b6:  ffff  dw      0xffff
0027b8:  ffff  dw      0xffff
0027ba:  ffff  dw      0xffff
0027bc:  ffff  dw      0xffff
0027be:  ffff  dw      0xffff
0027c0:  ffff  dw      0xffff
0027c2:  ffff  dw      0xffff
0027c4:  ffff  dw      0xffff
0027c6:  ffff  dw      0xffff
0027c8:  ffff  dw      0xffff
0027ca:  ffff  dw      0xffff
0027cc:  ffff  dw      0xffff
0027ce:  ffff  dw      0xffff
0027d0:  ffff  dw      0xffff
0027d2:  ffff  dw      0xffff
0027d4:  ffff  dw      0xffff
0027d6:  ffff  dw      0xffff
0027d8:  ffff  dw      0xffff
0027da:  ffff  dw      0xffff
0027dc:  ffff  dw      0xffff
0027de:  ffff  dw      0xffff
0027e0:  ffff  dw      0xffff
0027e2:  ffff  dw      0xffff
0027e4:  ffff  dw      0xffff
0027e6:  ffff  dw      0xffff
0027e8:  ffff  dw      0xffff
0027ea:  ffff  dw      0xffff
0027ec:  ffff  dw      0xffff
0027ee:  ffff  dw      0xffff
0027f0:  ffff  dw      0xffff
0027f2:  ffff  dw      0xffff
0027f4:  ffff  dw      0xffff
0027f6:  ffff  dw      0xffff
0027f8:  ffff  dw      0xffff
0027fa:  ffff  dw      0xffff
0027fc:  ffff  dw      0xffff
0027fe:  ffff  dw      0xffff
002800:  ffff  dw      0xffff
002802:  ffff  dw      0xffff
002804:  ffff  dw      0xffff
002806:  ffff  dw      0xffff
002808:  ffff  dw      0xffff
00280a:  ffff  dw      0xffff
00280c:  ffff  dw      0xffff
00280e:  ffff  dw      0xffff
002810:  ffff  dw      0xffff
002812:  ffff  dw      0xffff
002814:  ffff  dw      0xffff
002816:  ffff  dw      0xffff
002818:  ffff  dw      0xffff
00281a:  ffff  dw      0xffff
00281c:  ffff  dw      0xffff
00281e:  ffff  dw      0xffff
002820:  ffff  dw      0xffff
002822:  ffff  dw      0xffff
002824:  ffff  dw      0xffff
002826:  ffff  dw      0xffff
002828:  ffff  dw      0xffff
00282a:  ffff  dw      0xffff
00282c:  ffff  dw      0xffff
00282e:  ffff  dw      0xffff
002830:  ffff  dw      0xffff
002832:  ffff  dw      0xffff
002834:  ffff  dw      0xffff
002836:  ffff  dw      0xffff
002838:  ffff  dw      0xffff
00283a:  ffff  dw      0xffff
00283c:  ffff  dw      0xffff
00283e:  ffff  dw      0xffff
002840:  ffff  dw      0xffff
002842:  ffff  dw      0xffff
002844:  ffff  dw      0xffff
002846:  ffff  dw      0xffff
002848:  ffff  dw      0xffff
00284a:  ffff  dw      0xffff
00284c:  ffff  dw      0xffff
00284e:  ffff  dw      0xffff
002850:  ffff  dw      0xffff
002852:  ffff  dw      0xffff
002854:  ffff  dw      0xffff
002856:  ffff  dw      0xffff
002858:  ffff  dw      0xffff
00285a:  ffff  dw      0xffff
00285c:  ffff  dw      0xffff
00285e:  ffff  dw      0xffff
002860:  ffff  dw      0xffff
002862:  ffff  dw      0xffff
002864:  ffff  dw      0xffff
002866:  ffff  dw      0xffff
002868:  ffff  dw      0xffff
00286a:  ffff  dw      0xffff
00286c:  ffff  dw      0xffff
00286e:  ffff  dw      0xffff
002870:  ffff  dw      0xffff
002872:  ffff  dw      0xffff
002874:  ffff  dw      0xffff
002876:  ffff  dw      0xffff
002878:  ffff  dw      0xffff
00287a:  ffff  dw      0xffff
00287c:  ffff  dw      0xffff
00287e:  ffff  dw      0xffff
002880:  ffff  dw      0xffff
002882:  ffff  dw      0xffff
002884:  ffff  dw      0xffff
002886:  ffff  dw      0xffff
002888:  ffff  dw      0xffff
00288a:  ffff  dw      0xffff
00288c:  ffff  dw      0xffff
00288e:  ffff  dw      0xffff
002890:  ffff  dw      0xffff
002892:  ffff  dw      0xffff
002894:  ffff  dw      0xffff
002896:  ffff  dw      0xffff
002898:  ffff  dw      0xffff
00289a:  ffff  dw      0xffff
00289c:  ffff  dw      0xffff
00289e:  ffff  dw      0xffff
0028a0:  ffff  dw      0xffff
0028a2:  ffff  dw      0xffff
0028a4:  ffff  dw      0xffff
0028a6:  ffff  dw      0xffff
0028a8:  ffff  dw      0xffff
0028aa:  ffff  dw      0xffff
0028ac:  ffff  dw      0xffff
0028ae:  ffff  dw      0xffff
0028b0:  ffff  dw      0xffff
0028b2:  ffff  dw      0xffff
0028b4:  ffff  dw      0xffff
0028b6:  ffff  dw      0xffff
0028b8:  ffff  dw      0xffff
0028ba:  ffff  dw      0xffff
0028bc:  ffff  dw      0xffff
0028be:  ffff  dw      0xffff
0028c0:  ffff  dw      0xffff
0028c2:  ffff  dw      0xffff
0028c4:  ffff  dw      0xffff
0028c6:  ffff  dw      0xffff
0028c8:  ffff  dw      0xffff
0028ca:  ffff  dw      0xffff
0028cc:  ffff  dw      0xffff
0028ce:  ffff  dw      0xffff
0028d0:  ffff  dw      0xffff
0028d2:  ffff  dw      0xffff
0028d4:  ffff  dw      0xffff
0028d6:  ffff  dw      0xffff
0028d8:  ffff  dw      0xffff
0028da:  ffff  dw      0xffff
0028dc:  ffff  dw      0xffff
0028de:  ffff  dw      0xffff
0028e0:  ffff  dw      0xffff
0028e2:  ffff  dw      0xffff
0028e4:  ffff  dw      0xffff
0028e6:  ffff  dw      0xffff
0028e8:  ffff  dw      0xffff
0028ea:  ffff  dw      0xffff
0028ec:  ffff  dw      0xffff
0028ee:  ffff  dw      0xffff
0028f0:  ffff  dw      0xffff
0028f2:  ffff  dw      0xffff
0028f4:  ffff  dw      0xffff
0028f6:  ffff  dw      0xffff
0028f8:  ffff  dw      0xffff
0028fa:  ffff  dw      0xffff
0028fc:  ffff  dw      0xffff
0028fe:  ffff  dw      0xffff
002900:  ffff  dw      0xffff
002902:  ffff  dw      0xffff
002904:  ffff  dw      0xffff
002906:  ffff  dw      0xffff
002908:  ffff  dw      0xffff
00290a:  ffff  dw      0xffff
00290c:  ffff  dw      0xffff
00290e:  ffff  dw      0xffff
002910:  ffff  dw      0xffff
002912:  ffff  dw      0xffff
002914:  ffff  dw      0xffff
002916:  ffff  dw      0xffff
002918:  ffff  dw      0xffff
00291a:  ffff  dw      0xffff
00291c:  ffff  dw      0xffff
00291e:  ffff  dw      0xffff
002920:  ffff  dw      0xffff
002922:  ffff  dw      0xffff
002924:  ffff  dw      0xffff
002926:  ffff  dw      0xffff
002928:  ffff  dw      0xffff
00292a:  ffff  dw      0xffff
00292c:  ffff  dw      0xffff
00292e:  ffff  dw      0xffff
002930:  ffff  dw      0xffff
002932:  ffff  dw      0xffff
002934:  ffff  dw      0xffff
002936:  ffff  dw      0xffff
002938:  ffff  dw      0xffff
00293a:  ffff  dw      0xffff
00293c:  ffff  dw      0xffff
00293e:  ffff  dw      0xffff
002940:  ffff  dw      0xffff
002942:  ffff  dw      0xffff
002944:  ffff  dw      0xffff
002946:  ffff  dw      0xffff
002948:  ffff  dw      0xffff
00294a:  ffff  dw      0xffff
00294c:  ffff  dw      0xffff
00294e:  ffff  dw      0xffff
002950:  ffff  dw      0xffff
002952:  ffff  dw      0xffff
002954:  ffff  dw      0xffff
002956:  ffff  dw      0xffff
002958:  ffff  dw      0xffff
00295a:  ffff  dw      0xffff
00295c:  ffff  dw      0xffff
00295e:  ffff  dw      0xffff
002960:  ffff  dw      0xffff
002962:  ffff  dw      0xffff
002964:  ffff  dw      0xffff
002966:  ffff  dw      0xffff
002968:  ffff  dw      0xffff
00296a:  ffff  dw      0xffff
00296c:  ffff  dw      0xffff
00296e:  ffff  dw      0xffff
002970:  ffff  dw      0xffff
002972:  ffff  dw      0xffff
002974:  ffff  dw      0xffff
002976:  ffff  dw      0xffff
002978:  ffff  dw      0xffff
00297a:  ffff  dw      0xffff
00297c:  ffff  dw      0xffff
00297e:  ffff  dw      0xffff
002980:  ffff  dw      0xffff
002982:  ffff  dw      0xffff
002984:  ffff  dw      0xffff
002986:  ffff  dw      0xffff
002988:  ffff  dw      0xffff
00298a:  ffff  dw      0xffff
00298c:  ffff  dw      0xffff
00298e:  ffff  dw      0xffff
002990:  ffff  dw      0xffff
002992:  ffff  dw      0xffff
002994:  ffff  dw      0xffff
002996:  ffff  dw      0xffff
002998:  ffff  dw      0xffff
00299a:  ffff  dw      0xffff
00299c:  ffff  dw      0xffff
00299e:  ffff  dw      0xffff
0029a0:  ffff  dw      0xffff
0029a2:  ffff  dw      0xffff
0029a4:  ffff  dw      0xffff
0029a6:  ffff  dw      0xffff
0029a8:  ffff  dw      0xffff
0029aa:  ffff  dw      0xffff
0029ac:  ffff  dw      0xffff
0029ae:  ffff  dw      0xffff
0029b0:  ffff  dw      0xffff
0029b2:  ffff  dw      0xffff
0029b4:  ffff  dw      0xffff
0029b6:  ffff  dw      0xffff
0029b8:  ffff  dw      0xffff
0029ba:  ffff  dw      0xffff
0029bc:  ffff  dw      0xffff
0029be:  ffff  dw      0xffff
0029c0:  ffff  dw      0xffff
0029c2:  ffff  dw      0xffff
0029c4:  ffff  dw      0xffff
0029c6:  ffff  dw      0xffff
0029c8:  ffff  dw      0xffff
0029ca:  ffff  dw      0xffff
0029cc:  ffff  dw      0xffff
0029ce:  ffff  dw      0xffff
0029d0:  ffff  dw      0xffff
0029d2:  ffff  dw      0xffff
0029d4:  ffff  dw      0xffff
0029d6:  ffff  dw      0xffff
0029d8:  ffff  dw      0xffff
0029da:  ffff  dw      0xffff
0029dc:  ffff  dw      0xffff
0029de:  ffff  dw      0xffff
0029e0:  ffff  dw      0xffff
0029e2:  ffff  dw      0xffff
0029e4:  ffff  dw      0xffff
0029e6:  ffff  dw      0xffff
0029e8:  ffff  dw      0xffff
0029ea:  ffff  dw      0xffff
0029ec:  ffff  dw      0xffff
0029ee:  ffff  dw      0xffff
0029f0:  ffff  dw      0xffff
0029f2:  ffff  dw      0xffff
0029f4:  ffff  dw      0xffff
0029f6:  ffff  dw      0xffff
0029f8:  ffff  dw      0xffff
0029fa:  ffff  dw      0xffff
0029fc:  ffff  dw      0xffff
0029fe:  ffff  dw      0xffff
002a00:  ffff  dw      0xffff
002a02:  ffff  dw      0xffff
002a04:  ffff  dw      0xffff
002a06:  ffff  dw      0xffff
002a08:  ffff  dw      0xffff
002a0a:  ffff  dw      0xffff
002a0c:  ffff  dw      0xffff
002a0e:  ffff  dw      0xffff
002a10:  ffff  dw      0xffff
002a12:  ffff  dw      0xffff
002a14:  ffff  dw      0xffff
002a16:  ffff  dw      0xffff
002a18:  ffff  dw      0xffff
002a1a:  ffff  dw      0xffff
002a1c:  ffff  dw      0xffff
002a1e:  ffff  dw      0xffff
002a20:  ffff  dw      0xffff
002a22:  ffff  dw      0xffff
002a24:  ffff  dw      0xffff
002a26:  ffff  dw      0xffff
002a28:  ffff  dw      0xffff
002a2a:  ffff  dw      0xffff
002a2c:  ffff  dw      0xffff
002a2e:  ffff  dw      0xffff
002a30:  ffff  dw      0xffff
002a32:  ffff  dw      0xffff
002a34:  ffff  dw      0xffff
002a36:  ffff  dw      0xffff
002a38:  ffff  dw      0xffff
002a3a:  ffff  dw      0xffff
002a3c:  ffff  dw      0xffff
002a3e:  ffff  dw      0xffff
002a40:  ffff  dw      0xffff
002a42:  ffff  dw      0xffff
002a44:  ffff  dw      0xffff
002a46:  ffff  dw      0xffff
002a48:  ffff  dw      0xffff
002a4a:  ffff  dw      0xffff
002a4c:  ffff  dw      0xffff
002a4e:  ffff  dw      0xffff
002a50:  ffff  dw      0xffff
002a52:  ffff  dw      0xffff
002a54:  ffff  dw      0xffff
002a56:  ffff  dw      0xffff
002a58:  ffff  dw      0xffff
002a5a:  ffff  dw      0xffff
002a5c:  ffff  dw      0xffff
002a5e:  ffff  dw      0xffff
002a60:  ffff  dw      0xffff
002a62:  ffff  dw      0xffff
002a64:  ffff  dw      0xffff
002a66:  ffff  dw      0xffff
002a68:  ffff  dw      0xffff
002a6a:  ffff  dw      0xffff
002a6c:  ffff  dw      0xffff
002a6e:  ffff  dw      0xffff
002a70:  ffff  dw      0xffff
002a72:  ffff  dw      0xffff
002a74:  ffff  dw      0xffff
002a76:  ffff  dw      0xffff
002a78:  ffff  dw      0xffff
002a7a:  ffff  dw      0xffff
002a7c:  ffff  dw      0xffff
002a7e:  ffff  dw      0xffff
002a80:  ffff  dw      0xffff
002a82:  ffff  dw      0xffff
002a84:  ffff  dw      0xffff
002a86:  ffff  dw      0xffff
002a88:  ffff  dw      0xffff
002a8a:  ffff  dw      0xffff
002a8c:  ffff  dw      0xffff
002a8e:  ffff  dw      0xffff
002a90:  ffff  dw      0xffff
002a92:  ffff  dw      0xffff
002a94:  ffff  dw      0xffff
002a96:  ffff  dw      0xffff
002a98:  ffff  dw      0xffff
002a9a:  ffff  dw      0xffff
002a9c:  ffff  dw      0xffff
002a9e:  ffff  dw      0xffff
002aa0:  ffff  dw      0xffff
002aa2:  ffff  dw      0xffff
002aa4:  ffff  dw      0xffff
002aa6:  ffff  dw      0xffff
002aa8:  ffff  dw      0xffff
002aaa:  ffff  dw      0xffff
002aac:  ffff  dw      0xffff
002aae:  ffff  dw      0xffff
002ab0:  ffff  dw      0xffff
002ab2:  ffff  dw      0xffff
002ab4:  ffff  dw      0xffff
002ab6:  ffff  dw      0xffff
002ab8:  ffff  dw      0xffff
002aba:  ffff  dw      0xffff
002abc:  ffff  dw      0xffff
002abe:  ffff  dw      0xffff
002ac0:  ffff  dw      0xffff
002ac2:  ffff  dw      0xffff
002ac4:  ffff  dw      0xffff
002ac6:  ffff  dw      0xffff
002ac8:  ffff  dw      0xffff
002aca:  ffff  dw      0xffff
002acc:  ffff  dw      0xffff
002ace:  ffff  dw      0xffff
002ad0:  ffff  dw      0xffff
002ad2:  ffff  dw      0xffff
002ad4:  ffff  dw      0xffff
002ad6:  ffff  dw      0xffff
002ad8:  ffff  dw      0xffff
002ada:  ffff  dw      0xffff
002adc:  ffff  dw      0xffff
002ade:  ffff  dw      0xffff
002ae0:  ffff  dw      0xffff
002ae2:  ffff  dw      0xffff
002ae4:  ffff  dw      0xffff
002ae6:  ffff  dw      0xffff
002ae8:  ffff  dw      0xffff
002aea:  ffff  dw      0xffff
002aec:  ffff  dw      0xffff
002aee:  ffff  dw      0xffff
002af0:  ffff  dw      0xffff
002af2:  ffff  dw      0xffff
002af4:  ffff  dw      0xffff
002af6:  ffff  dw      0xffff
002af8:  ffff  dw      0xffff
002afa:  ffff  dw      0xffff
002afc:  ffff  dw      0xffff
002afe:  ffff  dw      0xffff
002b00:  ffff  dw      0xffff
002b02:  ffff  dw      0xffff
002b04:  ffff  dw      0xffff
002b06:  ffff  dw      0xffff
002b08:  ffff  dw      0xffff
002b0a:  ffff  dw      0xffff
002b0c:  ffff  dw      0xffff
002b0e:  ffff  dw      0xffff
002b10:  ffff  dw      0xffff
002b12:  ffff  dw      0xffff
002b14:  ffff  dw      0xffff
002b16:  ffff  dw      0xffff
002b18:  ffff  dw      0xffff
002b1a:  ffff  dw      0xffff
002b1c:  ffff  dw      0xffff
002b1e:  ffff  dw      0xffff
002b20:  ffff  dw      0xffff
002b22:  ffff  dw      0xffff
002b24:  ffff  dw      0xffff
002b26:  ffff  dw      0xffff
002b28:  ffff  dw      0xffff
002b2a:  ffff  dw      0xffff
002b2c:  ffff  dw      0xffff
002b2e:  ffff  dw      0xffff
002b30:  ffff  dw      0xffff
002b32:  ffff  dw      0xffff
002b34:  ffff  dw      0xffff
002b36:  ffff  dw      0xffff
002b38:  ffff  dw      0xffff
002b3a:  ffff  dw      0xffff
002b3c:  ffff  dw      0xffff
002b3e:  ffff  dw      0xffff
002b40:  ffff  dw      0xffff
002b42:  ffff  dw      0xffff
002b44:  ffff  dw      0xffff
002b46:  ffff  dw      0xffff
002b48:  ffff  dw      0xffff
002b4a:  ffff  dw      0xffff
002b4c:  ffff  dw      0xffff
002b4e:  ffff  dw      0xffff
002b50:  ffff  dw      0xffff
002b52:  ffff  dw      0xffff
002b54:  ffff  dw      0xffff
002b56:  ffff  dw      0xffff
002b58:  ffff  dw      0xffff
002b5a:  ffff  dw      0xffff
002b5c:  ffff  dw      0xffff
002b5e:  ffff  dw      0xffff
002b60:  ffff  dw      0xffff
002b62:  ffff  dw      0xffff
002b64:  ffff  dw      0xffff
002b66:  ffff  dw      0xffff
002b68:  ffff  dw      0xffff
002b6a:  ffff  dw      0xffff
002b6c:  ffff  dw      0xffff
002b6e:  ffff  dw      0xffff
002b70:  ffff  dw      0xffff
002b72:  ffff  dw      0xffff
002b74:  ffff  dw      0xffff
002b76:  ffff  dw      0xffff
002b78:  ffff  dw      0xffff
002b7a:  ffff  dw      0xffff
002b7c:  ffff  dw      0xffff
002b7e:  ffff  dw      0xffff
002b80:  ffff  dw      0xffff
002b82:  ffff  dw      0xffff
002b84:  ffff  dw      0xffff
002b86:  ffff  dw      0xffff
002b88:  ffff  dw      0xffff
002b8a:  ffff  dw      0xffff
002b8c:  ffff  dw      0xffff
002b8e:  ffff  dw      0xffff
002b90:  ffff  dw      0xffff
002b92:  ffff  dw      0xffff
002b94:  ffff  dw      0xffff
002b96:  ffff  dw      0xffff
002b98:  ffff  dw      0xffff
002b9a:  ffff  dw      0xffff
002b9c:  ffff  dw      0xffff
002b9e:  ffff  dw      0xffff
002ba0:  ffff  dw      0xffff
002ba2:  ffff  dw      0xffff
002ba4:  ffff  dw      0xffff
002ba6:  ffff  dw      0xffff
002ba8:  ffff  dw      0xffff
002baa:  ffff  dw      0xffff
002bac:  ffff  dw      0xffff
002bae:  ffff  dw      0xffff
002bb0:  ffff  dw      0xffff
002bb2:  ffff  dw      0xffff
002bb4:  ffff  dw      0xffff
002bb6:  ffff  dw      0xffff
002bb8:  ffff  dw      0xffff
002bba:  ffff  dw      0xffff
002bbc:  ffff  dw      0xffff
002bbe:  ffff  dw      0xffff
002bc0:  ffff  dw      0xffff
002bc2:  ffff  dw      0xffff
002bc4:  ffff  dw      0xffff
002bc6:  ffff  dw      0xffff
002bc8:  ffff  dw      0xffff
002bca:  ffff  dw      0xffff
002bcc:  ffff  dw      0xffff
002bce:  ffff  dw      0xffff
002bd0:  ffff  dw      0xffff
002bd2:  ffff  dw      0xffff
002bd4:  ffff  dw      0xffff
002bd6:  ffff  dw      0xffff
002bd8:  ffff  dw      0xffff
002bda:  ffff  dw      0xffff
002bdc:  ffff  dw      0xffff
002bde:  ffff  dw      0xffff
002be0:  ffff  dw      0xffff
002be2:  ffff  dw      0xffff
002be4:  ffff  dw      0xffff
002be6:  ffff  dw      0xffff
002be8:  ffff  dw      0xffff
002bea:  ffff  dw      0xffff
002bec:  ffff  dw      0xffff
002bee:  ffff  dw      0xffff
002bf0:  ffff  dw      0xffff
002bf2:  ffff  dw      0xffff
002bf4:  ffff  dw      0xffff
002bf6:  ffff  dw      0xffff
002bf8:  ffff  dw      0xffff
002bfa:  ffff  dw      0xffff
002bfc:  ffff  dw      0xffff
002bfe:  ffff  dw      0xffff
002c00:  ffff  dw      0xffff
002c02:  ffff  dw      0xffff
002c04:  ffff  dw      0xffff
002c06:  ffff  dw      0xffff
002c08:  ffff  dw      0xffff
002c0a:  ffff  dw      0xffff
002c0c:  ffff  dw      0xffff
002c0e:  ffff  dw      0xffff
002c10:  ffff  dw      0xffff
002c12:  ffff  dw      0xffff
002c14:  ffff  dw      0xffff
002c16:  ffff  dw      0xffff
002c18:  ffff  dw      0xffff
002c1a:  ffff  dw      0xffff
002c1c:  ffff  dw      0xffff
002c1e:  ffff  dw      0xffff
002c20:  ffff  dw      0xffff
002c22:  ffff  dw      0xffff
002c24:  ffff  dw      0xffff
002c26:  ffff  dw      0xffff
002c28:  ffff  dw      0xffff
002c2a:  ffff  dw      0xffff
002c2c:  ffff  dw      0xffff
002c2e:  ffff  dw      0xffff
002c30:  ffff  dw      0xffff
002c32:  ffff  dw      0xffff
002c34:  ffff  dw      0xffff
002c36:  ffff  dw      0xffff
002c38:  ffff  dw      0xffff
002c3a:  ffff  dw      0xffff
002c3c:  ffff  dw      0xffff
002c3e:  ffff  dw      0xffff
002c40:  ffff  dw      0xffff
002c42:  ffff  dw      0xffff
002c44:  ffff  dw      0xffff
002c46:  ffff  dw      0xffff
002c48:  ffff  dw      0xffff
002c4a:  ffff  dw      0xffff
002c4c:  ffff  dw      0xffff
002c4e:  ffff  dw      0xffff
002c50:  ffff  dw      0xffff
002c52:  ffff  dw      0xffff
002c54:  ffff  dw      0xffff
002c56:  ffff  dw      0xffff
002c58:  ffff  dw      0xffff
002c5a:  ffff  dw      0xffff
002c5c:  ffff  dw      0xffff
002c5e:  ffff  dw      0xffff
002c60:  ffff  dw      0xffff
002c62:  ffff  dw      0xffff
002c64:  ffff  dw      0xffff
002c66:  ffff  dw      0xffff
002c68:  ffff  dw      0xffff
002c6a:  ffff  dw      0xffff
002c6c:  ffff  dw      0xffff
002c6e:  ffff  dw      0xffff
002c70:  ffff  dw      0xffff
002c72:  ffff  dw      0xffff
002c74:  ffff  dw      0xffff
002c76:  ffff  dw      0xffff
002c78:  ffff  dw      0xffff
002c7a:  ffff  dw      0xffff
002c7c:  ffff  dw      0xffff
002c7e:  ffff  dw      0xffff
002c80:  ffff  dw      0xffff
002c82:  ffff  dw      0xffff
002c84:  ffff  dw      0xffff
002c86:  ffff  dw      0xffff
002c88:  ffff  dw      0xffff
002c8a:  ffff  dw      0xffff
002c8c:  ffff  dw      0xffff
002c8e:  ffff  dw      0xffff
002c90:  ffff  dw      0xffff
002c92:  ffff  dw      0xffff
002c94:  ffff  dw      0xffff
002c96:  ffff  dw      0xffff
002c98:  ffff  dw      0xffff
002c9a:  ffff  dw      0xffff
002c9c:  ffff  dw      0xffff
002c9e:  ffff  dw      0xffff
002ca0:  ffff  dw      0xffff
002ca2:  ffff  dw      0xffff
002ca4:  ffff  dw      0xffff
002ca6:  ffff  dw      0xffff
002ca8:  ffff  dw      0xffff
002caa:  ffff  dw      0xffff
002cac:  ffff  dw      0xffff
002cae:  ffff  dw      0xffff
002cb0:  ffff  dw      0xffff
002cb2:  ffff  dw      0xffff
002cb4:  ffff  dw      0xffff
002cb6:  ffff  dw      0xffff
002cb8:  ffff  dw      0xffff
002cba:  ffff  dw      0xffff
002cbc:  ffff  dw      0xffff
002cbe:  ffff  dw      0xffff
002cc0:  ffff  dw      0xffff
002cc2:  ffff  dw      0xffff
002cc4:  ffff  dw      0xffff
002cc6:  ffff  dw      0xffff
002cc8:  ffff  dw      0xffff
002cca:  ffff  dw      0xffff
002ccc:  ffff  dw      0xffff
002cce:  ffff  dw      0xffff
002cd0:  ffff  dw      0xffff
002cd2:  ffff  dw      0xffff
002cd4:  ffff  dw      0xffff
002cd6:  ffff  dw      0xffff
002cd8:  ffff  dw      0xffff
002cda:  ffff  dw      0xffff
002cdc:  ffff  dw      0xffff
002cde:  ffff  dw      0xffff
002ce0:  ffff  dw      0xffff
002ce2:  ffff  dw      0xffff
002ce4:  ffff  dw      0xffff
002ce6:  ffff  dw      0xffff
002ce8:  ffff  dw      0xffff
002cea:  ffff  dw      0xffff
002cec:  ffff  dw      0xffff
002cee:  ffff  dw      0xffff
002cf0:  ffff  dw      0xffff
002cf2:  ffff  dw      0xffff
002cf4:  ffff  dw      0xffff
002cf6:  ffff  dw      0xffff
002cf8:  ffff  dw      0xffff
002cfa:  ffff  dw      0xffff
002cfc:  ffff  dw      0xffff
002cfe:  ffff  dw      0xffff
002d00:  ffff  dw      0xffff
002d02:  ffff  dw      0xffff
002d04:  ffff  dw      0xffff
002d06:  ffff  dw      0xffff
002d08:  ffff  dw      0xffff
002d0a:  ffff  dw      0xffff
002d0c:  ffff  dw      0xffff
002d0e:  ffff  dw      0xffff
002d10:  ffff  dw      0xffff
002d12:  ffff  dw      0xffff
002d14:  ffff  dw      0xffff
002d16:  ffff  dw      0xffff
002d18:  ffff  dw      0xffff
002d1a:  ffff  dw      0xffff
002d1c:  ffff  dw      0xffff
002d1e:  ffff  dw      0xffff
002d20:  ffff  dw      0xffff
002d22:  ffff  dw      0xffff
002d24:  ffff  dw      0xffff
002d26:  ffff  dw      0xffff
002d28:  ffff  dw      0xffff
002d2a:  ffff  dw      0xffff
002d2c:  ffff  dw      0xffff
002d2e:  ffff  dw      0xffff
002d30:  ffff  dw      0xffff
002d32:  ffff  dw      0xffff
002d34:  ffff  dw      0xffff
002d36:  ffff  dw      0xffff
002d38:  ffff  dw      0xffff
002d3a:  ffff  dw      0xffff
002d3c:  ffff  dw      0xffff
002d3e:  ffff  dw      0xffff
002d40:  ffff  dw      0xffff
002d42:  ffff  dw      0xffff
002d44:  ffff  dw      0xffff
002d46:  ffff  dw      0xffff
002d48:  ffff  dw      0xffff
002d4a:  ffff  dw      0xffff
002d4c:  ffff  dw      0xffff
002d4e:  ffff  dw      0xffff
002d50:  ffff  dw      0xffff
002d52:  ffff  dw      0xffff
002d54:  ffff  dw      0xffff
002d56:  ffff  dw      0xffff
002d58:  ffff  dw      0xffff
002d5a:  ffff  dw      0xffff
002d5c:  ffff  dw      0xffff
002d5e:  ffff  dw      0xffff
002d60:  ffff  dw      0xffff
002d62:  ffff  dw      0xffff
002d64:  ffff  dw      0xffff
002d66:  ffff  dw      0xffff
002d68:  ffff  dw      0xffff
002d6a:  ffff  dw      0xffff
002d6c:  ffff  dw      0xffff
002d6e:  ffff  dw      0xffff
002d70:  ffff  dw      0xffff
002d72:  ffff  dw      0xffff
002d74:  ffff  dw      0xffff
002d76:  ffff  dw      0xffff
002d78:  ffff  dw      0xffff
002d7a:  ffff  dw      0xffff
002d7c:  ffff  dw      0xffff
002d7e:  ffff  dw      0xffff
002d80:  ffff  dw      0xffff
002d82:  ffff  dw      0xffff
002d84:  ffff  dw      0xffff
002d86:  ffff  dw      0xffff
002d88:  ffff  dw      0xffff
002d8a:  ffff  dw      0xffff
002d8c:  ffff  dw      0xffff
002d8e:  ffff  dw      0xffff
002d90:  ffff  dw      0xffff
002d92:  ffff  dw      0xffff
002d94:  ffff  dw      0xffff
002d96:  ffff  dw      0xffff
002d98:  ffff  dw      0xffff
002d9a:  ffff  dw      0xffff
002d9c:  ffff  dw      0xffff
002d9e:  ffff  dw      0xffff
002da0:  ffff  dw      0xffff
002da2:  ffff  dw      0xffff
002da4:  ffff  dw      0xffff
002da6:  ffff  dw      0xffff
002da8:  ffff  dw      0xffff
002daa:  ffff  dw      0xffff
002dac:  ffff  dw      0xffff
002dae:  ffff  dw      0xffff
002db0:  ffff  dw      0xffff
002db2:  ffff  dw      0xffff
002db4:  ffff  dw      0xffff
002db6:  ffff  dw      0xffff
002db8:  ffff  dw      0xffff
002dba:  ffff  dw      0xffff
002dbc:  ffff  dw      0xffff
002dbe:  ffff  dw      0xffff
002dc0:  ffff  dw      0xffff
002dc2:  ffff  dw      0xffff
002dc4:  ffff  dw      0xffff
002dc6:  ffff  dw      0xffff
002dc8:  ffff  dw      0xffff
002dca:  ffff  dw      0xffff
002dcc:  ffff  dw      0xffff
002dce:  ffff  dw      0xffff
002dd0:  ffff  dw      0xffff
002dd2:  ffff  dw      0xffff
002dd4:  ffff  dw      0xffff
002dd6:  ffff  dw      0xffff
002dd8:  ffff  dw      0xffff
002dda:  ffff  dw      0xffff
002ddc:  ffff  dw      0xffff
002dde:  ffff  dw      0xffff
002de0:  ffff  dw      0xffff
002de2:  ffff  dw      0xffff
002de4:  ffff  dw      0xffff
002de6:  ffff  dw      0xffff
002de8:  ffff  dw      0xffff
002dea:  ffff  dw      0xffff
002dec:  ffff  dw      0xffff
002dee:  ffff  dw      0xffff
002df0:  ffff  dw      0xffff
002df2:  ffff  dw      0xffff
002df4:  ffff  dw      0xffff
002df6:  ffff  dw      0xffff
002df8:  ffff  dw      0xffff
002dfa:  ffff  dw      0xffff
002dfc:  ffff  dw      0xffff
002dfe:  ffff  dw      0xffff
002e00:  ffff  dw      0xffff
002e02:  ffff  dw      0xffff
002e04:  ffff  dw      0xffff
002e06:  ffff  dw      0xffff
002e08:  ffff  dw      0xffff
002e0a:  ffff  dw      0xffff
002e0c:  ffff  dw      0xffff
002e0e:  ffff  dw      0xffff
002e10:  ffff  dw      0xffff
002e12:  ffff  dw      0xffff
002e14:  ffff  dw      0xffff
002e16:  ffff  dw      0xffff
002e18:  ffff  dw      0xffff
002e1a:  ffff  dw      0xffff
002e1c:  ffff  dw      0xffff
002e1e:  ffff  dw      0xffff
002e20:  ffff  dw      0xffff
002e22:  ffff  dw      0xffff
002e24:  ffff  dw      0xffff
002e26:  ffff  dw      0xffff
002e28:  ffff  dw      0xffff
002e2a:  ffff  dw      0xffff
002e2c:  ffff  dw      0xffff
002e2e:  ffff  dw      0xffff
002e30:  ffff  dw      0xffff
002e32:  ffff  dw      0xffff
002e34:  ffff  dw      0xffff
002e36:  ffff  dw      0xffff
002e38:  ffff  dw      0xffff
002e3a:  ffff  dw      0xffff
002e3c:  ffff  dw      0xffff
002e3e:  ffff  dw      0xffff
002e40:  ffff  dw      0xffff
002e42:  ffff  dw      0xffff
002e44:  ffff  dw      0xffff
002e46:  ffff  dw      0xffff
002e48:  ffff  dw      0xffff
002e4a:  ffff  dw      0xffff
002e4c:  ffff  dw      0xffff
002e4e:  ffff  dw      0xffff
002e50:  ffff  dw      0xffff
002e52:  ffff  dw      0xffff
002e54:  ffff  dw      0xffff
002e56:  ffff  dw      0xffff
002e58:  ffff  dw      0xffff
002e5a:  ffff  dw      0xffff
002e5c:  ffff  dw      0xffff
002e5e:  ffff  dw      0xffff
002e60:  ffff  dw      0xffff
002e62:  ffff  dw      0xffff
002e64:  ffff  dw      0xffff
002e66:  ffff  dw      0xffff
002e68:  ffff  dw      0xffff
002e6a:  ffff  dw      0xffff
002e6c:  ffff  dw      0xffff
002e6e:  ffff  dw      0xffff
002e70:  ffff  dw      0xffff
002e72:  ffff  dw      0xffff
002e74:  ffff  dw      0xffff
002e76:  ffff  dw      0xffff
002e78:  ffff  dw      0xffff
002e7a:  ffff  dw      0xffff
002e7c:  ffff  dw      0xffff
002e7e:  ffff  dw      0xffff
002e80:  ffff  dw      0xffff
002e82:  ffff  dw      0xffff
002e84:  ffff  dw      0xffff
002e86:  ffff  dw      0xffff
002e88:  ffff  dw      0xffff
002e8a:  ffff  dw      0xffff
002e8c:  ffff  dw      0xffff
002e8e:  ffff  dw      0xffff
002e90:  ffff  dw      0xffff
002e92:  ffff  dw      0xffff
002e94:  ffff  dw      0xffff
002e96:  ffff  dw      0xffff
002e98:  ffff  dw      0xffff
002e9a:  ffff  dw      0xffff
002e9c:  ffff  dw      0xffff
002e9e:  ffff  dw      0xffff
002ea0:  ffff  dw      0xffff
002ea2:  ffff  dw      0xffff
002ea4:  ffff  dw      0xffff
002ea6:  ffff  dw      0xffff
002ea8:  ffff  dw      0xffff
002eaa:  ffff  dw      0xffff
002eac:  ffff  dw      0xffff
002eae:  ffff  dw      0xffff
002eb0:  ffff  dw      0xffff
002eb2:  ffff  dw      0xffff
002eb4:  ffff  dw      0xffff
002eb6:  ffff  dw      0xffff
002eb8:  ffff  dw      0xffff
002eba:  ffff  dw      0xffff
002ebc:  ffff  dw      0xffff
002ebe:  ffff  dw      0xffff
002ec0:  ffff  dw      0xffff
002ec2:  ffff  dw      0xffff
002ec4:  ffff  dw      0xffff
002ec6:  ffff  dw      0xffff
002ec8:  ffff  dw      0xffff
002eca:  ffff  dw      0xffff
002ecc:  ffff  dw      0xffff
002ece:  ffff  dw      0xffff
002ed0:  ffff  dw      0xffff
002ed2:  ffff  dw      0xffff
002ed4:  ffff  dw      0xffff
002ed6:  ffff  dw      0xffff
002ed8:  ffff  dw      0xffff
002eda:  ffff  dw      0xffff
002edc:  ffff  dw      0xffff
002ede:  ffff  dw      0xffff
002ee0:  ffff  dw      0xffff
002ee2:  ffff  dw      0xffff
002ee4:  ffff  dw      0xffff
002ee6:  ffff  dw      0xffff
002ee8:  ffff  dw      0xffff
002eea:  ffff  dw      0xffff
002eec:  ffff  dw      0xffff
002eee:  ffff  dw      0xffff
002ef0:  ffff  dw      0xffff
002ef2:  ffff  dw      0xffff
002ef4:  ffff  dw      0xffff
002ef6:  ffff  dw      0xffff
002ef8:  ffff  dw      0xffff
002efa:  ffff  dw      0xffff
002efc:  ffff  dw      0xffff
002efe:  ffff  dw      0xffff
002f00:  ffff  dw      0xffff
002f02:  ffff  dw      0xffff
002f04:  ffff  dw      0xffff
002f06:  ffff  dw      0xffff
002f08:  ffff  dw      0xffff
002f0a:  ffff  dw      0xffff
002f0c:  ffff  dw      0xffff
002f0e:  ffff  dw      0xffff
002f10:  ffff  dw      0xffff
002f12:  ffff  dw      0xffff
002f14:  ffff  dw      0xffff
002f16:  ffff  dw      0xffff
002f18:  ffff  dw      0xffff
002f1a:  ffff  dw      0xffff
002f1c:  ffff  dw      0xffff
002f1e:  ffff  dw      0xffff
002f20:  ffff  dw      0xffff
002f22:  ffff  dw      0xffff
002f24:  ffff  dw      0xffff
002f26:  ffff  dw      0xffff
002f28:  ffff  dw      0xffff
002f2a:  ffff  dw      0xffff
002f2c:  ffff  dw      0xffff
002f2e:  ffff  dw      0xffff
002f30:  ffff  dw      0xffff
002f32:  ffff  dw      0xffff
002f34:  ffff  dw      0xffff
002f36:  ffff  dw      0xffff
002f38:  ffff  dw      0xffff
002f3a:  ffff  dw      0xffff
002f3c:  ffff  dw      0xffff
002f3e:  ffff  dw      0xffff
002f40:  ffff  dw      0xffff
002f42:  ffff  dw      0xffff
002f44:  ffff  dw      0xffff
002f46:  ffff  dw      0xffff
002f48:  ffff  dw      0xffff
002f4a:  ffff  dw      0xffff
002f4c:  ffff  dw      0xffff
002f4e:  ffff  dw      0xffff
002f50:  ffff  dw      0xffff
002f52:  ffff  dw      0xffff
002f54:  ffff  dw      0xffff
002f56:  ffff  dw      0xffff
002f58:  ffff  dw      0xffff
002f5a:  ffff  dw      0xffff
002f5c:  ffff  dw      0xffff
002f5e:  ffff  dw      0xffff
002f60:  ffff  dw      0xffff
002f62:  ffff  dw      0xffff
002f64:  ffff  dw      0xffff
002f66:  ffff  dw      0xffff
002f68:  ffff  dw      0xffff
002f6a:  ffff  dw      0xffff
002f6c:  ffff  dw      0xffff
002f6e:  ffff  dw      0xffff
002f70:  ffff  dw      0xffff
002f72:  ffff  dw      0xffff
002f74:  ffff  dw      0xffff
002f76:  ffff  dw      0xffff
002f78:  ffff  dw      0xffff
002f7a:  ffff  dw      0xffff
002f7c:  ffff  dw      0xffff
002f7e:  ffff  dw      0xffff
002f80:  ffff  dw      0xffff
002f82:  ffff  dw      0xffff
002f84:  ffff  dw      0xffff
002f86:  ffff  dw      0xffff
002f88:  ffff  dw      0xffff
002f8a:  ffff  dw      0xffff
002f8c:  ffff  dw      0xffff
002f8e:  ffff  dw      0xffff
002f90:  ffff  dw      0xffff
002f92:  ffff  dw      0xffff
002f94:  ffff  dw      0xffff
002f96:  ffff  dw      0xffff
002f98:  ffff  dw      0xffff
002f9a:  ffff  dw      0xffff
002f9c:  ffff  dw      0xffff
002f9e:  ffff  dw      0xffff
002fa0:  ffff  dw      0xffff
002fa2:  ffff  dw      0xffff
002fa4:  ffff  dw      0xffff
002fa6:  ffff  dw      0xffff
002fa8:  ffff  dw      0xffff
002faa:  ffff  dw      0xffff
002fac:  ffff  dw      0xffff
002fae:  ffff  dw      0xffff
002fb0:  ffff  dw      0xffff
002fb2:  ffff  dw      0xffff
002fb4:  ffff  dw      0xffff
002fb6:  ffff  dw      0xffff
002fb8:  ffff  dw      0xffff
002fba:  ffff  dw      0xffff
002fbc:  ffff  dw      0xffff
002fbe:  ffff  dw      0xffff
002fc0:  ffff  dw      0xffff
002fc2:  ffff  dw      0xffff
002fc4:  ffff  dw      0xffff
002fc6:  ffff  dw      0xffff
002fc8:  ffff  dw      0xffff
002fca:  ffff  dw      0xffff
002fcc:  ffff  dw      0xffff
002fce:  ffff  dw      0xffff
002fd0:  ffff  dw      0xffff
002fd2:  ffff  dw      0xffff
002fd4:  ffff  dw      0xffff
002fd6:  ffff  dw      0xffff
002fd8:  ffff  dw      0xffff
002fda:  ffff  dw      0xffff
002fdc:  ffff  dw      0xffff
002fde:  ffff  dw      0xffff
002fe0:  ffff  dw      0xffff
002fe2:  ffff  dw      0xffff
002fe4:  ffff  dw      0xffff
002fe6:  ffff  dw      0xffff
002fe8:  ffff  dw      0xffff
002fea:  ffff  dw      0xffff
002fec:  ffff  dw      0xffff
002fee:  ffff  dw      0xffff
002ff0:  ffff  dw      0xffff
002ff2:  ffff  dw      0xffff
002ff4:  ffff  dw      0xffff
002ff6:  ffff  dw      0xffff
002ff8:  ffff  dw      0xffff
002ffa:  ffff  dw      0xffff
002ffc:  ffff  dw      0xffff
002ffe:  ffff  dw      0xffff
003000:  ffff  dw      0xffff
003002:  ffff  dw      0xffff
003004:  ffff  dw      0xffff
003006:  ffff  dw      0xffff
003008:  ffff  dw      0xffff
00300a:  ffff  dw      0xffff
00300c:  ffff  dw      0xffff
00300e:  ffff  dw      0xffff
003010:  ffff  dw      0xffff
003012:  ffff  dw      0xffff
003014:  ffff  dw      0xffff
003016:  ffff  dw      0xffff
003018:  ffff  dw      0xffff
00301a:  ffff  dw      0xffff
00301c:  ffff  dw      0xffff
00301e:  ffff  dw      0xffff
003020:  ffff  dw      0xffff
003022:  ffff  dw      0xffff
003024:  ffff  dw      0xffff
003026:  ffff  dw      0xffff
003028:  ffff  dw      0xffff
00302a:  ffff  dw      0xffff
00302c:  ffff  dw      0xffff
00302e:  ffff  dw      0xffff
003030:  ffff  dw      0xffff
003032:  ffff  dw      0xffff
003034:  ffff  dw      0xffff
003036:  ffff  dw      0xffff
003038:  ffff  dw      0xffff
00303a:  ffff  dw      0xffff
00303c:  ffff  dw      0xffff
00303e:  ffff  dw      0xffff
003040:  ffff  dw      0xffff
003042:  ffff  dw      0xffff
003044:  ffff  dw      0xffff
003046:  ffff  dw      0xffff
003048:  ffff  dw      0xffff
00304a:  ffff  dw      0xffff
00304c:  ffff  dw      0xffff
00304e:  ffff  dw      0xffff
003050:  ffff  dw      0xffff
003052:  ffff  dw      0xffff
003054:  ffff  dw      0xffff
003056:  ffff  dw      0xffff
003058:  ffff  dw      0xffff
00305a:  ffff  dw      0xffff
00305c:  ffff  dw      0xffff
00305e:  ffff  dw      0xffff
003060:  ffff  dw      0xffff
003062:  ffff  dw      0xffff
003064:  ffff  dw      0xffff
003066:  ffff  dw      0xffff
003068:  ffff  dw      0xffff
00306a:  ffff  dw      0xffff
00306c:  ffff  dw      0xffff
00306e:  ffff  dw      0xffff
003070:  ffff  dw      0xffff
003072:  ffff  dw      0xffff
003074:  ffff  dw      0xffff
003076:  ffff  dw      0xffff
003078:  ffff  dw      0xffff
00307a:  ffff  dw      0xffff
00307c:  ffff  dw      0xffff
00307e:  ffff  dw      0xffff
003080:  ffff  dw      0xffff
003082:  ffff  dw      0xffff
003084:  ffff  dw      0xffff
003086:  ffff  dw      0xffff
003088:  ffff  dw      0xffff
00308a:  ffff  dw      0xffff
00308c:  ffff  dw      0xffff
00308e:  ffff  dw      0xffff
003090:  ffff  dw      0xffff
003092:  ffff  dw      0xffff
003094:  ffff  dw      0xffff
003096:  ffff  dw      0xffff
003098:  ffff  dw      0xffff
00309a:  ffff  dw      0xffff
00309c:  ffff  dw      0xffff
00309e:  ffff  dw      0xffff
0030a0:  ffff  dw      0xffff
0030a2:  ffff  dw      0xffff
0030a4:  ffff  dw      0xffff
0030a6:  ffff  dw      0xffff
0030a8:  ffff  dw      0xffff
0030aa:  ffff  dw      0xffff
0030ac:  ffff  dw      0xffff
0030ae:  ffff  dw      0xffff
0030b0:  ffff  dw      0xffff
0030b2:  ffff  dw      0xffff
0030b4:  ffff  dw      0xffff
0030b6:  ffff  dw      0xffff
0030b8:  ffff  dw      0xffff
0030ba:  ffff  dw      0xffff
0030bc:  ffff  dw      0xffff
0030be:  ffff  dw      0xffff
0030c0:  ffff  dw      0xffff
0030c2:  ffff  dw      0xffff
0030c4:  ffff  dw      0xffff
0030c6:  ffff  dw      0xffff
0030c8:  ffff  dw      0xffff
0030ca:  ffff  dw      0xffff
0030cc:  ffff  dw      0xffff
0030ce:  ffff  dw      0xffff
0030d0:  ffff  dw      0xffff
0030d2:  ffff  dw      0xffff
0030d4:  ffff  dw      0xffff
0030d6:  ffff  dw      0xffff
0030d8:  ffff  dw      0xffff
0030da:  ffff  dw      0xffff
0030dc:  ffff  dw      0xffff
0030de:  ffff  dw      0xffff
0030e0:  ffff  dw      0xffff
0030e2:  ffff  dw      0xffff
0030e4:  ffff  dw      0xffff
0030e6:  ffff  dw      0xffff
0030e8:  ffff  dw      0xffff
0030ea:  ffff  dw      0xffff
0030ec:  ffff  dw      0xffff
0030ee:  ffff  dw      0xffff
0030f0:  ffff  dw      0xffff
0030f2:  ffff  dw      0xffff
0030f4:  ffff  dw      0xffff
0030f6:  ffff  dw      0xffff
0030f8:  ffff  dw      0xffff
0030fa:  ffff  dw      0xffff
0030fc:  ffff  dw      0xffff
0030fe:  ffff  dw      0xffff
003100:  ffff  dw      0xffff
003102:  ffff  dw      0xffff
003104:  ffff  dw      0xffff
003106:  ffff  dw      0xffff
003108:  ffff  dw      0xffff
00310a:  ffff  dw      0xffff
00310c:  ffff  dw      0xffff
00310e:  ffff  dw      0xffff
003110:  ffff  dw      0xffff
003112:  ffff  dw      0xffff
003114:  ffff  dw      0xffff
003116:  ffff  dw      0xffff
003118:  ffff  dw      0xffff
00311a:  ffff  dw      0xffff
00311c:  ffff  dw      0xffff
00311e:  ffff  dw      0xffff
003120:  ffff  dw      0xffff
003122:  ffff  dw      0xffff
003124:  ffff  dw      0xffff
003126:  ffff  dw      0xffff
003128:  ffff  dw      0xffff
00312a:  ffff  dw      0xffff
00312c:  ffff  dw      0xffff
00312e:  ffff  dw      0xffff
003130:  ffff  dw      0xffff
003132:  ffff  dw      0xffff
003134:  ffff  dw      0xffff
003136:  ffff  dw      0xffff
003138:  ffff  dw      0xffff
00313a:  ffff  dw      0xffff
00313c:  ffff  dw      0xffff
00313e:  ffff  dw      0xffff
003140:  ffff  dw      0xffff
003142:  ffff  dw      0xffff
003144:  ffff  dw      0xffff
003146:  ffff  dw      0xffff
003148:  ffff  dw      0xffff
00314a:  ffff  dw      0xffff
00314c:  ffff  dw      0xffff
00314e:  ffff  dw      0xffff
003150:  ffff  dw      0xffff
003152:  ffff  dw      0xffff
003154:  ffff  dw      0xffff
003156:  ffff  dw      0xffff
003158:  ffff  dw      0xffff
00315a:  ffff  dw      0xffff
00315c:  ffff  dw      0xffff
00315e:  ffff  dw      0xffff
003160:  ffff  dw      0xffff
003162:  ffff  dw      0xffff
003164:  ffff  dw      0xffff
003166:  ffff  dw      0xffff
003168:  ffff  dw      0xffff
00316a:  ffff  dw      0xffff
00316c:  ffff  dw      0xffff
00316e:  ffff  dw      0xffff
003170:  ffff  dw      0xffff
003172:  ffff  dw      0xffff
003174:  ffff  dw      0xffff
003176:  ffff  dw      0xffff
003178:  ffff  dw      0xffff
00317a:  ffff  dw      0xffff
00317c:  ffff  dw      0xffff
00317e:  ffff  dw      0xffff
003180:  ffff  dw      0xffff
003182:  ffff  dw      0xffff
003184:  ffff  dw      0xffff
003186:  ffff  dw      0xffff
003188:  ffff  dw      0xffff
00318a:  ffff  dw      0xffff
00318c:  ffff  dw      0xffff
00318e:  ffff  dw      0xffff
003190:  ffff  dw      0xffff
003192:  ffff  dw      0xffff
003194:  ffff  dw      0xffff
003196:  ffff  dw      0xffff
003198:  ffff  dw      0xffff
00319a:  ffff  dw      0xffff
00319c:  ffff  dw      0xffff
00319e:  ffff  dw      0xffff
0031a0:  ffff  dw      0xffff
0031a2:  ffff  dw      0xffff
0031a4:  ffff  dw      0xffff
0031a6:  ffff  dw      0xffff
0031a8:  ffff  dw      0xffff
0031aa:  ffff  dw      0xffff
0031ac:  ffff  dw      0xffff
0031ae:  ffff  dw      0xffff
0031b0:  ffff  dw      0xffff
0031b2:  ffff  dw      0xffff
0031b4:  ffff  dw      0xffff
0031b6:  ffff  dw      0xffff
0031b8:  ffff  dw      0xffff
0031ba:  ffff  dw      0xffff
0031bc:  ffff  dw      0xffff
0031be:  ffff  dw      0xffff
0031c0:  ffff  dw      0xffff
0031c2:  ffff  dw      0xffff
0031c4:  ffff  dw      0xffff
0031c6:  ffff  dw      0xffff
0031c8:  ffff  dw      0xffff
0031ca:  ffff  dw      0xffff
0031cc:  ffff  dw      0xffff
0031ce:  ffff  dw      0xffff
0031d0:  ffff  dw      0xffff
0031d2:  ffff  dw      0xffff
0031d4:  ffff  dw      0xffff
0031d6:  ffff  dw      0xffff
0031d8:  ffff  dw      0xffff
0031da:  ffff  dw      0xffff
0031dc:  ffff  dw      0xffff
0031de:  ffff  dw      0xffff
0031e0:  ffff  dw      0xffff
0031e2:  ffff  dw      0xffff
0031e4:  ffff  dw      0xffff
0031e6:  ffff  dw      0xffff
0031e8:  ffff  dw      0xffff
0031ea:  ffff  dw      0xffff
0031ec:  ffff  dw      0xffff
0031ee:  ffff  dw      0xffff
0031f0:  ffff  dw      0xffff
0031f2:  ffff  dw      0xffff
0031f4:  ffff  dw      0xffff
0031f6:  ffff  dw      0xffff
0031f8:  ffff  dw      0xffff
0031fa:  ffff  dw      0xffff
0031fc:  ffff  dw      0xffff
0031fe:  ffff  dw      0xffff
003200:  ffff  dw      0xffff
003202:  ffff  dw      0xffff
003204:  ffff  dw      0xffff
003206:  ffff  dw      0xffff
003208:  ffff  dw      0xffff
00320a:  ffff  dw      0xffff
00320c:  ffff  dw      0xffff
00320e:  ffff  dw      0xffff
003210:  ffff  dw      0xffff
003212:  ffff  dw      0xffff
003214:  ffff  dw      0xffff
003216:  ffff  dw      0xffff
003218:  ffff  dw      0xffff
00321a:  ffff  dw      0xffff
00321c:  ffff  dw      0xffff
00321e:  ffff  dw      0xffff
003220:  ffff  dw      0xffff
003222:  ffff  dw      0xffff
003224:  ffff  dw      0xffff
003226:  ffff  dw      0xffff
003228:  ffff  dw      0xffff
00322a:  ffff  dw      0xffff
00322c:  ffff  dw      0xffff
00322e:  ffff  dw      0xffff
003230:  ffff  dw      0xffff
003232:  ffff  dw      0xffff
003234:  ffff  dw      0xffff
003236:  ffff  dw      0xffff
003238:  ffff  dw      0xffff
00323a:  ffff  dw      0xffff
00323c:  ffff  dw      0xffff
00323e:  ffff  dw      0xffff
003240:  ffff  dw      0xffff
003242:  ffff  dw      0xffff
003244:  ffff  dw      0xffff
003246:  ffff  dw      0xffff
003248:  ffff  dw      0xffff
00324a:  ffff  dw      0xffff
00324c:  ffff  dw      0xffff
00324e:  ffff  dw      0xffff
003250:  ffff  dw      0xffff
003252:  ffff  dw      0xffff
003254:  ffff  dw      0xffff
003256:  ffff  dw      0xffff
003258:  ffff  dw      0xffff
00325a:  ffff  dw      0xffff
00325c:  ffff  dw      0xffff
00325e:  ffff  dw      0xffff
003260:  ffff  dw      0xffff
003262:  ffff  dw      0xffff
003264:  ffff  dw      0xffff
003266:  ffff  dw      0xffff
003268:  ffff  dw      0xffff
00326a:  ffff  dw      0xffff
00326c:  ffff  dw      0xffff
00326e:  ffff  dw      0xffff
003270:  ffff  dw      0xffff
003272:  ffff  dw      0xffff
003274:  ffff  dw      0xffff
003276:  ffff  dw      0xffff
003278:  ffff  dw      0xffff
00327a:  ffff  dw      0xffff
00327c:  ffff  dw      0xffff
00327e:  ffff  dw      0xffff
003280:  ffff  dw      0xffff
003282:  ffff  dw      0xffff
003284:  ffff  dw      0xffff
003286:  ffff  dw      0xffff
003288:  ffff  dw      0xffff
00328a:  ffff  dw      0xffff
00328c:  ffff  dw      0xffff
00328e:  ffff  dw      0xffff
003290:  ffff  dw      0xffff
003292:  ffff  dw      0xffff
003294:  ffff  dw      0xffff
003296:  ffff  dw      0xffff
003298:  ffff  dw      0xffff
00329a:  ffff  dw      0xffff
00329c:  ffff  dw      0xffff
00329e:  ffff  dw      0xffff
0032a0:  ffff  dw      0xffff
0032a2:  ffff  dw      0xffff
0032a4:  ffff  dw      0xffff
0032a6:  ffff  dw      0xffff
0032a8:  ffff  dw      0xffff
0032aa:  ffff  dw      0xffff
0032ac:  ffff  dw      0xffff
0032ae:  ffff  dw      0xffff
0032b0:  ffff  dw      0xffff
0032b2:  ffff  dw      0xffff
0032b4:  ffff  dw      0xffff
0032b6:  ffff  dw      0xffff
0032b8:  ffff  dw      0xffff
0032ba:  ffff  dw      0xffff
0032bc:  ffff  dw      0xffff
0032be:  ffff  dw      0xffff
0032c0:  ffff  dw      0xffff
0032c2:  ffff  dw      0xffff
0032c4:  ffff  dw      0xffff
0032c6:  ffff  dw      0xffff
0032c8:  ffff  dw      0xffff
0032ca:  ffff  dw      0xffff
0032cc:  ffff  dw      0xffff
0032ce:  ffff  dw      0xffff
0032d0:  ffff  dw      0xffff
0032d2:  ffff  dw      0xffff
0032d4:  ffff  dw      0xffff
0032d6:  ffff  dw      0xffff
0032d8:  ffff  dw      0xffff
0032da:  ffff  dw      0xffff
0032dc:  ffff  dw      0xffff
0032de:  ffff  dw      0xffff
0032e0:  ffff  dw      0xffff
0032e2:  ffff  dw      0xffff
0032e4:  ffff  dw      0xffff
0032e6:  ffff  dw      0xffff
0032e8:  ffff  dw      0xffff
0032ea:  ffff  dw      0xffff
0032ec:  ffff  dw      0xffff
0032ee:  ffff  dw      0xffff
0032f0:  ffff  dw      0xffff
0032f2:  ffff  dw      0xffff
0032f4:  ffff  dw      0xffff
0032f6:  ffff  dw      0xffff
0032f8:  ffff  dw      0xffff
0032fa:  ffff  dw      0xffff
0032fc:  ffff  dw      0xffff
0032fe:  ffff  dw      0xffff
003300:  ffff  dw      0xffff
003302:  ffff  dw      0xffff
003304:  ffff  dw      0xffff
003306:  ffff  dw      0xffff
003308:  ffff  dw      0xffff
00330a:  ffff  dw      0xffff
00330c:  ffff  dw      0xffff
00330e:  ffff  dw      0xffff
003310:  ffff  dw      0xffff
003312:  ffff  dw      0xffff
003314:  ffff  dw      0xffff
003316:  ffff  dw      0xffff
003318:  ffff  dw      0xffff
00331a:  ffff  dw      0xffff
00331c:  ffff  dw      0xffff
00331e:  ffff  dw      0xffff
003320:  ffff  dw      0xffff
003322:  ffff  dw      0xffff
003324:  ffff  dw      0xffff
003326:  ffff  dw      0xffff
003328:  ffff  dw      0xffff
00332a:  ffff  dw      0xffff
00332c:  ffff  dw      0xffff
00332e:  ffff  dw      0xffff
003330:  ffff  dw      0xffff
003332:  ffff  dw      0xffff
003334:  ffff  dw      0xffff
003336:  ffff  dw      0xffff
003338:  ffff  dw      0xffff
00333a:  ffff  dw      0xffff
00333c:  ffff  dw      0xffff
00333e:  ffff  dw      0xffff
003340:  ffff  dw      0xffff
003342:  ffff  dw      0xffff
003344:  ffff  dw      0xffff
003346:  ffff  dw      0xffff
003348:  ffff  dw      0xffff
00334a:  ffff  dw      0xffff
00334c:  ffff  dw      0xffff
00334e:  ffff  dw      0xffff
003350:  ffff  dw      0xffff
003352:  ffff  dw      0xffff
003354:  ffff  dw      0xffff
003356:  ffff  dw      0xffff
003358:  ffff  dw      0xffff
00335a:  ffff  dw      0xffff
00335c:  ffff  dw      0xffff
00335e:  ffff  dw      0xffff
003360:  ffff  dw      0xffff
003362:  ffff  dw      0xffff
003364:  ffff  dw      0xffff
003366:  ffff  dw      0xffff
003368:  ffff  dw      0xffff
00336a:  ffff  dw      0xffff
00336c:  ffff  dw      0xffff
00336e:  ffff  dw      0xffff
003370:  ffff  dw      0xffff
003372:  ffff  dw      0xffff
003374:  ffff  dw      0xffff
003376:  ffff  dw      0xffff
003378:  ffff  dw      0xffff
00337a:  ffff  dw      0xffff
00337c:  ffff  dw      0xffff
00337e:  ffff  dw      0xffff
003380:  ffff  dw      0xffff
003382:  ffff  dw      0xffff
003384:  ffff  dw      0xffff
003386:  ffff  dw      0xffff
003388:  ffff  dw      0xffff
00338a:  ffff  dw      0xffff
00338c:  ffff  dw      0xffff
00338e:  ffff  dw      0xffff
003390:  ffff  dw      0xffff
003392:  ffff  dw      0xffff
003394:  ffff  dw      0xffff
003396:  ffff  dw      0xffff
003398:  ffff  dw      0xffff
00339a:  ffff  dw      0xffff
00339c:  ffff  dw      0xffff
00339e:  ffff  dw      0xffff
0033a0:  ffff  dw      0xffff
0033a2:  ffff  dw      0xffff
0033a4:  ffff  dw      0xffff
0033a6:  ffff  dw      0xffff
0033a8:  ffff  dw      0xffff
0033aa:  ffff  dw      0xffff
0033ac:  ffff  dw      0xffff
0033ae:  ffff  dw      0xffff
0033b0:  ffff  dw      0xffff
0033b2:  ffff  dw      0xffff
0033b4:  ffff  dw      0xffff
0033b6:  ffff  dw      0xffff
0033b8:  ffff  dw      0xffff
0033ba:  ffff  dw      0xffff
0033bc:  ffff  dw      0xffff
0033be:  ffff  dw      0xffff
0033c0:  ffff  dw      0xffff
0033c2:  ffff  dw      0xffff
0033c4:  ffff  dw      0xffff
0033c6:  ffff  dw      0xffff
0033c8:  ffff  dw      0xffff
0033ca:  ffff  dw      0xffff
0033cc:  ffff  dw      0xffff
0033ce:  ffff  dw      0xffff
0033d0:  ffff  dw      0xffff
0033d2:  ffff  dw      0xffff
0033d4:  ffff  dw      0xffff
0033d6:  ffff  dw      0xffff
0033d8:  ffff  dw      0xffff
0033da:  ffff  dw      0xffff
0033dc:  ffff  dw      0xffff
0033de:  ffff  dw      0xffff
0033e0:  ffff  dw      0xffff
0033e2:  ffff  dw      0xffff
0033e4:  ffff  dw      0xffff
0033e6:  ffff  dw      0xffff
0033e8:  ffff  dw      0xffff
0033ea:  ffff  dw      0xffff
0033ec:  ffff  dw      0xffff
0033ee:  ffff  dw      0xffff
0033f0:  ffff  dw      0xffff
0033f2:  ffff  dw      0xffff
0033f4:  ffff  dw      0xffff
0033f6:  ffff  dw      0xffff
0033f8:  ffff  dw      0xffff
0033fa:  ffff  dw      0xffff
0033fc:  ffff  dw      0xffff
0033fe:  ffff  dw      0xffff
003400:  ffff  dw      0xffff
003402:  ffff  dw      0xffff
003404:  ffff  dw      0xffff
003406:  ffff  dw      0xffff
003408:  ffff  dw      0xffff
00340a:  ffff  dw      0xffff
00340c:  ffff  dw      0xffff
00340e:  ffff  dw      0xffff
003410:  ffff  dw      0xffff
003412:  ffff  dw      0xffff
003414:  ffff  dw      0xffff
003416:  ffff  dw      0xffff
003418:  ffff  dw      0xffff
00341a:  ffff  dw      0xffff
00341c:  ffff  dw      0xffff
00341e:  ffff  dw      0xffff
003420:  ffff  dw      0xffff
003422:  ffff  dw      0xffff
003424:  ffff  dw      0xffff
003426:  ffff  dw      0xffff
003428:  ffff  dw      0xffff
00342a:  ffff  dw      0xffff
00342c:  ffff  dw      0xffff
00342e:  ffff  dw      0xffff
003430:  ffff  dw      0xffff
003432:  ffff  dw      0xffff
003434:  ffff  dw      0xffff
003436:  ffff  dw      0xffff
003438:  ffff  dw      0xffff
00343a:  ffff  dw      0xffff
00343c:  ffff  dw      0xffff
00343e:  ffff  dw      0xffff
003440:  ffff  dw      0xffff
003442:  ffff  dw      0xffff
003444:  ffff  dw      0xffff
003446:  ffff  dw      0xffff
003448:  ffff  dw      0xffff
00344a:  ffff  dw      0xffff
00344c:  ffff  dw      0xffff
00344e:  ffff  dw      0xffff
003450:  ffff  dw      0xffff
003452:  ffff  dw      0xffff
003454:  ffff  dw      0xffff
003456:  ffff  dw      0xffff
003458:  ffff  dw      0xffff
00345a:  ffff  dw      0xffff
00345c:  ffff  dw      0xffff
00345e:  ffff  dw      0xffff
003460:  ffff  dw      0xffff
003462:  ffff  dw      0xffff
003464:  ffff  dw      0xffff
003466:  ffff  dw      0xffff
003468:  ffff  dw      0xffff
00346a:  ffff  dw      0xffff
00346c:  ffff  dw      0xffff
00346e:  ffff  dw      0xffff
003470:  ffff  dw      0xffff
003472:  ffff  dw      0xffff
003474:  ffff  dw      0xffff
003476:  ffff  dw      0xffff
003478:  ffff  dw      0xffff
00347a:  ffff  dw      0xffff
00347c:  ffff  dw      0xffff
00347e:  ffff  dw      0xffff
003480:  ffff  dw      0xffff
003482:  ffff  dw      0xffff
003484:  ffff  dw      0xffff
003486:  ffff  dw      0xffff
003488:  ffff  dw      0xffff
00348a:  ffff  dw      0xffff
00348c:  ffff  dw      0xffff
00348e:  ffff  dw      0xffff
003490:  ffff  dw      0xffff
003492:  ffff  dw      0xffff
003494:  ffff  dw      0xffff
003496:  ffff  dw      0xffff
003498:  ffff  dw      0xffff
00349a:  ffff  dw      0xffff
00349c:  ffff  dw      0xffff
00349e:  ffff  dw      0xffff
0034a0:  ffff  dw      0xffff
0034a2:  ffff  dw      0xffff
0034a4:  ffff  dw      0xffff
0034a6:  ffff  dw      0xffff
0034a8:  ffff  dw      0xffff
0034aa:  ffff  dw      0xffff
0034ac:  ffff  dw      0xffff
0034ae:  ffff  dw      0xffff
0034b0:  ffff  dw      0xffff
0034b2:  ffff  dw      0xffff
0034b4:  ffff  dw      0xffff
0034b6:  ffff  dw      0xffff
0034b8:  ffff  dw      0xffff
0034ba:  ffff  dw      0xffff
0034bc:  ffff  dw      0xffff
0034be:  ffff  dw      0xffff
0034c0:  ffff  dw      0xffff
0034c2:  ffff  dw      0xffff
0034c4:  ffff  dw      0xffff
0034c6:  ffff  dw      0xffff
0034c8:  ffff  dw      0xffff
0034ca:  ffff  dw      0xffff
0034cc:  ffff  dw      0xffff
0034ce:  ffff  dw      0xffff
0034d0:  ffff  dw      0xffff
0034d2:  ffff  dw      0xffff
0034d4:  ffff  dw      0xffff
0034d6:  ffff  dw      0xffff
0034d8:  ffff  dw      0xffff
0034da:  ffff  dw      0xffff
0034dc:  ffff  dw      0xffff
0034de:  ffff  dw      0xffff
0034e0:  ffff  dw      0xffff
0034e2:  ffff  dw      0xffff
0034e4:  ffff  dw      0xffff
0034e6:  ffff  dw      0xffff
0034e8:  ffff  dw      0xffff
0034ea:  ffff  dw      0xffff
0034ec:  ffff  dw      0xffff
0034ee:  ffff  dw      0xffff
0034f0:  ffff  dw      0xffff
0034f2:  ffff  dw      0xffff
0034f4:  ffff  dw      0xffff
0034f6:  ffff  dw      0xffff
0034f8:  ffff  dw      0xffff
0034fa:  ffff  dw      0xffff
0034fc:  ffff  dw      0xffff
0034fe:  ffff  dw      0xffff
003500:  ffff  dw      0xffff
003502:  ffff  dw      0xffff
003504:  ffff  dw      0xffff
003506:  ffff  dw      0xffff
003508:  ffff  dw      0xffff
00350a:  ffff  dw      0xffff
00350c:  ffff  dw      0xffff
00350e:  ffff  dw      0xffff
003510:  ffff  dw      0xffff
003512:  ffff  dw      0xffff
003514:  ffff  dw      0xffff
003516:  ffff  dw      0xffff
003518:  ffff  dw      0xffff
00351a:  ffff  dw      0xffff
00351c:  ffff  dw      0xffff
00351e:  ffff  dw      0xffff
003520:  ffff  dw      0xffff
003522:  ffff  dw      0xffff
003524:  ffff  dw      0xffff
003526:  ffff  dw      0xffff
003528:  ffff  dw      0xffff
00352a:  ffff  dw      0xffff
00352c:  ffff  dw      0xffff
00352e:  ffff  dw      0xffff
003530:  ffff  dw      0xffff
003532:  ffff  dw      0xffff
003534:  ffff  dw      0xffff
003536:  ffff  dw      0xffff
003538:  ffff  dw      0xffff
00353a:  ffff  dw      0xffff
00353c:  ffff  dw      0xffff
00353e:  ffff  dw      0xffff
003540:  ffff  dw      0xffff
003542:  ffff  dw      0xffff
003544:  ffff  dw      0xffff
003546:  ffff  dw      0xffff
003548:  ffff  dw      0xffff
00354a:  ffff  dw      0xffff
00354c:  ffff  dw      0xffff
00354e:  ffff  dw      0xffff
003550:  ffff  dw      0xffff
003552:  ffff  dw      0xffff
003554:  ffff  dw      0xffff
003556:  ffff  dw      0xffff
003558:  ffff  dw      0xffff
00355a:  ffff  dw      0xffff
00355c:  ffff  dw      0xffff
00355e:  ffff  dw      0xffff
003560:  ffff  dw      0xffff
003562:  ffff  dw      0xffff
003564:  ffff  dw      0xffff
003566:  ffff  dw      0xffff
003568:  ffff  dw      0xffff
00356a:  ffff  dw      0xffff
00356c:  ffff  dw      0xffff
00356e:  ffff  dw      0xffff
003570:  ffff  dw      0xffff
003572:  ffff  dw      0xffff
003574:  ffff  dw      0xffff
003576:  ffff  dw      0xffff
003578:  ffff  dw      0xffff
00357a:  ffff  dw      0xffff
00357c:  ffff  dw      0xffff
00357e:  ffff  dw      0xffff
003580:  ffff  dw      0xffff
003582:  ffff  dw      0xffff
003584:  ffff  dw      0xffff
003586:  ffff  dw      0xffff
003588:  ffff  dw      0xffff
00358a:  ffff  dw      0xffff
00358c:  ffff  dw      0xffff
00358e:  ffff  dw      0xffff
003590:  ffff  dw      0xffff
003592:  ffff  dw      0xffff
003594:  ffff  dw      0xffff
003596:  ffff  dw      0xffff
003598:  ffff  dw      0xffff
00359a:  ffff  dw      0xffff
00359c:  ffff  dw      0xffff
00359e:  ffff  dw      0xffff
0035a0:  ffff  dw      0xffff
0035a2:  ffff  dw      0xffff
0035a4:  ffff  dw      0xffff
0035a6:  ffff  dw      0xffff
0035a8:  ffff  dw      0xffff
0035aa:  ffff  dw      0xffff
0035ac:  ffff  dw      0xffff
0035ae:  ffff  dw      0xffff
0035b0:  ffff  dw      0xffff
0035b2:  ffff  dw      0xffff
0035b4:  ffff  dw      0xffff
0035b6:  ffff  dw      0xffff
0035b8:  ffff  dw      0xffff
0035ba:  ffff  dw      0xffff
0035bc:  ffff  dw      0xffff
0035be:  ffff  dw      0xffff
0035c0:  ffff  dw      0xffff
0035c2:  ffff  dw      0xffff
0035c4:  ffff  dw      0xffff
0035c6:  ffff  dw      0xffff
0035c8:  ffff  dw      0xffff
0035ca:  ffff  dw      0xffff
0035cc:  ffff  dw      0xffff
0035ce:  ffff  dw      0xffff
0035d0:  ffff  dw      0xffff
0035d2:  ffff  dw      0xffff
0035d4:  ffff  dw      0xffff
0035d6:  ffff  dw      0xffff
0035d8:  ffff  dw      0xffff
0035da:  ffff  dw      0xffff
0035dc:  ffff  dw      0xffff
0035de:  ffff  dw      0xffff
0035e0:  ffff  dw      0xffff
0035e2:  ffff  dw      0xffff
0035e4:  ffff  dw      0xffff
0035e6:  ffff  dw      0xffff
0035e8:  ffff  dw      0xffff
0035ea:  ffff  dw      0xffff
0035ec:  ffff  dw      0xffff
0035ee:  ffff  dw      0xffff
0035f0:  ffff  dw      0xffff
0035f2:  ffff  dw      0xffff
0035f4:  ffff  dw      0xffff
0035f6:  ffff  dw      0xffff
0035f8:  ffff  dw      0xffff
0035fa:  ffff  dw      0xffff
0035fc:  ffff  dw      0xffff
0035fe:  ffff  dw      0xffff
003600:  ffff  dw      0xffff
003602:  ffff  dw      0xffff
003604:  ffff  dw      0xffff
003606:  ffff  dw      0xffff
003608:  ffff  dw      0xffff
00360a:  ffff  dw      0xffff
00360c:  ffff  dw      0xffff
00360e:  ffff  dw      0xffff
003610:  ffff  dw      0xffff
003612:  ffff  dw      0xffff
003614:  ffff  dw      0xffff
003616:  ffff  dw      0xffff
003618:  ffff  dw      0xffff
00361a:  ffff  dw      0xffff
00361c:  ffff  dw      0xffff
00361e:  ffff  dw      0xffff
003620:  ffff  dw      0xffff
003622:  ffff  dw      0xffff
003624:  ffff  dw      0xffff
003626:  ffff  dw      0xffff
003628:  ffff  dw      0xffff
00362a:  ffff  dw      0xffff
00362c:  ffff  dw      0xffff
00362e:  ffff  dw      0xffff
003630:  ffff  dw      0xffff
003632:  ffff  dw      0xffff
003634:  ffff  dw      0xffff
003636:  ffff  dw      0xffff
003638:  ffff  dw      0xffff
00363a:  ffff  dw      0xffff
00363c:  ffff  dw      0xffff
00363e:  ffff  dw      0xffff
003640:  ffff  dw      0xffff
003642:  ffff  dw      0xffff
003644:  ffff  dw      0xffff
003646:  ffff  dw      0xffff
003648:  ffff  dw      0xffff
00364a:  ffff  dw      0xffff
00364c:  ffff  dw      0xffff
00364e:  ffff  dw      0xffff
003650:  ffff  dw      0xffff
003652:  ffff  dw      0xffff
003654:  ffff  dw      0xffff
003656:  ffff  dw      0xffff
003658:  ffff  dw      0xffff
00365a:  ffff  dw      0xffff
00365c:  ffff  dw      0xffff
00365e:  ffff  dw      0xffff
003660:  ffff  dw      0xffff
003662:  ffff  dw      0xffff
003664:  ffff  dw      0xffff
003666:  ffff  dw      0xffff
003668:  ffff  dw      0xffff
00366a:  ffff  dw      0xffff
00366c:  ffff  dw      0xffff
00366e:  ffff  dw      0xffff
003670:  ffff  dw      0xffff
003672:  ffff  dw      0xffff
003674:  ffff  dw      0xffff
003676:  ffff  dw      0xffff
003678:  ffff  dw      0xffff
00367a:  ffff  dw      0xffff
00367c:  ffff  dw      0xffff
00367e:  ffff  dw      0xffff
003680:  ffff  dw      0xffff
003682:  ffff  dw      0xffff
003684:  ffff  dw      0xffff
003686:  ffff  dw      0xffff
003688:  ffff  dw      0xffff
00368a:  ffff  dw      0xffff
00368c:  ffff  dw      0xffff
00368e:  ffff  dw      0xffff
003690:  ffff  dw      0xffff
003692:  ffff  dw      0xffff
003694:  ffff  dw      0xffff
003696:  ffff  dw      0xffff
003698:  ffff  dw      0xffff
00369a:  ffff  dw      0xffff
00369c:  ffff  dw      0xffff
00369e:  ffff  dw      0xffff
0036a0:  ffff  dw      0xffff
0036a2:  ffff  dw      0xffff
0036a4:  ffff  dw      0xffff
0036a6:  ffff  dw      0xffff
0036a8:  ffff  dw      0xffff
0036aa:  ffff  dw      0xffff
0036ac:  ffff  dw      0xffff
0036ae:  ffff  dw      0xffff
0036b0:  ffff  dw      0xffff
0036b2:  ffff  dw      0xffff
0036b4:  ffff  dw      0xffff
0036b6:  ffff  dw      0xffff
0036b8:  ffff  dw      0xffff
0036ba:  ffff  dw      0xffff
0036bc:  ffff  dw      0xffff
0036be:  ffff  dw      0xffff
0036c0:  ffff  dw      0xffff
0036c2:  ffff  dw      0xffff
0036c4:  ffff  dw      0xffff
0036c6:  ffff  dw      0xffff
0036c8:  ffff  dw      0xffff
0036ca:  ffff  dw      0xffff
0036cc:  ffff  dw      0xffff
0036ce:  ffff  dw      0xffff
0036d0:  ffff  dw      0xffff
0036d2:  ffff  dw      0xffff
0036d4:  ffff  dw      0xffff
0036d6:  ffff  dw      0xffff
0036d8:  ffff  dw      0xffff
0036da:  ffff  dw      0xffff
0036dc:  ffff  dw      0xffff
0036de:  ffff  dw      0xffff
0036e0:  ffff  dw      0xffff
0036e2:  ffff  dw      0xffff
0036e4:  ffff  dw      0xffff
0036e6:  ffff  dw      0xffff
0036e8:  ffff  dw      0xffff
0036ea:  ffff  dw      0xffff
0036ec:  ffff  dw      0xffff
0036ee:  ffff  dw      0xffff
0036f0:  ffff  dw      0xffff
0036f2:  ffff  dw      0xffff
0036f4:  ffff  dw      0xffff
0036f6:  ffff  dw      0xffff
0036f8:  ffff  dw      0xffff
0036fa:  ffff  dw      0xffff
0036fc:  ffff  dw      0xffff
0036fe:  ffff  dw      0xffff
003700:  ffff  dw      0xffff
003702:  ffff  dw      0xffff
003704:  ffff  dw      0xffff
003706:  ffff  dw      0xffff
003708:  ffff  dw      0xffff
00370a:  ffff  dw      0xffff
00370c:  ffff  dw      0xffff
00370e:  ffff  dw      0xffff
003710:  ffff  dw      0xffff
003712:  ffff  dw      0xffff
003714:  ffff  dw      0xffff
003716:  ffff  dw      0xffff
003718:  ffff  dw      0xffff
00371a:  ffff  dw      0xffff
00371c:  ffff  dw      0xffff
00371e:  ffff  dw      0xffff
003720:  ffff  dw      0xffff
003722:  ffff  dw      0xffff
003724:  ffff  dw      0xffff
003726:  ffff  dw      0xffff
003728:  ffff  dw      0xffff
00372a:  ffff  dw      0xffff
00372c:  ffff  dw      0xffff
00372e:  ffff  dw      0xffff
003730:  ffff  dw      0xffff
003732:  ffff  dw      0xffff
003734:  ffff  dw      0xffff
003736:  ffff  dw      0xffff
003738:  ffff  dw      0xffff
00373a:  ffff  dw      0xffff
00373c:  ffff  dw      0xffff
00373e:  ffff  dw      0xffff
003740:  ffff  dw      0xffff
003742:  ffff  dw      0xffff
003744:  ffff  dw      0xffff
003746:  ffff  dw      0xffff
003748:  ffff  dw      0xffff
00374a:  ffff  dw      0xffff
00374c:  ffff  dw      0xffff
00374e:  ffff  dw      0xffff
003750:  ffff  dw      0xffff
003752:  ffff  dw      0xffff
003754:  ffff  dw      0xffff
003756:  ffff  dw      0xffff
003758:  ffff  dw      0xffff
00375a:  ffff  dw      0xffff
00375c:  ffff  dw      0xffff
00375e:  ffff  dw      0xffff
003760:  ffff  dw      0xffff
003762:  ffff  dw      0xffff
003764:  ffff  dw      0xffff
003766:  ffff  dw      0xffff
003768:  ffff  dw      0xffff
00376a:  ffff  dw      0xffff
00376c:  ffff  dw      0xffff
00376e:  ffff  dw      0xffff
003770:  ffff  dw      0xffff
003772:  ffff  dw      0xffff
003774:  ffff  dw      0xffff
003776:  ffff  dw      0xffff
003778:  ffff  dw      0xffff
00377a:  ffff  dw      0xffff
00377c:  ffff  dw      0xffff
00377e:  ffff  dw      0xffff
003780:  ffff  dw      0xffff
003782:  ffff  dw      0xffff
003784:  ffff  dw      0xffff
003786:  ffff  dw      0xffff
003788:  ffff  dw      0xffff
00378a:  ffff  dw      0xffff
00378c:  ffff  dw      0xffff
00378e:  ffff  dw      0xffff
003790:  ffff  dw      0xffff
003792:  ffff  dw      0xffff
003794:  ffff  dw      0xffff
003796:  ffff  dw      0xffff
003798:  ffff  dw      0xffff
00379a:  ffff  dw      0xffff
00379c:  ffff  dw      0xffff
00379e:  ffff  dw      0xffff
0037a0:  ffff  dw      0xffff
0037a2:  ffff  dw      0xffff
0037a4:  ffff  dw      0xffff
0037a6:  ffff  dw      0xffff
0037a8:  ffff  dw      0xffff
0037aa:  ffff  dw      0xffff
0037ac:  ffff  dw      0xffff
0037ae:  ffff  dw      0xffff
0037b0:  ffff  dw      0xffff
0037b2:  ffff  dw      0xffff
0037b4:  ffff  dw      0xffff
0037b6:  ffff  dw      0xffff
0037b8:  ffff  dw      0xffff
0037ba:  ffff  dw      0xffff
0037bc:  ffff  dw      0xffff
0037be:  ffff  dw      0xffff
0037c0:  ffff  dw      0xffff
0037c2:  ffff  dw      0xffff
0037c4:  ffff  dw      0xffff
0037c6:  ffff  dw      0xffff
0037c8:  ffff  dw      0xffff
0037ca:  ffff  dw      0xffff
0037cc:  ffff  dw      0xffff
0037ce:  ffff  dw      0xffff
0037d0:  ffff  dw      0xffff
0037d2:  ffff  dw      0xffff
0037d4:  ffff  dw      0xffff
0037d6:  ffff  dw      0xffff
0037d8:  ffff  dw      0xffff
0037da:  ffff  dw      0xffff
0037dc:  ffff  dw      0xffff
0037de:  ffff  dw      0xffff
0037e0:  ffff  dw      0xffff
0037e2:  ffff  dw      0xffff
0037e4:  ffff  dw      0xffff
0037e6:  ffff  dw      0xffff
0037e8:  ffff  dw      0xffff
0037ea:  ffff  dw      0xffff
0037ec:  ffff  dw      0xffff
0037ee:  ffff  dw      0xffff
0037f0:  ffff  dw      0xffff
0037f2:  ffff  dw      0xffff
0037f4:  ffff  dw      0xffff
0037f6:  ffff  dw      0xffff
0037f8:  ffff  dw      0xffff
0037fa:  ffff  dw      0xffff
0037fc:  ffff  dw      0xffff
0037fe:  ffff  dw      0xffff
003800:  ffff  dw      0xffff
003802:  ffff  dw      0xffff
003804:  ffff  dw      0xffff
003806:  ffff  dw      0xffff
003808:  ffff  dw      0xffff
00380a:  ffff  dw      0xffff
00380c:  ffff  dw      0xffff
00380e:  ffff  dw      0xffff
003810:  ffff  dw      0xffff
003812:  ffff  dw      0xffff
003814:  ffff  dw      0xffff
003816:  ffff  dw      0xffff
003818:  ffff  dw      0xffff
00381a:  ffff  dw      0xffff
00381c:  ffff  dw      0xffff
00381e:  ffff  dw      0xffff
003820:  ffff  dw      0xffff
003822:  ffff  dw      0xffff
003824:  ffff  dw      0xffff
003826:  ffff  dw      0xffff
003828:  ffff  dw      0xffff
00382a:  ffff  dw      0xffff
00382c:  ffff  dw      0xffff
00382e:  ffff  dw      0xffff
003830:  ffff  dw      0xffff
003832:  ffff  dw      0xffff
003834:  ffff  dw      0xffff
003836:  ffff  dw      0xffff
003838:  ffff  dw      0xffff
00383a:  ffff  dw      0xffff
00383c:  ffff  dw      0xffff
00383e:  ffff  dw      0xffff
003840:  ffff  dw      0xffff
003842:  ffff  dw      0xffff
003844:  ffff  dw      0xffff
003846:  ffff  dw      0xffff
003848:  ffff  dw      0xffff
00384a:  ffff  dw      0xffff
00384c:  ffff  dw      0xffff
00384e:  ffff  dw      0xffff
003850:  ffff  dw      0xffff
003852:  ffff  dw      0xffff
003854:  ffff  dw      0xffff
003856:  ffff  dw      0xffff
003858:  ffff  dw      0xffff
00385a:  ffff  dw      0xffff
00385c:  ffff  dw      0xffff
00385e:  ffff  dw      0xffff
003860:  ffff  dw      0xffff
003862:  ffff  dw      0xffff
003864:  ffff  dw      0xffff
003866:  ffff  dw      0xffff
003868:  ffff  dw      0xffff
00386a:  ffff  dw      0xffff
00386c:  ffff  dw      0xffff
00386e:  ffff  dw      0xffff
003870:  ffff  dw      0xffff
003872:  ffff  dw      0xffff
003874:  ffff  dw      0xffff
003876:  ffff  dw      0xffff
003878:  ffff  dw      0xffff
00387a:  ffff  dw      0xffff
00387c:  ffff  dw      0xffff
00387e:  ffff  dw      0xffff
003880:  ffff  dw      0xffff
003882:  ffff  dw      0xffff
003884:  ffff  dw      0xffff
003886:  ffff  dw      0xffff
003888:  ffff  dw      0xffff
00388a:  ffff  dw      0xffff
00388c:  ffff  dw      0xffff
00388e:  ffff  dw      0xffff
003890:  ffff  dw      0xffff
003892:  ffff  dw      0xffff
003894:  ffff  dw      0xffff
003896:  ffff  dw      0xffff
003898:  ffff  dw      0xffff
00389a:  ffff  dw      0xffff
00389c:  ffff  dw      0xffff
00389e:  ffff  dw      0xffff
0038a0:  ffff  dw      0xffff
0038a2:  ffff  dw      0xffff
0038a4:  ffff  dw      0xffff
0038a6:  ffff  dw      0xffff
0038a8:  ffff  dw      0xffff
0038aa:  ffff  dw      0xffff
0038ac:  ffff  dw      0xffff
0038ae:  ffff  dw      0xffff
0038b0:  ffff  dw      0xffff
0038b2:  ffff  dw      0xffff
0038b4:  ffff  dw      0xffff
0038b6:  ffff  dw      0xffff
0038b8:  ffff  dw      0xffff
0038ba:  ffff  dw      0xffff
0038bc:  ffff  dw      0xffff
0038be:  ffff  dw      0xffff
0038c0:  ffff  dw      0xffff
0038c2:  ffff  dw      0xffff
0038c4:  ffff  dw      0xffff
0038c6:  ffff  dw      0xffff
0038c8:  ffff  dw      0xffff
0038ca:  ffff  dw      0xffff
0038cc:  ffff  dw      0xffff
0038ce:  ffff  dw      0xffff
0038d0:  ffff  dw      0xffff
0038d2:  ffff  dw      0xffff
0038d4:  ffff  dw      0xffff
0038d6:  ffff  dw      0xffff
0038d8:  ffff  dw      0xffff
0038da:  ffff  dw      0xffff
0038dc:  ffff  dw      0xffff
0038de:  ffff  dw      0xffff
0038e0:  ffff  dw      0xffff
0038e2:  ffff  dw      0xffff
0038e4:  ffff  dw      0xffff
0038e6:  ffff  dw      0xffff
0038e8:  ffff  dw      0xffff
0038ea:  ffff  dw      0xffff
0038ec:  ffff  dw      0xffff
0038ee:  ffff  dw      0xffff
0038f0:  ffff  dw      0xffff
0038f2:  ffff  dw      0xffff
0038f4:  ffff  dw      0xffff
0038f6:  ffff  dw      0xffff
0038f8:  ffff  dw      0xffff
0038fa:  ffff  dw      0xffff
0038fc:  ffff  dw      0xffff
0038fe:  ffff  dw      0xffff
003900:  ffff  dw      0xffff
003902:  ffff  dw      0xffff
003904:  ffff  dw      0xffff
003906:  ffff  dw      0xffff
003908:  ffff  dw      0xffff
00390a:  ffff  dw      0xffff
00390c:  ffff  dw      0xffff
00390e:  ffff  dw      0xffff
003910:  ffff  dw      0xffff
003912:  ffff  dw      0xffff
003914:  ffff  dw      0xffff
003916:  ffff  dw      0xffff
003918:  ffff  dw      0xffff
00391a:  ffff  dw      0xffff
00391c:  ffff  dw      0xffff
00391e:  ffff  dw      0xffff
003920:  ffff  dw      0xffff
003922:  ffff  dw      0xffff
003924:  ffff  dw      0xffff
003926:  ffff  dw      0xffff
003928:  ffff  dw      0xffff
00392a:  ffff  dw      0xffff
00392c:  ffff  dw      0xffff
00392e:  ffff  dw      0xffff
003930:  ffff  dw      0xffff
003932:  ffff  dw      0xffff
003934:  ffff  dw      0xffff
003936:  ffff  dw      0xffff
003938:  ffff  dw      0xffff
00393a:  ffff  dw      0xffff
00393c:  ffff  dw      0xffff
00393e:  ffff  dw      0xffff
003940:  ffff  dw      0xffff
003942:  ffff  dw      0xffff
003944:  ffff  dw      0xffff
003946:  ffff  dw      0xffff
003948:  ffff  dw      0xffff
00394a:  ffff  dw      0xffff
00394c:  ffff  dw      0xffff
00394e:  ffff  dw      0xffff
003950:  ffff  dw      0xffff
003952:  ffff  dw      0xffff
003954:  ffff  dw      0xffff
003956:  ffff  dw      0xffff
003958:  ffff  dw      0xffff
00395a:  ffff  dw      0xffff
00395c:  ffff  dw      0xffff
00395e:  ffff  dw      0xffff
003960:  ffff  dw      0xffff
003962:  ffff  dw      0xffff
003964:  ffff  dw      0xffff
003966:  ffff  dw      0xffff
003968:  ffff  dw      0xffff
00396a:  ffff  dw      0xffff
00396c:  ffff  dw      0xffff
00396e:  ffff  dw      0xffff
003970:  ffff  dw      0xffff
003972:  ffff  dw      0xffff
003974:  ffff  dw      0xffff
003976:  ffff  dw      0xffff
003978:  ffff  dw      0xffff
00397a:  ffff  dw      0xffff
00397c:  ffff  dw      0xffff
00397e:  ffff  dw      0xffff
003980:  ffff  dw      0xffff
003982:  ffff  dw      0xffff
003984:  ffff  dw      0xffff
003986:  ffff  dw      0xffff
003988:  ffff  dw      0xffff
00398a:  ffff  dw      0xffff
00398c:  ffff  dw      0xffff
00398e:  ffff  dw      0xffff
003990:  ffff  dw      0xffff
003992:  ffff  dw      0xffff
003994:  ffff  dw      0xffff
003996:  ffff  dw      0xffff
003998:  ffff  dw      0xffff
00399a:  ffff  dw      0xffff
00399c:  ffff  dw      0xffff
00399e:  ffff  dw      0xffff
0039a0:  ffff  dw      0xffff
0039a2:  ffff  dw      0xffff
0039a4:  ffff  dw      0xffff
0039a6:  ffff  dw      0xffff
0039a8:  ffff  dw      0xffff
0039aa:  ffff  dw      0xffff
0039ac:  ffff  dw      0xffff
0039ae:  ffff  dw      0xffff
0039b0:  ffff  dw      0xffff
0039b2:  ffff  dw      0xffff
0039b4:  ffff  dw      0xffff
0039b6:  ffff  dw      0xffff
0039b8:  ffff  dw      0xffff
0039ba:  ffff  dw      0xffff
0039bc:  ffff  dw      0xffff
0039be:  ffff  dw      0xffff
0039c0:  ffff  dw      0xffff
0039c2:  ffff  dw      0xffff
0039c4:  ffff  dw      0xffff
0039c6:  ffff  dw      0xffff
0039c8:  ffff  dw      0xffff
0039ca:  ffff  dw      0xffff
0039cc:  ffff  dw      0xffff
0039ce:  ffff  dw      0xffff
0039d0:  ffff  dw      0xffff
0039d2:  ffff  dw      0xffff
0039d4:  ffff  dw      0xffff
0039d6:  ffff  dw      0xffff
0039d8:  ffff  dw      0xffff
0039da:  ffff  dw      0xffff
0039dc:  ffff  dw      0xffff
0039de:  ffff  dw      0xffff
0039e0:  ffff  dw      0xffff
0039e2:  ffff  dw      0xffff
0039e4:  ffff  dw      0xffff
0039e6:  ffff  dw      0xffff
0039e8:  ffff  dw      0xffff
0039ea:  ffff  dw      0xffff
0039ec:  ffff  dw      0xffff
0039ee:  ffff  dw      0xffff
0039f0:  ffff  dw      0xffff
0039f2:  ffff  dw      0xffff
0039f4:  ffff  dw      0xffff
0039f6:  ffff  dw      0xffff
0039f8:  ffff  dw      0xffff
0039fa:  ffff  dw      0xffff
0039fc:  ffff  dw      0xffff
0039fe:  ffff  dw      0xffff
003a00:  ffff  dw      0xffff
003a02:  ffff  dw      0xffff
003a04:  ffff  dw      0xffff
003a06:  ffff  dw      0xffff
003a08:  ffff  dw      0xffff
003a0a:  ffff  dw      0xffff
003a0c:  ffff  dw      0xffff
003a0e:  ffff  dw      0xffff
003a10:  ffff  dw      0xffff
003a12:  ffff  dw      0xffff
003a14:  ffff  dw      0xffff
003a16:  ffff  dw      0xffff
003a18:  ffff  dw      0xffff
003a1a:  ffff  dw      0xffff
003a1c:  ffff  dw      0xffff
003a1e:  ffff  dw      0xffff
003a20:  ffff  dw      0xffff
003a22:  ffff  dw      0xffff
003a24:  ffff  dw      0xffff
003a26:  ffff  dw      0xffff
003a28:  ffff  dw      0xffff
003a2a:  ffff  dw      0xffff
003a2c:  ffff  dw      0xffff
003a2e:  ffff  dw      0xffff
003a30:  ffff  dw      0xffff
003a32:  ffff  dw      0xffff
003a34:  ffff  dw      0xffff
003a36:  ffff  dw      0xffff
003a38:  ffff  dw      0xffff
003a3a:  ffff  dw      0xffff
003a3c:  ffff  dw      0xffff
003a3e:  ffff  dw      0xffff
003a40:  ffff  dw      0xffff
003a42:  ffff  dw      0xffff
003a44:  ffff  dw      0xffff
003a46:  ffff  dw      0xffff
003a48:  ffff  dw      0xffff
003a4a:  ffff  dw      0xffff
003a4c:  ffff  dw      0xffff
003a4e:  ffff  dw      0xffff
003a50:  ffff  dw      0xffff
003a52:  ffff  dw      0xffff
003a54:  ffff  dw      0xffff
003a56:  ffff  dw      0xffff
003a58:  ffff  dw      0xffff
003a5a:  ffff  dw      0xffff
003a5c:  ffff  dw      0xffff
003a5e:  ffff  dw      0xffff
003a60:  ffff  dw      0xffff
003a62:  ffff  dw      0xffff
003a64:  ffff  dw      0xffff
003a66:  ffff  dw      0xffff
003a68:  ffff  dw      0xffff
003a6a:  ffff  dw      0xffff
003a6c:  ffff  dw      0xffff
003a6e:  ffff  dw      0xffff
003a70:  ffff  dw      0xffff
003a72:  ffff  dw      0xffff
003a74:  ffff  dw      0xffff
003a76:  ffff  dw      0xffff
003a78:  ffff  dw      0xffff
003a7a:  ffff  dw      0xffff
003a7c:  ffff  dw      0xffff
003a7e:  ffff  dw      0xffff
003a80:  ffff  dw      0xffff
003a82:  ffff  dw      0xffff
003a84:  ffff  dw      0xffff
003a86:  ffff  dw      0xffff
003a88:  ffff  dw      0xffff
003a8a:  ffff  dw      0xffff
003a8c:  ffff  dw      0xffff
003a8e:  ffff  dw      0xffff
003a90:  ffff  dw      0xffff
003a92:  ffff  dw      0xffff
003a94:  ffff  dw      0xffff
003a96:  ffff  dw      0xffff
003a98:  ffff  dw      0xffff
003a9a:  ffff  dw      0xffff
003a9c:  ffff  dw      0xffff
003a9e:  ffff  dw      0xffff
003aa0:  ffff  dw      0xffff
003aa2:  ffff  dw      0xffff
003aa4:  ffff  dw      0xffff
003aa6:  ffff  dw      0xffff
003aa8:  ffff  dw      0xffff
003aaa:  ffff  dw      0xffff
003aac:  ffff  dw      0xffff
003aae:  ffff  dw      0xffff
003ab0:  ffff  dw      0xffff
003ab2:  ffff  dw      0xffff
003ab4:  ffff  dw      0xffff
003ab6:  ffff  dw      0xffff
003ab8:  ffff  dw      0xffff
003aba:  ffff  dw      0xffff
003abc:  ffff  dw      0xffff
003abe:  ffff  dw      0xffff
003ac0:  ffff  dw      0xffff
003ac2:  ffff  dw      0xffff
003ac4:  ffff  dw      0xffff
003ac6:  ffff  dw      0xffff
003ac8:  ffff  dw      0xffff
003aca:  ffff  dw      0xffff
003acc:  ffff  dw      0xffff
003ace:  ffff  dw      0xffff
003ad0:  ffff  dw      0xffff
003ad2:  ffff  dw      0xffff
003ad4:  ffff  dw      0xffff
003ad6:  ffff  dw      0xffff
003ad8:  ffff  dw      0xffff
003ada:  ffff  dw      0xffff
003adc:  ffff  dw      0xffff
003ade:  ffff  dw      0xffff
003ae0:  ffff  dw      0xffff
003ae2:  ffff  dw      0xffff
003ae4:  ffff  dw      0xffff
003ae6:  ffff  dw      0xffff
003ae8:  ffff  dw      0xffff
003aea:  ffff  dw      0xffff
003aec:  ffff  dw      0xffff
003aee:  ffff  dw      0xffff
003af0:  ffff  dw      0xffff
003af2:  ffff  dw      0xffff
003af4:  ffff  dw      0xffff
003af6:  ffff  dw      0xffff
003af8:  ffff  dw      0xffff
003afa:  ffff  dw      0xffff
003afc:  ffff  dw      0xffff
003afe:  ffff  dw      0xffff
003b00:  ffff  dw      0xffff
003b02:  ffff  dw      0xffff
003b04:  ffff  dw      0xffff
003b06:  ffff  dw      0xffff
003b08:  ffff  dw      0xffff
003b0a:  ffff  dw      0xffff
003b0c:  ffff  dw      0xffff
003b0e:  ffff  dw      0xffff
003b10:  ffff  dw      0xffff
003b12:  ffff  dw      0xffff
003b14:  ffff  dw      0xffff
003b16:  ffff  dw      0xffff
003b18:  ffff  dw      0xffff
003b1a:  ffff  dw      0xffff
003b1c:  ffff  dw      0xffff
003b1e:  ffff  dw      0xffff
003b20:  ffff  dw      0xffff
003b22:  ffff  dw      0xffff
003b24:  ffff  dw      0xffff
003b26:  ffff  dw      0xffff
003b28:  ffff  dw      0xffff
003b2a:  ffff  dw      0xffff
003b2c:  ffff  dw      0xffff
003b2e:  ffff  dw      0xffff
003b30:  ffff  dw      0xffff
003b32:  ffff  dw      0xffff
003b34:  ffff  dw      0xffff
003b36:  ffff  dw      0xffff
003b38:  ffff  dw      0xffff
003b3a:  ffff  dw      0xffff
003b3c:  ffff  dw      0xffff
003b3e:  ffff  dw      0xffff
003b40:  ffff  dw      0xffff
003b42:  ffff  dw      0xffff
003b44:  ffff  dw      0xffff
003b46:  ffff  dw      0xffff
003b48:  ffff  dw      0xffff
003b4a:  ffff  dw      0xffff
003b4c:  ffff  dw      0xffff
003b4e:  ffff  dw      0xffff
003b50:  ffff  dw      0xffff
003b52:  ffff  dw      0xffff
003b54:  ffff  dw      0xffff
003b56:  ffff  dw      0xffff
003b58:  ffff  dw      0xffff
003b5a:  ffff  dw      0xffff
003b5c:  ffff  dw      0xffff
003b5e:  ffff  dw      0xffff
003b60:  ffff  dw      0xffff
003b62:  ffff  dw      0xffff
003b64:  ffff  dw      0xffff
003b66:  ffff  dw      0xffff
003b68:  ffff  dw      0xffff
003b6a:  ffff  dw      0xffff
003b6c:  ffff  dw      0xffff
003b6e:  ffff  dw      0xffff
003b70:  ffff  dw      0xffff
003b72:  ffff  dw      0xffff
003b74:  ffff  dw      0xffff
003b76:  ffff  dw      0xffff
003b78:  ffff  dw      0xffff
003b7a:  ffff  dw      0xffff
003b7c:  ffff  dw      0xffff
003b7e:  ffff  dw      0xffff
003b80:  ffff  dw      0xffff
003b82:  ffff  dw      0xffff
003b84:  ffff  dw      0xffff
003b86:  ffff  dw      0xffff
003b88:  ffff  dw      0xffff
003b8a:  ffff  dw      0xffff
003b8c:  ffff  dw      0xffff
003b8e:  ffff  dw      0xffff
003b90:  ffff  dw      0xffff
003b92:  ffff  dw      0xffff
003b94:  ffff  dw      0xffff
003b96:  ffff  dw      0xffff
003b98:  ffff  dw      0xffff
003b9a:  ffff  dw      0xffff
003b9c:  ffff  dw      0xffff
003b9e:  ffff  dw      0xffff
003ba0:  ffff  dw      0xffff
003ba2:  ffff  dw      0xffff
003ba4:  ffff  dw      0xffff
003ba6:  ffff  dw      0xffff
003ba8:  ffff  dw      0xffff
003baa:  ffff  dw      0xffff
003bac:  ffff  dw      0xffff
003bae:  ffff  dw      0xffff
003bb0:  ffff  dw      0xffff
003bb2:  ffff  dw      0xffff
003bb4:  ffff  dw      0xffff
003bb6:  ffff  dw      0xffff
003bb8:  ffff  dw      0xffff
003bba:  ffff  dw      0xffff
003bbc:  ffff  dw      0xffff
003bbe:  ffff  dw      0xffff
003bc0:  ffff  dw      0xffff
003bc2:  ffff  dw      0xffff
003bc4:  ffff  dw      0xffff
003bc6:  ffff  dw      0xffff
003bc8:  ffff  dw      0xffff
003bca:  ffff  dw      0xffff
003bcc:  ffff  dw      0xffff
003bce:  ffff  dw      0xffff
003bd0:  ffff  dw      0xffff
003bd2:  ffff  dw      0xffff
003bd4:  ffff  dw      0xffff
003bd6:  ffff  dw      0xffff
003bd8:  ffff  dw      0xffff
003bda:  ffff  dw      0xffff
003bdc:  ffff  dw      0xffff
003bde:  ffff  dw      0xffff
003be0:  ffff  dw      0xffff
003be2:  ffff  dw      0xffff
003be4:  ffff  dw      0xffff
003be6:  ffff  dw      0xffff
003be8:  ffff  dw      0xffff
003bea:  ffff  dw      0xffff
003bec:  ffff  dw      0xffff
003bee:  ffff  dw      0xffff
003bf0:  ffff  dw      0xffff
003bf2:  ffff  dw      0xffff
003bf4:  ffff  dw      0xffff
003bf6:  ffff  dw      0xffff
003bf8:  ffff  dw      0xffff
003bfa:  ffff  dw      0xffff
003bfc:  ffff  dw      0xffff
003bfe:  ffff  dw      0xffff
003c00:  ffff  dw      0xffff
003c02:  ffff  dw      0xffff
003c04:  ffff  dw      0xffff
003c06:  ffff  dw      0xffff
003c08:  ffff  dw      0xffff
003c0a:  ffff  dw      0xffff
003c0c:  ffff  dw      0xffff
003c0e:  ffff  dw      0xffff
003c10:  ffff  dw      0xffff
003c12:  ffff  dw      0xffff
003c14:  ffff  dw      0xffff
003c16:  ffff  dw      0xffff
003c18:  ffff  dw      0xffff
003c1a:  ffff  dw      0xffff
003c1c:  ffff  dw      0xffff
003c1e:  ffff  dw      0xffff
003c20:  ffff  dw      0xffff
003c22:  ffff  dw      0xffff
003c24:  ffff  dw      0xffff
003c26:  ffff  dw      0xffff
003c28:  ffff  dw      0xffff
003c2a:  ffff  dw      0xffff
003c2c:  ffff  dw      0xffff
003c2e:  ffff  dw      0xffff
003c30:  ffff  dw      0xffff
003c32:  ffff  dw      0xffff
003c34:  ffff  dw      0xffff
003c36:  ffff  dw      0xffff
003c38:  ffff  dw      0xffff
003c3a:  ffff  dw      0xffff
003c3c:  ffff  dw      0xffff
003c3e:  ffff  dw      0xffff
003c40:  ffff  dw      0xffff
003c42:  ffff  dw      0xffff
003c44:  ffff  dw      0xffff
003c46:  ffff  dw      0xffff
003c48:  ffff  dw      0xffff
003c4a:  ffff  dw      0xffff
003c4c:  ffff  dw      0xffff
003c4e:  ffff  dw      0xffff
003c50:  ffff  dw      0xffff
003c52:  ffff  dw      0xffff
003c54:  ffff  dw      0xffff
003c56:  ffff  dw      0xffff
003c58:  ffff  dw      0xffff
003c5a:  ffff  dw      0xffff
003c5c:  ffff  dw      0xffff
003c5e:  ffff  dw      0xffff
003c60:  ffff  dw      0xffff
003c62:  ffff  dw      0xffff
003c64:  ffff  dw      0xffff
003c66:  ffff  dw      0xffff
003c68:  ffff  dw      0xffff
003c6a:  ffff  dw      0xffff
003c6c:  ffff  dw      0xffff
003c6e:  ffff  dw      0xffff
003c70:  ffff  dw      0xffff
003c72:  ffff  dw      0xffff
003c74:  ffff  dw      0xffff
003c76:  ffff  dw      0xffff
003c78:  ffff  dw      0xffff
003c7a:  ffff  dw      0xffff
003c7c:  ffff  dw      0xffff
003c7e:  ffff  dw      0xffff
003c80:  ffff  dw      0xffff
003c82:  ffff  dw      0xffff
003c84:  ffff  dw      0xffff
003c86:  ffff  dw      0xffff
003c88:  ffff  dw      0xffff
003c8a:  ffff  dw      0xffff
003c8c:  ffff  dw      0xffff
003c8e:  ffff  dw      0xffff
003c90:  ffff  dw      0xffff
003c92:  ffff  dw      0xffff
003c94:  ffff  dw      0xffff
003c96:  ffff  dw      0xffff
003c98:  ffff  dw      0xffff
003c9a:  ffff  dw      0xffff
003c9c:  ffff  dw      0xffff
003c9e:  ffff  dw      0xffff
003ca0:  ffff  dw      0xffff
003ca2:  ffff  dw      0xffff
003ca4:  ffff  dw      0xffff
003ca6:  ffff  dw      0xffff
003ca8:  ffff  dw      0xffff
003caa:  ffff  dw      0xffff
003cac:  ffff  dw      0xffff
003cae:  ffff  dw      0xffff
003cb0:  ffff  dw      0xffff
003cb2:  ffff  dw      0xffff
003cb4:  ffff  dw      0xffff
003cb6:  ffff  dw      0xffff
003cb8:  ffff  dw      0xffff
003cba:  ffff  dw      0xffff
003cbc:  ffff  dw      0xffff
003cbe:  ffff  dw      0xffff
003cc0:  ffff  dw      0xffff
003cc2:  ffff  dw      0xffff
003cc4:  ffff  dw      0xffff
003cc6:  ffff  dw      0xffff
003cc8:  ffff  dw      0xffff
003cca:  ffff  dw      0xffff
003ccc:  ffff  dw      0xffff
003cce:  ffff  dw      0xffff
003cd0:  ffff  dw      0xffff
003cd2:  ffff  dw      0xffff
003cd4:  ffff  dw      0xffff
003cd6:  ffff  dw      0xffff
003cd8:  ffff  dw      0xffff
003cda:  ffff  dw      0xffff
003cdc:  ffff  dw      0xffff
003cde:  ffff  dw      0xffff
003ce0:  ffff  dw      0xffff
003ce2:  ffff  dw      0xffff
003ce4:  ffff  dw      0xffff
003ce6:  ffff  dw      0xffff
003ce8:  ffff  dw      0xffff
003cea:  ffff  dw      0xffff
003cec:  ffff  dw      0xffff
003cee:  ffff  dw      0xffff
003cf0:  ffff  dw      0xffff
003cf2:  ffff  dw      0xffff
003cf4:  ffff  dw      0xffff
003cf6:  ffff  dw      0xffff
003cf8:  ffff  dw      0xffff
003cfa:  ffff  dw      0xffff
003cfc:  ffff  dw      0xffff
003cfe:  ffff  dw      0xffff
003d00:  ffff  dw      0xffff
003d02:  ffff  dw      0xffff
003d04:  ffff  dw      0xffff
003d06:  ffff  dw      0xffff
003d08:  ffff  dw      0xffff
003d0a:  ffff  dw      0xffff
003d0c:  ffff  dw      0xffff
003d0e:  ffff  dw      0xffff
003d10:  ffff  dw      0xffff
003d12:  ffff  dw      0xffff
003d14:  ffff  dw      0xffff
003d16:  ffff  dw      0xffff
003d18:  ffff  dw      0xffff
003d1a:  ffff  dw      0xffff
003d1c:  ffff  dw      0xffff
003d1e:  ffff  dw      0xffff
003d20:  ffff  dw      0xffff
003d22:  ffff  dw      0xffff
003d24:  ffff  dw      0xffff
003d26:  ffff  dw      0xffff
003d28:  ffff  dw      0xffff
003d2a:  ffff  dw      0xffff
003d2c:  ffff  dw      0xffff
003d2e:  ffff  dw      0xffff
003d30:  ffff  dw      0xffff
003d32:  ffff  dw      0xffff
003d34:  ffff  dw      0xffff
003d36:  ffff  dw      0xffff
003d38:  ffff  dw      0xffff
003d3a:  ffff  dw      0xffff
003d3c:  ffff  dw      0xffff
003d3e:  ffff  dw      0xffff
003d40:  ffff  dw      0xffff
003d42:  ffff  dw      0xffff
003d44:  ffff  dw      0xffff
003d46:  ffff  dw      0xffff
003d48:  ffff  dw      0xffff
003d4a:  ffff  dw      0xffff
003d4c:  ffff  dw      0xffff
003d4e:  ffff  dw      0xffff
003d50:  ffff  dw      0xffff
003d52:  ffff  dw      0xffff
003d54:  ffff  dw      0xffff
003d56:  ffff  dw      0xffff
003d58:  ffff  dw      0xffff
003d5a:  ffff  dw      0xffff
003d5c:  ffff  dw      0xffff
003d5e:  ffff  dw      0xffff
003d60:  ffff  dw      0xffff
003d62:  ffff  dw      0xffff
003d64:  ffff  dw      0xffff
003d66:  ffff  dw      0xffff
003d68:  ffff  dw      0xffff
003d6a:  ffff  dw      0xffff
003d6c:  ffff  dw      0xffff
003d6e:  ffff  dw      0xffff
003d70:  ffff  dw      0xffff
003d72:  ffff  dw      0xffff
003d74:  ffff  dw      0xffff
003d76:  ffff  dw      0xffff
003d78:  ffff  dw      0xffff
003d7a:  ffff  dw      0xffff
003d7c:  ffff  dw      0xffff
003d7e:  ffff  dw      0xffff
003d80:  ffff  dw      0xffff
003d82:  ffff  dw      0xffff
003d84:  ffff  dw      0xffff
003d86:  ffff  dw      0xffff
003d88:  ffff  dw      0xffff
003d8a:  ffff  dw      0xffff
003d8c:  ffff  dw      0xffff
003d8e:  ffff  dw      0xffff
003d90:  ffff  dw      0xffff
003d92:  ffff  dw      0xffff
003d94:  ffff  dw      0xffff
003d96:  ffff  dw      0xffff
003d98:  ffff  dw      0xffff
003d9a:  ffff  dw      0xffff
003d9c:  ffff  dw      0xffff
003d9e:  ffff  dw      0xffff
003da0:  ffff  dw      0xffff
003da2:  ffff  dw      0xffff
003da4:  ffff  dw      0xffff
003da6:  ffff  dw      0xffff
003da8:  ffff  dw      0xffff
003daa:  ffff  dw      0xffff
003dac:  ffff  dw      0xffff
003dae:  ffff  dw      0xffff
003db0:  ffff  dw      0xffff
003db2:  ffff  dw      0xffff
003db4:  ffff  dw      0xffff
003db6:  ffff  dw      0xffff
003db8:  ffff  dw      0xffff
003dba:  ffff  dw      0xffff
003dbc:  ffff  dw      0xffff
003dbe:  ffff  dw      0xffff
003dc0:  ffff  dw      0xffff
003dc2:  ffff  dw      0xffff
003dc4:  ffff  dw      0xffff
003dc6:  ffff  dw      0xffff
003dc8:  ffff  dw      0xffff
003dca:  ffff  dw      0xffff
003dcc:  ffff  dw      0xffff
003dce:  ffff  dw      0xffff
003dd0:  ffff  dw      0xffff
003dd2:  ffff  dw      0xffff
003dd4:  ffff  dw      0xffff
003dd6:  ffff  dw      0xffff
003dd8:  ffff  dw      0xffff
003dda:  ffff  dw      0xffff
003ddc:  ffff  dw      0xffff
003dde:  ffff  dw      0xffff
003de0:  ffff  dw      0xffff
003de2:  ffff  dw      0xffff
003de4:  ffff  dw      0xffff
003de6:  ffff  dw      0xffff
003de8:  ffff  dw      0xffff
003dea:  ffff  dw      0xffff
003dec:  ffff  dw      0xffff
003dee:  ffff  dw      0xffff
003df0:  ffff  dw      0xffff
003df2:  ffff  dw      0xffff
003df4:  ffff  dw      0xffff
003df6:  ffff  dw      0xffff
003df8:  ffff  dw      0xffff
003dfa:  ffff  dw      0xffff
003dfc:  ffff  dw      0xffff
003dfe:  ffff  dw      0xffff
003e00:  ffff  dw      0xffff
003e02:  ffff  dw      0xffff
003e04:  ffff  dw      0xffff
003e06:  ffff  dw      0xffff
003e08:  ffff  dw      0xffff
003e0a:  ffff  dw      0xffff
003e0c:  ffff  dw      0xffff
003e0e:  ffff  dw      0xffff
003e10:  ffff  dw      0xffff
003e12:  ffff  dw      0xffff
003e14:  ffff  dw      0xffff
003e16:  ffff  dw      0xffff
003e18:  ffff  dw      0xffff
003e1a:  ffff  dw      0xffff
003e1c:  ffff  dw      0xffff
003e1e:  ffff  dw      0xffff
003e20:  ffff  dw      0xffff
003e22:  ffff  dw      0xffff
003e24:  ffff  dw      0xffff
003e26:  ffff  dw      0xffff
003e28:  ffff  dw      0xffff
003e2a:  ffff  dw      0xffff
003e2c:  ffff  dw      0xffff
003e2e:  ffff  dw      0xffff
003e30:  ffff  dw      0xffff
003e32:  ffff  dw      0xffff
003e34:  ffff  dw      0xffff
003e36:  ffff  dw      0xffff
003e38:  ffff  dw      0xffff
003e3a:  ffff  dw      0xffff
003e3c:  ffff  dw      0xffff
003e3e:  ffff  dw      0xffff
003e40:  ffff  dw      0xffff
003e42:  ffff  dw      0xffff
003e44:  ffff  dw      0xffff
003e46:  ffff  dw      0xffff
003e48:  ffff  dw      0xffff
003e4a:  ffff  dw      0xffff
003e4c:  ffff  dw      0xffff
003e4e:  ffff  dw      0xffff
003e50:  ffff  dw      0xffff
003e52:  ffff  dw      0xffff
003e54:  ffff  dw      0xffff
003e56:  ffff  dw      0xffff
003e58:  ffff  dw      0xffff
003e5a:  ffff  dw      0xffff
003e5c:  ffff  dw      0xffff
003e5e:  ffff  dw      0xffff
003e60:  ffff  dw      0xffff
003e62:  ffff  dw      0xffff
003e64:  ffff  dw      0xffff
003e66:  ffff  dw      0xffff
003e68:  ffff  dw      0xffff
003e6a:  ffff  dw      0xffff
003e6c:  ffff  dw      0xffff
003e6e:  ffff  dw      0xffff
003e70:  ffff  dw      0xffff
003e72:  ffff  dw      0xffff
003e74:  ffff  dw      0xffff
003e76:  ffff  dw      0xffff
003e78:  ffff  dw      0xffff
003e7a:  ffff  dw      0xffff
003e7c:  ffff  dw      0xffff
003e7e:  ffff  dw      0xffff
003e80:  ffff  dw      0xffff
003e82:  ffff  dw      0xffff
003e84:  ffff  dw      0xffff
003e86:  ffff  dw      0xffff
003e88:  ffff  dw      0xffff
003e8a:  ffff  dw      0xffff
003e8c:  ffff  dw      0xffff
003e8e:  ffff  dw      0xffff
003e90:  ffff  dw      0xffff
003e92:  ffff  dw      0xffff
003e94:  ffff  dw      0xffff
003e96:  ffff  dw      0xffff
003e98:  ffff  dw      0xffff
003e9a:  ffff  dw      0xffff
003e9c:  ffff  dw      0xffff
003e9e:  ffff  dw      0xffff
003ea0:  ffff  dw      0xffff
003ea2:  ffff  dw      0xffff
003ea4:  ffff  dw      0xffff
003ea6:  ffff  dw      0xffff
003ea8:  ffff  dw      0xffff
003eaa:  ffff  dw      0xffff
003eac:  ffff  dw      0xffff
003eae:  ffff  dw      0xffff
003eb0:  ffff  dw      0xffff
003eb2:  ffff  dw      0xffff
003eb4:  ffff  dw      0xffff
003eb6:  ffff  dw      0xffff
003eb8:  ffff  dw      0xffff
003eba:  ffff  dw      0xffff
003ebc:  ffff  dw      0xffff
003ebe:  ffff  dw      0xffff
003ec0:  ffff  dw      0xffff
003ec2:  ffff  dw      0xffff
003ec4:  ffff  dw      0xffff
003ec6:  ffff  dw      0xffff
003ec8:  ffff  dw      0xffff
003eca:  ffff  dw      0xffff
003ecc:  ffff  dw      0xffff
003ece:  ffff  dw      0xffff
003ed0:  ffff  dw      0xffff
003ed2:  ffff  dw      0xffff
003ed4:  ffff  dw      0xffff
003ed6:  ffff  dw      0xffff
003ed8:  ffff  dw      0xffff
003eda:  ffff  dw      0xffff
003edc:  ffff  dw      0xffff
003ede:  ffff  dw      0xffff
003ee0:  ffff  dw      0xffff
003ee2:  ffff  dw      0xffff
003ee4:  ffff  dw      0xffff
003ee6:  ffff  dw      0xffff
003ee8:  ffff  dw      0xffff
003eea:  ffff  dw      0xffff
003eec:  ffff  dw      0xffff
003eee:  ffff  dw      0xffff
003ef0:  ffff  dw      0xffff
003ef2:  ffff  dw      0xffff
003ef4:  ffff  dw      0xffff
003ef6:  ffff  dw      0xffff
003ef8:  ffff  dw      0xffff
003efa:  ffff  dw      0xffff
003efc:  ffff  dw      0xffff
003efe:  ffff  dw      0xffff
003f00:  ffff  dw      0xffff
003f02:  ffff  dw      0xffff
003f04:  ffff  dw      0xffff
003f06:  ffff  dw      0xffff
003f08:  ffff  dw      0xffff
003f0a:  ffff  dw      0xffff
003f0c:  ffff  dw      0xffff
003f0e:  ffff  dw      0xffff
003f10:  ffff  dw      0xffff
003f12:  ffff  dw      0xffff
003f14:  ffff  dw      0xffff
003f16:  ffff  dw      0xffff
003f18:  ffff  dw      0xffff
003f1a:  ffff  dw      0xffff
003f1c:  ffff  dw      0xffff
003f1e:  ffff  dw      0xffff
003f20:  ffff  dw      0xffff
003f22:  ffff  dw      0xffff
003f24:  ffff  dw      0xffff
003f26:  ffff  dw      0xffff
003f28:  ffff  dw      0xffff
003f2a:  ffff  dw      0xffff
003f2c:  ffff  dw      0xffff
003f2e:  ffff  dw      0xffff
003f30:  ffff  dw      0xffff
003f32:  ffff  dw      0xffff
003f34:  ffff  dw      0xffff
003f36:  ffff  dw      0xffff
003f38:  ffff  dw      0xffff
003f3a:  ffff  dw      0xffff
003f3c:  ffff  dw      0xffff
003f3e:  ffff  dw      0xffff
003f40:  ffff  dw      0xffff
003f42:  ffff  dw      0xffff
003f44:  ffff  dw      0xffff
003f46:  ffff  dw      0xffff
003f48:  ffff  dw      0xffff
003f4a:  ffff  dw      0xffff
003f4c:  ffff  dw      0xffff
003f4e:  ffff  dw      0xffff
003f50:  ffff  dw      0xffff
003f52:  ffff  dw      0xffff
003f54:  ffff  dw      0xffff
003f56:  ffff  dw      0xffff
003f58:  ffff  dw      0xffff
003f5a:  ffff  dw      0xffff
003f5c:  ffff  dw      0xffff
003f5e:  ffff  dw      0xffff
003f60:  ffff  dw      0xffff
003f62:  ffff  dw      0xffff
003f64:  ffff  dw      0xffff
003f66:  ffff  dw      0xffff
003f68:  ffff  dw      0xffff
003f6a:  ffff  dw      0xffff
003f6c:  ffff  dw      0xffff
003f6e:  ffff  dw      0xffff
003f70:  ffff  dw      0xffff
003f72:  ffff  dw      0xffff
003f74:  ffff  dw      0xffff
003f76:  ffff  dw      0xffff
003f78:  ffff  dw      0xffff
003f7a:  ffff  dw      0xffff
003f7c:  ffff  dw      0xffff
003f7e:  ffff  dw      0xffff
003f80:  ffff  dw      0xffff
003f82:  ffff  dw      0xffff
003f84:  ffff  dw      0xffff
003f86:  ffff  dw      0xffff
003f88:  ffff  dw      0xffff
003f8a:  ffff  dw      0xffff
003f8c:  ffff  dw      0xffff
003f8e:  ffff  dw      0xffff
003f90:  ffff  dw      0xffff
003f92:  ffff  dw      0xffff
003f94:  ffff  dw      0xffff
003f96:  ffff  dw      0xffff
003f98:  ffff  dw      0xffff
003f9a:  ffff  dw      0xffff
003f9c:  ffff  dw      0xffff
003f9e:  ffff  dw      0xffff
003fa0:  ffff  dw      0xffff
003fa2:  ffff  dw      0xffff
003fa4:  ffff  dw      0xffff
003fa6:  ffff  dw      0xffff
003fa8:  ffff  dw      0xffff
003faa:  ffff  dw      0xffff
003fac:  ffff  dw      0xffff
003fae:  ffff  dw      0xffff
003fb0:  ffff  dw      0xffff
003fb2:  ffff  dw      0xffff
003fb4:  ffff  dw      0xffff
003fb6:  ffff  dw      0xffff
003fb8:  ffff  dw      0xffff
003fba:  ffff  dw      0xffff
003fbc:  ffff  dw      0xffff
003fbe:  ffff  dw      0xffff
003fc0:  ffff  dw      0xffff
003fc2:  ffff  dw      0xffff
003fc4:  ffff  dw      0xffff
003fc6:  ffff  dw      0xffff
003fc8:  ffff  dw      0xffff
003fca:  ffff  dw      0xffff
003fcc:  ffff  dw      0xffff
003fce:  ffff  dw      0xffff
003fd0:  ffff  dw      0xffff
003fd2:  ffff  dw      0xffff
003fd4:  ffff  dw      0xffff
003fd6:  ffff  dw      0xffff
003fd8:  ffff  dw      0xffff
003fda:  ffff  dw      0xffff
003fdc:  ffff  dw      0xffff
003fde:  ffff  dw      0xffff
003fe0:  ffff  dw      0xffff
003fe2:  ffff  dw      0xffff
003fe4:  ffff  dw      0xffff
003fe6:  ffff  dw      0xffff
003fe8:  ffff  dw      0xffff
003fea:  ffff  dw      0xffff
003fec:  ffff  dw      0xffff
003fee:  ffff  dw      0xffff
003ff0:  ffff  dw      0xffff
003ff2:  ffff  dw      0xffff
003ff4:  ffff  dw      0xffff
003ff6:  ffff  dw      0xffff
003ff8:  ffff  dw      0xffff
003ffa:  ffff  dw      0xffff
003ffc:  ffff  dw      0xffff
003ffe:  ffff  dw      0xffff
004000:  ffff  dw      0xffff
004002:  ffff  dw      0xffff
004004:  ffff  dw      0xffff
004006:  ffff  dw      0xffff
004008:  ffff  dw      0xffff
00400a:  ffff  dw      0xffff
00400c:  ffff  dw      0xffff
00400e:  ffff  dw      0xffff
004010:  ffff  dw      0xffff
004012:  ffff  dw      0xffff
004014:  ffff  dw      0xffff
004016:  ffff  dw      0xffff
004018:  ffff  dw      0xffff
00401a:  ffff  dw      0xffff
00401c:  ffff  dw      0xffff
00401e:  ffff  dw      0xffff
004020:  ffff  dw      0xffff
004022:  ffff  dw      0xffff
004024:  ffff  dw      0xffff
004026:  ffff  dw      0xffff
004028:  ffff  dw      0xffff
00402a:  ffff  dw      0xffff
00402c:  ffff  dw      0xffff
00402e:  ffff  dw      0xffff
004030:  ffff  dw      0xffff
004032:  ffff  dw      0xffff
004034:  ffff  dw      0xffff
004036:  ffff  dw      0xffff
004038:  ffff  dw      0xffff
00403a:  ffff  dw      0xffff
00403c:  ffff  dw      0xffff
00403e:  ffff  dw      0xffff
004040:  ffff  dw      0xffff
004042:  ffff  dw      0xffff
004044:  ffff  dw      0xffff
004046:  ffff  dw      0xffff
004048:  ffff  dw      0xffff
00404a:  ffff  dw      0xffff
00404c:  ffff  dw      0xffff
00404e:  ffff  dw      0xffff
004050:  ffff  dw      0xffff
004052:  ffff  dw      0xffff
004054:  ffff  dw      0xffff
004056:  ffff  dw      0xffff
004058:  ffff  dw      0xffff
00405a:  ffff  dw      0xffff
00405c:  ffff  dw      0xffff
00405e:  ffff  dw      0xffff
004060:  ffff  dw      0xffff
004062:  ffff  dw      0xffff
004064:  ffff  dw      0xffff
004066:  ffff  dw      0xffff
004068:  ffff  dw      0xffff
00406a:  ffff  dw      0xffff
00406c:  ffff  dw      0xffff
00406e:  ffff  dw      0xffff
004070:  ffff  dw      0xffff
004072:  ffff  dw      0xffff
004074:  ffff  dw      0xffff
004076:  ffff  dw      0xffff
004078:  ffff  dw      0xffff
00407a:  ffff  dw      0xffff
00407c:  ffff  dw      0xffff
00407e:  ffff  dw      0xffff
004080:  ffff  dw      0xffff
004082:  ffff  dw      0xffff
004084:  ffff  dw      0xffff
004086:  ffff  dw      0xffff
004088:  ffff  dw      0xffff
00408a:  ffff  dw      0xffff
00408c:  ffff  dw      0xffff
00408e:  ffff  dw      0xffff
004090:  ffff  dw      0xffff
004092:  ffff  dw      0xffff
004094:  ffff  dw      0xffff
004096:  ffff  dw      0xffff
004098:  ffff  dw      0xffff
00409a:  ffff  dw      0xffff
00409c:  ffff  dw      0xffff
00409e:  ffff  dw      0xffff
0040a0:  ffff  dw      0xffff
0040a2:  ffff  dw      0xffff
0040a4:  ffff  dw      0xffff
0040a6:  ffff  dw      0xffff
0040a8:  ffff  dw      0xffff
0040aa:  ffff  dw      0xffff
0040ac:  ffff  dw      0xffff
0040ae:  ffff  dw      0xffff
0040b0:  ffff  dw      0xffff
0040b2:  ffff  dw      0xffff
0040b4:  ffff  dw      0xffff
0040b6:  ffff  dw      0xffff
0040b8:  ffff  dw      0xffff
0040ba:  ffff  dw      0xffff
0040bc:  ffff  dw      0xffff
0040be:  ffff  dw      0xffff
0040c0:  ffff  dw      0xffff
0040c2:  ffff  dw      0xffff
0040c4:  ffff  dw      0xffff
0040c6:  ffff  dw      0xffff
0040c8:  ffff  dw      0xffff
0040ca:  ffff  dw      0xffff
0040cc:  ffff  dw      0xffff
0040ce:  ffff  dw      0xffff
0040d0:  ffff  dw      0xffff
0040d2:  ffff  dw      0xffff
0040d4:  ffff  dw      0xffff
0040d6:  ffff  dw      0xffff
0040d8:  ffff  dw      0xffff
0040da:  ffff  dw      0xffff
0040dc:  ffff  dw      0xffff
0040de:  ffff  dw      0xffff
0040e0:  ffff  dw      0xffff
0040e2:  ffff  dw      0xffff
0040e4:  ffff  dw      0xffff
0040e6:  ffff  dw      0xffff
0040e8:  ffff  dw      0xffff
0040ea:  ffff  dw      0xffff
0040ec:  ffff  dw      0xffff
0040ee:  ffff  dw      0xffff
0040f0:  ffff  dw      0xffff
0040f2:  ffff  dw      0xffff
0040f4:  ffff  dw      0xffff
0040f6:  ffff  dw      0xffff
0040f8:  ffff  dw      0xffff
0040fa:  ffff  dw      0xffff
0040fc:  ffff  dw      0xffff
0040fe:  ffff  dw      0xffff
004100:  ffff  dw      0xffff
004102:  ffff  dw      0xffff
004104:  ffff  dw      0xffff
004106:  ffff  dw      0xffff
004108:  ffff  dw      0xffff
00410a:  ffff  dw      0xffff
00410c:  ffff  dw      0xffff
00410e:  ffff  dw      0xffff
004110:  ffff  dw      0xffff
004112:  ffff  dw      0xffff
004114:  ffff  dw      0xffff
004116:  ffff  dw      0xffff
004118:  ffff  dw      0xffff
00411a:  ffff  dw      0xffff
00411c:  ffff  dw      0xffff
00411e:  ffff  dw      0xffff
004120:  ffff  dw      0xffff
004122:  ffff  dw      0xffff
004124:  ffff  dw      0xffff
004126:  ffff  dw      0xffff
004128:  ffff  dw      0xffff
00412a:  ffff  dw      0xffff
00412c:  ffff  dw      0xffff
00412e:  ffff  dw      0xffff
004130:  ffff  dw      0xffff
004132:  ffff  dw      0xffff
004134:  ffff  dw      0xffff
004136:  ffff  dw      0xffff
004138:  ffff  dw      0xffff
00413a:  ffff  dw      0xffff
00413c:  ffff  dw      0xffff
00413e:  ffff  dw      0xffff
004140:  ffff  dw      0xffff
004142:  ffff  dw      0xffff
004144:  ffff  dw      0xffff
004146:  ffff  dw      0xffff
004148:  ffff  dw      0xffff
00414a:  ffff  dw      0xffff
00414c:  ffff  dw      0xffff
00414e:  ffff  dw      0xffff
004150:  ffff  dw      0xffff
004152:  ffff  dw      0xffff
004154:  ffff  dw      0xffff
004156:  ffff  dw      0xffff
004158:  ffff  dw      0xffff
00415a:  ffff  dw      0xffff
00415c:  ffff  dw      0xffff
00415e:  ffff  dw      0xffff
004160:  ffff  dw      0xffff
004162:  ffff  dw      0xffff
004164:  ffff  dw      0xffff
004166:  ffff  dw      0xffff
004168:  ffff  dw      0xffff
00416a:  ffff  dw      0xffff
00416c:  ffff  dw      0xffff
00416e:  ffff  dw      0xffff
004170:  ffff  dw      0xffff
004172:  ffff  dw      0xffff
004174:  ffff  dw      0xffff
004176:  ffff  dw      0xffff
004178:  ffff  dw      0xffff
00417a:  ffff  dw      0xffff
00417c:  ffff  dw      0xffff
00417e:  ffff  dw      0xffff
004180:  ffff  dw      0xffff
004182:  ffff  dw      0xffff
004184:  ffff  dw      0xffff
004186:  ffff  dw      0xffff
004188:  ffff  dw      0xffff
00418a:  ffff  dw      0xffff
00418c:  ffff  dw      0xffff
00418e:  ffff  dw      0xffff
004190:  ffff  dw      0xffff
004192:  ffff  dw      0xffff
004194:  ffff  dw      0xffff
004196:  ffff  dw      0xffff
004198:  ffff  dw      0xffff
00419a:  ffff  dw      0xffff
00419c:  ffff  dw      0xffff
00419e:  ffff  dw      0xffff
0041a0:  ffff  dw      0xffff
0041a2:  ffff  dw      0xffff
0041a4:  ffff  dw      0xffff
0041a6:  ffff  dw      0xffff
0041a8:  ffff  dw      0xffff
0041aa:  ffff  dw      0xffff
0041ac:  ffff  dw      0xffff
0041ae:  ffff  dw      0xffff
0041b0:  ffff  dw      0xffff
0041b2:  ffff  dw      0xffff
0041b4:  ffff  dw      0xffff
0041b6:  ffff  dw      0xffff
0041b8:  ffff  dw      0xffff
0041ba:  ffff  dw      0xffff
0041bc:  ffff  dw      0xffff
0041be:  ffff  dw      0xffff
0041c0:  ffff  dw      0xffff
0041c2:  ffff  dw      0xffff
0041c4:  ffff  dw      0xffff
0041c6:  ffff  dw      0xffff
0041c8:  ffff  dw      0xffff
0041ca:  ffff  dw      0xffff
0041cc:  ffff  dw      0xffff
0041ce:  ffff  dw      0xffff
0041d0:  ffff  dw      0xffff
0041d2:  ffff  dw      0xffff
0041d4:  ffff  dw      0xffff
0041d6:  ffff  dw      0xffff
0041d8:  ffff  dw      0xffff
0041da:  ffff  dw      0xffff
0041dc:  ffff  dw      0xffff
0041de:  ffff  dw      0xffff
0041e0:  ffff  dw      0xffff
0041e2:  ffff  dw      0xffff
0041e4:  ffff  dw      0xffff
0041e6:  ffff  dw      0xffff
0041e8:  ffff  dw      0xffff
0041ea:  ffff  dw      0xffff
0041ec:  ffff  dw      0xffff
0041ee:  ffff  dw      0xffff
0041f0:  ffff  dw      0xffff
0041f2:  ffff  dw      0xffff
0041f4:  ffff  dw      0xffff
0041f6:  ffff  dw      0xffff
0041f8:  ffff  dw      0xffff
0041fa:  ffff  dw      0xffff
0041fc:  ffff  dw      0xffff
0041fe:  ffff  dw      0xffff
004200:  ffff  dw      0xffff
004202:  ffff  dw      0xffff
004204:  ffff  dw      0xffff
004206:  ffff  dw      0xffff
004208:  ffff  dw      0xffff
00420a:  ffff  dw      0xffff
00420c:  ffff  dw      0xffff
00420e:  ffff  dw      0xffff
004210:  ffff  dw      0xffff
004212:  ffff  dw      0xffff
004214:  ffff  dw      0xffff
004216:  ffff  dw      0xffff
004218:  ffff  dw      0xffff
00421a:  ffff  dw      0xffff
00421c:  ffff  dw      0xffff
00421e:  ffff  dw      0xffff
004220:  ffff  dw      0xffff
004222:  ffff  dw      0xffff
004224:  ffff  dw      0xffff
004226:  ffff  dw      0xffff
004228:  ffff  dw      0xffff
00422a:  ffff  dw      0xffff
00422c:  ffff  dw      0xffff
00422e:  ffff  dw      0xffff
004230:  ffff  dw      0xffff
004232:  ffff  dw      0xffff
004234:  ffff  dw      0xffff
004236:  ffff  dw      0xffff
004238:  ffff  dw      0xffff
00423a:  ffff  dw      0xffff
00423c:  ffff  dw      0xffff
00423e:  ffff  dw      0xffff
004240:  ffff  dw      0xffff
004242:  ffff  dw      0xffff
004244:  ffff  dw      0xffff
004246:  ffff  dw      0xffff
004248:  ffff  dw      0xffff
00424a:  ffff  dw      0xffff
00424c:  ffff  dw      0xffff
00424e:  ffff  dw      0xffff
004250:  ffff  dw      0xffff
004252:  ffff  dw      0xffff
004254:  ffff  dw      0xffff
004256:  ffff  dw      0xffff
004258:  ffff  dw      0xffff
00425a:  ffff  dw      0xffff
00425c:  ffff  dw      0xffff
00425e:  ffff  dw      0xffff
004260:  ffff  dw      0xffff
004262:  ffff  dw      0xffff
004264:  ffff  dw      0xffff
004266:  ffff  dw      0xffff
004268:  ffff  dw      0xffff
00426a:  ffff  dw      0xffff
00426c:  ffff  dw      0xffff
00426e:  ffff  dw      0xffff
004270:  ffff  dw      0xffff
004272:  ffff  dw      0xffff
004274:  ffff  dw      0xffff
004276:  ffff  dw      0xffff
004278:  ffff  dw      0xffff
00427a:  ffff  dw      0xffff
00427c:  ffff  dw      0xffff
00427e:  ffff  dw      0xffff
004280:  ffff  dw      0xffff
004282:  ffff  dw      0xffff
004284:  ffff  dw      0xffff
004286:  ffff  dw      0xffff
004288:  ffff  dw      0xffff
00428a:  ffff  dw      0xffff
00428c:  ffff  dw      0xffff
00428e:  ffff  dw      0xffff
004290:  ffff  dw      0xffff
004292:  ffff  dw      0xffff
004294:  ffff  dw      0xffff
004296:  ffff  dw      0xffff
004298:  ffff  dw      0xffff
00429a:  ffff  dw      0xffff
00429c:  ffff  dw      0xffff
00429e:  ffff  dw      0xffff
0042a0:  ffff  dw      0xffff
0042a2:  ffff  dw      0xffff
0042a4:  ffff  dw      0xffff
0042a6:  ffff  dw      0xffff
0042a8:  ffff  dw      0xffff
0042aa:  ffff  dw      0xffff
0042ac:  ffff  dw      0xffff
0042ae:  ffff  dw      0xffff
0042b0:  ffff  dw      0xffff
0042b2:  ffff  dw      0xffff
0042b4:  ffff  dw      0xffff
0042b6:  ffff  dw      0xffff
0042b8:  ffff  dw      0xffff
0042ba:  ffff  dw      0xffff
0042bc:  ffff  dw      0xffff
0042be:  ffff  dw      0xffff
0042c0:  ffff  dw      0xffff
0042c2:  ffff  dw      0xffff
0042c4:  ffff  dw      0xffff
0042c6:  ffff  dw      0xffff
0042c8:  ffff  dw      0xffff
0042ca:  ffff  dw      0xffff
0042cc:  ffff  dw      0xffff
0042ce:  ffff  dw      0xffff
0042d0:  ffff  dw      0xffff
0042d2:  ffff  dw      0xffff
0042d4:  ffff  dw      0xffff
0042d6:  ffff  dw      0xffff
0042d8:  ffff  dw      0xffff
0042da:  ffff  dw      0xffff
0042dc:  ffff  dw      0xffff
0042de:  ffff  dw      0xffff
0042e0:  ffff  dw      0xffff
0042e2:  ffff  dw      0xffff
0042e4:  ffff  dw      0xffff
0042e6:  ffff  dw      0xffff
0042e8:  ffff  dw      0xffff
0042ea:  ffff  dw      0xffff
0042ec:  ffff  dw      0xffff
0042ee:  ffff  dw      0xffff
0042f0:  ffff  dw      0xffff
0042f2:  ffff  dw      0xffff
0042f4:  ffff  dw      0xffff
0042f6:  ffff  dw      0xffff
0042f8:  ffff  dw      0xffff
0042fa:  ffff  dw      0xffff
0042fc:  ffff  dw      0xffff
0042fe:  ffff  dw      0xffff
004300:  ffff  dw      0xffff
004302:  ffff  dw      0xffff
004304:  ffff  dw      0xffff
004306:  ffff  dw      0xffff
004308:  ffff  dw      0xffff
00430a:  ffff  dw      0xffff
00430c:  ffff  dw      0xffff
00430e:  ffff  dw      0xffff
004310:  ffff  dw      0xffff
004312:  ffff  dw      0xffff
004314:  ffff  dw      0xffff
004316:  ffff  dw      0xffff
004318:  ffff  dw      0xffff
00431a:  ffff  dw      0xffff
00431c:  ffff  dw      0xffff
00431e:  ffff  dw      0xffff
004320:  ffff  dw      0xffff
004322:  ffff  dw      0xffff
004324:  ffff  dw      0xffff
004326:  ffff  dw      0xffff
004328:  ffff  dw      0xffff
00432a:  ffff  dw      0xffff
00432c:  ffff  dw      0xffff
00432e:  ffff  dw      0xffff
004330:  ffff  dw      0xffff
004332:  ffff  dw      0xffff
004334:  ffff  dw      0xffff
004336:  ffff  dw      0xffff
004338:  ffff  dw      0xffff
00433a:  ffff  dw      0xffff
00433c:  ffff  dw      0xffff
00433e:  ffff  dw      0xffff
004340:  ffff  dw      0xffff
004342:  ffff  dw      0xffff
004344:  ffff  dw      0xffff
004346:  ffff  dw      0xffff
004348:  ffff  dw      0xffff
00434a:  ffff  dw      0xffff
00434c:  ffff  dw      0xffff
00434e:  ffff  dw      0xffff
004350:  ffff  dw      0xffff
004352:  ffff  dw      0xffff
004354:  ffff  dw      0xffff
004356:  ffff  dw      0xffff
004358:  ffff  dw      0xffff
00435a:  ffff  dw      0xffff
00435c:  ffff  dw      0xffff
00435e:  ffff  dw      0xffff
004360:  ffff  dw      0xffff
004362:  ffff  dw      0xffff
004364:  ffff  dw      0xffff
004366:  ffff  dw      0xffff
004368:  ffff  dw      0xffff
00436a:  ffff  dw      0xffff
00436c:  ffff  dw      0xffff
00436e:  ffff  dw      0xffff
004370:  ffff  dw      0xffff
004372:  ffff  dw      0xffff
004374:  ffff  dw      0xffff
004376:  ffff  dw      0xffff
004378:  ffff  dw      0xffff
00437a:  ffff  dw      0xffff
00437c:  ffff  dw      0xffff
00437e:  ffff  dw      0xffff
004380:  ffff  dw      0xffff
004382:  ffff  dw      0xffff
004384:  ffff  dw      0xffff
004386:  ffff  dw      0xffff
004388:  ffff  dw      0xffff
00438a:  ffff  dw      0xffff
00438c:  ffff  dw      0xffff
00438e:  ffff  dw      0xffff
004390:  ffff  dw      0xffff
004392:  ffff  dw      0xffff
004394:  ffff  dw      0xffff
004396:  ffff  dw      0xffff
004398:  ffff  dw      0xffff
00439a:  ffff  dw      0xffff
00439c:  ffff  dw      0xffff
00439e:  ffff  dw      0xffff
0043a0:  ffff  dw      0xffff
0043a2:  ffff  dw      0xffff
0043a4:  ffff  dw      0xffff
0043a6:  ffff  dw      0xffff
0043a8:  ffff  dw      0xffff
0043aa:  ffff  dw      0xffff
0043ac:  ffff  dw      0xffff
0043ae:  ffff  dw      0xffff
0043b0:  ffff  dw      0xffff
0043b2:  ffff  dw      0xffff
0043b4:  ffff  dw      0xffff
0043b6:  ffff  dw      0xffff
0043b8:  ffff  dw      0xffff
0043ba:  ffff  dw      0xffff
0043bc:  ffff  dw      0xffff
0043be:  ffff  dw      0xffff
0043c0:  ffff  dw      0xffff
0043c2:  ffff  dw      0xffff
0043c4:  ffff  dw      0xffff
0043c6:  ffff  dw      0xffff
0043c8:  ffff  dw      0xffff
0043ca:  ffff  dw      0xffff
0043cc:  ffff  dw      0xffff
0043ce:  ffff  dw      0xffff
0043d0:  ffff  dw      0xffff
0043d2:  ffff  dw      0xffff
0043d4:  ffff  dw      0xffff
0043d6:  ffff  dw      0xffff
0043d8:  ffff  dw      0xffff
0043da:  ffff  dw      0xffff
0043dc:  ffff  dw      0xffff
0043de:  ffff  dw      0xffff
0043e0:  ffff  dw      0xffff
0043e2:  ffff  dw      0xffff
0043e4:  ffff  dw      0xffff
0043e6:  ffff  dw      0xffff
0043e8:  ffff  dw      0xffff
0043ea:  ffff  dw      0xffff
0043ec:  ffff  dw      0xffff
0043ee:  ffff  dw      0xffff
0043f0:  ffff  dw      0xffff
0043f2:  ffff  dw      0xffff
0043f4:  ffff  dw      0xffff
0043f6:  ffff  dw      0xffff
0043f8:  ffff  dw      0xffff
0043fa:  ffff  dw      0xffff
0043fc:  ffff  dw      0xffff
0043fe:  ffff  dw      0xffff
004400:  ffff  dw      0xffff
004402:  ffff  dw      0xffff
004404:  ffff  dw      0xffff
004406:  ffff  dw      0xffff
004408:  ffff  dw      0xffff
00440a:  ffff  dw      0xffff
00440c:  ffff  dw      0xffff
00440e:  ffff  dw      0xffff
004410:  ffff  dw      0xffff
004412:  ffff  dw      0xffff
004414:  ffff  dw      0xffff
004416:  ffff  dw      0xffff
004418:  ffff  dw      0xffff
00441a:  ffff  dw      0xffff
00441c:  ffff  dw      0xffff
00441e:  ffff  dw      0xffff
004420:  ffff  dw      0xffff
004422:  ffff  dw      0xffff
004424:  ffff  dw      0xffff
004426:  ffff  dw      0xffff
004428:  ffff  dw      0xffff
00442a:  ffff  dw      0xffff
00442c:  ffff  dw      0xffff
00442e:  ffff  dw      0xffff
004430:  ffff  dw      0xffff
004432:  ffff  dw      0xffff
004434:  ffff  dw      0xffff
004436:  ffff  dw      0xffff
004438:  ffff  dw      0xffff
00443a:  ffff  dw      0xffff
00443c:  ffff  dw      0xffff
00443e:  ffff  dw      0xffff
004440:  ffff  dw      0xffff
004442:  ffff  dw      0xffff
004444:  ffff  dw      0xffff
004446:  ffff  dw      0xffff
004448:  ffff  dw      0xffff
00444a:  ffff  dw      0xffff
00444c:  ffff  dw      0xffff
00444e:  ffff  dw      0xffff
004450:  ffff  dw      0xffff
004452:  ffff  dw      0xffff
004454:  ffff  dw      0xffff
004456:  ffff  dw      0xffff
004458:  ffff  dw      0xffff
00445a:  ffff  dw      0xffff
00445c:  ffff  dw      0xffff
00445e:  ffff  dw      0xffff
004460:  ffff  dw      0xffff
004462:  ffff  dw      0xffff
004464:  ffff  dw      0xffff
004466:  ffff  dw      0xffff
004468:  ffff  dw      0xffff
00446a:  ffff  dw      0xffff
00446c:  ffff  dw      0xffff
00446e:  ffff  dw      0xffff
004470:  ffff  dw      0xffff
004472:  ffff  dw      0xffff
004474:  ffff  dw      0xffff
004476:  ffff  dw      0xffff
004478:  ffff  dw      0xffff
00447a:  ffff  dw      0xffff
00447c:  ffff  dw      0xffff
00447e:  ffff  dw      0xffff
004480:  ffff  dw      0xffff
004482:  ffff  dw      0xffff
004484:  ffff  dw      0xffff
004486:  ffff  dw      0xffff
004488:  ffff  dw      0xffff
00448a:  ffff  dw      0xffff
00448c:  ffff  dw      0xffff
00448e:  ffff  dw      0xffff
004490:  ffff  dw      0xffff
004492:  ffff  dw      0xffff
004494:  ffff  dw      0xffff
004496:  ffff  dw      0xffff
004498:  ffff  dw      0xffff
00449a:  ffff  dw      0xffff
00449c:  ffff  dw      0xffff
00449e:  ffff  dw      0xffff
0044a0:  ffff  dw      0xffff
0044a2:  ffff  dw      0xffff
0044a4:  ffff  dw      0xffff
0044a6:  ffff  dw      0xffff
0044a8:  ffff  dw      0xffff
0044aa:  ffff  dw      0xffff
0044ac:  ffff  dw      0xffff
0044ae:  ffff  dw      0xffff
0044b0:  ffff  dw      0xffff
0044b2:  ffff  dw      0xffff
0044b4:  ffff  dw      0xffff
0044b6:  ffff  dw      0xffff
0044b8:  ffff  dw      0xffff
0044ba:  ffff  dw      0xffff
0044bc:  ffff  dw      0xffff
0044be:  ffff  dw      0xffff
0044c0:  ffff  dw      0xffff
0044c2:  ffff  dw      0xffff
0044c4:  ffff  dw      0xffff
0044c6:  ffff  dw      0xffff
0044c8:  ffff  dw      0xffff
0044ca:  ffff  dw      0xffff
0044cc:  ffff  dw      0xffff
0044ce:  ffff  dw      0xffff
0044d0:  ffff  dw      0xffff
0044d2:  ffff  dw      0xffff
0044d4:  ffff  dw      0xffff
0044d6:  ffff  dw      0xffff
0044d8:  ffff  dw      0xffff
0044da:  ffff  dw      0xffff
0044dc:  ffff  dw      0xffff
0044de:  ffff  dw      0xffff
0044e0:  ffff  dw      0xffff
0044e2:  ffff  dw      0xffff
0044e4:  ffff  dw      0xffff
0044e6:  ffff  dw      0xffff
0044e8:  ffff  dw      0xffff
0044ea:  ffff  dw      0xffff
0044ec:  ffff  dw      0xffff
0044ee:  ffff  dw      0xffff
0044f0:  ffff  dw      0xffff
0044f2:  ffff  dw      0xffff
0044f4:  ffff  dw      0xffff
0044f6:  ffff  dw      0xffff
0044f8:  ffff  dw      0xffff
0044fa:  ffff  dw      0xffff
0044fc:  ffff  dw      0xffff
0044fe:  ffff  dw      0xffff
004500:  ffff  dw      0xffff
004502:  ffff  dw      0xffff
004504:  ffff  dw      0xffff
004506:  ffff  dw      0xffff
004508:  ffff  dw      0xffff
00450a:  ffff  dw      0xffff
00450c:  ffff  dw      0xffff
00450e:  ffff  dw      0xffff
004510:  ffff  dw      0xffff
004512:  ffff  dw      0xffff
004514:  ffff  dw      0xffff
004516:  ffff  dw      0xffff
004518:  ffff  dw      0xffff
00451a:  ffff  dw      0xffff
00451c:  ffff  dw      0xffff
00451e:  ffff  dw      0xffff
004520:  ffff  dw      0xffff
004522:  ffff  dw      0xffff
004524:  ffff  dw      0xffff
004526:  ffff  dw      0xffff
004528:  ffff  dw      0xffff
00452a:  ffff  dw      0xffff
00452c:  ffff  dw      0xffff
00452e:  ffff  dw      0xffff
004530:  ffff  dw      0xffff
004532:  ffff  dw      0xffff
004534:  ffff  dw      0xffff
004536:  ffff  dw      0xffff
004538:  ffff  dw      0xffff
00453a:  ffff  dw      0xffff
00453c:  ffff  dw      0xffff
00453e:  ffff  dw      0xffff
004540:  ffff  dw      0xffff
004542:  ffff  dw      0xffff
004544:  ffff  dw      0xffff
004546:  ffff  dw      0xffff
004548:  ffff  dw      0xffff
00454a:  ffff  dw      0xffff
00454c:  ffff  dw      0xffff
00454e:  ffff  dw      0xffff
004550:  ffff  dw      0xffff
004552:  ffff  dw      0xffff
004554:  ffff  dw      0xffff
004556:  ffff  dw      0xffff
004558:  ffff  dw      0xffff
00455a:  ffff  dw      0xffff
00455c:  ffff  dw      0xffff
00455e:  ffff  dw      0xffff
004560:  ffff  dw      0xffff
004562:  ffff  dw      0xffff
004564:  ffff  dw      0xffff
004566:  ffff  dw      0xffff
004568:  ffff  dw      0xffff
00456a:  ffff  dw      0xffff
00456c:  ffff  dw      0xffff
00456e:  ffff  dw      0xffff
004570:  ffff  dw      0xffff
004572:  ffff  dw      0xffff
004574:  ffff  dw      0xffff
004576:  ffff  dw      0xffff
004578:  ffff  dw      0xffff
00457a:  ffff  dw      0xffff
00457c:  ffff  dw      0xffff
00457e:  ffff  dw      0xffff
004580:  ffff  dw      0xffff
004582:  ffff  dw      0xffff
004584:  ffff  dw      0xffff
004586:  ffff  dw      0xffff
004588:  ffff  dw      0xffff
00458a:  ffff  dw      0xffff
00458c:  ffff  dw      0xffff
00458e:  ffff  dw      0xffff
004590:  ffff  dw      0xffff
004592:  ffff  dw      0xffff
004594:  ffff  dw      0xffff
004596:  ffff  dw      0xffff
004598:  ffff  dw      0xffff
00459a:  ffff  dw      0xffff
00459c:  ffff  dw      0xffff
00459e:  ffff  dw      0xffff
0045a0:  ffff  dw      0xffff
0045a2:  ffff  dw      0xffff
0045a4:  ffff  dw      0xffff
0045a6:  ffff  dw      0xffff
0045a8:  ffff  dw      0xffff
0045aa:  ffff  dw      0xffff
0045ac:  ffff  dw      0xffff
0045ae:  ffff  dw      0xffff
0045b0:  ffff  dw      0xffff
0045b2:  ffff  dw      0xffff
0045b4:  ffff  dw      0xffff
0045b6:  ffff  dw      0xffff
0045b8:  ffff  dw      0xffff
0045ba:  ffff  dw      0xffff
0045bc:  ffff  dw      0xffff
0045be:  ffff  dw      0xffff
0045c0:  ffff  dw      0xffff
0045c2:  ffff  dw      0xffff
0045c4:  ffff  dw      0xffff
0045c6:  ffff  dw      0xffff
0045c8:  ffff  dw      0xffff
0045ca:  ffff  dw      0xffff
0045cc:  ffff  dw      0xffff
0045ce:  ffff  dw      0xffff
0045d0:  ffff  dw      0xffff
0045d2:  ffff  dw      0xffff
0045d4:  ffff  dw      0xffff
0045d6:  ffff  dw      0xffff
0045d8:  ffff  dw      0xffff
0045da:  ffff  dw      0xffff
0045dc:  ffff  dw      0xffff
0045de:  ffff  dw      0xffff
0045e0:  ffff  dw      0xffff
0045e2:  ffff  dw      0xffff
0045e4:  ffff  dw      0xffff
0045e6:  ffff  dw      0xffff
0045e8:  ffff  dw      0xffff
0045ea:  ffff  dw      0xffff
0045ec:  ffff  dw      0xffff
0045ee:  ffff  dw      0xffff
0045f0:  ffff  dw      0xffff
0045f2:  ffff  dw      0xffff
0045f4:  ffff  dw      0xffff
0045f6:  ffff  dw      0xffff
0045f8:  ffff  dw      0xffff
0045fa:  ffff  dw      0xffff
0045fc:  ffff  dw      0xffff
0045fe:  ffff  dw      0xffff
004600:  ffff  dw      0xffff
004602:  ffff  dw      0xffff
004604:  ffff  dw      0xffff
004606:  ffff  dw      0xffff
004608:  ffff  dw      0xffff
00460a:  ffff  dw      0xffff
00460c:  ffff  dw      0xffff
00460e:  ffff  dw      0xffff
004610:  ffff  dw      0xffff
004612:  ffff  dw      0xffff
004614:  ffff  dw      0xffff
004616:  ffff  dw      0xffff
004618:  ffff  dw      0xffff
00461a:  ffff  dw      0xffff
00461c:  ffff  dw      0xffff
00461e:  ffff  dw      0xffff
004620:  ffff  dw      0xffff
004622:  ffff  dw      0xffff
004624:  ffff  dw      0xffff
004626:  ffff  dw      0xffff
004628:  ffff  dw      0xffff
00462a:  ffff  dw      0xffff
00462c:  ffff  dw      0xffff
00462e:  ffff  dw      0xffff
004630:  ffff  dw      0xffff
004632:  ffff  dw      0xffff
004634:  ffff  dw      0xffff
004636:  ffff  dw      0xffff
004638:  ffff  dw      0xffff
00463a:  ffff  dw      0xffff
00463c:  ffff  dw      0xffff
00463e:  ffff  dw      0xffff
004640:  ffff  dw      0xffff
004642:  ffff  dw      0xffff
004644:  ffff  dw      0xffff
004646:  ffff  dw      0xffff
004648:  ffff  dw      0xffff
00464a:  ffff  dw      0xffff
00464c:  ffff  dw      0xffff
00464e:  ffff  dw      0xffff
004650:  ffff  dw      0xffff
004652:  ffff  dw      0xffff
004654:  ffff  dw      0xffff
004656:  ffff  dw      0xffff
004658:  ffff  dw      0xffff
00465a:  ffff  dw      0xffff
00465c:  ffff  dw      0xffff
00465e:  ffff  dw      0xffff
004660:  ffff  dw      0xffff
004662:  ffff  dw      0xffff
004664:  ffff  dw      0xffff
004666:  ffff  dw      0xffff
004668:  ffff  dw      0xffff
00466a:  ffff  dw      0xffff
00466c:  ffff  dw      0xffff
00466e:  ffff  dw      0xffff
004670:  ffff  dw      0xffff
004672:  ffff  dw      0xffff
004674:  ffff  dw      0xffff
004676:  ffff  dw      0xffff
004678:  ffff  dw      0xffff
00467a:  ffff  dw      0xffff
00467c:  ffff  dw      0xffff
00467e:  ffff  dw      0xffff
004680:  ffff  dw      0xffff
004682:  ffff  dw      0xffff
004684:  ffff  dw      0xffff
004686:  ffff  dw      0xffff
004688:  ffff  dw      0xffff
00468a:  ffff  dw      0xffff
00468c:  ffff  dw      0xffff
00468e:  ffff  dw      0xffff
004690:  ffff  dw      0xffff
004692:  ffff  dw      0xffff
004694:  ffff  dw      0xffff
004696:  ffff  dw      0xffff
004698:  ffff  dw      0xffff
00469a:  ffff  dw      0xffff
00469c:  ffff  dw      0xffff
00469e:  ffff  dw      0xffff
0046a0:  ffff  dw      0xffff
0046a2:  ffff  dw      0xffff
0046a4:  ffff  dw      0xffff
0046a6:  ffff  dw      0xffff
0046a8:  ffff  dw      0xffff
0046aa:  ffff  dw      0xffff
0046ac:  ffff  dw      0xffff
0046ae:  ffff  dw      0xffff
0046b0:  ffff  dw      0xffff
0046b2:  ffff  dw      0xffff
0046b4:  ffff  dw      0xffff
0046b6:  ffff  dw      0xffff
0046b8:  ffff  dw      0xffff
0046ba:  ffff  dw      0xffff
0046bc:  ffff  dw      0xffff
0046be:  ffff  dw      0xffff
0046c0:  ffff  dw      0xffff
0046c2:  ffff  dw      0xffff
0046c4:  ffff  dw      0xffff
0046c6:  ffff  dw      0xffff
0046c8:  ffff  dw      0xffff
0046ca:  ffff  dw      0xffff
0046cc:  ffff  dw      0xffff
0046ce:  ffff  dw      0xffff
0046d0:  ffff  dw      0xffff
0046d2:  ffff  dw      0xffff
0046d4:  ffff  dw      0xffff
0046d6:  ffff  dw      0xffff
0046d8:  ffff  dw      0xffff
0046da:  ffff  dw      0xffff
0046dc:  ffff  dw      0xffff
0046de:  ffff  dw      0xffff
0046e0:  ffff  dw      0xffff
0046e2:  ffff  dw      0xffff
0046e4:  ffff  dw      0xffff
0046e6:  ffff  dw      0xffff
0046e8:  ffff  dw      0xffff
0046ea:  ffff  dw      0xffff
0046ec:  ffff  dw      0xffff
0046ee:  ffff  dw      0xffff
0046f0:  ffff  dw      0xffff
0046f2:  ffff  dw      0xffff
0046f4:  ffff  dw      0xffff
0046f6:  ffff  dw      0xffff
0046f8:  ffff  dw      0xffff
0046fa:  ffff  dw      0xffff
0046fc:  ffff  dw      0xffff
0046fe:  ffff  dw      0xffff
004700:  ffff  dw      0xffff
004702:  ffff  dw      0xffff
004704:  ffff  dw      0xffff
004706:  ffff  dw      0xffff
004708:  ffff  dw      0xffff
00470a:  ffff  dw      0xffff
00470c:  ffff  dw      0xffff
00470e:  ffff  dw      0xffff
004710:  ffff  dw      0xffff
004712:  ffff  dw      0xffff
004714:  ffff  dw      0xffff
004716:  ffff  dw      0xffff
004718:  ffff  dw      0xffff
00471a:  ffff  dw      0xffff
00471c:  ffff  dw      0xffff
00471e:  ffff  dw      0xffff
004720:  ffff  dw      0xffff
004722:  ffff  dw      0xffff
004724:  ffff  dw      0xffff
004726:  ffff  dw      0xffff
004728:  ffff  dw      0xffff
00472a:  ffff  dw      0xffff
00472c:  ffff  dw      0xffff
00472e:  ffff  dw      0xffff
004730:  ffff  dw      0xffff
004732:  ffff  dw      0xffff
004734:  ffff  dw      0xffff
004736:  ffff  dw      0xffff
004738:  ffff  dw      0xffff
00473a:  ffff  dw      0xffff
00473c:  ffff  dw      0xffff
00473e:  ffff  dw      0xffff
004740:  ffff  dw      0xffff
004742:  ffff  dw      0xffff
004744:  ffff  dw      0xffff
004746:  ffff  dw      0xffff
004748:  ffff  dw      0xffff
00474a:  ffff  dw      0xffff
00474c:  ffff  dw      0xffff
00474e:  ffff  dw      0xffff
004750:  ffff  dw      0xffff
004752:  ffff  dw      0xffff
004754:  ffff  dw      0xffff
004756:  ffff  dw      0xffff
004758:  ffff  dw      0xffff
00475a:  ffff  dw      0xffff
00475c:  ffff  dw      0xffff
00475e:  ffff  dw      0xffff
004760:  ffff  dw      0xffff
004762:  ffff  dw      0xffff
004764:  ffff  dw      0xffff
004766:  ffff  dw      0xffff
004768:  ffff  dw      0xffff
00476a:  ffff  dw      0xffff
00476c:  ffff  dw      0xffff
00476e:  ffff  dw      0xffff
004770:  ffff  dw      0xffff
004772:  ffff  dw      0xffff
004774:  ffff  dw      0xffff
004776:  ffff  dw      0xffff
004778:  ffff  dw      0xffff
00477a:  ffff  dw      0xffff
00477c:  ffff  dw      0xffff
00477e:  ffff  dw      0xffff
004780:  ffff  dw      0xffff
004782:  ffff  dw      0xffff
004784:  ffff  dw      0xffff
004786:  ffff  dw      0xffff
004788:  ffff  dw      0xffff
00478a:  ffff  dw      0xffff
00478c:  ffff  dw      0xffff
00478e:  ffff  dw      0xffff
004790:  ffff  dw      0xffff
004792:  ffff  dw      0xffff
004794:  ffff  dw      0xffff
004796:  ffff  dw      0xffff
004798:  ffff  dw      0xffff
00479a:  ffff  dw      0xffff
00479c:  ffff  dw      0xffff
00479e:  ffff  dw      0xffff
0047a0:  ffff  dw      0xffff
0047a2:  ffff  dw      0xffff
0047a4:  ffff  dw      0xffff
0047a6:  ffff  dw      0xffff
0047a8:  ffff  dw      0xffff
0047aa:  ffff  dw      0xffff
0047ac:  ffff  dw      0xffff
0047ae:  ffff  dw      0xffff
0047b0:  ffff  dw      0xffff
0047b2:  ffff  dw      0xffff
0047b4:  ffff  dw      0xffff
0047b6:  ffff  dw      0xffff
0047b8:  ffff  dw      0xffff
0047ba:  ffff  dw      0xffff
0047bc:  ffff  dw      0xffff
0047be:  ffff  dw      0xffff
0047c0:  ffff  dw      0xffff
0047c2:  ffff  dw      0xffff
0047c4:  ffff  dw      0xffff
0047c6:  ffff  dw      0xffff
0047c8:  ffff  dw      0xffff
0047ca:  ffff  dw      0xffff
0047cc:  ffff  dw      0xffff
0047ce:  ffff  dw      0xffff
0047d0:  ffff  dw      0xffff
0047d2:  ffff  dw      0xffff
0047d4:  ffff  dw      0xffff
0047d6:  ffff  dw      0xffff
0047d8:  ffff  dw      0xffff
0047da:  ffff  dw      0xffff
0047dc:  ffff  dw      0xffff
0047de:  ffff  dw      0xffff
0047e0:  ffff  dw      0xffff
0047e2:  ffff  dw      0xffff
0047e4:  ffff  dw      0xffff
0047e6:  ffff  dw      0xffff
0047e8:  ffff  dw      0xffff
0047ea:  ffff  dw      0xffff
0047ec:  ffff  dw      0xffff
0047ee:  ffff  dw      0xffff
0047f0:  ffff  dw      0xffff
0047f2:  ffff  dw      0xffff
0047f4:  ffff  dw      0xffff
0047f6:  ffff  dw      0xffff
0047f8:  ffff  dw      0xffff
0047fa:  ffff  dw      0xffff
0047fc:  ffff  dw      0xffff
0047fe:  ffff  dw      0xffff
004800:  ffff  dw      0xffff
004802:  ffff  dw      0xffff
004804:  ffff  dw      0xffff
004806:  ffff  dw      0xffff
004808:  ffff  dw      0xffff
00480a:  ffff  dw      0xffff
00480c:  ffff  dw      0xffff
00480e:  ffff  dw      0xffff
004810:  ffff  dw      0xffff
004812:  ffff  dw      0xffff
004814:  ffff  dw      0xffff
004816:  ffff  dw      0xffff
004818:  ffff  dw      0xffff
00481a:  ffff  dw      0xffff
00481c:  ffff  dw      0xffff
00481e:  ffff  dw      0xffff
004820:  ffff  dw      0xffff
004822:  ffff  dw      0xffff
004824:  ffff  dw      0xffff
004826:  ffff  dw      0xffff
004828:  ffff  dw      0xffff
00482a:  ffff  dw      0xffff
00482c:  ffff  dw      0xffff
00482e:  ffff  dw      0xffff
004830:  ffff  dw      0xffff
004832:  ffff  dw      0xffff
004834:  ffff  dw      0xffff
004836:  ffff  dw      0xffff
004838:  ffff  dw      0xffff
00483a:  ffff  dw      0xffff
00483c:  ffff  dw      0xffff
00483e:  ffff  dw      0xffff
004840:  ffff  dw      0xffff
004842:  ffff  dw      0xffff
004844:  ffff  dw      0xffff
004846:  ffff  dw      0xffff
004848:  ffff  dw      0xffff
00484a:  ffff  dw      0xffff
00484c:  ffff  dw      0xffff
00484e:  ffff  dw      0xffff
004850:  ffff  dw      0xffff
004852:  ffff  dw      0xffff
004854:  ffff  dw      0xffff
004856:  ffff  dw      0xffff
004858:  ffff  dw      0xffff
00485a:  ffff  dw      0xffff
00485c:  ffff  dw      0xffff
00485e:  ffff  dw      0xffff
004860:  ffff  dw      0xffff
004862:  ffff  dw      0xffff
004864:  ffff  dw      0xffff
004866:  ffff  dw      0xffff
004868:  ffff  dw      0xffff
00486a:  ffff  dw      0xffff
00486c:  ffff  dw      0xffff
00486e:  ffff  dw      0xffff
004870:  ffff  dw      0xffff
004872:  ffff  dw      0xffff
004874:  ffff  dw      0xffff
004876:  ffff  dw      0xffff
004878:  ffff  dw      0xffff
00487a:  ffff  dw      0xffff
00487c:  ffff  dw      0xffff
00487e:  ffff  dw      0xffff
004880:  ffff  dw      0xffff
004882:  ffff  dw      0xffff
004884:  ffff  dw      0xffff
004886:  ffff  dw      0xffff
004888:  ffff  dw      0xffff
00488a:  ffff  dw      0xffff
00488c:  ffff  dw      0xffff
00488e:  ffff  dw      0xffff
004890:  ffff  dw      0xffff
004892:  ffff  dw      0xffff
004894:  ffff  dw      0xffff
004896:  ffff  dw      0xffff
004898:  ffff  dw      0xffff
00489a:  ffff  dw      0xffff
00489c:  ffff  dw      0xffff
00489e:  ffff  dw      0xffff
0048a0:  ffff  dw      0xffff
0048a2:  ffff  dw      0xffff
0048a4:  ffff  dw      0xffff
0048a6:  ffff  dw      0xffff
0048a8:  ffff  dw      0xffff
0048aa:  ffff  dw      0xffff
0048ac:  ffff  dw      0xffff
0048ae:  ffff  dw      0xffff
0048b0:  ffff  dw      0xffff
0048b2:  ffff  dw      0xffff
0048b4:  ffff  dw      0xffff
0048b6:  ffff  dw      0xffff
0048b8:  ffff  dw      0xffff
0048ba:  ffff  dw      0xffff
0048bc:  ffff  dw      0xffff
0048be:  ffff  dw      0xffff
0048c0:  ffff  dw      0xffff
0048c2:  ffff  dw      0xffff
0048c4:  ffff  dw      0xffff
0048c6:  ffff  dw      0xffff
0048c8:  ffff  dw      0xffff
0048ca:  ffff  dw      0xffff
0048cc:  ffff  dw      0xffff
0048ce:  ffff  dw      0xffff
0048d0:  ffff  dw      0xffff
0048d2:  ffff  dw      0xffff
0048d4:  ffff  dw      0xffff
0048d6:  ffff  dw      0xffff
0048d8:  ffff  dw      0xffff
0048da:  ffff  dw      0xffff
0048dc:  ffff  dw      0xffff
0048de:  ffff  dw      0xffff
0048e0:  ffff  dw      0xffff
0048e2:  ffff  dw      0xffff
0048e4:  ffff  dw      0xffff
0048e6:  ffff  dw      0xffff
0048e8:  ffff  dw      0xffff
0048ea:  ffff  dw      0xffff
0048ec:  ffff  dw      0xffff
0048ee:  ffff  dw      0xffff
0048f0:  ffff  dw      0xffff
0048f2:  ffff  dw      0xffff
0048f4:  ffff  dw      0xffff
0048f6:  ffff  dw      0xffff
0048f8:  ffff  dw      0xffff
0048fa:  ffff  dw      0xffff
0048fc:  ffff  dw      0xffff
0048fe:  ffff  dw      0xffff
004900:  ffff  dw      0xffff
004902:  ffff  dw      0xffff
004904:  ffff  dw      0xffff
004906:  ffff  dw      0xffff
004908:  ffff  dw      0xffff
00490a:  ffff  dw      0xffff
00490c:  ffff  dw      0xffff
00490e:  ffff  dw      0xffff
004910:  ffff  dw      0xffff
004912:  ffff  dw      0xffff
004914:  ffff  dw      0xffff
004916:  ffff  dw      0xffff
004918:  ffff  dw      0xffff
00491a:  ffff  dw      0xffff
00491c:  ffff  dw      0xffff
00491e:  ffff  dw      0xffff
004920:  ffff  dw      0xffff
004922:  ffff  dw      0xffff
004924:  ffff  dw      0xffff
004926:  ffff  dw      0xffff
004928:  ffff  dw      0xffff
00492a:  ffff  dw      0xffff
00492c:  ffff  dw      0xffff
00492e:  ffff  dw      0xffff
004930:  ffff  dw      0xffff
004932:  ffff  dw      0xffff
004934:  ffff  dw      0xffff
004936:  ffff  dw      0xffff
004938:  ffff  dw      0xffff
00493a:  ffff  dw      0xffff
00493c:  ffff  dw      0xffff
00493e:  ffff  dw      0xffff
004940:  ffff  dw      0xffff
004942:  ffff  dw      0xffff
004944:  ffff  dw      0xffff
004946:  ffff  dw      0xffff
004948:  ffff  dw      0xffff
00494a:  ffff  dw      0xffff
00494c:  ffff  dw      0xffff
00494e:  ffff  dw      0xffff
004950:  ffff  dw      0xffff
004952:  ffff  dw      0xffff
004954:  ffff  dw      0xffff
004956:  ffff  dw      0xffff
004958:  ffff  dw      0xffff
00495a:  ffff  dw      0xffff
00495c:  ffff  dw      0xffff
00495e:  ffff  dw      0xffff
004960:  ffff  dw      0xffff
004962:  ffff  dw      0xffff
004964:  ffff  dw      0xffff
004966:  ffff  dw      0xffff
004968:  ffff  dw      0xffff
00496a:  ffff  dw      0xffff
00496c:  ffff  dw      0xffff
00496e:  ffff  dw      0xffff
004970:  ffff  dw      0xffff
004972:  ffff  dw      0xffff
004974:  ffff  dw      0xffff
004976:  ffff  dw      0xffff
004978:  ffff  dw      0xffff
00497a:  ffff  dw      0xffff
00497c:  ffff  dw      0xffff
00497e:  ffff  dw      0xffff
004980:  ffff  dw      0xffff
004982:  ffff  dw      0xffff
004984:  ffff  dw      0xffff
004986:  ffff  dw      0xffff
004988:  ffff  dw      0xffff
00498a:  ffff  dw      0xffff
00498c:  ffff  dw      0xffff
00498e:  ffff  dw      0xffff
004990:  ffff  dw      0xffff
004992:  ffff  dw      0xffff
004994:  ffff  dw      0xffff
004996:  ffff  dw      0xffff
004998:  ffff  dw      0xffff
00499a:  ffff  dw      0xffff
00499c:  ffff  dw      0xffff
00499e:  ffff  dw      0xffff
0049a0:  ffff  dw      0xffff
0049a2:  ffff  dw      0xffff
0049a4:  ffff  dw      0xffff
0049a6:  ffff  dw      0xffff
0049a8:  ffff  dw      0xffff
0049aa:  ffff  dw      0xffff
0049ac:  ffff  dw      0xffff
0049ae:  ffff  dw      0xffff
0049b0:  ffff  dw      0xffff
0049b2:  ffff  dw      0xffff
0049b4:  ffff  dw      0xffff
0049b6:  ffff  dw      0xffff
0049b8:  ffff  dw      0xffff
0049ba:  ffff  dw      0xffff
0049bc:  ffff  dw      0xffff
0049be:  ffff  dw      0xffff
0049c0:  ffff  dw      0xffff
0049c2:  ffff  dw      0xffff
0049c4:  ffff  dw      0xffff
0049c6:  ffff  dw      0xffff
0049c8:  ffff  dw      0xffff
0049ca:  ffff  dw      0xffff
0049cc:  ffff  dw      0xffff
0049ce:  ffff  dw      0xffff
0049d0:  ffff  dw      0xffff
0049d2:  ffff  dw      0xffff
0049d4:  ffff  dw      0xffff
0049d6:  ffff  dw      0xffff
0049d8:  ffff  dw      0xffff
0049da:  ffff  dw      0xffff
0049dc:  ffff  dw      0xffff
0049de:  ffff  dw      0xffff
0049e0:  ffff  dw      0xffff
0049e2:  ffff  dw      0xffff
0049e4:  ffff  dw      0xffff
0049e6:  ffff  dw      0xffff
0049e8:  ffff  dw      0xffff
0049ea:  ffff  dw      0xffff
0049ec:  ffff  dw      0xffff
0049ee:  ffff  dw      0xffff
0049f0:  ffff  dw      0xffff
0049f2:  ffff  dw      0xffff
0049f4:  ffff  dw      0xffff
0049f6:  ffff  dw      0xffff
0049f8:  ffff  dw      0xffff
0049fa:  ffff  dw      0xffff
0049fc:  ffff  dw      0xffff
0049fe:  ffff  dw      0xffff
004a00:  ffff  dw      0xffff
004a02:  ffff  dw      0xffff
004a04:  ffff  dw      0xffff
004a06:  ffff  dw      0xffff
004a08:  ffff  dw      0xffff
004a0a:  ffff  dw      0xffff
004a0c:  ffff  dw      0xffff
004a0e:  ffff  dw      0xffff
004a10:  ffff  dw      0xffff
004a12:  ffff  dw      0xffff
004a14:  ffff  dw      0xffff
004a16:  ffff  dw      0xffff
004a18:  ffff  dw      0xffff
004a1a:  ffff  dw      0xffff
004a1c:  ffff  dw      0xffff
004a1e:  ffff  dw      0xffff
004a20:  ffff  dw      0xffff
004a22:  ffff  dw      0xffff
004a24:  ffff  dw      0xffff
004a26:  ffff  dw      0xffff
004a28:  ffff  dw      0xffff
004a2a:  ffff  dw      0xffff
004a2c:  ffff  dw      0xffff
004a2e:  ffff  dw      0xffff
004a30:  ffff  dw      0xffff
004a32:  ffff  dw      0xffff
004a34:  ffff  dw      0xffff
004a36:  ffff  dw      0xffff
004a38:  ffff  dw      0xffff
004a3a:  ffff  dw      0xffff
004a3c:  ffff  dw      0xffff
004a3e:  ffff  dw      0xffff
004a40:  ffff  dw      0xffff
004a42:  ffff  dw      0xffff
004a44:  ffff  dw      0xffff
004a46:  ffff  dw      0xffff
004a48:  ffff  dw      0xffff
004a4a:  ffff  dw      0xffff
004a4c:  ffff  dw      0xffff
004a4e:  ffff  dw      0xffff
004a50:  ffff  dw      0xffff
004a52:  ffff  dw      0xffff
004a54:  ffff  dw      0xffff
004a56:  ffff  dw      0xffff
004a58:  ffff  dw      0xffff
004a5a:  ffff  dw      0xffff
004a5c:  ffff  dw      0xffff
004a5e:  ffff  dw      0xffff
004a60:  ffff  dw      0xffff
004a62:  ffff  dw      0xffff
004a64:  ffff  dw      0xffff
004a66:  ffff  dw      0xffff
004a68:  ffff  dw      0xffff
004a6a:  ffff  dw      0xffff
004a6c:  ffff  dw      0xffff
004a6e:  ffff  dw      0xffff
004a70:  ffff  dw      0xffff
004a72:  ffff  dw      0xffff
004a74:  ffff  dw      0xffff
004a76:  ffff  dw      0xffff
004a78:  ffff  dw      0xffff
004a7a:  ffff  dw      0xffff
004a7c:  ffff  dw      0xffff
004a7e:  ffff  dw      0xffff
004a80:  ffff  dw      0xffff
004a82:  ffff  dw      0xffff
004a84:  ffff  dw      0xffff
004a86:  ffff  dw      0xffff
004a88:  ffff  dw      0xffff
004a8a:  ffff  dw      0xffff
004a8c:  ffff  dw      0xffff
004a8e:  ffff  dw      0xffff
004a90:  ffff  dw      0xffff
004a92:  ffff  dw      0xffff
004a94:  ffff  dw      0xffff
004a96:  ffff  dw      0xffff
004a98:  ffff  dw      0xffff
004a9a:  ffff  dw      0xffff
004a9c:  ffff  dw      0xffff
004a9e:  ffff  dw      0xffff
004aa0:  ffff  dw      0xffff
004aa2:  ffff  dw      0xffff
004aa4:  ffff  dw      0xffff
004aa6:  ffff  dw      0xffff
004aa8:  ffff  dw      0xffff
004aaa:  ffff  dw      0xffff
004aac:  ffff  dw      0xffff
004aae:  ffff  dw      0xffff
004ab0:  ffff  dw      0xffff
004ab2:  ffff  dw      0xffff
004ab4:  ffff  dw      0xffff
004ab6:  ffff  dw      0xffff
004ab8:  ffff  dw      0xffff
004aba:  ffff  dw      0xffff
004abc:  ffff  dw      0xffff
004abe:  ffff  dw      0xffff
004ac0:  ffff  dw      0xffff
004ac2:  ffff  dw      0xffff
004ac4:  ffff  dw      0xffff
004ac6:  ffff  dw      0xffff
004ac8:  ffff  dw      0xffff
004aca:  ffff  dw      0xffff
004acc:  ffff  dw      0xffff
004ace:  ffff  dw      0xffff
004ad0:  ffff  dw      0xffff
004ad2:  ffff  dw      0xffff
004ad4:  ffff  dw      0xffff
004ad6:  ffff  dw      0xffff
004ad8:  ffff  dw      0xffff
004ada:  ffff  dw      0xffff
004adc:  ffff  dw      0xffff
004ade:  ffff  dw      0xffff
004ae0:  ffff  dw      0xffff
004ae2:  ffff  dw      0xffff
004ae4:  ffff  dw      0xffff
004ae6:  ffff  dw      0xffff
004ae8:  ffff  dw      0xffff
004aea:  ffff  dw      0xffff
004aec:  ffff  dw      0xffff
004aee:  ffff  dw      0xffff
004af0:  ffff  dw      0xffff
004af2:  ffff  dw      0xffff
004af4:  ffff  dw      0xffff
004af6:  ffff  dw      0xffff
004af8:  ffff  dw      0xffff
004afa:  ffff  dw      0xffff
004afc:  ffff  dw      0xffff
004afe:  ffff  dw      0xffff
004b00:  ffff  dw      0xffff
004b02:  ffff  dw      0xffff
004b04:  ffff  dw      0xffff
004b06:  ffff  dw      0xffff
004b08:  ffff  dw      0xffff
004b0a:  ffff  dw      0xffff
004b0c:  ffff  dw      0xffff
004b0e:  ffff  dw      0xffff
004b10:  ffff  dw      0xffff
004b12:  ffff  dw      0xffff
004b14:  ffff  dw      0xffff
004b16:  ffff  dw      0xffff
004b18:  ffff  dw      0xffff
004b1a:  ffff  dw      0xffff
004b1c:  ffff  dw      0xffff
004b1e:  ffff  dw      0xffff
004b20:  ffff  dw      0xffff
004b22:  ffff  dw      0xffff
004b24:  ffff  dw      0xffff
004b26:  ffff  dw      0xffff
004b28:  ffff  dw      0xffff
004b2a:  ffff  dw      0xffff
004b2c:  ffff  dw      0xffff
004b2e:  ffff  dw      0xffff
004b30:  ffff  dw      0xffff
004b32:  ffff  dw      0xffff
004b34:  ffff  dw      0xffff
004b36:  ffff  dw      0xffff
004b38:  ffff  dw      0xffff
004b3a:  ffff  dw      0xffff
004b3c:  ffff  dw      0xffff
004b3e:  ffff  dw      0xffff
004b40:  ffff  dw      0xffff
004b42:  ffff  dw      0xffff
004b44:  ffff  dw      0xffff
004b46:  ffff  dw      0xffff
004b48:  ffff  dw      0xffff
004b4a:  ffff  dw      0xffff
004b4c:  ffff  dw      0xffff
004b4e:  ffff  dw      0xffff
004b50:  ffff  dw      0xffff
004b52:  ffff  dw      0xffff
004b54:  ffff  dw      0xffff
004b56:  ffff  dw      0xffff
004b58:  ffff  dw      0xffff
004b5a:  ffff  dw      0xffff
004b5c:  ffff  dw      0xffff
004b5e:  ffff  dw      0xffff
004b60:  ffff  dw      0xffff
004b62:  ffff  dw      0xffff
004b64:  ffff  dw      0xffff
004b66:  ffff  dw      0xffff
004b68:  ffff  dw      0xffff
004b6a:  ffff  dw      0xffff
004b6c:  ffff  dw      0xffff
004b6e:  ffff  dw      0xffff
004b70:  ffff  dw      0xffff
004b72:  ffff  dw      0xffff
004b74:  ffff  dw      0xffff
004b76:  ffff  dw      0xffff
004b78:  ffff  dw      0xffff
004b7a:  ffff  dw      0xffff
004b7c:  ffff  dw      0xffff
004b7e:  ffff  dw      0xffff
004b80:  ffff  dw      0xffff
004b82:  ffff  dw      0xffff
004b84:  ffff  dw      0xffff
004b86:  ffff  dw      0xffff
004b88:  ffff  dw      0xffff
004b8a:  ffff  dw      0xffff
004b8c:  ffff  dw      0xffff
004b8e:  ffff  dw      0xffff
004b90:  ffff  dw      0xffff
004b92:  ffff  dw      0xffff
004b94:  ffff  dw      0xffff
004b96:  ffff  dw      0xffff
004b98:  ffff  dw      0xffff
004b9a:  ffff  dw      0xffff
004b9c:  ffff  dw      0xffff
004b9e:  ffff  dw      0xffff
004ba0:  ffff  dw      0xffff
004ba2:  ffff  dw      0xffff
004ba4:  ffff  dw      0xffff
004ba6:  ffff  dw      0xffff
004ba8:  ffff  dw      0xffff
004baa:  ffff  dw      0xffff
004bac:  ffff  dw      0xffff
004bae:  ffff  dw      0xffff
004bb0:  ffff  dw      0xffff
004bb2:  ffff  dw      0xffff
004bb4:  ffff  dw      0xffff
004bb6:  ffff  dw      0xffff
004bb8:  ffff  dw      0xffff
004bba:  ffff  dw      0xffff
004bbc:  ffff  dw      0xffff
004bbe:  ffff  dw      0xffff
004bc0:  ffff  dw      0xffff
004bc2:  ffff  dw      0xffff
004bc4:  ffff  dw      0xffff
004bc6:  ffff  dw      0xffff
004bc8:  ffff  dw      0xffff
004bca:  ffff  dw      0xffff
004bcc:  ffff  dw      0xffff
004bce:  ffff  dw      0xffff
004bd0:  ffff  dw      0xffff
004bd2:  ffff  dw      0xffff
004bd4:  ffff  dw      0xffff
004bd6:  ffff  dw      0xffff
004bd8:  ffff  dw      0xffff
004bda:  ffff  dw      0xffff
004bdc:  ffff  dw      0xffff
004bde:  ffff  dw      0xffff
004be0:  ffff  dw      0xffff
004be2:  ffff  dw      0xffff
004be4:  ffff  dw      0xffff
004be6:  ffff  dw      0xffff
004be8:  ffff  dw      0xffff
004bea:  ffff  dw      0xffff
004bec:  ffff  dw      0xffff
004bee:  ffff  dw      0xffff
004bf0:  ffff  dw      0xffff
004bf2:  ffff  dw      0xffff
004bf4:  ffff  dw      0xffff
004bf6:  ffff  dw      0xffff
004bf8:  ffff  dw      0xffff
004bfa:  ffff  dw      0xffff
004bfc:  ffff  dw      0xffff
004bfe:  ffff  dw      0xffff
004c00:  ffff  dw      0xffff
004c02:  ffff  dw      0xffff
004c04:  ffff  dw      0xffff
004c06:  ffff  dw      0xffff
004c08:  ffff  dw      0xffff
004c0a:  ffff  dw      0xffff
004c0c:  ffff  dw      0xffff
004c0e:  ffff  dw      0xffff
004c10:  ffff  dw      0xffff
004c12:  ffff  dw      0xffff
004c14:  ffff  dw      0xffff
004c16:  ffff  dw      0xffff
004c18:  ffff  dw      0xffff
004c1a:  ffff  dw      0xffff
004c1c:  ffff  dw      0xffff
004c1e:  ffff  dw      0xffff
004c20:  ffff  dw      0xffff
004c22:  ffff  dw      0xffff
004c24:  ffff  dw      0xffff
004c26:  ffff  dw      0xffff
004c28:  ffff  dw      0xffff
004c2a:  ffff  dw      0xffff
004c2c:  ffff  dw      0xffff
004c2e:  ffff  dw      0xffff
004c30:  ffff  dw      0xffff
004c32:  ffff  dw      0xffff
004c34:  ffff  dw      0xffff
004c36:  ffff  dw      0xffff
004c38:  ffff  dw      0xffff
004c3a:  ffff  dw      0xffff
004c3c:  ffff  dw      0xffff
004c3e:  ffff  dw      0xffff
004c40:  ffff  dw      0xffff
004c42:  ffff  dw      0xffff
004c44:  ffff  dw      0xffff
004c46:  ffff  dw      0xffff
004c48:  ffff  dw      0xffff
004c4a:  ffff  dw      0xffff
004c4c:  ffff  dw      0xffff
004c4e:  ffff  dw      0xffff
004c50:  ffff  dw      0xffff
004c52:  ffff  dw      0xffff
004c54:  ffff  dw      0xffff
004c56:  ffff  dw      0xffff
004c58:  ffff  dw      0xffff
004c5a:  ffff  dw      0xffff
004c5c:  ffff  dw      0xffff
004c5e:  ffff  dw      0xffff
004c60:  ffff  dw      0xffff
004c62:  ffff  dw      0xffff
004c64:  ffff  dw      0xffff
004c66:  ffff  dw      0xffff
004c68:  ffff  dw      0xffff
004c6a:  ffff  dw      0xffff
004c6c:  ffff  dw      0xffff
004c6e:  ffff  dw      0xffff
004c70:  ffff  dw      0xffff
004c72:  ffff  dw      0xffff
004c74:  ffff  dw      0xffff
004c76:  ffff  dw      0xffff
004c78:  ffff  dw      0xffff
004c7a:  ffff  dw      0xffff
004c7c:  ffff  dw      0xffff
004c7e:  ffff  dw      0xffff
004c80:  ffff  dw      0xffff
004c82:  ffff  dw      0xffff
004c84:  ffff  dw      0xffff
004c86:  ffff  dw      0xffff
004c88:  ffff  dw      0xffff
004c8a:  ffff  dw      0xffff
004c8c:  ffff  dw      0xffff
004c8e:  ffff  dw      0xffff
004c90:  ffff  dw      0xffff
004c92:  ffff  dw      0xffff
004c94:  ffff  dw      0xffff
004c96:  ffff  dw      0xffff
004c98:  ffff  dw      0xffff
004c9a:  ffff  dw      0xffff
004c9c:  ffff  dw      0xffff
004c9e:  ffff  dw      0xffff
004ca0:  ffff  dw      0xffff
004ca2:  ffff  dw      0xffff
004ca4:  ffff  dw      0xffff
004ca6:  ffff  dw      0xffff
004ca8:  ffff  dw      0xffff
004caa:  ffff  dw      0xffff
004cac:  ffff  dw      0xffff
004cae:  ffff  dw      0xffff
004cb0:  ffff  dw      0xffff
004cb2:  ffff  dw      0xffff
004cb4:  ffff  dw      0xffff
004cb6:  ffff  dw      0xffff
004cb8:  ffff  dw      0xffff
004cba:  ffff  dw      0xffff
004cbc:  ffff  dw      0xffff
004cbe:  ffff  dw      0xffff
004cc0:  ffff  dw      0xffff
004cc2:  ffff  dw      0xffff
004cc4:  ffff  dw      0xffff
004cc6:  ffff  dw      0xffff
004cc8:  ffff  dw      0xffff
004cca:  ffff  dw      0xffff
004ccc:  ffff  dw      0xffff
004cce:  ffff  dw      0xffff
004cd0:  ffff  dw      0xffff
004cd2:  ffff  dw      0xffff
004cd4:  ffff  dw      0xffff
004cd6:  ffff  dw      0xffff
004cd8:  ffff  dw      0xffff
004cda:  ffff  dw      0xffff
004cdc:  ffff  dw      0xffff
004cde:  ffff  dw      0xffff
004ce0:  ffff  dw      0xffff
004ce2:  ffff  dw      0xffff
004ce4:  ffff  dw      0xffff
004ce6:  ffff  dw      0xffff
004ce8:  ffff  dw      0xffff
004cea:  ffff  dw      0xffff
004cec:  ffff  dw      0xffff
004cee:  ffff  dw      0xffff
004cf0:  ffff  dw      0xffff
004cf2:  ffff  dw      0xffff
004cf4:  ffff  dw      0xffff
004cf6:  ffff  dw      0xffff
004cf8:  ffff  dw      0xffff
004cfa:  ffff  dw      0xffff
004cfc:  ffff  dw      0xffff
004cfe:  ffff  dw      0xffff
004d00:  ffff  dw      0xffff
004d02:  ffff  dw      0xffff
004d04:  ffff  dw      0xffff
004d06:  ffff  dw      0xffff
004d08:  ffff  dw      0xffff
004d0a:  ffff  dw      0xffff
004d0c:  ffff  dw      0xffff
004d0e:  ffff  dw      0xffff
004d10:  ffff  dw      0xffff
004d12:  ffff  dw      0xffff
004d14:  ffff  dw      0xffff
004d16:  ffff  dw      0xffff
004d18:  ffff  dw      0xffff
004d1a:  ffff  dw      0xffff
004d1c:  ffff  dw      0xffff
004d1e:  ffff  dw      0xffff
004d20:  ffff  dw      0xffff
004d22:  ffff  dw      0xffff
004d24:  ffff  dw      0xffff
004d26:  ffff  dw      0xffff
004d28:  ffff  dw      0xffff
004d2a:  ffff  dw      0xffff
004d2c:  ffff  dw      0xffff
004d2e:  ffff  dw      0xffff
004d30:  ffff  dw      0xffff
004d32:  ffff  dw      0xffff
004d34:  ffff  dw      0xffff
004d36:  ffff  dw      0xffff
004d38:  ffff  dw      0xffff
004d3a:  ffff  dw      0xffff
004d3c:  ffff  dw      0xffff
004d3e:  ffff  dw      0xffff
004d40:  ffff  dw      0xffff
004d42:  ffff  dw      0xffff
004d44:  ffff  dw      0xffff
004d46:  ffff  dw      0xffff
004d48:  ffff  dw      0xffff
004d4a:  ffff  dw      0xffff
004d4c:  ffff  dw      0xffff
004d4e:  ffff  dw      0xffff
004d50:  ffff  dw      0xffff
004d52:  ffff  dw      0xffff
004d54:  ffff  dw      0xffff
004d56:  ffff  dw      0xffff
004d58:  ffff  dw      0xffff
004d5a:  ffff  dw      0xffff
004d5c:  ffff  dw      0xffff
004d5e:  ffff  dw      0xffff
004d60:  ffff  dw      0xffff
004d62:  ffff  dw      0xffff
004d64:  ffff  dw      0xffff
004d66:  ffff  dw      0xffff
004d68:  ffff  dw      0xffff
004d6a:  ffff  dw      0xffff
004d6c:  ffff  dw      0xffff
004d6e:  ffff  dw      0xffff
004d70:  ffff  dw      0xffff
004d72:  ffff  dw      0xffff
004d74:  ffff  dw      0xffff
004d76:  ffff  dw      0xffff
004d78:  ffff  dw      0xffff
004d7a:  ffff  dw      0xffff
004d7c:  ffff  dw      0xffff
004d7e:  ffff  dw      0xffff
004d80:  ffff  dw      0xffff
004d82:  ffff  dw      0xffff
004d84:  ffff  dw      0xffff
004d86:  ffff  dw      0xffff
004d88:  ffff  dw      0xffff
004d8a:  ffff  dw      0xffff
004d8c:  ffff  dw      0xffff
004d8e:  ffff  dw      0xffff
004d90:  ffff  dw      0xffff
004d92:  ffff  dw      0xffff
004d94:  ffff  dw      0xffff
004d96:  ffff  dw      0xffff
004d98:  ffff  dw      0xffff
004d9a:  ffff  dw      0xffff
004d9c:  ffff  dw      0xffff
004d9e:  ffff  dw      0xffff
004da0:  ffff  dw      0xffff
004da2:  ffff  dw      0xffff
004da4:  ffff  dw      0xffff
004da6:  ffff  dw      0xffff
004da8:  ffff  dw      0xffff
004daa:  ffff  dw      0xffff
004dac:  ffff  dw      0xffff
004dae:  ffff  dw      0xffff
004db0:  ffff  dw      0xffff
004db2:  ffff  dw      0xffff
004db4:  ffff  dw      0xffff
004db6:  ffff  dw      0xffff
004db8:  ffff  dw      0xffff
004dba:  ffff  dw      0xffff
004dbc:  ffff  dw      0xffff
004dbe:  ffff  dw      0xffff
004dc0:  ffff  dw      0xffff
004dc2:  ffff  dw      0xffff
004dc4:  ffff  dw      0xffff
004dc6:  ffff  dw      0xffff
004dc8:  ffff  dw      0xffff
004dca:  ffff  dw      0xffff
004dcc:  ffff  dw      0xffff
004dce:  ffff  dw      0xffff
004dd0:  ffff  dw      0xffff
004dd2:  ffff  dw      0xffff
004dd4:  ffff  dw      0xffff
004dd6:  ffff  dw      0xffff
004dd8:  ffff  dw      0xffff
004dda:  ffff  dw      0xffff
004ddc:  ffff  dw      0xffff
004dde:  ffff  dw      0xffff
004de0:  ffff  dw      0xffff
004de2:  ffff  dw      0xffff
004de4:  ffff  dw      0xffff
004de6:  ffff  dw      0xffff
004de8:  ffff  dw      0xffff
004dea:  ffff  dw      0xffff
004dec:  ffff  dw      0xffff
004dee:  ffff  dw      0xffff
004df0:  ffff  dw      0xffff
004df2:  ffff  dw      0xffff
004df4:  ffff  dw      0xffff
004df6:  ffff  dw      0xffff
004df8:  ffff  dw      0xffff
004dfa:  ffff  dw      0xffff
004dfc:  ffff  dw      0xffff
004dfe:  ffff  dw      0xffff
004e00:  ffff  dw      0xffff
004e02:  ffff  dw      0xffff
004e04:  ffff  dw      0xffff
004e06:  ffff  dw      0xffff
004e08:  ffff  dw      0xffff
004e0a:  ffff  dw      0xffff
004e0c:  ffff  dw      0xffff
004e0e:  ffff  dw      0xffff
004e10:  ffff  dw      0xffff
004e12:  ffff  dw      0xffff
004e14:  ffff  dw      0xffff
004e16:  ffff  dw      0xffff
004e18:  ffff  dw      0xffff
004e1a:  ffff  dw      0xffff
004e1c:  ffff  dw      0xffff
004e1e:  ffff  dw      0xffff
004e20:  ffff  dw      0xffff
004e22:  ffff  dw      0xffff
004e24:  ffff  dw      0xffff
004e26:  ffff  dw      0xffff
004e28:  ffff  dw      0xffff
004e2a:  ffff  dw      0xffff
004e2c:  ffff  dw      0xffff
004e2e:  ffff  dw      0xffff
004e30:  ffff  dw      0xffff
004e32:  ffff  dw      0xffff
004e34:  ffff  dw      0xffff
004e36:  ffff  dw      0xffff
004e38:  ffff  dw      0xffff
004e3a:  ffff  dw      0xffff
004e3c:  ffff  dw      0xffff
004e3e:  ffff  dw      0xffff
004e40:  ffff  dw      0xffff
004e42:  ffff  dw      0xffff
004e44:  ffff  dw      0xffff
004e46:  ffff  dw      0xffff
004e48:  ffff  dw      0xffff
004e4a:  ffff  dw      0xffff
004e4c:  ffff  dw      0xffff
004e4e:  ffff  dw      0xffff
004e50:  ffff  dw      0xffff
004e52:  ffff  dw      0xffff
004e54:  ffff  dw      0xffff
004e56:  ffff  dw      0xffff
004e58:  ffff  dw      0xffff
004e5a:  ffff  dw      0xffff
004e5c:  ffff  dw      0xffff
004e5e:  ffff  dw      0xffff
004e60:  ffff  dw      0xffff
004e62:  ffff  dw      0xffff
004e64:  ffff  dw      0xffff
004e66:  ffff  dw      0xffff
004e68:  ffff  dw      0xffff
004e6a:  ffff  dw      0xffff
004e6c:  ffff  dw      0xffff
004e6e:  ffff  dw      0xffff
004e70:  ffff  dw      0xffff
004e72:  ffff  dw      0xffff
004e74:  ffff  dw      0xffff
004e76:  ffff  dw      0xffff
004e78:  ffff  dw      0xffff
004e7a:  ffff  dw      0xffff
004e7c:  ffff  dw      0xffff
004e7e:  ffff  dw      0xffff
004e80:  ffff  dw      0xffff
004e82:  ffff  dw      0xffff
004e84:  ffff  dw      0xffff
004e86:  ffff  dw      0xffff
004e88:  ffff  dw      0xffff
004e8a:  ffff  dw      0xffff
004e8c:  ffff  dw      0xffff
004e8e:  ffff  dw      0xffff
004e90:  ffff  dw      0xffff
004e92:  ffff  dw      0xffff
004e94:  ffff  dw      0xffff
004e96:  ffff  dw      0xffff
004e98:  ffff  dw      0xffff
004e9a:  ffff  dw      0xffff
004e9c:  ffff  dw      0xffff
004e9e:  ffff  dw      0xffff
004ea0:  ffff  dw      0xffff
004ea2:  ffff  dw      0xffff
004ea4:  ffff  dw      0xffff
004ea6:  ffff  dw      0xffff
004ea8:  ffff  dw      0xffff
004eaa:  ffff  dw      0xffff
004eac:  ffff  dw      0xffff
004eae:  ffff  dw      0xffff
004eb0:  ffff  dw      0xffff
004eb2:  ffff  dw      0xffff
004eb4:  ffff  dw      0xffff
004eb6:  ffff  dw      0xffff
004eb8:  ffff  dw      0xffff
004eba:  ffff  dw      0xffff
004ebc:  ffff  dw      0xffff
004ebe:  ffff  dw      0xffff
004ec0:  ffff  dw      0xffff
004ec2:  ffff  dw      0xffff
004ec4:  ffff  dw      0xffff
004ec6:  ffff  dw      0xffff
004ec8:  ffff  dw      0xffff
004eca:  ffff  dw      0xffff
004ecc:  ffff  dw      0xffff
004ece:  ffff  dw      0xffff
004ed0:  ffff  dw      0xffff
004ed2:  ffff  dw      0xffff
004ed4:  ffff  dw      0xffff
004ed6:  ffff  dw      0xffff
004ed8:  ffff  dw      0xffff
004eda:  ffff  dw      0xffff
004edc:  ffff  dw      0xffff
004ede:  ffff  dw      0xffff
004ee0:  ffff  dw      0xffff
004ee2:  ffff  dw      0xffff
004ee4:  ffff  dw      0xffff
004ee6:  ffff  dw      0xffff
004ee8:  ffff  dw      0xffff
004eea:  ffff  dw      0xffff
004eec:  ffff  dw      0xffff
004eee:  ffff  dw      0xffff
004ef0:  ffff  dw      0xffff
004ef2:  ffff  dw      0xffff
004ef4:  ffff  dw      0xffff
004ef6:  ffff  dw      0xffff
004ef8:  ffff  dw      0xffff
004efa:  ffff  dw      0xffff
004efc:  ffff  dw      0xffff
004efe:  ffff  dw      0xffff
004f00:  ffff  dw      0xffff
004f02:  ffff  dw      0xffff
004f04:  ffff  dw      0xffff
004f06:  ffff  dw      0xffff
004f08:  ffff  dw      0xffff
004f0a:  ffff  dw      0xffff
004f0c:  ffff  dw      0xffff
004f0e:  ffff  dw      0xffff
004f10:  ffff  dw      0xffff
004f12:  ffff  dw      0xffff
004f14:  ffff  dw      0xffff
004f16:  ffff  dw      0xffff
004f18:  ffff  dw      0xffff
004f1a:  ffff  dw      0xffff
004f1c:  ffff  dw      0xffff
004f1e:  ffff  dw      0xffff
004f20:  ffff  dw      0xffff
004f22:  ffff  dw      0xffff
004f24:  ffff  dw      0xffff
004f26:  ffff  dw      0xffff
004f28:  ffff  dw      0xffff
004f2a:  ffff  dw      0xffff
004f2c:  ffff  dw      0xffff
004f2e:  ffff  dw      0xffff
004f30:  ffff  dw      0xffff
004f32:  ffff  dw      0xffff
004f34:  ffff  dw      0xffff
004f36:  ffff  dw      0xffff
004f38:  ffff  dw      0xffff
004f3a:  ffff  dw      0xffff
004f3c:  ffff  dw      0xffff
004f3e:  ffff  dw      0xffff
004f40:  ffff  dw      0xffff
004f42:  ffff  dw      0xffff
004f44:  ffff  dw      0xffff
004f46:  ffff  dw      0xffff
004f48:  ffff  dw      0xffff
004f4a:  ffff  dw      0xffff
004f4c:  ffff  dw      0xffff
004f4e:  ffff  dw      0xffff
004f50:  ffff  dw      0xffff
004f52:  ffff  dw      0xffff
004f54:  ffff  dw      0xffff
004f56:  ffff  dw      0xffff
004f58:  ffff  dw      0xffff
004f5a:  ffff  dw      0xffff
004f5c:  ffff  dw      0xffff
004f5e:  ffff  dw      0xffff
004f60:  ffff  dw      0xffff
004f62:  ffff  dw      0xffff
004f64:  ffff  dw      0xffff
004f66:  ffff  dw      0xffff
004f68:  ffff  dw      0xffff
004f6a:  ffff  dw      0xffff
004f6c:  ffff  dw      0xffff
004f6e:  ffff  dw      0xffff
004f70:  ffff  dw      0xffff
004f72:  ffff  dw      0xffff
004f74:  ffff  dw      0xffff
004f76:  ffff  dw      0xffff
004f78:  ffff  dw      0xffff
004f7a:  ffff  dw      0xffff
004f7c:  ffff  dw      0xffff
004f7e:  ffff  dw      0xffff
004f80:  ffff  dw      0xffff
004f82:  ffff  dw      0xffff
004f84:  ffff  dw      0xffff
004f86:  ffff  dw      0xffff
004f88:  ffff  dw      0xffff
004f8a:  ffff  dw      0xffff
004f8c:  ffff  dw      0xffff
004f8e:  ffff  dw      0xffff
004f90:  ffff  dw      0xffff
004f92:  ffff  dw      0xffff
004f94:  ffff  dw      0xffff
004f96:  ffff  dw      0xffff
004f98:  ffff  dw      0xffff
004f9a:  ffff  dw      0xffff
004f9c:  ffff  dw      0xffff
004f9e:  ffff  dw      0xffff
004fa0:  ffff  dw      0xffff
004fa2:  ffff  dw      0xffff
004fa4:  ffff  dw      0xffff
004fa6:  ffff  dw      0xffff
004fa8:  ffff  dw      0xffff
004faa:  ffff  dw      0xffff
004fac:  ffff  dw      0xffff
004fae:  ffff  dw      0xffff
004fb0:  ffff  dw      0xffff
004fb2:  ffff  dw      0xffff
004fb4:  ffff  dw      0xffff
004fb6:  ffff  dw      0xffff
004fb8:  ffff  dw      0xffff
004fba:  ffff  dw      0xffff
004fbc:  ffff  dw      0xffff
004fbe:  ffff  dw      0xffff
004fc0:  ffff  dw      0xffff
004fc2:  ffff  dw      0xffff
004fc4:  ffff  dw      0xffff
004fc6:  ffff  dw      0xffff
004fc8:  ffff  dw      0xffff
004fca:  ffff  dw      0xffff
004fcc:  ffff  dw      0xffff
004fce:  ffff  dw      0xffff
004fd0:  ffff  dw      0xffff
004fd2:  ffff  dw      0xffff
004fd4:  ffff  dw      0xffff
004fd6:  ffff  dw      0xffff
004fd8:  ffff  dw      0xffff
004fda:  ffff  dw      0xffff
004fdc:  ffff  dw      0xffff
004fde:  ffff  dw      0xffff
004fe0:  ffff  dw      0xffff
004fe2:  ffff  dw      0xffff
004fe4:  ffff  dw      0xffff
004fe6:  ffff  dw      0xffff
004fe8:  ffff  dw      0xffff
004fea:  ffff  dw      0xffff
004fec:  ffff  dw      0xffff
004fee:  ffff  dw      0xffff
004ff0:  ffff  dw      0xffff
004ff2:  ffff  dw      0xffff
004ff4:  ffff  dw      0xffff
004ff6:  ffff  dw      0xffff
004ff8:  ffff  dw      0xffff
004ffa:  ffff  dw      0xffff
004ffc:  ffff  dw      0xffff
004ffe:  ffff  dw      0xffff
005000:  ffff  dw      0xffff
005002:  ffff  dw      0xffff
005004:  ffff  dw      0xffff
005006:  ffff  dw      0xffff
005008:  ffff  dw      0xffff
00500a:  ffff  dw      0xffff
00500c:  ffff  dw      0xffff
00500e:  ffff  dw      0xffff
005010:  ffff  dw      0xffff
005012:  ffff  dw      0xffff
005014:  ffff  dw      0xffff
005016:  ffff  dw      0xffff
005018:  ffff  dw      0xffff
00501a:  ffff  dw      0xffff
00501c:  ffff  dw      0xffff
00501e:  ffff  dw      0xffff
005020:  ffff  dw      0xffff
005022:  ffff  dw      0xffff
005024:  ffff  dw      0xffff
005026:  ffff  dw      0xffff
005028:  ffff  dw      0xffff
00502a:  ffff  dw      0xffff
00502c:  ffff  dw      0xffff
00502e:  ffff  dw      0xffff
005030:  ffff  dw      0xffff
005032:  ffff  dw      0xffff
005034:  ffff  dw      0xffff
005036:  ffff  dw      0xffff
005038:  ffff  dw      0xffff
00503a:  ffff  dw      0xffff
00503c:  ffff  dw      0xffff
00503e:  ffff  dw      0xffff
005040:  ffff  dw      0xffff
005042:  ffff  dw      0xffff
005044:  ffff  dw      0xffff
005046:  ffff  dw      0xffff
005048:  ffff  dw      0xffff
00504a:  ffff  dw      0xffff
00504c:  ffff  dw      0xffff
00504e:  ffff  dw      0xffff
005050:  ffff  dw      0xffff
005052:  ffff  dw      0xffff
005054:  ffff  dw      0xffff
005056:  ffff  dw      0xffff
005058:  ffff  dw      0xffff
00505a:  ffff  dw      0xffff
00505c:  ffff  dw      0xffff
00505e:  ffff  dw      0xffff
005060:  ffff  dw      0xffff
005062:  ffff  dw      0xffff
005064:  ffff  dw      0xffff
005066:  ffff  dw      0xffff
005068:  ffff  dw      0xffff
00506a:  ffff  dw      0xffff
00506c:  ffff  dw      0xffff
00506e:  ffff  dw      0xffff
005070:  ffff  dw      0xffff
005072:  ffff  dw      0xffff
005074:  ffff  dw      0xffff
005076:  ffff  dw      0xffff
005078:  ffff  dw      0xffff
00507a:  ffff  dw      0xffff
00507c:  ffff  dw      0xffff
00507e:  ffff  dw      0xffff
005080:  ffff  dw      0xffff
005082:  ffff  dw      0xffff
005084:  ffff  dw      0xffff
005086:  ffff  dw      0xffff
005088:  ffff  dw      0xffff
00508a:  ffff  dw      0xffff
00508c:  ffff  dw      0xffff
00508e:  ffff  dw      0xffff
005090:  ffff  dw      0xffff
005092:  ffff  dw      0xffff
005094:  ffff  dw      0xffff
005096:  ffff  dw      0xffff
005098:  ffff  dw      0xffff
00509a:  ffff  dw      0xffff
00509c:  ffff  dw      0xffff
00509e:  ffff  dw      0xffff
0050a0:  ffff  dw      0xffff
0050a2:  ffff  dw      0xffff
0050a4:  ffff  dw      0xffff
0050a6:  ffff  dw      0xffff
0050a8:  ffff  dw      0xffff
0050aa:  ffff  dw      0xffff
0050ac:  ffff  dw      0xffff
0050ae:  ffff  dw      0xffff
0050b0:  ffff  dw      0xffff
0050b2:  ffff  dw      0xffff
0050b4:  ffff  dw      0xffff
0050b6:  ffff  dw      0xffff
0050b8:  ffff  dw      0xffff
0050ba:  ffff  dw      0xffff
0050bc:  ffff  dw      0xffff
0050be:  ffff  dw      0xffff
0050c0:  ffff  dw      0xffff
0050c2:  ffff  dw      0xffff
0050c4:  ffff  dw      0xffff
0050c6:  ffff  dw      0xffff
0050c8:  ffff  dw      0xffff
0050ca:  ffff  dw      0xffff
0050cc:  ffff  dw      0xffff
0050ce:  ffff  dw      0xffff
0050d0:  ffff  dw      0xffff
0050d2:  ffff  dw      0xffff
0050d4:  ffff  dw      0xffff
0050d6:  ffff  dw      0xffff
0050d8:  ffff  dw      0xffff
0050da:  ffff  dw      0xffff
0050dc:  ffff  dw      0xffff
0050de:  ffff  dw      0xffff
0050e0:  ffff  dw      0xffff
0050e2:  ffff  dw      0xffff
0050e4:  ffff  dw      0xffff
0050e6:  ffff  dw      0xffff
0050e8:  ffff  dw      0xffff
0050ea:  ffff  dw      0xffff
0050ec:  ffff  dw      0xffff
0050ee:  ffff  dw      0xffff
0050f0:  ffff  dw      0xffff
0050f2:  ffff  dw      0xffff
0050f4:  ffff  dw      0xffff
0050f6:  ffff  dw      0xffff
0050f8:  ffff  dw      0xffff
0050fa:  ffff  dw      0xffff
0050fc:  ffff  dw      0xffff
0050fe:  ffff  dw      0xffff
005100:  ffff  dw      0xffff
005102:  ffff  dw      0xffff
005104:  ffff  dw      0xffff
005106:  ffff  dw      0xffff
005108:  ffff  dw      0xffff
00510a:  ffff  dw      0xffff
00510c:  ffff  dw      0xffff
00510e:  ffff  dw      0xffff
005110:  ffff  dw      0xffff
005112:  ffff  dw      0xffff
005114:  ffff  dw      0xffff
005116:  ffff  dw      0xffff
005118:  ffff  dw      0xffff
00511a:  ffff  dw      0xffff
00511c:  ffff  dw      0xffff
00511e:  ffff  dw      0xffff
005120:  ffff  dw      0xffff
005122:  ffff  dw      0xffff
005124:  ffff  dw      0xffff
005126:  ffff  dw      0xffff
005128:  ffff  dw      0xffff
00512a:  ffff  dw      0xffff
00512c:  ffff  dw      0xffff
00512e:  ffff  dw      0xffff
005130:  ffff  dw      0xffff
005132:  ffff  dw      0xffff
005134:  ffff  dw      0xffff
005136:  ffff  dw      0xffff
005138:  ffff  dw      0xffff
00513a:  ffff  dw      0xffff
00513c:  ffff  dw      0xffff
00513e:  ffff  dw      0xffff
005140:  ffff  dw      0xffff
005142:  ffff  dw      0xffff
005144:  ffff  dw      0xffff
005146:  ffff  dw      0xffff
005148:  ffff  dw      0xffff
00514a:  ffff  dw      0xffff
00514c:  ffff  dw      0xffff
00514e:  ffff  dw      0xffff
005150:  ffff  dw      0xffff
005152:  ffff  dw      0xffff
005154:  ffff  dw      0xffff
005156:  ffff  dw      0xffff
005158:  ffff  dw      0xffff
00515a:  ffff  dw      0xffff
00515c:  ffff  dw      0xffff
00515e:  ffff  dw      0xffff
005160:  ffff  dw      0xffff
005162:  ffff  dw      0xffff
005164:  ffff  dw      0xffff
005166:  ffff  dw      0xffff
005168:  ffff  dw      0xffff
00516a:  ffff  dw      0xffff
00516c:  ffff  dw      0xffff
00516e:  ffff  dw      0xffff
005170:  ffff  dw      0xffff
005172:  ffff  dw      0xffff
005174:  ffff  dw      0xffff
005176:  ffff  dw      0xffff
005178:  ffff  dw      0xffff
00517a:  ffff  dw      0xffff
00517c:  ffff  dw      0xffff
00517e:  ffff  dw      0xffff
005180:  ffff  dw      0xffff
005182:  ffff  dw      0xffff
005184:  ffff  dw      0xffff
005186:  ffff  dw      0xffff
005188:  ffff  dw      0xffff
00518a:  ffff  dw      0xffff
00518c:  ffff  dw      0xffff
00518e:  ffff  dw      0xffff
005190:  ffff  dw      0xffff
005192:  ffff  dw      0xffff
005194:  ffff  dw      0xffff
005196:  ffff  dw      0xffff
005198:  ffff  dw      0xffff
00519a:  ffff  dw      0xffff
00519c:  ffff  dw      0xffff
00519e:  ffff  dw      0xffff
0051a0:  ffff  dw      0xffff
0051a2:  ffff  dw      0xffff
0051a4:  ffff  dw      0xffff
0051a6:  ffff  dw      0xffff
0051a8:  ffff  dw      0xffff
0051aa:  ffff  dw      0xffff
0051ac:  ffff  dw      0xffff
0051ae:  ffff  dw      0xffff
0051b0:  ffff  dw      0xffff
0051b2:  ffff  dw      0xffff
0051b4:  ffff  dw      0xffff
0051b6:  ffff  dw      0xffff
0051b8:  ffff  dw      0xffff
0051ba:  ffff  dw      0xffff
0051bc:  ffff  dw      0xffff
0051be:  ffff  dw      0xffff
0051c0:  ffff  dw      0xffff
0051c2:  ffff  dw      0xffff
0051c4:  ffff  dw      0xffff
0051c6:  ffff  dw      0xffff
0051c8:  ffff  dw      0xffff
0051ca:  ffff  dw      0xffff
0051cc:  ffff  dw      0xffff
0051ce:  ffff  dw      0xffff
0051d0:  ffff  dw      0xffff
0051d2:  ffff  dw      0xffff
0051d4:  ffff  dw      0xffff
0051d6:  ffff  dw      0xffff
0051d8:  ffff  dw      0xffff
0051da:  ffff  dw      0xffff
0051dc:  ffff  dw      0xffff
0051de:  ffff  dw      0xffff
0051e0:  ffff  dw      0xffff
0051e2:  ffff  dw      0xffff
0051e4:  ffff  dw      0xffff
0051e6:  ffff  dw      0xffff
0051e8:  ffff  dw      0xffff
0051ea:  ffff  dw      0xffff
0051ec:  ffff  dw      0xffff
0051ee:  ffff  dw      0xffff
0051f0:  ffff  dw      0xffff
0051f2:  ffff  dw      0xffff
0051f4:  ffff  dw      0xffff
0051f6:  ffff  dw      0xffff
0051f8:  ffff  dw      0xffff
0051fa:  ffff  dw      0xffff
0051fc:  ffff  dw      0xffff
0051fe:  ffff  dw      0xffff
005200:  ffff  dw      0xffff
005202:  ffff  dw      0xffff
005204:  ffff  dw      0xffff
005206:  ffff  dw      0xffff
005208:  ffff  dw      0xffff
00520a:  ffff  dw      0xffff
00520c:  ffff  dw      0xffff
00520e:  ffff  dw      0xffff
005210:  ffff  dw      0xffff
005212:  ffff  dw      0xffff
005214:  ffff  dw      0xffff
005216:  ffff  dw      0xffff
005218:  ffff  dw      0xffff
00521a:  ffff  dw      0xffff
00521c:  ffff  dw      0xffff
00521e:  ffff  dw      0xffff
005220:  ffff  dw      0xffff
005222:  ffff  dw      0xffff
005224:  ffff  dw      0xffff
005226:  ffff  dw      0xffff
005228:  ffff  dw      0xffff
00522a:  ffff  dw      0xffff
00522c:  ffff  dw      0xffff
00522e:  ffff  dw      0xffff
005230:  ffff  dw      0xffff
005232:  ffff  dw      0xffff
005234:  ffff  dw      0xffff
005236:  ffff  dw      0xffff
005238:  ffff  dw      0xffff
00523a:  ffff  dw      0xffff
00523c:  ffff  dw      0xffff
00523e:  ffff  dw      0xffff
005240:  ffff  dw      0xffff
005242:  ffff  dw      0xffff
005244:  ffff  dw      0xffff
005246:  ffff  dw      0xffff
005248:  ffff  dw      0xffff
00524a:  ffff  dw      0xffff
00524c:  ffff  dw      0xffff
00524e:  ffff  dw      0xffff
005250:  ffff  dw      0xffff
005252:  ffff  dw      0xffff
005254:  ffff  dw      0xffff
005256:  ffff  dw      0xffff
005258:  ffff  dw      0xffff
00525a:  ffff  dw      0xffff
00525c:  ffff  dw      0xffff
00525e:  ffff  dw      0xffff
005260:  ffff  dw      0xffff
005262:  ffff  dw      0xffff
005264:  ffff  dw      0xffff
005266:  ffff  dw      0xffff
005268:  ffff  dw      0xffff
00526a:  ffff  dw      0xffff
00526c:  ffff  dw      0xffff
00526e:  ffff  dw      0xffff
005270:  ffff  dw      0xffff
005272:  ffff  dw      0xffff
005274:  ffff  dw      0xffff
005276:  ffff  dw      0xffff
005278:  ffff  dw      0xffff
00527a:  ffff  dw      0xffff
00527c:  ffff  dw      0xffff
00527e:  ffff  dw      0xffff
005280:  ffff  dw      0xffff
005282:  ffff  dw      0xffff
005284:  ffff  dw      0xffff
005286:  ffff  dw      0xffff
005288:  ffff  dw      0xffff
00528a:  ffff  dw      0xffff
00528c:  ffff  dw      0xffff
00528e:  ffff  dw      0xffff
005290:  ffff  dw      0xffff
005292:  ffff  dw      0xffff
005294:  ffff  dw      0xffff
005296:  ffff  dw      0xffff
005298:  ffff  dw      0xffff
00529a:  ffff  dw      0xffff
00529c:  ffff  dw      0xffff
00529e:  ffff  dw      0xffff
0052a0:  ffff  dw      0xffff
0052a2:  ffff  dw      0xffff
0052a4:  ffff  dw      0xffff
0052a6:  ffff  dw      0xffff
0052a8:  ffff  dw      0xffff
0052aa:  ffff  dw      0xffff
0052ac:  ffff  dw      0xffff
0052ae:  ffff  dw      0xffff
0052b0:  ffff  dw      0xffff
0052b2:  ffff  dw      0xffff
0052b4:  ffff  dw      0xffff
0052b6:  ffff  dw      0xffff
0052b8:  ffff  dw      0xffff
0052ba:  ffff  dw      0xffff
0052bc:  ffff  dw      0xffff
0052be:  ffff  dw      0xffff
0052c0:  ffff  dw      0xffff
0052c2:  ffff  dw      0xffff
0052c4:  ffff  dw      0xffff
0052c6:  ffff  dw      0xffff
0052c8:  ffff  dw      0xffff
0052ca:  ffff  dw      0xffff
0052cc:  ffff  dw      0xffff
0052ce:  ffff  dw      0xffff
0052d0:  ffff  dw      0xffff
0052d2:  ffff  dw      0xffff
0052d4:  ffff  dw      0xffff
0052d6:  ffff  dw      0xffff
0052d8:  ffff  dw      0xffff
0052da:  ffff  dw      0xffff
0052dc:  ffff  dw      0xffff
0052de:  ffff  dw      0xffff
0052e0:  ffff  dw      0xffff
0052e2:  ffff  dw      0xffff
0052e4:  ffff  dw      0xffff
0052e6:  ffff  dw      0xffff
0052e8:  ffff  dw      0xffff
0052ea:  ffff  dw      0xffff
0052ec:  ffff  dw      0xffff
0052ee:  ffff  dw      0xffff
0052f0:  ffff  dw      0xffff
0052f2:  ffff  dw      0xffff
0052f4:  ffff  dw      0xffff
0052f6:  ffff  dw      0xffff
0052f8:  ffff  dw      0xffff
0052fa:  ffff  dw      0xffff
0052fc:  ffff  dw      0xffff
0052fe:  ffff  dw      0xffff
005300:  ffff  dw      0xffff
005302:  ffff  dw      0xffff
005304:  ffff  dw      0xffff
005306:  ffff  dw      0xffff
005308:  ffff  dw      0xffff
00530a:  ffff  dw      0xffff
00530c:  ffff  dw      0xffff
00530e:  ffff  dw      0xffff
005310:  ffff  dw      0xffff
005312:  ffff  dw      0xffff
005314:  ffff  dw      0xffff
005316:  ffff  dw      0xffff
005318:  ffff  dw      0xffff
00531a:  ffff  dw      0xffff
00531c:  ffff  dw      0xffff
00531e:  ffff  dw      0xffff
005320:  ffff  dw      0xffff
005322:  ffff  dw      0xffff
005324:  ffff  dw      0xffff
005326:  ffff  dw      0xffff
005328:  ffff  dw      0xffff
00532a:  ffff  dw      0xffff
00532c:  ffff  dw      0xffff
00532e:  ffff  dw      0xffff
005330:  ffff  dw      0xffff
005332:  ffff  dw      0xffff
005334:  ffff  dw      0xffff
005336:  ffff  dw      0xffff
005338:  ffff  dw      0xffff
00533a:  ffff  dw      0xffff
00533c:  ffff  dw      0xffff
00533e:  ffff  dw      0xffff
005340:  ffff  dw      0xffff
005342:  ffff  dw      0xffff
005344:  ffff  dw      0xffff
005346:  ffff  dw      0xffff
005348:  ffff  dw      0xffff
00534a:  ffff  dw      0xffff
00534c:  ffff  dw      0xffff
00534e:  ffff  dw      0xffff
005350:  ffff  dw      0xffff
005352:  ffff  dw      0xffff
005354:  ffff  dw      0xffff
005356:  ffff  dw      0xffff
005358:  ffff  dw      0xffff
00535a:  ffff  dw      0xffff
00535c:  ffff  dw      0xffff
00535e:  ffff  dw      0xffff
005360:  ffff  dw      0xffff
005362:  ffff  dw      0xffff
005364:  ffff  dw      0xffff
005366:  ffff  dw      0xffff
005368:  ffff  dw      0xffff
00536a:  ffff  dw      0xffff
00536c:  ffff  dw      0xffff
00536e:  ffff  dw      0xffff
005370:  ffff  dw      0xffff
005372:  ffff  dw      0xffff
005374:  ffff  dw      0xffff
005376:  ffff  dw      0xffff
005378:  ffff  dw      0xffff
00537a:  ffff  dw      0xffff
00537c:  ffff  dw      0xffff
00537e:  ffff  dw      0xffff
005380:  ffff  dw      0xffff
005382:  ffff  dw      0xffff
005384:  ffff  dw      0xffff
005386:  ffff  dw      0xffff
005388:  ffff  dw      0xffff
00538a:  ffff  dw      0xffff
00538c:  ffff  dw      0xffff
00538e:  ffff  dw      0xffff
005390:  ffff  dw      0xffff
005392:  ffff  dw      0xffff
005394:  ffff  dw      0xffff
005396:  ffff  dw      0xffff
005398:  ffff  dw      0xffff
00539a:  ffff  dw      0xffff
00539c:  ffff  dw      0xffff
00539e:  ffff  dw      0xffff
0053a0:  ffff  dw      0xffff
0053a2:  ffff  dw      0xffff
0053a4:  ffff  dw      0xffff
0053a6:  ffff  dw      0xffff
0053a8:  ffff  dw      0xffff
0053aa:  ffff  dw      0xffff
0053ac:  ffff  dw      0xffff
0053ae:  ffff  dw      0xffff
0053b0:  ffff  dw      0xffff
0053b2:  ffff  dw      0xffff
0053b4:  ffff  dw      0xffff
0053b6:  ffff  dw      0xffff
0053b8:  ffff  dw      0xffff
0053ba:  ffff  dw      0xffff
0053bc:  ffff  dw      0xffff
0053be:  ffff  dw      0xffff
0053c0:  ffff  dw      0xffff
0053c2:  ffff  dw      0xffff
0053c4:  ffff  dw      0xffff
0053c6:  ffff  dw      0xffff
0053c8:  ffff  dw      0xffff
0053ca:  ffff  dw      0xffff
0053cc:  ffff  dw      0xffff
0053ce:  ffff  dw      0xffff
0053d0:  ffff  dw      0xffff
0053d2:  ffff  dw      0xffff
0053d4:  ffff  dw      0xffff
0053d6:  ffff  dw      0xffff
0053d8:  ffff  dw      0xffff
0053da:  ffff  dw      0xffff
0053dc:  ffff  dw      0xffff
0053de:  ffff  dw      0xffff
0053e0:  ffff  dw      0xffff
0053e2:  ffff  dw      0xffff
0053e4:  ffff  dw      0xffff
0053e6:  ffff  dw      0xffff
0053e8:  ffff  dw      0xffff
0053ea:  ffff  dw      0xffff
0053ec:  ffff  dw      0xffff
0053ee:  ffff  dw      0xffff
0053f0:  ffff  dw      0xffff
0053f2:  ffff  dw      0xffff
0053f4:  ffff  dw      0xffff
0053f6:  ffff  dw      0xffff
0053f8:  ffff  dw      0xffff
0053fa:  ffff  dw      0xffff
0053fc:  ffff  dw      0xffff
0053fe:  ffff  dw      0xffff
005400:  ffff  dw      0xffff
005402:  ffff  dw      0xffff
005404:  ffff  dw      0xffff
005406:  ffff  dw      0xffff
005408:  ffff  dw      0xffff
00540a:  ffff  dw      0xffff
00540c:  ffff  dw      0xffff
00540e:  ffff  dw      0xffff
005410:  ffff  dw      0xffff
005412:  ffff  dw      0xffff
005414:  ffff  dw      0xffff
005416:  ffff  dw      0xffff
005418:  ffff  dw      0xffff
00541a:  ffff  dw      0xffff
00541c:  ffff  dw      0xffff
00541e:  ffff  dw      0xffff
005420:  ffff  dw      0xffff
005422:  ffff  dw      0xffff
005424:  ffff  dw      0xffff
005426:  ffff  dw      0xffff
005428:  ffff  dw      0xffff
00542a:  ffff  dw      0xffff
00542c:  ffff  dw      0xffff
00542e:  ffff  dw      0xffff
005430:  ffff  dw      0xffff
005432:  ffff  dw      0xffff
005434:  ffff  dw      0xffff
005436:  ffff  dw      0xffff
005438:  ffff  dw      0xffff
00543a:  ffff  dw      0xffff
00543c:  ffff  dw      0xffff
00543e:  ffff  dw      0xffff
005440:  ffff  dw      0xffff
005442:  ffff  dw      0xffff
005444:  ffff  dw      0xffff
005446:  ffff  dw      0xffff
005448:  ffff  dw      0xffff
00544a:  ffff  dw      0xffff
00544c:  ffff  dw      0xffff
00544e:  ffff  dw      0xffff
005450:  ffff  dw      0xffff
005452:  ffff  dw      0xffff
005454:  ffff  dw      0xffff
005456:  ffff  dw      0xffff
005458:  ffff  dw      0xffff
00545a:  ffff  dw      0xffff
00545c:  ffff  dw      0xffff
00545e:  ffff  dw      0xffff
005460:  ffff  dw      0xffff
005462:  ffff  dw      0xffff
005464:  ffff  dw      0xffff
005466:  ffff  dw      0xffff
005468:  ffff  dw      0xffff
00546a:  ffff  dw      0xffff
00546c:  ffff  dw      0xffff
00546e:  ffff  dw      0xffff
005470:  ffff  dw      0xffff
005472:  ffff  dw      0xffff
005474:  ffff  dw      0xffff
005476:  ffff  dw      0xffff
005478:  ffff  dw      0xffff
00547a:  ffff  dw      0xffff
00547c:  ffff  dw      0xffff
00547e:  ffff  dw      0xffff
005480:  ffff  dw      0xffff
005482:  ffff  dw      0xffff
005484:  ffff  dw      0xffff
005486:  ffff  dw      0xffff
005488:  ffff  dw      0xffff
00548a:  ffff  dw      0xffff
00548c:  ffff  dw      0xffff
00548e:  ffff  dw      0xffff
005490:  ffff  dw      0xffff
005492:  ffff  dw      0xffff
005494:  ffff  dw      0xffff
005496:  ffff  dw      0xffff
005498:  ffff  dw      0xffff
00549a:  ffff  dw      0xffff
00549c:  ffff  dw      0xffff
00549e:  ffff  dw      0xffff
0054a0:  ffff  dw      0xffff
0054a2:  ffff  dw      0xffff
0054a4:  ffff  dw      0xffff
0054a6:  ffff  dw      0xffff
0054a8:  ffff  dw      0xffff
0054aa:  ffff  dw      0xffff
0054ac:  ffff  dw      0xffff
0054ae:  ffff  dw      0xffff
0054b0:  ffff  dw      0xffff
0054b2:  ffff  dw      0xffff
0054b4:  ffff  dw      0xffff
0054b6:  ffff  dw      0xffff
0054b8:  ffff  dw      0xffff
0054ba:  ffff  dw      0xffff
0054bc:  ffff  dw      0xffff
0054be:  ffff  dw      0xffff
0054c0:  ffff  dw      0xffff
0054c2:  ffff  dw      0xffff
0054c4:  ffff  dw      0xffff
0054c6:  ffff  dw      0xffff
0054c8:  ffff  dw      0xffff
0054ca:  ffff  dw      0xffff
0054cc:  ffff  dw      0xffff
0054ce:  ffff  dw      0xffff
0054d0:  ffff  dw      0xffff
0054d2:  ffff  dw      0xffff
0054d4:  ffff  dw      0xffff
0054d6:  ffff  dw      0xffff
0054d8:  ffff  dw      0xffff
0054da:  ffff  dw      0xffff
0054dc:  ffff  dw      0xffff
0054de:  ffff  dw      0xffff
0054e0:  ffff  dw      0xffff
0054e2:  ffff  dw      0xffff
0054e4:  ffff  dw      0xffff
0054e6:  ffff  dw      0xffff
0054e8:  ffff  dw      0xffff
0054ea:  ffff  dw      0xffff
0054ec:  ffff  dw      0xffff
0054ee:  ffff  dw      0xffff
0054f0:  ffff  dw      0xffff
0054f2:  ffff  dw      0xffff
0054f4:  ffff  dw      0xffff
0054f6:  ffff  dw      0xffff
0054f8:  ffff  dw      0xffff
0054fa:  ffff  dw      0xffff
0054fc:  ffff  dw      0xffff
0054fe:  ffff  dw      0xffff
005500:  ffff  dw      0xffff
005502:  ffff  dw      0xffff
005504:  ffff  dw      0xffff
005506:  ffff  dw      0xffff
005508:  ffff  dw      0xffff
00550a:  ffff  dw      0xffff
00550c:  ffff  dw      0xffff
00550e:  ffff  dw      0xffff
005510:  ffff  dw      0xffff
005512:  ffff  dw      0xffff
005514:  ffff  dw      0xffff
005516:  ffff  dw      0xffff
005518:  ffff  dw      0xffff
00551a:  ffff  dw      0xffff
00551c:  ffff  dw      0xffff
00551e:  ffff  dw      0xffff
005520:  ffff  dw      0xffff
005522:  ffff  dw      0xffff
005524:  ffff  dw      0xffff
005526:  ffff  dw      0xffff
005528:  ffff  dw      0xffff
00552a:  ffff  dw      0xffff
00552c:  ffff  dw      0xffff
00552e:  ffff  dw      0xffff
005530:  ffff  dw      0xffff
005532:  ffff  dw      0xffff
005534:  ffff  dw      0xffff
005536:  ffff  dw      0xffff
005538:  ffff  dw      0xffff
00553a:  ffff  dw      0xffff
00553c:  ffff  dw      0xffff
00553e:  ffff  dw      0xffff
005540:  ffff  dw      0xffff
005542:  ffff  dw      0xffff
005544:  ffff  dw      0xffff
005546:  ffff  dw      0xffff
005548:  ffff  dw      0xffff
00554a:  ffff  dw      0xffff
00554c:  ffff  dw      0xffff
00554e:  ffff  dw      0xffff
005550:  ffff  dw      0xffff
005552:  ffff  dw      0xffff
005554:  ffff  dw      0xffff
005556:  ffff  dw      0xffff
005558:  ffff  dw      0xffff
00555a:  ffff  dw      0xffff
00555c:  ffff  dw      0xffff
00555e:  ffff  dw      0xffff
005560:  ffff  dw      0xffff
005562:  ffff  dw      0xffff
005564:  ffff  dw      0xffff
005566:  ffff  dw      0xffff
005568:  ffff  dw      0xffff
00556a:  ffff  dw      0xffff
00556c:  ffff  dw      0xffff
00556e:  ffff  dw      0xffff
005570:  ffff  dw      0xffff
005572:  ffff  dw      0xffff
005574:  ffff  dw      0xffff
005576:  ffff  dw      0xffff
005578:  ffff  dw      0xffff
00557a:  ffff  dw      0xffff
00557c:  ffff  dw      0xffff
00557e:  ffff  dw      0xffff
005580:  ffff  dw      0xffff
005582:  ffff  dw      0xffff
005584:  ffff  dw      0xffff
005586:  ffff  dw      0xffff
005588:  ffff  dw      0xffff
00558a:  ffff  dw      0xffff
00558c:  ffff  dw      0xffff
00558e:  ffff  dw      0xffff
005590:  ffff  dw      0xffff
005592:  ffff  dw      0xffff
005594:  ffff  dw      0xffff
005596:  ffff  dw      0xffff
005598:  ffff  dw      0xffff
00559a:  ffff  dw      0xffff
00559c:  ffff  dw      0xffff
00559e:  ffff  dw      0xffff
0055a0:  ffff  dw      0xffff
0055a2:  ffff  dw      0xffff
0055a4:  ffff  dw      0xffff
0055a6:  ffff  dw      0xffff
0055a8:  ffff  dw      0xffff
0055aa:  ffff  dw      0xffff
0055ac:  ffff  dw      0xffff
0055ae:  ffff  dw      0xffff
0055b0:  ffff  dw      0xffff
0055b2:  ffff  dw      0xffff
0055b4:  ffff  dw      0xffff
0055b6:  ffff  dw      0xffff
0055b8:  ffff  dw      0xffff
0055ba:  ffff  dw      0xffff
0055bc:  ffff  dw      0xffff
0055be:  ffff  dw      0xffff
0055c0:  ffff  dw      0xffff
0055c2:  ffff  dw      0xffff
0055c4:  ffff  dw      0xffff
0055c6:  ffff  dw      0xffff
0055c8:  ffff  dw      0xffff
0055ca:  ffff  dw      0xffff
0055cc:  ffff  dw      0xffff
0055ce:  ffff  dw      0xffff
0055d0:  ffff  dw      0xffff
0055d2:  ffff  dw      0xffff
0055d4:  ffff  dw      0xffff
0055d6:  ffff  dw      0xffff
0055d8:  ffff  dw      0xffff
0055da:  ffff  dw      0xffff
0055dc:  ffff  dw      0xffff
0055de:  ffff  dw      0xffff
0055e0:  ffff  dw      0xffff
0055e2:  ffff  dw      0xffff
0055e4:  ffff  dw      0xffff
0055e6:  ffff  dw      0xffff
0055e8:  ffff  dw      0xffff
0055ea:  ffff  dw      0xffff
0055ec:  ffff  dw      0xffff
0055ee:  ffff  dw      0xffff
0055f0:  ffff  dw      0xffff
0055f2:  ffff  dw      0xffff
0055f4:  ffff  dw      0xffff
0055f6:  ffff  dw      0xffff
0055f8:  ffff  dw      0xffff
0055fa:  ffff  dw      0xffff
0055fc:  ffff  dw      0xffff
0055fe:  ffff  dw      0xffff
005600:  ffff  dw      0xffff
005602:  ffff  dw      0xffff
005604:  ffff  dw      0xffff
005606:  ffff  dw      0xffff
005608:  ffff  dw      0xffff
00560a:  ffff  dw      0xffff
00560c:  ffff  dw      0xffff
00560e:  ffff  dw      0xffff
005610:  ffff  dw      0xffff
005612:  ffff  dw      0xffff
005614:  ffff  dw      0xffff
005616:  ffff  dw      0xffff
005618:  ffff  dw      0xffff
00561a:  ffff  dw      0xffff
00561c:  ffff  dw      0xffff
00561e:  ffff  dw      0xffff
005620:  ffff  dw      0xffff
005622:  ffff  dw      0xffff
005624:  ffff  dw      0xffff
005626:  ffff  dw      0xffff
005628:  ffff  dw      0xffff
00562a:  ffff  dw      0xffff
00562c:  ffff  dw      0xffff
00562e:  ffff  dw      0xffff
005630:  ffff  dw      0xffff
005632:  ffff  dw      0xffff
005634:  ffff  dw      0xffff
005636:  ffff  dw      0xffff
005638:  ffff  dw      0xffff
00563a:  ffff  dw      0xffff
00563c:  ffff  dw      0xffff
00563e:  ffff  dw      0xffff
005640:  ffff  dw      0xffff
005642:  ffff  dw      0xffff
005644:  ffff  dw      0xffff
005646:  ffff  dw      0xffff
005648:  ffff  dw      0xffff
00564a:  ffff  dw      0xffff
00564c:  ffff  dw      0xffff
00564e:  ffff  dw      0xffff
005650:  ffff  dw      0xffff
005652:  ffff  dw      0xffff
005654:  ffff  dw      0xffff
005656:  ffff  dw      0xffff
005658:  ffff  dw      0xffff
00565a:  ffff  dw      0xffff
00565c:  ffff  dw      0xffff
00565e:  ffff  dw      0xffff
005660:  ffff  dw      0xffff
005662:  ffff  dw      0xffff
005664:  ffff  dw      0xffff
005666:  ffff  dw      0xffff
005668:  ffff  dw      0xffff
00566a:  ffff  dw      0xffff
00566c:  ffff  dw      0xffff
00566e:  ffff  dw      0xffff
005670:  ffff  dw      0xffff
005672:  ffff  dw      0xffff
005674:  ffff  dw      0xffff
005676:  ffff  dw      0xffff
005678:  ffff  dw      0xffff
00567a:  ffff  dw      0xffff
00567c:  ffff  dw      0xffff
00567e:  ffff  dw      0xffff
005680:  ffff  dw      0xffff
005682:  ffff  dw      0xffff
005684:  ffff  dw      0xffff
005686:  ffff  dw      0xffff
005688:  ffff  dw      0xffff
00568a:  ffff  dw      0xffff
00568c:  ffff  dw      0xffff
00568e:  ffff  dw      0xffff
005690:  ffff  dw      0xffff
005692:  ffff  dw      0xffff
005694:  ffff  dw      0xffff
005696:  ffff  dw      0xffff
005698:  ffff  dw      0xffff
00569a:  ffff  dw      0xffff
00569c:  ffff  dw      0xffff
00569e:  ffff  dw      0xffff
0056a0:  ffff  dw      0xffff
0056a2:  ffff  dw      0xffff
0056a4:  ffff  dw      0xffff
0056a6:  ffff  dw      0xffff
0056a8:  ffff  dw      0xffff
0056aa:  ffff  dw      0xffff
0056ac:  ffff  dw      0xffff
0056ae:  ffff  dw      0xffff
0056b0:  ffff  dw      0xffff
0056b2:  ffff  dw      0xffff
0056b4:  ffff  dw      0xffff
0056b6:  ffff  dw      0xffff
0056b8:  ffff  dw      0xffff
0056ba:  ffff  dw      0xffff
0056bc:  ffff  dw      0xffff
0056be:  ffff  dw      0xffff
0056c0:  ffff  dw      0xffff
0056c2:  ffff  dw      0xffff
0056c4:  ffff  dw      0xffff
0056c6:  ffff  dw      0xffff
0056c8:  ffff  dw      0xffff
0056ca:  ffff  dw      0xffff
0056cc:  ffff  dw      0xffff
0056ce:  ffff  dw      0xffff
0056d0:  ffff  dw      0xffff
0056d2:  ffff  dw      0xffff
0056d4:  ffff  dw      0xffff
0056d6:  ffff  dw      0xffff
0056d8:  ffff  dw      0xffff
0056da:  ffff  dw      0xffff
0056dc:  ffff  dw      0xffff
0056de:  ffff  dw      0xffff
0056e0:  ffff  dw      0xffff
0056e2:  ffff  dw      0xffff
0056e4:  ffff  dw      0xffff
0056e6:  ffff  dw      0xffff
0056e8:  ffff  dw      0xffff
0056ea:  ffff  dw      0xffff
0056ec:  ffff  dw      0xffff
0056ee:  ffff  dw      0xffff
0056f0:  ffff  dw      0xffff
0056f2:  ffff  dw      0xffff
0056f4:  ffff  dw      0xffff
0056f6:  ffff  dw      0xffff
0056f8:  ffff  dw      0xffff
0056fa:  ffff  dw      0xffff
0056fc:  ffff  dw      0xffff
0056fe:  ffff  dw      0xffff
005700:  ffff  dw      0xffff
005702:  ffff  dw      0xffff
005704:  ffff  dw      0xffff
005706:  ffff  dw      0xffff
005708:  ffff  dw      0xffff
00570a:  ffff  dw      0xffff
00570c:  ffff  dw      0xffff
00570e:  ffff  dw      0xffff
005710:  ffff  dw      0xffff
005712:  ffff  dw      0xffff
005714:  ffff  dw      0xffff
005716:  ffff  dw      0xffff
005718:  ffff  dw      0xffff
00571a:  ffff  dw      0xffff
00571c:  ffff  dw      0xffff
00571e:  ffff  dw      0xffff
005720:  ffff  dw      0xffff
005722:  ffff  dw      0xffff
005724:  ffff  dw      0xffff
005726:  ffff  dw      0xffff
005728:  ffff  dw      0xffff
00572a:  ffff  dw      0xffff
00572c:  ffff  dw      0xffff
00572e:  ffff  dw      0xffff
005730:  ffff  dw      0xffff
005732:  ffff  dw      0xffff
005734:  ffff  dw      0xffff
005736:  ffff  dw      0xffff
005738:  ffff  dw      0xffff
00573a:  ffff  dw      0xffff
00573c:  ffff  dw      0xffff
00573e:  ffff  dw      0xffff
005740:  ffff  dw      0xffff
005742:  ffff  dw      0xffff
005744:  ffff  dw      0xffff
005746:  ffff  dw      0xffff
005748:  ffff  dw      0xffff
00574a:  ffff  dw      0xffff
00574c:  ffff  dw      0xffff
00574e:  ffff  dw      0xffff
005750:  ffff  dw      0xffff
005752:  ffff  dw      0xffff
005754:  ffff  dw      0xffff
005756:  ffff  dw      0xffff
005758:  ffff  dw      0xffff
00575a:  ffff  dw      0xffff
00575c:  ffff  dw      0xffff
00575e:  ffff  dw      0xffff
005760:  ffff  dw      0xffff
005762:  ffff  dw      0xffff
005764:  ffff  dw      0xffff
005766:  ffff  dw      0xffff
005768:  ffff  dw      0xffff
00576a:  ffff  dw      0xffff
00576c:  ffff  dw      0xffff
00576e:  ffff  dw      0xffff
005770:  ffff  dw      0xffff
005772:  ffff  dw      0xffff
005774:  ffff  dw      0xffff
005776:  ffff  dw      0xffff
005778:  ffff  dw      0xffff
00577a:  ffff  dw      0xffff
00577c:  ffff  dw      0xffff
00577e:  ffff  dw      0xffff
005780:  ffff  dw      0xffff
005782:  ffff  dw      0xffff
005784:  ffff  dw      0xffff
005786:  ffff  dw      0xffff
005788:  ffff  dw      0xffff
00578a:  ffff  dw      0xffff
00578c:  ffff  dw      0xffff
00578e:  ffff  dw      0xffff
005790:  ffff  dw      0xffff
005792:  ffff  dw      0xffff
005794:  ffff  dw      0xffff
005796:  ffff  dw      0xffff
005798:  ffff  dw      0xffff
00579a:  ffff  dw      0xffff
00579c:  ffff  dw      0xffff
00579e:  ffff  dw      0xffff
0057a0:  ffff  dw      0xffff
0057a2:  ffff  dw      0xffff
0057a4:  ffff  dw      0xffff
0057a6:  ffff  dw      0xffff
0057a8:  ffff  dw      0xffff
0057aa:  ffff  dw      0xffff
0057ac:  ffff  dw      0xffff
0057ae:  ffff  dw      0xffff
0057b0:  ffff  dw      0xffff
0057b2:  ffff  dw      0xffff
0057b4:  ffff  dw      0xffff
0057b6:  ffff  dw      0xffff
0057b8:  ffff  dw      0xffff
0057ba:  ffff  dw      0xffff
0057bc:  ffff  dw      0xffff
0057be:  ffff  dw      0xffff
0057c0:  ffff  dw      0xffff
0057c2:  ffff  dw      0xffff
0057c4:  ffff  dw      0xffff
0057c6:  ffff  dw      0xffff
0057c8:  ffff  dw      0xffff
0057ca:  ffff  dw      0xffff
0057cc:  ffff  dw      0xffff
0057ce:  ffff  dw      0xffff
0057d0:  ffff  dw      0xffff
0057d2:  ffff  dw      0xffff
0057d4:  ffff  dw      0xffff
0057d6:  ffff  dw      0xffff
0057d8:  ffff  dw      0xffff
0057da:  ffff  dw      0xffff
0057dc:  ffff  dw      0xffff
0057de:  ffff  dw      0xffff
0057e0:  ffff  dw      0xffff
0057e2:  ffff  dw      0xffff
0057e4:  ffff  dw      0xffff
0057e6:  ffff  dw      0xffff
0057e8:  ffff  dw      0xffff
0057ea:  ffff  dw      0xffff
0057ec:  ffff  dw      0xffff
0057ee:  ffff  dw      0xffff
0057f0:  ffff  dw      0xffff
0057f2:  ffff  dw      0xffff
0057f4:  ffff  dw      0xffff
0057f6:  ffff  dw      0xffff
0057f8:  ffff  dw      0xffff
0057fa:  ffff  dw      0xffff
0057fc:  ffff  dw      0xffff
0057fe:  ffff  dw      0xffff
005800:  ffff  dw      0xffff
005802:  ffff  dw      0xffff
005804:  ffff  dw      0xffff
005806:  ffff  dw      0xffff
005808:  ffff  dw      0xffff
00580a:  ffff  dw      0xffff
00580c:  ffff  dw      0xffff
00580e:  ffff  dw      0xffff
005810:  ffff  dw      0xffff
005812:  ffff  dw      0xffff
005814:  ffff  dw      0xffff
005816:  ffff  dw      0xffff
005818:  ffff  dw      0xffff
00581a:  ffff  dw      0xffff
00581c:  ffff  dw      0xffff
00581e:  ffff  dw      0xffff
005820:  ffff  dw      0xffff
005822:  ffff  dw      0xffff
005824:  ffff  dw      0xffff
005826:  ffff  dw      0xffff
005828:  ffff  dw      0xffff
00582a:  ffff  dw      0xffff
00582c:  ffff  dw      0xffff
00582e:  ffff  dw      0xffff
005830:  ffff  dw      0xffff
005832:  ffff  dw      0xffff
005834:  ffff  dw      0xffff
005836:  ffff  dw      0xffff
005838:  ffff  dw      0xffff
00583a:  ffff  dw      0xffff
00583c:  ffff  dw      0xffff
00583e:  ffff  dw      0xffff
005840:  ffff  dw      0xffff
005842:  ffff  dw      0xffff
005844:  ffff  dw      0xffff
005846:  ffff  dw      0xffff
005848:  ffff  dw      0xffff
00584a:  ffff  dw      0xffff
00584c:  ffff  dw      0xffff
00584e:  ffff  dw      0xffff
005850:  ffff  dw      0xffff
005852:  ffff  dw      0xffff
005854:  ffff  dw      0xffff
005856:  ffff  dw      0xffff
005858:  ffff  dw      0xffff
00585a:  ffff  dw      0xffff
00585c:  ffff  dw      0xffff
00585e:  ffff  dw      0xffff
005860:  ffff  dw      0xffff
005862:  ffff  dw      0xffff
005864:  ffff  dw      0xffff
005866:  ffff  dw      0xffff
005868:  ffff  dw      0xffff
00586a:  ffff  dw      0xffff
00586c:  ffff  dw      0xffff
00586e:  ffff  dw      0xffff
005870:  ffff  dw      0xffff
005872:  ffff  dw      0xffff
005874:  ffff  dw      0xffff
005876:  ffff  dw      0xffff
005878:  ffff  dw      0xffff
00587a:  ffff  dw      0xffff
00587c:  ffff  dw      0xffff
00587e:  ffff  dw      0xffff
005880:  ffff  dw      0xffff
005882:  ffff  dw      0xffff
005884:  ffff  dw      0xffff
005886:  ffff  dw      0xffff
005888:  ffff  dw      0xffff
00588a:  ffff  dw      0xffff
00588c:  ffff  dw      0xffff
00588e:  ffff  dw      0xffff
005890:  ffff  dw      0xffff
005892:  ffff  dw      0xffff
005894:  ffff  dw      0xffff
005896:  ffff  dw      0xffff
005898:  ffff  dw      0xffff
00589a:  ffff  dw      0xffff
00589c:  ffff  dw      0xffff
00589e:  ffff  dw      0xffff
0058a0:  ffff  dw      0xffff
0058a2:  ffff  dw      0xffff
0058a4:  ffff  dw      0xffff
0058a6:  ffff  dw      0xffff
0058a8:  ffff  dw      0xffff
0058aa:  ffff  dw      0xffff
0058ac:  ffff  dw      0xffff
0058ae:  ffff  dw      0xffff
0058b0:  ffff  dw      0xffff
0058b2:  ffff  dw      0xffff
0058b4:  ffff  dw      0xffff
0058b6:  ffff  dw      0xffff
0058b8:  ffff  dw      0xffff
0058ba:  ffff  dw      0xffff
0058bc:  ffff  dw      0xffff
0058be:  ffff  dw      0xffff
0058c0:  ffff  dw      0xffff
0058c2:  ffff  dw      0xffff
0058c4:  ffff  dw      0xffff
0058c6:  ffff  dw      0xffff
0058c8:  ffff  dw      0xffff
0058ca:  ffff  dw      0xffff
0058cc:  ffff  dw      0xffff
0058ce:  ffff  dw      0xffff
0058d0:  ffff  dw      0xffff
0058d2:  ffff  dw      0xffff
0058d4:  ffff  dw      0xffff
0058d6:  ffff  dw      0xffff
0058d8:  ffff  dw      0xffff
0058da:  ffff  dw      0xffff
0058dc:  ffff  dw      0xffff
0058de:  ffff  dw      0xffff
0058e0:  ffff  dw      0xffff
0058e2:  ffff  dw      0xffff
0058e4:  ffff  dw      0xffff
0058e6:  ffff  dw      0xffff
0058e8:  ffff  dw      0xffff
0058ea:  ffff  dw      0xffff
0058ec:  ffff  dw      0xffff
0058ee:  ffff  dw      0xffff
0058f0:  ffff  dw      0xffff
0058f2:  ffff  dw      0xffff
0058f4:  ffff  dw      0xffff
0058f6:  ffff  dw      0xffff
0058f8:  ffff  dw      0xffff
0058fa:  ffff  dw      0xffff
0058fc:  ffff  dw      0xffff
0058fe:  ffff  dw      0xffff
005900:  ffff  dw      0xffff
005902:  ffff  dw      0xffff
005904:  ffff  dw      0xffff
005906:  ffff  dw      0xffff
005908:  ffff  dw      0xffff
00590a:  ffff  dw      0xffff
00590c:  ffff  dw      0xffff
00590e:  ffff  dw      0xffff
005910:  ffff  dw      0xffff
005912:  ffff  dw      0xffff
005914:  ffff  dw      0xffff
005916:  ffff  dw      0xffff
005918:  ffff  dw      0xffff
00591a:  ffff  dw      0xffff
00591c:  ffff  dw      0xffff
00591e:  ffff  dw      0xffff
005920:  ffff  dw      0xffff
005922:  ffff  dw      0xffff
005924:  ffff  dw      0xffff
005926:  ffff  dw      0xffff
005928:  ffff  dw      0xffff
00592a:  ffff  dw      0xffff
00592c:  ffff  dw      0xffff
00592e:  ffff  dw      0xffff
005930:  ffff  dw      0xffff
005932:  ffff  dw      0xffff
005934:  ffff  dw      0xffff
005936:  ffff  dw      0xffff
005938:  ffff  dw      0xffff
00593a:  ffff  dw      0xffff
00593c:  ffff  dw      0xffff
00593e:  ffff  dw      0xffff
005940:  ffff  dw      0xffff
005942:  ffff  dw      0xffff
005944:  ffff  dw      0xffff
005946:  ffff  dw      0xffff
005948:  ffff  dw      0xffff
00594a:  ffff  dw      0xffff
00594c:  ffff  dw      0xffff
00594e:  ffff  dw      0xffff
005950:  ffff  dw      0xffff
005952:  ffff  dw      0xffff
005954:  ffff  dw      0xffff
005956:  ffff  dw      0xffff
005958:  ffff  dw      0xffff
00595a:  ffff  dw      0xffff
00595c:  ffff  dw      0xffff
00595e:  ffff  dw      0xffff
005960:  ffff  dw      0xffff
005962:  ffff  dw      0xffff
005964:  ffff  dw      0xffff
005966:  ffff  dw      0xffff
005968:  ffff  dw      0xffff
00596a:  ffff  dw      0xffff
00596c:  ffff  dw      0xffff
00596e:  ffff  dw      0xffff
005970:  ffff  dw      0xffff
005972:  ffff  dw      0xffff
005974:  ffff  dw      0xffff
005976:  ffff  dw      0xffff
005978:  ffff  dw      0xffff
00597a:  ffff  dw      0xffff
00597c:  ffff  dw      0xffff
00597e:  ffff  dw      0xffff
005980:  ffff  dw      0xffff
005982:  ffff  dw      0xffff
005984:  ffff  dw      0xffff
005986:  ffff  dw      0xffff
005988:  ffff  dw      0xffff
00598a:  ffff  dw      0xffff
00598c:  ffff  dw      0xffff
00598e:  ffff  dw      0xffff
005990:  ffff  dw      0xffff
005992:  ffff  dw      0xffff
005994:  ffff  dw      0xffff
005996:  ffff  dw      0xffff
005998:  ffff  dw      0xffff
00599a:  ffff  dw      0xffff
00599c:  ffff  dw      0xffff
00599e:  ffff  dw      0xffff
0059a0:  ffff  dw      0xffff
0059a2:  ffff  dw      0xffff
0059a4:  ffff  dw      0xffff
0059a6:  ffff  dw      0xffff
0059a8:  ffff  dw      0xffff
0059aa:  ffff  dw      0xffff
0059ac:  ffff  dw      0xffff
0059ae:  ffff  dw      0xffff
0059b0:  ffff  dw      0xffff
0059b2:  ffff  dw      0xffff
0059b4:  ffff  dw      0xffff
0059b6:  ffff  dw      0xffff
0059b8:  ffff  dw      0xffff
0059ba:  ffff  dw      0xffff
0059bc:  ffff  dw      0xffff
0059be:  ffff  dw      0xffff
0059c0:  ffff  dw      0xffff
0059c2:  ffff  dw      0xffff
0059c4:  ffff  dw      0xffff
0059c6:  ffff  dw      0xffff
0059c8:  ffff  dw      0xffff
0059ca:  ffff  dw      0xffff
0059cc:  ffff  dw      0xffff
0059ce:  ffff  dw      0xffff
0059d0:  ffff  dw      0xffff
0059d2:  ffff  dw      0xffff
0059d4:  ffff  dw      0xffff
0059d6:  ffff  dw      0xffff
0059d8:  ffff  dw      0xffff
0059da:  ffff  dw      0xffff
0059dc:  ffff  dw      0xffff
0059de:  ffff  dw      0xffff
0059e0:  ffff  dw      0xffff
0059e2:  ffff  dw      0xffff
0059e4:  ffff  dw      0xffff
0059e6:  ffff  dw      0xffff
0059e8:  ffff  dw      0xffff
0059ea:  ffff  dw      0xffff
0059ec:  ffff  dw      0xffff
0059ee:  ffff  dw      0xffff
0059f0:  ffff  dw      0xffff
0059f2:  ffff  dw      0xffff
0059f4:  ffff  dw      0xffff
0059f6:  ffff  dw      0xffff
0059f8:  ffff  dw      0xffff
0059fa:  ffff  dw      0xffff
0059fc:  ffff  dw      0xffff
0059fe:  ffff  dw      0xffff
005a00:  ffff  dw      0xffff
005a02:  ffff  dw      0xffff
005a04:  ffff  dw      0xffff
005a06:  ffff  dw      0xffff
005a08:  ffff  dw      0xffff
005a0a:  ffff  dw      0xffff
005a0c:  ffff  dw      0xffff
005a0e:  ffff  dw      0xffff
005a10:  ffff  dw      0xffff
005a12:  ffff  dw      0xffff
005a14:  ffff  dw      0xffff
005a16:  ffff  dw      0xffff
005a18:  ffff  dw      0xffff
005a1a:  ffff  dw      0xffff
005a1c:  ffff  dw      0xffff
005a1e:  ffff  dw      0xffff
005a20:  ffff  dw      0xffff
005a22:  ffff  dw      0xffff
005a24:  ffff  dw      0xffff
005a26:  ffff  dw      0xffff
005a28:  ffff  dw      0xffff
005a2a:  ffff  dw      0xffff
005a2c:  ffff  dw      0xffff
005a2e:  ffff  dw      0xffff
005a30:  ffff  dw      0xffff
005a32:  ffff  dw      0xffff
005a34:  ffff  dw      0xffff
005a36:  ffff  dw      0xffff
005a38:  ffff  dw      0xffff
005a3a:  ffff  dw      0xffff
005a3c:  ffff  dw      0xffff
005a3e:  ffff  dw      0xffff
005a40:  ffff  dw      0xffff
005a42:  ffff  dw      0xffff
005a44:  ffff  dw      0xffff
005a46:  ffff  dw      0xffff
005a48:  ffff  dw      0xffff
005a4a:  ffff  dw      0xffff
005a4c:  ffff  dw      0xffff
005a4e:  ffff  dw      0xffff
005a50:  ffff  dw      0xffff
005a52:  ffff  dw      0xffff
005a54:  ffff  dw      0xffff
005a56:  ffff  dw      0xffff
005a58:  ffff  dw      0xffff
005a5a:  ffff  dw      0xffff
005a5c:  ffff  dw      0xffff
005a5e:  ffff  dw      0xffff
005a60:  ffff  dw      0xffff
005a62:  ffff  dw      0xffff
005a64:  ffff  dw      0xffff
005a66:  ffff  dw      0xffff
005a68:  ffff  dw      0xffff
005a6a:  ffff  dw      0xffff
005a6c:  ffff  dw      0xffff
005a6e:  ffff  dw      0xffff
005a70:  ffff  dw      0xffff
005a72:  ffff  dw      0xffff
005a74:  ffff  dw      0xffff
005a76:  ffff  dw      0xffff
005a78:  ffff  dw      0xffff
005a7a:  ffff  dw      0xffff
005a7c:  ffff  dw      0xffff
005a7e:  ffff  dw      0xffff
005a80:  ffff  dw      0xffff
005a82:  ffff  dw      0xffff
005a84:  ffff  dw      0xffff
005a86:  ffff  dw      0xffff
005a88:  ffff  dw      0xffff
005a8a:  ffff  dw      0xffff
005a8c:  ffff  dw      0xffff
005a8e:  ffff  dw      0xffff
005a90:  ffff  dw      0xffff
005a92:  ffff  dw      0xffff
005a94:  ffff  dw      0xffff
005a96:  ffff  dw      0xffff
005a98:  ffff  dw      0xffff
005a9a:  ffff  dw      0xffff
005a9c:  ffff  dw      0xffff
005a9e:  ffff  dw      0xffff
005aa0:  ffff  dw      0xffff
005aa2:  ffff  dw      0xffff
005aa4:  ffff  dw      0xffff
005aa6:  ffff  dw      0xffff
005aa8:  ffff  dw      0xffff
005aaa:  ffff  dw      0xffff
005aac:  ffff  dw      0xffff
005aae:  ffff  dw      0xffff
005ab0:  ffff  dw      0xffff
005ab2:  ffff  dw      0xffff
005ab4:  ffff  dw      0xffff
005ab6:  ffff  dw      0xffff
005ab8:  ffff  dw      0xffff
005aba:  ffff  dw      0xffff
005abc:  ffff  dw      0xffff
005abe:  ffff  dw      0xffff
005ac0:  ffff  dw      0xffff
005ac2:  ffff  dw      0xffff
005ac4:  ffff  dw      0xffff
005ac6:  ffff  dw      0xffff
005ac8:  ffff  dw      0xffff
005aca:  ffff  dw      0xffff
005acc:  ffff  dw      0xffff
005ace:  ffff  dw      0xffff
005ad0:  ffff  dw      0xffff
005ad2:  ffff  dw      0xffff
005ad4:  ffff  dw      0xffff
005ad6:  ffff  dw      0xffff
005ad8:  ffff  dw      0xffff
005ada:  ffff  dw      0xffff
005adc:  ffff  dw      0xffff
005ade:  ffff  dw      0xffff
005ae0:  ffff  dw      0xffff
005ae2:  ffff  dw      0xffff
005ae4:  ffff  dw      0xffff
005ae6:  ffff  dw      0xffff
005ae8:  ffff  dw      0xffff
005aea:  ffff  dw      0xffff
005aec:  ffff  dw      0xffff
005aee:  ffff  dw      0xffff
005af0:  ffff  dw      0xffff
005af2:  ffff  dw      0xffff
005af4:  ffff  dw      0xffff
005af6:  ffff  dw      0xffff
005af8:  ffff  dw      0xffff
005afa:  ffff  dw      0xffff
005afc:  ffff  dw      0xffff
005afe:  ffff  dw      0xffff
005b00:  ffff  dw      0xffff
005b02:  ffff  dw      0xffff
005b04:  ffff  dw      0xffff
005b06:  ffff  dw      0xffff
005b08:  ffff  dw      0xffff
005b0a:  ffff  dw      0xffff
005b0c:  ffff  dw      0xffff
005b0e:  ffff  dw      0xffff
005b10:  ffff  dw      0xffff
005b12:  ffff  dw      0xffff
005b14:  ffff  dw      0xffff
005b16:  ffff  dw      0xffff
005b18:  ffff  dw      0xffff
005b1a:  ffff  dw      0xffff
005b1c:  ffff  dw      0xffff
005b1e:  ffff  dw      0xffff
005b20:  ffff  dw      0xffff
005b22:  ffff  dw      0xffff
005b24:  ffff  dw      0xffff
005b26:  ffff  dw      0xffff
005b28:  ffff  dw      0xffff
005b2a:  ffff  dw      0xffff
005b2c:  ffff  dw      0xffff
005b2e:  ffff  dw      0xffff
005b30:  ffff  dw      0xffff
005b32:  ffff  dw      0xffff
005b34:  ffff  dw      0xffff
005b36:  ffff  dw      0xffff
005b38:  ffff  dw      0xffff
005b3a:  ffff  dw      0xffff
005b3c:  ffff  dw      0xffff
005b3e:  ffff  dw      0xffff
005b40:  ffff  dw      0xffff
005b42:  ffff  dw      0xffff
005b44:  ffff  dw      0xffff
005b46:  ffff  dw      0xffff
005b48:  ffff  dw      0xffff
005b4a:  ffff  dw      0xffff
005b4c:  ffff  dw      0xffff
005b4e:  ffff  dw      0xffff
005b50:  ffff  dw      0xffff
005b52:  ffff  dw      0xffff
005b54:  ffff  dw      0xffff
005b56:  ffff  dw      0xffff
005b58:  ffff  dw      0xffff
005b5a:  ffff  dw      0xffff
005b5c:  ffff  dw      0xffff
005b5e:  ffff  dw      0xffff
005b60:  ffff  dw      0xffff
005b62:  ffff  dw      0xffff
005b64:  ffff  dw      0xffff
005b66:  ffff  dw      0xffff
005b68:  ffff  dw      0xffff
005b6a:  ffff  dw      0xffff
005b6c:  ffff  dw      0xffff
005b6e:  ffff  dw      0xffff
005b70:  ffff  dw      0xffff
005b72:  ffff  dw      0xffff
005b74:  ffff  dw      0xffff
005b76:  ffff  dw      0xffff
005b78:  ffff  dw      0xffff
005b7a:  ffff  dw      0xffff
005b7c:  ffff  dw      0xffff
005b7e:  ffff  dw      0xffff
005b80:  ffff  dw      0xffff
005b82:  ffff  dw      0xffff
005b84:  ffff  dw      0xffff
005b86:  ffff  dw      0xffff
005b88:  ffff  dw      0xffff
005b8a:  ffff  dw      0xffff
005b8c:  ffff  dw      0xffff
005b8e:  ffff  dw      0xffff
005b90:  ffff  dw      0xffff
005b92:  ffff  dw      0xffff
005b94:  ffff  dw      0xffff
005b96:  ffff  dw      0xffff
005b98:  ffff  dw      0xffff
005b9a:  ffff  dw      0xffff
005b9c:  ffff  dw      0xffff
005b9e:  ffff  dw      0xffff
005ba0:  ffff  dw      0xffff
005ba2:  ffff  dw      0xffff
005ba4:  ffff  dw      0xffff
005ba6:  ffff  dw      0xffff
005ba8:  ffff  dw      0xffff
005baa:  ffff  dw      0xffff
005bac:  ffff  dw      0xffff
005bae:  ffff  dw      0xffff
005bb0:  ffff  dw      0xffff
005bb2:  ffff  dw      0xffff
005bb4:  ffff  dw      0xffff
005bb6:  ffff  dw      0xffff
005bb8:  ffff  dw      0xffff
005bba:  ffff  dw      0xffff
005bbc:  ffff  dw      0xffff
005bbe:  ffff  dw      0xffff
005bc0:  ffff  dw      0xffff
005bc2:  ffff  dw      0xffff
005bc4:  ffff  dw      0xffff
005bc6:  ffff  dw      0xffff
005bc8:  ffff  dw      0xffff
005bca:  ffff  dw      0xffff
005bcc:  ffff  dw      0xffff
005bce:  ffff  dw      0xffff
005bd0:  ffff  dw      0xffff
005bd2:  ffff  dw      0xffff
005bd4:  ffff  dw      0xffff
005bd6:  ffff  dw      0xffff
005bd8:  ffff  dw      0xffff
005bda:  ffff  dw      0xffff
005bdc:  ffff  dw      0xffff
005bde:  ffff  dw      0xffff
005be0:  ffff  dw      0xffff
005be2:  ffff  dw      0xffff
005be4:  ffff  dw      0xffff
005be6:  ffff  dw      0xffff
005be8:  ffff  dw      0xffff
005bea:  ffff  dw      0xffff
005bec:  ffff  dw      0xffff
005bee:  ffff  dw      0xffff
005bf0:  ffff  dw      0xffff
005bf2:  ffff  dw      0xffff
005bf4:  ffff  dw      0xffff
005bf6:  ffff  dw      0xffff
005bf8:  ffff  dw      0xffff
005bfa:  ffff  dw      0xffff
005bfc:  ffff  dw      0xffff
005bfe:  ffff  dw      0xffff
005c00:  ffff  dw      0xffff
005c02:  ffff  dw      0xffff
005c04:  ffff  dw      0xffff
005c06:  ffff  dw      0xffff
005c08:  ffff  dw      0xffff
005c0a:  ffff  dw      0xffff
005c0c:  ffff  dw      0xffff
005c0e:  ffff  dw      0xffff
005c10:  ffff  dw      0xffff
005c12:  ffff  dw      0xffff
005c14:  ffff  dw      0xffff
005c16:  ffff  dw      0xffff
005c18:  ffff  dw      0xffff
005c1a:  ffff  dw      0xffff
005c1c:  ffff  dw      0xffff
005c1e:  ffff  dw      0xffff
005c20:  ffff  dw      0xffff
005c22:  ffff  dw      0xffff
005c24:  ffff  dw      0xffff
005c26:  ffff  dw      0xffff
005c28:  ffff  dw      0xffff
005c2a:  ffff  dw      0xffff
005c2c:  ffff  dw      0xffff
005c2e:  ffff  dw      0xffff
005c30:  ffff  dw      0xffff
005c32:  ffff  dw      0xffff
005c34:  ffff  dw      0xffff
005c36:  ffff  dw      0xffff
005c38:  ffff  dw      0xffff
005c3a:  ffff  dw      0xffff
005c3c:  ffff  dw      0xffff
005c3e:  ffff  dw      0xffff
005c40:  ffff  dw      0xffff
005c42:  ffff  dw      0xffff
005c44:  ffff  dw      0xffff
005c46:  ffff  dw      0xffff
005c48:  ffff  dw      0xffff
005c4a:  ffff  dw      0xffff
005c4c:  ffff  dw      0xffff
005c4e:  ffff  dw      0xffff
005c50:  ffff  dw      0xffff
005c52:  ffff  dw      0xffff
005c54:  ffff  dw      0xffff
005c56:  ffff  dw      0xffff
005c58:  ffff  dw      0xffff
005c5a:  ffff  dw      0xffff
005c5c:  ffff  dw      0xffff
005c5e:  ffff  dw      0xffff
005c60:  ffff  dw      0xffff
005c62:  ffff  dw      0xffff
005c64:  ffff  dw      0xffff
005c66:  ffff  dw      0xffff
005c68:  ffff  dw      0xffff
005c6a:  ffff  dw      0xffff
005c6c:  ffff  dw      0xffff
005c6e:  ffff  dw      0xffff
005c70:  ffff  dw      0xffff
005c72:  ffff  dw      0xffff
005c74:  ffff  dw      0xffff
005c76:  ffff  dw      0xffff
005c78:  ffff  dw      0xffff
005c7a:  ffff  dw      0xffff
005c7c:  ffff  dw      0xffff
005c7e:  ffff  dw      0xffff
005c80:  ffff  dw      0xffff
005c82:  ffff  dw      0xffff
005c84:  ffff  dw      0xffff
005c86:  ffff  dw      0xffff
005c88:  ffff  dw      0xffff
005c8a:  ffff  dw      0xffff
005c8c:  ffff  dw      0xffff
005c8e:  ffff  dw      0xffff
005c90:  ffff  dw      0xffff
005c92:  ffff  dw      0xffff
005c94:  ffff  dw      0xffff
005c96:  ffff  dw      0xffff
005c98:  ffff  dw      0xffff
005c9a:  ffff  dw      0xffff
005c9c:  ffff  dw      0xffff
005c9e:  ffff  dw      0xffff
005ca0:  ffff  dw      0xffff
005ca2:  ffff  dw      0xffff
005ca4:  ffff  dw      0xffff
005ca6:  ffff  dw      0xffff
005ca8:  ffff  dw      0xffff
005caa:  ffff  dw      0xffff
005cac:  ffff  dw      0xffff
005cae:  ffff  dw      0xffff
005cb0:  ffff  dw      0xffff
005cb2:  ffff  dw      0xffff
005cb4:  ffff  dw      0xffff
005cb6:  ffff  dw      0xffff
005cb8:  ffff  dw      0xffff
005cba:  ffff  dw      0xffff
005cbc:  ffff  dw      0xffff
005cbe:  ffff  dw      0xffff
005cc0:  ffff  dw      0xffff
005cc2:  ffff  dw      0xffff
005cc4:  ffff  dw      0xffff
005cc6:  ffff  dw      0xffff
005cc8:  ffff  dw      0xffff
005cca:  ffff  dw      0xffff
005ccc:  ffff  dw      0xffff
005cce:  ffff  dw      0xffff
005cd0:  ffff  dw      0xffff
005cd2:  ffff  dw      0xffff
005cd4:  ffff  dw      0xffff
005cd6:  ffff  dw      0xffff
005cd8:  ffff  dw      0xffff
005cda:  ffff  dw      0xffff
005cdc:  ffff  dw      0xffff
005cde:  ffff  dw      0xffff
005ce0:  ffff  dw      0xffff
005ce2:  ffff  dw      0xffff
005ce4:  ffff  dw      0xffff
005ce6:  ffff  dw      0xffff
005ce8:  ffff  dw      0xffff
005cea:  ffff  dw      0xffff
005cec:  ffff  dw      0xffff
005cee:  ffff  dw      0xffff
005cf0:  ffff  dw      0xffff
005cf2:  ffff  dw      0xffff
005cf4:  ffff  dw      0xffff
005cf6:  ffff  dw      0xffff
005cf8:  ffff  dw      0xffff
005cfa:  ffff  dw      0xffff
005cfc:  ffff  dw      0xffff
005cfe:  ffff  dw      0xffff
005d00:  ffff  dw      0xffff
005d02:  ffff  dw      0xffff
005d04:  ffff  dw      0xffff
005d06:  ffff  dw      0xffff
005d08:  ffff  dw      0xffff
005d0a:  ffff  dw      0xffff
005d0c:  ffff  dw      0xffff
005d0e:  ffff  dw      0xffff
005d10:  ffff  dw      0xffff
005d12:  ffff  dw      0xffff
005d14:  ffff  dw      0xffff
005d16:  ffff  dw      0xffff
005d18:  ffff  dw      0xffff
005d1a:  ffff  dw      0xffff
005d1c:  ffff  dw      0xffff
005d1e:  ffff  dw      0xffff
005d20:  ffff  dw      0xffff
005d22:  ffff  dw      0xffff
005d24:  ffff  dw      0xffff
005d26:  ffff  dw      0xffff
005d28:  ffff  dw      0xffff
005d2a:  ffff  dw      0xffff
005d2c:  ffff  dw      0xffff
005d2e:  ffff  dw      0xffff
005d30:  ffff  dw      0xffff
005d32:  ffff  dw      0xffff
005d34:  ffff  dw      0xffff
005d36:  ffff  dw      0xffff
005d38:  ffff  dw      0xffff
005d3a:  ffff  dw      0xffff
005d3c:  ffff  dw      0xffff
005d3e:  ffff  dw      0xffff
005d40:  ffff  dw      0xffff
005d42:  ffff  dw      0xffff
005d44:  ffff  dw      0xffff
005d46:  ffff  dw      0xffff
005d48:  ffff  dw      0xffff
005d4a:  ffff  dw      0xffff
005d4c:  ffff  dw      0xffff
005d4e:  ffff  dw      0xffff
005d50:  ffff  dw      0xffff
005d52:  ffff  dw      0xffff
005d54:  ffff  dw      0xffff
005d56:  ffff  dw      0xffff
005d58:  ffff  dw      0xffff
005d5a:  ffff  dw      0xffff
005d5c:  ffff  dw      0xffff
005d5e:  ffff  dw      0xffff
005d60:  ffff  dw      0xffff
005d62:  ffff  dw      0xffff
005d64:  ffff  dw      0xffff
005d66:  ffff  dw      0xffff
005d68:  ffff  dw      0xffff
005d6a:  ffff  dw      0xffff
005d6c:  ffff  dw      0xffff
005d6e:  ffff  dw      0xffff
005d70:  ffff  dw      0xffff
005d72:  ffff  dw      0xffff
005d74:  ffff  dw      0xffff
005d76:  ffff  dw      0xffff
005d78:  ffff  dw      0xffff
005d7a:  ffff  dw      0xffff
005d7c:  ffff  dw      0xffff
005d7e:  ffff  dw      0xffff
005d80:  ffff  dw      0xffff
005d82:  ffff  dw      0xffff
005d84:  ffff  dw      0xffff
005d86:  ffff  dw      0xffff
005d88:  ffff  dw      0xffff
005d8a:  ffff  dw      0xffff
005d8c:  ffff  dw      0xffff
005d8e:  ffff  dw      0xffff
005d90:  ffff  dw      0xffff
005d92:  ffff  dw      0xffff
005d94:  ffff  dw      0xffff
005d96:  ffff  dw      0xffff
005d98:  ffff  dw      0xffff
005d9a:  ffff  dw      0xffff
005d9c:  ffff  dw      0xffff
005d9e:  ffff  dw      0xffff
005da0:  ffff  dw      0xffff
005da2:  ffff  dw      0xffff
005da4:  ffff  dw      0xffff
005da6:  ffff  dw      0xffff
005da8:  ffff  dw      0xffff
005daa:  ffff  dw      0xffff
005dac:  ffff  dw      0xffff
005dae:  ffff  dw      0xffff
005db0:  ffff  dw      0xffff
005db2:  ffff  dw      0xffff
005db4:  ffff  dw      0xffff
005db6:  ffff  dw      0xffff
005db8:  ffff  dw      0xffff
005dba:  ffff  dw      0xffff
005dbc:  ffff  dw      0xffff
005dbe:  ffff  dw      0xffff
005dc0:  ffff  dw      0xffff
005dc2:  ffff  dw      0xffff
005dc4:  ffff  dw      0xffff
005dc6:  ffff  dw      0xffff
005dc8:  ffff  dw      0xffff
005dca:  ffff  dw      0xffff
005dcc:  ffff  dw      0xffff
005dce:  ffff  dw      0xffff
005dd0:  ffff  dw      0xffff
005dd2:  ffff  dw      0xffff
005dd4:  ffff  dw      0xffff
005dd6:  ffff  dw      0xffff
005dd8:  ffff  dw      0xffff
005dda:  ffff  dw      0xffff
005ddc:  ffff  dw      0xffff
005dde:  ffff  dw      0xffff
005de0:  ffff  dw      0xffff
005de2:  ffff  dw      0xffff
005de4:  ffff  dw      0xffff
005de6:  ffff  dw      0xffff
005de8:  ffff  dw      0xffff
005dea:  ffff  dw      0xffff
005dec:  ffff  dw      0xffff
005dee:  ffff  dw      0xffff
005df0:  ffff  dw      0xffff
005df2:  ffff  dw      0xffff
005df4:  ffff  dw      0xffff
005df6:  ffff  dw      0xffff
005df8:  ffff  dw      0xffff
005dfa:  ffff  dw      0xffff
005dfc:  ffff  dw      0xffff
005dfe:  ffff  dw      0xffff
005e00:  ffff  dw      0xffff
005e02:  ffff  dw      0xffff
005e04:  ffff  dw      0xffff
005e06:  ffff  dw      0xffff
005e08:  ffff  dw      0xffff
005e0a:  ffff  dw      0xffff
005e0c:  ffff  dw      0xffff
005e0e:  ffff  dw      0xffff
005e10:  ffff  dw      0xffff
005e12:  ffff  dw      0xffff
005e14:  ffff  dw      0xffff
005e16:  ffff  dw      0xffff
005e18:  ffff  dw      0xffff
005e1a:  ffff  dw      0xffff
005e1c:  ffff  dw      0xffff
005e1e:  ffff  dw      0xffff
005e20:  ffff  dw      0xffff
005e22:  ffff  dw      0xffff
005e24:  ffff  dw      0xffff
005e26:  ffff  dw      0xffff
005e28:  ffff  dw      0xffff
005e2a:  ffff  dw      0xffff
005e2c:  ffff  dw      0xffff
005e2e:  ffff  dw      0xffff
005e30:  ffff  dw      0xffff
005e32:  ffff  dw      0xffff
005e34:  ffff  dw      0xffff
005e36:  ffff  dw      0xffff
005e38:  ffff  dw      0xffff
005e3a:  ffff  dw      0xffff
005e3c:  ffff  dw      0xffff
005e3e:  ffff  dw      0xffff
005e40:  ffff  dw      0xffff
005e42:  ffff  dw      0xffff
005e44:  ffff  dw      0xffff
005e46:  ffff  dw      0xffff
005e48:  ffff  dw      0xffff
005e4a:  ffff  dw      0xffff
005e4c:  ffff  dw      0xffff
005e4e:  ffff  dw      0xffff
005e50:  ffff  dw      0xffff
005e52:  ffff  dw      0xffff
005e54:  ffff  dw      0xffff
005e56:  ffff  dw      0xffff
005e58:  ffff  dw      0xffff
005e5a:  ffff  dw      0xffff
005e5c:  ffff  dw      0xffff
005e5e:  ffff  dw      0xffff
005e60:  ffff  dw      0xffff
005e62:  ffff  dw      0xffff
005e64:  ffff  dw      0xffff
005e66:  ffff  dw      0xffff
005e68:  ffff  dw      0xffff
005e6a:  ffff  dw      0xffff
005e6c:  ffff  dw      0xffff
005e6e:  ffff  dw      0xffff
005e70:  ffff  dw      0xffff
005e72:  ffff  dw      0xffff
005e74:  ffff  dw      0xffff
005e76:  ffff  dw      0xffff
005e78:  ffff  dw      0xffff
005e7a:  ffff  dw      0xffff
005e7c:  ffff  dw      0xffff
005e7e:  ffff  dw      0xffff
005e80:  ffff  dw      0xffff
005e82:  ffff  dw      0xffff
005e84:  ffff  dw      0xffff
005e86:  ffff  dw      0xffff
005e88:  ffff  dw      0xffff
005e8a:  ffff  dw      0xffff
005e8c:  ffff  dw      0xffff
005e8e:  ffff  dw      0xffff
005e90:  ffff  dw      0xffff
005e92:  ffff  dw      0xffff
005e94:  ffff  dw      0xffff
005e96:  ffff  dw      0xffff
005e98:  ffff  dw      0xffff
005e9a:  ffff  dw      0xffff
005e9c:  ffff  dw      0xffff
005e9e:  ffff  dw      0xffff
005ea0:  ffff  dw      0xffff
005ea2:  ffff  dw      0xffff
005ea4:  ffff  dw      0xffff
005ea6:  ffff  dw      0xffff
005ea8:  ffff  dw      0xffff
005eaa:  ffff  dw      0xffff
005eac:  ffff  dw      0xffff
005eae:  ffff  dw      0xffff
005eb0:  ffff  dw      0xffff
005eb2:  ffff  dw      0xffff
005eb4:  ffff  dw      0xffff
005eb6:  ffff  dw      0xffff
005eb8:  ffff  dw      0xffff
005eba:  ffff  dw      0xffff
005ebc:  ffff  dw      0xffff
005ebe:  ffff  dw      0xffff
005ec0:  ffff  dw      0xffff
005ec2:  ffff  dw      0xffff
005ec4:  ffff  dw      0xffff
005ec6:  ffff  dw      0xffff
005ec8:  ffff  dw      0xffff
005eca:  ffff  dw      0xffff
005ecc:  ffff  dw      0xffff
005ece:  ffff  dw      0xffff
005ed0:  ffff  dw      0xffff
005ed2:  ffff  dw      0xffff
005ed4:  ffff  dw      0xffff
005ed6:  ffff  dw      0xffff
005ed8:  ffff  dw      0xffff
005eda:  ffff  dw      0xffff
005edc:  ffff  dw      0xffff
005ede:  ffff  dw      0xffff
005ee0:  ffff  dw      0xffff
005ee2:  ffff  dw      0xffff
005ee4:  ffff  dw      0xffff
005ee6:  ffff  dw      0xffff
005ee8:  ffff  dw      0xffff
005eea:  ffff  dw      0xffff
005eec:  ffff  dw      0xffff
005eee:  ffff  dw      0xffff
005ef0:  ffff  dw      0xffff
005ef2:  ffff  dw      0xffff
005ef4:  ffff  dw      0xffff
005ef6:  ffff  dw      0xffff
005ef8:  ffff  dw      0xffff
005efa:  ffff  dw      0xffff
005efc:  ffff  dw      0xffff
005efe:  ffff  dw      0xffff
005f00:  ffff  dw      0xffff
005f02:  ffff  dw      0xffff
005f04:  ffff  dw      0xffff
005f06:  ffff  dw      0xffff
005f08:  ffff  dw      0xffff
005f0a:  ffff  dw      0xffff
005f0c:  ffff  dw      0xffff
005f0e:  ffff  dw      0xffff
005f10:  ffff  dw      0xffff
005f12:  ffff  dw      0xffff
005f14:  ffff  dw      0xffff
005f16:  ffff  dw      0xffff
005f18:  ffff  dw      0xffff
005f1a:  ffff  dw      0xffff
005f1c:  ffff  dw      0xffff
005f1e:  ffff  dw      0xffff
005f20:  ffff  dw      0xffff
005f22:  ffff  dw      0xffff
005f24:  ffff  dw      0xffff
005f26:  ffff  dw      0xffff
005f28:  ffff  dw      0xffff
005f2a:  ffff  dw      0xffff
005f2c:  ffff  dw      0xffff
005f2e:  ffff  dw      0xffff
005f30:  ffff  dw      0xffff
005f32:  ffff  dw      0xffff
005f34:  ffff  dw      0xffff
005f36:  ffff  dw      0xffff
005f38:  ffff  dw      0xffff
005f3a:  ffff  dw      0xffff
005f3c:  ffff  dw      0xffff
005f3e:  ffff  dw      0xffff
005f40:  ffff  dw      0xffff
005f42:  ffff  dw      0xffff
005f44:  ffff  dw      0xffff
005f46:  ffff  dw      0xffff
005f48:  ffff  dw      0xffff
005f4a:  ffff  dw      0xffff
005f4c:  ffff  dw      0xffff
005f4e:  ffff  dw      0xffff
005f50:  ffff  dw      0xffff
005f52:  ffff  dw      0xffff
005f54:  ffff  dw      0xffff
005f56:  ffff  dw      0xffff
005f58:  ffff  dw      0xffff
005f5a:  ffff  dw      0xffff
005f5c:  ffff  dw      0xffff
005f5e:  ffff  dw      0xffff
005f60:  ffff  dw      0xffff
005f62:  ffff  dw      0xffff
005f64:  ffff  dw      0xffff
005f66:  ffff  dw      0xffff
005f68:  ffff  dw      0xffff
005f6a:  ffff  dw      0xffff
005f6c:  ffff  dw      0xffff
005f6e:  ffff  dw      0xffff
005f70:  ffff  dw      0xffff
005f72:  ffff  dw      0xffff
005f74:  ffff  dw      0xffff
005f76:  ffff  dw      0xffff
005f78:  ffff  dw      0xffff
005f7a:  ffff  dw      0xffff
005f7c:  ffff  dw      0xffff
005f7e:  ffff  dw      0xffff
005f80:  ffff  dw      0xffff
005f82:  ffff  dw      0xffff
005f84:  ffff  dw      0xffff
005f86:  ffff  dw      0xffff
005f88:  ffff  dw      0xffff
005f8a:  ffff  dw      0xffff
005f8c:  ffff  dw      0xffff
005f8e:  ffff  dw      0xffff
005f90:  ffff  dw      0xffff
005f92:  ffff  dw      0xffff
005f94:  ffff  dw      0xffff
005f96:  ffff  dw      0xffff
005f98:  ffff  dw      0xffff
005f9a:  ffff  dw      0xffff
005f9c:  ffff  dw      0xffff
005f9e:  ffff  dw      0xffff
005fa0:  ffff  dw      0xffff
005fa2:  ffff  dw      0xffff
005fa4:  ffff  dw      0xffff
005fa6:  ffff  dw      0xffff
005fa8:  ffff  dw      0xffff
005faa:  ffff  dw      0xffff
005fac:  ffff  dw      0xffff
005fae:  ffff  dw      0xffff
005fb0:  ffff  dw      0xffff
005fb2:  ffff  dw      0xffff
005fb4:  ffff  dw      0xffff
005fb6:  ffff  dw      0xffff
005fb8:  ffff  dw      0xffff
005fba:  ffff  dw      0xffff
005fbc:  ffff  dw      0xffff
005fbe:  ffff  dw      0xffff
005fc0:  ffff  dw      0xffff
005fc2:  ffff  dw      0xffff
005fc4:  ffff  dw      0xffff
005fc6:  ffff  dw      0xffff
005fc8:  ffff  dw      0xffff
005fca:  ffff  dw      0xffff
005fcc:  ffff  dw      0xffff
005fce:  ffff  dw      0xffff
005fd0:  ffff  dw      0xffff
005fd2:  ffff  dw      0xffff
005fd4:  ffff  dw      0xffff
005fd6:  ffff  dw      0xffff
005fd8:  ffff  dw      0xffff
005fda:  ffff  dw      0xffff
005fdc:  ffff  dw      0xffff
005fde:  ffff  dw      0xffff
005fe0:  ffff  dw      0xffff
005fe2:  ffff  dw      0xffff
005fe4:  ffff  dw      0xffff
005fe6:  ffff  dw      0xffff
005fe8:  ffff  dw      0xffff
005fea:  ffff  dw      0xffff
005fec:  ffff  dw      0xffff
005fee:  ffff  dw      0xffff
005ff0:  ffff  dw      0xffff
005ff2:  ffff  dw      0xffff
005ff4:  ffff  dw      0xffff
005ff6:  ffff  dw      0xffff
005ff8:  ffff  dw      0xffff
005ffa:  ffff  dw      0xffff
005ffc:  ffff  dw      0xffff
005ffe:  ffff  dw      0xffff
006000:  ffff  dw      0xffff
006002:  ffff  dw      0xffff
006004:  ffff  dw      0xffff
006006:  ffff  dw      0xffff
006008:  ffff  dw      0xffff
00600a:  ffff  dw      0xffff
00600c:  ffff  dw      0xffff
00600e:  ffff  dw      0xffff
006010:  ffff  dw      0xffff
006012:  ffff  dw      0xffff
006014:  ffff  dw      0xffff
006016:  ffff  dw      0xffff
006018:  ffff  dw      0xffff
00601a:  ffff  dw      0xffff
00601c:  ffff  dw      0xffff
00601e:  ffff  dw      0xffff
006020:  ffff  dw      0xffff
006022:  ffff  dw      0xffff
006024:  ffff  dw      0xffff
006026:  ffff  dw      0xffff
006028:  ffff  dw      0xffff
00602a:  ffff  dw      0xffff
00602c:  ffff  dw      0xffff
00602e:  ffff  dw      0xffff
006030:  ffff  dw      0xffff
006032:  ffff  dw      0xffff
006034:  ffff  dw      0xffff
006036:  ffff  dw      0xffff
006038:  ffff  dw      0xffff
00603a:  ffff  dw      0xffff
00603c:  ffff  dw      0xffff
00603e:  ffff  dw      0xffff
006040:  ffff  dw      0xffff
006042:  ffff  dw      0xffff
006044:  ffff  dw      0xffff
006046:  ffff  dw      0xffff
006048:  ffff  dw      0xffff
00604a:  ffff  dw      0xffff
00604c:  ffff  dw      0xffff
00604e:  ffff  dw      0xffff
006050:  ffff  dw      0xffff
006052:  ffff  dw      0xffff
006054:  ffff  dw      0xffff
006056:  ffff  dw      0xffff
006058:  ffff  dw      0xffff
00605a:  ffff  dw      0xffff
00605c:  ffff  dw      0xffff
00605e:  ffff  dw      0xffff
006060:  ffff  dw      0xffff
006062:  ffff  dw      0xffff
006064:  ffff  dw      0xffff
006066:  ffff  dw      0xffff
006068:  ffff  dw      0xffff
00606a:  ffff  dw      0xffff
00606c:  ffff  dw      0xffff
00606e:  ffff  dw      0xffff
006070:  ffff  dw      0xffff
006072:  ffff  dw      0xffff
006074:  ffff  dw      0xffff
006076:  ffff  dw      0xffff
006078:  ffff  dw      0xffff
00607a:  ffff  dw      0xffff
00607c:  ffff  dw      0xffff
00607e:  ffff  dw      0xffff
006080:  ffff  dw      0xffff
006082:  ffff  dw      0xffff
006084:  ffff  dw      0xffff
006086:  ffff  dw      0xffff
006088:  ffff  dw      0xffff
00608a:  ffff  dw      0xffff
00608c:  ffff  dw      0xffff
00608e:  ffff  dw      0xffff
006090:  ffff  dw      0xffff
006092:  ffff  dw      0xffff
006094:  ffff  dw      0xffff
006096:  ffff  dw      0xffff
006098:  ffff  dw      0xffff
00609a:  ffff  dw      0xffff
00609c:  ffff  dw      0xffff
00609e:  ffff  dw      0xffff
0060a0:  ffff  dw      0xffff
0060a2:  ffff  dw      0xffff
0060a4:  ffff  dw      0xffff
0060a6:  ffff  dw      0xffff
0060a8:  ffff  dw      0xffff
0060aa:  ffff  dw      0xffff
0060ac:  ffff  dw      0xffff
0060ae:  ffff  dw      0xffff
0060b0:  ffff  dw      0xffff
0060b2:  ffff  dw      0xffff
0060b4:  ffff  dw      0xffff
0060b6:  ffff  dw      0xffff
0060b8:  ffff  dw      0xffff
0060ba:  ffff  dw      0xffff
0060bc:  ffff  dw      0xffff
0060be:  ffff  dw      0xffff
0060c0:  ffff  dw      0xffff
0060c2:  ffff  dw      0xffff
0060c4:  ffff  dw      0xffff
0060c6:  ffff  dw      0xffff
0060c8:  ffff  dw      0xffff
0060ca:  ffff  dw      0xffff
0060cc:  ffff  dw      0xffff
0060ce:  ffff  dw      0xffff
0060d0:  ffff  dw      0xffff
0060d2:  ffff  dw      0xffff
0060d4:  ffff  dw      0xffff
0060d6:  ffff  dw      0xffff
0060d8:  ffff  dw      0xffff
0060da:  ffff  dw      0xffff
0060dc:  ffff  dw      0xffff
0060de:  ffff  dw      0xffff
0060e0:  ffff  dw      0xffff
0060e2:  ffff  dw      0xffff
0060e4:  ffff  dw      0xffff
0060e6:  ffff  dw      0xffff
0060e8:  ffff  dw      0xffff
0060ea:  ffff  dw      0xffff
0060ec:  ffff  dw      0xffff
0060ee:  ffff  dw      0xffff
0060f0:  ffff  dw      0xffff
0060f2:  ffff  dw      0xffff
0060f4:  ffff  dw      0xffff
0060f6:  ffff  dw      0xffff
0060f8:  ffff  dw      0xffff
0060fa:  ffff  dw      0xffff
0060fc:  ffff  dw      0xffff
0060fe:  ffff  dw      0xffff
006100:  ffff  dw      0xffff
006102:  ffff  dw      0xffff
006104:  ffff  dw      0xffff
006106:  ffff  dw      0xffff
006108:  ffff  dw      0xffff
00610a:  ffff  dw      0xffff
00610c:  ffff  dw      0xffff
00610e:  ffff  dw      0xffff
006110:  ffff  dw      0xffff
006112:  ffff  dw      0xffff
006114:  ffff  dw      0xffff
006116:  ffff  dw      0xffff
006118:  ffff  dw      0xffff
00611a:  ffff  dw      0xffff
00611c:  ffff  dw      0xffff
00611e:  ffff  dw      0xffff
006120:  ffff  dw      0xffff
006122:  ffff  dw      0xffff
006124:  ffff  dw      0xffff
006126:  ffff  dw      0xffff
006128:  ffff  dw      0xffff
00612a:  ffff  dw      0xffff
00612c:  ffff  dw      0xffff
00612e:  ffff  dw      0xffff
006130:  ffff  dw      0xffff
006132:  ffff  dw      0xffff
006134:  ffff  dw      0xffff
006136:  ffff  dw      0xffff
006138:  ffff  dw      0xffff
00613a:  ffff  dw      0xffff
00613c:  ffff  dw      0xffff
00613e:  ffff  dw      0xffff
006140:  ffff  dw      0xffff
006142:  ffff  dw      0xffff
006144:  ffff  dw      0xffff
006146:  ffff  dw      0xffff
006148:  ffff  dw      0xffff
00614a:  ffff  dw      0xffff
00614c:  ffff  dw      0xffff
00614e:  ffff  dw      0xffff
006150:  ffff  dw      0xffff
006152:  ffff  dw      0xffff
006154:  ffff  dw      0xffff
006156:  ffff  dw      0xffff
006158:  ffff  dw      0xffff
00615a:  ffff  dw      0xffff
00615c:  ffff  dw      0xffff
00615e:  ffff  dw      0xffff
006160:  ffff  dw      0xffff
006162:  ffff  dw      0xffff
006164:  ffff  dw      0xffff
006166:  ffff  dw      0xffff
006168:  ffff  dw      0xffff
00616a:  ffff  dw      0xffff
00616c:  ffff  dw      0xffff
00616e:  ffff  dw      0xffff
006170:  ffff  dw      0xffff
006172:  ffff  dw      0xffff
006174:  ffff  dw      0xffff
006176:  ffff  dw      0xffff
006178:  ffff  dw      0xffff
00617a:  ffff  dw      0xffff
00617c:  ffff  dw      0xffff
00617e:  ffff  dw      0xffff
006180:  ffff  dw      0xffff
006182:  ffff  dw      0xffff
006184:  ffff  dw      0xffff
006186:  ffff  dw      0xffff
006188:  ffff  dw      0xffff
00618a:  ffff  dw      0xffff
00618c:  ffff  dw      0xffff
00618e:  ffff  dw      0xffff
006190:  ffff  dw      0xffff
006192:  ffff  dw      0xffff
006194:  ffff  dw      0xffff
006196:  ffff  dw      0xffff
006198:  ffff  dw      0xffff
00619a:  ffff  dw      0xffff
00619c:  ffff  dw      0xffff
00619e:  ffff  dw      0xffff
0061a0:  ffff  dw      0xffff
0061a2:  ffff  dw      0xffff
0061a4:  ffff  dw      0xffff
0061a6:  ffff  dw      0xffff
0061a8:  ffff  dw      0xffff
0061aa:  ffff  dw      0xffff
0061ac:  ffff  dw      0xffff
0061ae:  ffff  dw      0xffff
0061b0:  ffff  dw      0xffff
0061b2:  ffff  dw      0xffff
0061b4:  ffff  dw      0xffff
0061b6:  ffff  dw      0xffff
0061b8:  ffff  dw      0xffff
0061ba:  ffff  dw      0xffff
0061bc:  ffff  dw      0xffff
0061be:  ffff  dw      0xffff
0061c0:  ffff  dw      0xffff
0061c2:  ffff  dw      0xffff
0061c4:  ffff  dw      0xffff
0061c6:  ffff  dw      0xffff
0061c8:  ffff  dw      0xffff
0061ca:  ffff  dw      0xffff
0061cc:  ffff  dw      0xffff
0061ce:  ffff  dw      0xffff
0061d0:  ffff  dw      0xffff
0061d2:  ffff  dw      0xffff
0061d4:  ffff  dw      0xffff
0061d6:  ffff  dw      0xffff
0061d8:  ffff  dw      0xffff
0061da:  ffff  dw      0xffff
0061dc:  ffff  dw      0xffff
0061de:  ffff  dw      0xffff
0061e0:  ffff  dw      0xffff
0061e2:  ffff  dw      0xffff
0061e4:  ffff  dw      0xffff
0061e6:  ffff  dw      0xffff
0061e8:  ffff  dw      0xffff
0061ea:  ffff  dw      0xffff
0061ec:  ffff  dw      0xffff
0061ee:  ffff  dw      0xffff
0061f0:  ffff  dw      0xffff
0061f2:  ffff  dw      0xffff
0061f4:  ffff  dw      0xffff
0061f6:  ffff  dw      0xffff
0061f8:  ffff  dw      0xffff
0061fa:  ffff  dw      0xffff
0061fc:  ffff  dw      0xffff
0061fe:  ffff  dw      0xffff
006200:  ffff  dw      0xffff
006202:  ffff  dw      0xffff
006204:  ffff  dw      0xffff
006206:  ffff  dw      0xffff
006208:  ffff  dw      0xffff
00620a:  ffff  dw      0xffff
00620c:  ffff  dw      0xffff
00620e:  ffff  dw      0xffff
006210:  ffff  dw      0xffff
006212:  ffff  dw      0xffff
006214:  ffff  dw      0xffff
006216:  ffff  dw      0xffff
006218:  ffff  dw      0xffff
00621a:  ffff  dw      0xffff
00621c:  ffff  dw      0xffff
00621e:  ffff  dw      0xffff
006220:  ffff  dw      0xffff
006222:  ffff  dw      0xffff
006224:  ffff  dw      0xffff
006226:  ffff  dw      0xffff
006228:  ffff  dw      0xffff
00622a:  ffff  dw      0xffff
00622c:  ffff  dw      0xffff
00622e:  ffff  dw      0xffff
006230:  ffff  dw      0xffff
006232:  ffff  dw      0xffff
006234:  ffff  dw      0xffff
006236:  ffff  dw      0xffff
006238:  ffff  dw      0xffff
00623a:  ffff  dw      0xffff
00623c:  ffff  dw      0xffff
00623e:  ffff  dw      0xffff
006240:  ffff  dw      0xffff
006242:  ffff  dw      0xffff
006244:  ffff  dw      0xffff
006246:  ffff  dw      0xffff
006248:  ffff  dw      0xffff
00624a:  ffff  dw      0xffff
00624c:  ffff  dw      0xffff
00624e:  ffff  dw      0xffff
006250:  ffff  dw      0xffff
006252:  ffff  dw      0xffff
006254:  ffff  dw      0xffff
006256:  ffff  dw      0xffff
006258:  ffff  dw      0xffff
00625a:  ffff  dw      0xffff
00625c:  ffff  dw      0xffff
00625e:  ffff  dw      0xffff
006260:  ffff  dw      0xffff
006262:  ffff  dw      0xffff
006264:  ffff  dw      0xffff
006266:  ffff  dw      0xffff
006268:  ffff  dw      0xffff
00626a:  ffff  dw      0xffff
00626c:  ffff  dw      0xffff
00626e:  ffff  dw      0xffff
006270:  ffff  dw      0xffff
006272:  ffff  dw      0xffff
006274:  ffff  dw      0xffff
006276:  ffff  dw      0xffff
006278:  ffff  dw      0xffff
00627a:  ffff  dw      0xffff
00627c:  ffff  dw      0xffff
00627e:  ffff  dw      0xffff
006280:  ffff  dw      0xffff
006282:  ffff  dw      0xffff
006284:  ffff  dw      0xffff
006286:  ffff  dw      0xffff
006288:  ffff  dw      0xffff
00628a:  ffff  dw      0xffff
00628c:  ffff  dw      0xffff
00628e:  ffff  dw      0xffff
006290:  ffff  dw      0xffff
006292:  ffff  dw      0xffff
006294:  ffff  dw      0xffff
006296:  ffff  dw      0xffff
006298:  ffff  dw      0xffff
00629a:  ffff  dw      0xffff
00629c:  ffff  dw      0xffff
00629e:  ffff  dw      0xffff
0062a0:  ffff  dw      0xffff
0062a2:  ffff  dw      0xffff
0062a4:  ffff  dw      0xffff
0062a6:  ffff  dw      0xffff
0062a8:  ffff  dw      0xffff
0062aa:  ffff  dw      0xffff
0062ac:  ffff  dw      0xffff
0062ae:  ffff  dw      0xffff
0062b0:  ffff  dw      0xffff
0062b2:  ffff  dw      0xffff
0062b4:  ffff  dw      0xffff
0062b6:  ffff  dw      0xffff
0062b8:  ffff  dw      0xffff
0062ba:  ffff  dw      0xffff
0062bc:  ffff  dw      0xffff
0062be:  ffff  dw      0xffff
0062c0:  ffff  dw      0xffff
0062c2:  ffff  dw      0xffff
0062c4:  ffff  dw      0xffff
0062c6:  ffff  dw      0xffff
0062c8:  ffff  dw      0xffff
0062ca:  ffff  dw      0xffff
0062cc:  ffff  dw      0xffff
0062ce:  ffff  dw      0xffff
0062d0:  ffff  dw      0xffff
0062d2:  ffff  dw      0xffff
0062d4:  ffff  dw      0xffff
0062d6:  ffff  dw      0xffff
0062d8:  ffff  dw      0xffff
0062da:  ffff  dw      0xffff
0062dc:  ffff  dw      0xffff
0062de:  ffff  dw      0xffff
0062e0:  ffff  dw      0xffff
0062e2:  ffff  dw      0xffff
0062e4:  ffff  dw      0xffff
0062e6:  ffff  dw      0xffff
0062e8:  ffff  dw      0xffff
0062ea:  ffff  dw      0xffff
0062ec:  ffff  dw      0xffff
0062ee:  ffff  dw      0xffff
0062f0:  ffff  dw      0xffff
0062f2:  ffff  dw      0xffff
0062f4:  ffff  dw      0xffff
0062f6:  ffff  dw      0xffff
0062f8:  ffff  dw      0xffff
0062fa:  ffff  dw      0xffff
0062fc:  ffff  dw      0xffff
0062fe:  ffff  dw      0xffff
006300:  ffff  dw      0xffff
006302:  ffff  dw      0xffff
006304:  ffff  dw      0xffff
006306:  ffff  dw      0xffff
006308:  ffff  dw      0xffff
00630a:  ffff  dw      0xffff
00630c:  ffff  dw      0xffff
00630e:  ffff  dw      0xffff
006310:  ffff  dw      0xffff
006312:  ffff  dw      0xffff
006314:  ffff  dw      0xffff
006316:  ffff  dw      0xffff
006318:  ffff  dw      0xffff
00631a:  ffff  dw      0xffff
00631c:  ffff  dw      0xffff
00631e:  ffff  dw      0xffff
006320:  ffff  dw      0xffff
006322:  ffff  dw      0xffff
006324:  ffff  dw      0xffff
006326:  ffff  dw      0xffff
006328:  ffff  dw      0xffff
00632a:  ffff  dw      0xffff
00632c:  ffff  dw      0xffff
00632e:  ffff  dw      0xffff
006330:  ffff  dw      0xffff
006332:  ffff  dw      0xffff
006334:  ffff  dw      0xffff
006336:  ffff  dw      0xffff
006338:  ffff  dw      0xffff
00633a:  ffff  dw      0xffff
00633c:  ffff  dw      0xffff
00633e:  ffff  dw      0xffff
006340:  ffff  dw      0xffff
006342:  ffff  dw      0xffff
006344:  ffff  dw      0xffff
006346:  ffff  dw      0xffff
006348:  ffff  dw      0xffff
00634a:  ffff  dw      0xffff
00634c:  ffff  dw      0xffff
00634e:  ffff  dw      0xffff
006350:  ffff  dw      0xffff
006352:  ffff  dw      0xffff
006354:  ffff  dw      0xffff
006356:  ffff  dw      0xffff
006358:  ffff  dw      0xffff
00635a:  ffff  dw      0xffff
00635c:  ffff  dw      0xffff
00635e:  ffff  dw      0xffff
006360:  ffff  dw      0xffff
006362:  ffff  dw      0xffff
006364:  ffff  dw      0xffff
006366:  ffff  dw      0xffff
006368:  ffff  dw      0xffff
00636a:  ffff  dw      0xffff
00636c:  ffff  dw      0xffff
00636e:  ffff  dw      0xffff
006370:  ffff  dw      0xffff
006372:  ffff  dw      0xffff
006374:  ffff  dw      0xffff
006376:  ffff  dw      0xffff
006378:  ffff  dw      0xffff
00637a:  ffff  dw      0xffff
00637c:  ffff  dw      0xffff
00637e:  ffff  dw      0xffff
006380:  ffff  dw      0xffff
006382:  ffff  dw      0xffff
006384:  ffff  dw      0xffff
006386:  ffff  dw      0xffff
006388:  ffff  dw      0xffff
00638a:  ffff  dw      0xffff
00638c:  ffff  dw      0xffff
00638e:  ffff  dw      0xffff
006390:  ffff  dw      0xffff
006392:  ffff  dw      0xffff
006394:  ffff  dw      0xffff
006396:  ffff  dw      0xffff
006398:  ffff  dw      0xffff
00639a:  ffff  dw      0xffff
00639c:  ffff  dw      0xffff
00639e:  ffff  dw      0xffff
0063a0:  ffff  dw      0xffff
0063a2:  ffff  dw      0xffff
0063a4:  ffff  dw      0xffff
0063a6:  ffff  dw      0xffff
0063a8:  ffff  dw      0xffff
0063aa:  ffff  dw      0xffff
0063ac:  ffff  dw      0xffff
0063ae:  ffff  dw      0xffff
0063b0:  ffff  dw      0xffff
0063b2:  ffff  dw      0xffff
0063b4:  ffff  dw      0xffff
0063b6:  ffff  dw      0xffff
0063b8:  ffff  dw      0xffff
0063ba:  ffff  dw      0xffff
0063bc:  ffff  dw      0xffff
0063be:  ffff  dw      0xffff
0063c0:  ffff  dw      0xffff
0063c2:  ffff  dw      0xffff
0063c4:  ffff  dw      0xffff
0063c6:  ffff  dw      0xffff
0063c8:  ffff  dw      0xffff
0063ca:  ffff  dw      0xffff
0063cc:  ffff  dw      0xffff
0063ce:  ffff  dw      0xffff
0063d0:  ffff  dw      0xffff
0063d2:  ffff  dw      0xffff
0063d4:  ffff  dw      0xffff
0063d6:  ffff  dw      0xffff
0063d8:  ffff  dw      0xffff
0063da:  ffff  dw      0xffff
0063dc:  ffff  dw      0xffff
0063de:  ffff  dw      0xffff
0063e0:  ffff  dw      0xffff
0063e2:  ffff  dw      0xffff
0063e4:  ffff  dw      0xffff
0063e6:  ffff  dw      0xffff
0063e8:  ffff  dw      0xffff
0063ea:  ffff  dw      0xffff
0063ec:  ffff  dw      0xffff
0063ee:  ffff  dw      0xffff
0063f0:  ffff  dw      0xffff
0063f2:  ffff  dw      0xffff
0063f4:  ffff  dw      0xffff
0063f6:  ffff  dw      0xffff
0063f8:  ffff  dw      0xffff
0063fa:  ffff  dw      0xffff
0063fc:  ffff  dw      0xffff
0063fe:  ffff  dw      0xffff
006400:  ffff  dw      0xffff
006402:  ffff  dw      0xffff
006404:  ffff  dw      0xffff
006406:  ffff  dw      0xffff
006408:  ffff  dw      0xffff
00640a:  ffff  dw      0xffff
00640c:  ffff  dw      0xffff
00640e:  ffff  dw      0xffff
006410:  ffff  dw      0xffff
006412:  ffff  dw      0xffff
006414:  ffff  dw      0xffff
006416:  ffff  dw      0xffff
006418:  ffff  dw      0xffff
00641a:  ffff  dw      0xffff
00641c:  ffff  dw      0xffff
00641e:  ffff  dw      0xffff
006420:  ffff  dw      0xffff
006422:  ffff  dw      0xffff
006424:  ffff  dw      0xffff
006426:  ffff  dw      0xffff
006428:  ffff  dw      0xffff
00642a:  ffff  dw      0xffff
00642c:  ffff  dw      0xffff
00642e:  ffff  dw      0xffff
006430:  ffff  dw      0xffff
006432:  ffff  dw      0xffff
006434:  ffff  dw      0xffff
006436:  ffff  dw      0xffff
006438:  ffff  dw      0xffff
00643a:  ffff  dw      0xffff
00643c:  ffff  dw      0xffff
00643e:  ffff  dw      0xffff
006440:  ffff  dw      0xffff
006442:  ffff  dw      0xffff
006444:  ffff  dw      0xffff
006446:  ffff  dw      0xffff
006448:  ffff  dw      0xffff
00644a:  ffff  dw      0xffff
00644c:  ffff  dw      0xffff
00644e:  ffff  dw      0xffff
006450:  ffff  dw      0xffff
006452:  ffff  dw      0xffff
006454:  ffff  dw      0xffff
006456:  ffff  dw      0xffff
006458:  ffff  dw      0xffff
00645a:  ffff  dw      0xffff
00645c:  ffff  dw      0xffff
00645e:  ffff  dw      0xffff
006460:  ffff  dw      0xffff
006462:  ffff  dw      0xffff
006464:  ffff  dw      0xffff
006466:  ffff  dw      0xffff
006468:  ffff  dw      0xffff
00646a:  ffff  dw      0xffff
00646c:  ffff  dw      0xffff
00646e:  ffff  dw      0xffff
006470:  ffff  dw      0xffff
006472:  ffff  dw      0xffff
006474:  ffff  dw      0xffff
006476:  ffff  dw      0xffff
006478:  ffff  dw      0xffff
00647a:  ffff  dw      0xffff
00647c:  ffff  dw      0xffff
00647e:  ffff  dw      0xffff
006480:  ffff  dw      0xffff
006482:  ffff  dw      0xffff
006484:  ffff  dw      0xffff
006486:  ffff  dw      0xffff
006488:  ffff  dw      0xffff
00648a:  ffff  dw      0xffff
00648c:  ffff  dw      0xffff
00648e:  ffff  dw      0xffff
006490:  ffff  dw      0xffff
006492:  ffff  dw      0xffff
006494:  ffff  dw      0xffff
006496:  ffff  dw      0xffff
006498:  ffff  dw      0xffff
00649a:  ffff  dw      0xffff
00649c:  ffff  dw      0xffff
00649e:  ffff  dw      0xffff
0064a0:  ffff  dw      0xffff
0064a2:  ffff  dw      0xffff
0064a4:  ffff  dw      0xffff
0064a6:  ffff  dw      0xffff
0064a8:  ffff  dw      0xffff
0064aa:  ffff  dw      0xffff
0064ac:  ffff  dw      0xffff
0064ae:  ffff  dw      0xffff
0064b0:  ffff  dw      0xffff
0064b2:  ffff  dw      0xffff
0064b4:  ffff  dw      0xffff
0064b6:  ffff  dw      0xffff
0064b8:  ffff  dw      0xffff
0064ba:  ffff  dw      0xffff
0064bc:  ffff  dw      0xffff
0064be:  ffff  dw      0xffff
0064c0:  ffff  dw      0xffff
0064c2:  ffff  dw      0xffff
0064c4:  ffff  dw      0xffff
0064c6:  ffff  dw      0xffff
0064c8:  ffff  dw      0xffff
0064ca:  ffff  dw      0xffff
0064cc:  ffff  dw      0xffff
0064ce:  ffff  dw      0xffff
0064d0:  ffff  dw      0xffff
0064d2:  ffff  dw      0xffff
0064d4:  ffff  dw      0xffff
0064d6:  ffff  dw      0xffff
0064d8:  ffff  dw      0xffff
0064da:  ffff  dw      0xffff
0064dc:  ffff  dw      0xffff
0064de:  ffff  dw      0xffff
0064e0:  ffff  dw      0xffff
0064e2:  ffff  dw      0xffff
0064e4:  ffff  dw      0xffff
0064e6:  ffff  dw      0xffff
0064e8:  ffff  dw      0xffff
0064ea:  ffff  dw      0xffff
0064ec:  ffff  dw      0xffff
0064ee:  ffff  dw      0xffff
0064f0:  ffff  dw      0xffff
0064f2:  ffff  dw      0xffff
0064f4:  ffff  dw      0xffff
0064f6:  ffff  dw      0xffff
0064f8:  ffff  dw      0xffff
0064fa:  ffff  dw      0xffff
0064fc:  ffff  dw      0xffff
0064fe:  ffff  dw      0xffff
006500:  ffff  dw      0xffff
006502:  ffff  dw      0xffff
006504:  ffff  dw      0xffff
006506:  ffff  dw      0xffff
006508:  ffff  dw      0xffff
00650a:  ffff  dw      0xffff
00650c:  ffff  dw      0xffff
00650e:  ffff  dw      0xffff
006510:  ffff  dw      0xffff
006512:  ffff  dw      0xffff
006514:  ffff  dw      0xffff
006516:  ffff  dw      0xffff
006518:  ffff  dw      0xffff
00651a:  ffff  dw      0xffff
00651c:  ffff  dw      0xffff
00651e:  ffff  dw      0xffff
006520:  ffff  dw      0xffff
006522:  ffff  dw      0xffff
006524:  ffff  dw      0xffff
006526:  ffff  dw      0xffff
006528:  ffff  dw      0xffff
00652a:  ffff  dw      0xffff
00652c:  ffff  dw      0xffff
00652e:  ffff  dw      0xffff
006530:  ffff  dw      0xffff
006532:  ffff  dw      0xffff
006534:  ffff  dw      0xffff
006536:  ffff  dw      0xffff
006538:  ffff  dw      0xffff
00653a:  ffff  dw      0xffff
00653c:  ffff  dw      0xffff
00653e:  ffff  dw      0xffff
006540:  ffff  dw      0xffff
006542:  ffff  dw      0xffff
006544:  ffff  dw      0xffff
006546:  ffff  dw      0xffff
006548:  ffff  dw      0xffff
00654a:  ffff  dw      0xffff
00654c:  ffff  dw      0xffff
00654e:  ffff  dw      0xffff
006550:  ffff  dw      0xffff
006552:  ffff  dw      0xffff
006554:  ffff  dw      0xffff
006556:  ffff  dw      0xffff
006558:  ffff  dw      0xffff
00655a:  ffff  dw      0xffff
00655c:  ffff  dw      0xffff
00655e:  ffff  dw      0xffff
006560:  ffff  dw      0xffff
006562:  ffff  dw      0xffff
006564:  ffff  dw      0xffff
006566:  ffff  dw      0xffff
006568:  ffff  dw      0xffff
00656a:  ffff  dw      0xffff
00656c:  ffff  dw      0xffff
00656e:  ffff  dw      0xffff
006570:  ffff  dw      0xffff
006572:  ffff  dw      0xffff
006574:  ffff  dw      0xffff
006576:  ffff  dw      0xffff
006578:  ffff  dw      0xffff
00657a:  ffff  dw      0xffff
00657c:  ffff  dw      0xffff
00657e:  ffff  dw      0xffff
006580:  ffff  dw      0xffff
006582:  ffff  dw      0xffff
006584:  ffff  dw      0xffff
006586:  ffff  dw      0xffff
006588:  ffff  dw      0xffff
00658a:  ffff  dw      0xffff
00658c:  ffff  dw      0xffff
00658e:  ffff  dw      0xffff
006590:  ffff  dw      0xffff
006592:  ffff  dw      0xffff
006594:  ffff  dw      0xffff
006596:  ffff  dw      0xffff
006598:  ffff  dw      0xffff
00659a:  ffff  dw      0xffff
00659c:  ffff  dw      0xffff
00659e:  ffff  dw      0xffff
0065a0:  ffff  dw      0xffff
0065a2:  ffff  dw      0xffff
0065a4:  ffff  dw      0xffff
0065a6:  ffff  dw      0xffff
0065a8:  ffff  dw      0xffff
0065aa:  ffff  dw      0xffff
0065ac:  ffff  dw      0xffff
0065ae:  ffff  dw      0xffff
0065b0:  ffff  dw      0xffff
0065b2:  ffff  dw      0xffff
0065b4:  ffff  dw      0xffff
0065b6:  ffff  dw      0xffff
0065b8:  ffff  dw      0xffff
0065ba:  ffff  dw      0xffff
0065bc:  ffff  dw      0xffff
0065be:  ffff  dw      0xffff
0065c0:  ffff  dw      0xffff
0065c2:  ffff  dw      0xffff
0065c4:  ffff  dw      0xffff
0065c6:  ffff  dw      0xffff
0065c8:  ffff  dw      0xffff
0065ca:  ffff  dw      0xffff
0065cc:  ffff  dw      0xffff
0065ce:  ffff  dw      0xffff
0065d0:  ffff  dw      0xffff
0065d2:  ffff  dw      0xffff
0065d4:  ffff  dw      0xffff
0065d6:  ffff  dw      0xffff
0065d8:  ffff  dw      0xffff
0065da:  ffff  dw      0xffff
0065dc:  ffff  dw      0xffff
0065de:  ffff  dw      0xffff
0065e0:  ffff  dw      0xffff
0065e2:  ffff  dw      0xffff
0065e4:  ffff  dw      0xffff
0065e6:  ffff  dw      0xffff
0065e8:  ffff  dw      0xffff
0065ea:  ffff  dw      0xffff
0065ec:  ffff  dw      0xffff
0065ee:  ffff  dw      0xffff
0065f0:  ffff  dw      0xffff
0065f2:  ffff  dw      0xffff
0065f4:  ffff  dw      0xffff
0065f6:  ffff  dw      0xffff
0065f8:  ffff  dw      0xffff
0065fa:  ffff  dw      0xffff
0065fc:  ffff  dw      0xffff
0065fe:  ffff  dw      0xffff
006600:  ffff  dw      0xffff
006602:  ffff  dw      0xffff
006604:  ffff  dw      0xffff
006606:  ffff  dw      0xffff
006608:  ffff  dw      0xffff
00660a:  ffff  dw      0xffff
00660c:  ffff  dw      0xffff
00660e:  ffff  dw      0xffff
006610:  ffff  dw      0xffff
006612:  ffff  dw      0xffff
006614:  ffff  dw      0xffff
006616:  ffff  dw      0xffff
006618:  ffff  dw      0xffff
00661a:  ffff  dw      0xffff
00661c:  ffff  dw      0xffff
00661e:  ffff  dw      0xffff
006620:  ffff  dw      0xffff
006622:  ffff  dw      0xffff
006624:  ffff  dw      0xffff
006626:  ffff  dw      0xffff
006628:  ffff  dw      0xffff
00662a:  ffff  dw      0xffff
00662c:  ffff  dw      0xffff
00662e:  ffff  dw      0xffff
006630:  ffff  dw      0xffff
006632:  ffff  dw      0xffff
006634:  ffff  dw      0xffff
006636:  ffff  dw      0xffff
006638:  ffff  dw      0xffff
00663a:  ffff  dw      0xffff
00663c:  ffff  dw      0xffff
00663e:  ffff  dw      0xffff
006640:  ffff  dw      0xffff
006642:  ffff  dw      0xffff
006644:  ffff  dw      0xffff
006646:  ffff  dw      0xffff
006648:  ffff  dw      0xffff
00664a:  ffff  dw      0xffff
00664c:  ffff  dw      0xffff
00664e:  ffff  dw      0xffff
006650:  ffff  dw      0xffff
006652:  ffff  dw      0xffff
006654:  ffff  dw      0xffff
006656:  ffff  dw      0xffff
006658:  ffff  dw      0xffff
00665a:  ffff  dw      0xffff
00665c:  ffff  dw      0xffff
00665e:  ffff  dw      0xffff
006660:  ffff  dw      0xffff
006662:  ffff  dw      0xffff
006664:  ffff  dw      0xffff
006666:  ffff  dw      0xffff
006668:  ffff  dw      0xffff
00666a:  ffff  dw      0xffff
00666c:  ffff  dw      0xffff
00666e:  ffff  dw      0xffff
006670:  ffff  dw      0xffff
006672:  ffff  dw      0xffff
006674:  ffff  dw      0xffff
006676:  ffff  dw      0xffff
006678:  ffff  dw      0xffff
00667a:  ffff  dw      0xffff
00667c:  ffff  dw      0xffff
00667e:  ffff  dw      0xffff
006680:  ffff  dw      0xffff
006682:  ffff  dw      0xffff
006684:  ffff  dw      0xffff
006686:  ffff  dw      0xffff
006688:  ffff  dw      0xffff
00668a:  ffff  dw      0xffff
00668c:  ffff  dw      0xffff
00668e:  ffff  dw      0xffff
006690:  ffff  dw      0xffff
006692:  ffff  dw      0xffff
006694:  ffff  dw      0xffff
006696:  ffff  dw      0xffff
006698:  ffff  dw      0xffff
00669a:  ffff  dw      0xffff
00669c:  ffff  dw      0xffff
00669e:  ffff  dw      0xffff
0066a0:  ffff  dw      0xffff
0066a2:  ffff  dw      0xffff
0066a4:  ffff  dw      0xffff
0066a6:  ffff  dw      0xffff
0066a8:  ffff  dw      0xffff
0066aa:  ffff  dw      0xffff
0066ac:  ffff  dw      0xffff
0066ae:  ffff  dw      0xffff
0066b0:  ffff  dw      0xffff
0066b2:  ffff  dw      0xffff
0066b4:  ffff  dw      0xffff
0066b6:  ffff  dw      0xffff
0066b8:  ffff  dw      0xffff
0066ba:  ffff  dw      0xffff
0066bc:  ffff  dw      0xffff
0066be:  ffff  dw      0xffff
0066c0:  ffff  dw      0xffff
0066c2:  ffff  dw      0xffff
0066c4:  ffff  dw      0xffff
0066c6:  ffff  dw      0xffff
0066c8:  ffff  dw      0xffff
0066ca:  ffff  dw      0xffff
0066cc:  ffff  dw      0xffff
0066ce:  ffff  dw      0xffff
0066d0:  ffff  dw      0xffff
0066d2:  ffff  dw      0xffff
0066d4:  ffff  dw      0xffff
0066d6:  ffff  dw      0xffff
0066d8:  ffff  dw      0xffff
0066da:  ffff  dw      0xffff
0066dc:  ffff  dw      0xffff
0066de:  ffff  dw      0xffff
0066e0:  ffff  dw      0xffff
0066e2:  ffff  dw      0xffff
0066e4:  ffff  dw      0xffff
0066e6:  ffff  dw      0xffff
0066e8:  ffff  dw      0xffff
0066ea:  ffff  dw      0xffff
0066ec:  ffff  dw      0xffff
0066ee:  ffff  dw      0xffff
0066f0:  ffff  dw      0xffff
0066f2:  ffff  dw      0xffff
0066f4:  ffff  dw      0xffff
0066f6:  ffff  dw      0xffff
0066f8:  ffff  dw      0xffff
0066fa:  ffff  dw      0xffff
0066fc:  ffff  dw      0xffff
0066fe:  ffff  dw      0xffff
006700:  ffff  dw      0xffff
006702:  ffff  dw      0xffff
006704:  ffff  dw      0xffff
006706:  ffff  dw      0xffff
006708:  ffff  dw      0xffff
00670a:  ffff  dw      0xffff
00670c:  ffff  dw      0xffff
00670e:  ffff  dw      0xffff
006710:  ffff  dw      0xffff
006712:  ffff  dw      0xffff
006714:  ffff  dw      0xffff
006716:  ffff  dw      0xffff
006718:  ffff  dw      0xffff
00671a:  ffff  dw      0xffff
00671c:  ffff  dw      0xffff
00671e:  ffff  dw      0xffff
006720:  ffff  dw      0xffff
006722:  ffff  dw      0xffff
006724:  ffff  dw      0xffff
006726:  ffff  dw      0xffff
006728:  ffff  dw      0xffff
00672a:  ffff  dw      0xffff
00672c:  ffff  dw      0xffff
00672e:  ffff  dw      0xffff
006730:  ffff  dw      0xffff
006732:  ffff  dw      0xffff
006734:  ffff  dw      0xffff
006736:  ffff  dw      0xffff
006738:  ffff  dw      0xffff
00673a:  ffff  dw      0xffff
00673c:  ffff  dw      0xffff
00673e:  ffff  dw      0xffff
006740:  ffff  dw      0xffff
006742:  ffff  dw      0xffff
006744:  ffff  dw      0xffff
006746:  ffff  dw      0xffff
006748:  ffff  dw      0xffff
00674a:  ffff  dw      0xffff
00674c:  ffff  dw      0xffff
00674e:  ffff  dw      0xffff
006750:  ffff  dw      0xffff
006752:  ffff  dw      0xffff
006754:  ffff  dw      0xffff
006756:  ffff  dw      0xffff
006758:  ffff  dw      0xffff
00675a:  ffff  dw      0xffff
00675c:  ffff  dw      0xffff
00675e:  ffff  dw      0xffff
006760:  ffff  dw      0xffff
006762:  ffff  dw      0xffff
006764:  ffff  dw      0xffff
006766:  ffff  dw      0xffff
006768:  ffff  dw      0xffff
00676a:  ffff  dw      0xffff
00676c:  ffff  dw      0xffff
00676e:  ffff  dw      0xffff
006770:  ffff  dw      0xffff
006772:  ffff  dw      0xffff
006774:  ffff  dw      0xffff
006776:  ffff  dw      0xffff
006778:  ffff  dw      0xffff
00677a:  ffff  dw      0xffff
00677c:  ffff  dw      0xffff
00677e:  ffff  dw      0xffff
006780:  ffff  dw      0xffff
006782:  ffff  dw      0xffff
006784:  ffff  dw      0xffff
006786:  ffff  dw      0xffff
006788:  ffff  dw      0xffff
00678a:  ffff  dw      0xffff
00678c:  ffff  dw      0xffff
00678e:  ffff  dw      0xffff
006790:  ffff  dw      0xffff
006792:  ffff  dw      0xffff
006794:  ffff  dw      0xffff
006796:  ffff  dw      0xffff
006798:  ffff  dw      0xffff
00679a:  ffff  dw      0xffff
00679c:  ffff  dw      0xffff
00679e:  ffff  dw      0xffff
0067a0:  ffff  dw      0xffff
0067a2:  ffff  dw      0xffff
0067a4:  ffff  dw      0xffff
0067a6:  ffff  dw      0xffff
0067a8:  ffff  dw      0xffff
0067aa:  ffff  dw      0xffff
0067ac:  ffff  dw      0xffff
0067ae:  ffff  dw      0xffff
0067b0:  ffff  dw      0xffff
0067b2:  ffff  dw      0xffff
0067b4:  ffff  dw      0xffff
0067b6:  ffff  dw      0xffff
0067b8:  ffff  dw      0xffff
0067ba:  ffff  dw      0xffff
0067bc:  ffff  dw      0xffff
0067be:  ffff  dw      0xffff
0067c0:  ffff  dw      0xffff
0067c2:  ffff  dw      0xffff
0067c4:  ffff  dw      0xffff
0067c6:  ffff  dw      0xffff
0067c8:  ffff  dw      0xffff
0067ca:  ffff  dw      0xffff
0067cc:  ffff  dw      0xffff
0067ce:  ffff  dw      0xffff
0067d0:  ffff  dw      0xffff
0067d2:  ffff  dw      0xffff
0067d4:  ffff  dw      0xffff
0067d6:  ffff  dw      0xffff
0067d8:  ffff  dw      0xffff
0067da:  ffff  dw      0xffff
0067dc:  ffff  dw      0xffff
0067de:  ffff  dw      0xffff
0067e0:  ffff  dw      0xffff
0067e2:  ffff  dw      0xffff
0067e4:  ffff  dw      0xffff
0067e6:  ffff  dw      0xffff
0067e8:  ffff  dw      0xffff
0067ea:  ffff  dw      0xffff
0067ec:  ffff  dw      0xffff
0067ee:  ffff  dw      0xffff
0067f0:  ffff  dw      0xffff
0067f2:  ffff  dw      0xffff
0067f4:  ffff  dw      0xffff
0067f6:  ffff  dw      0xffff
0067f8:  ffff  dw      0xffff
0067fa:  ffff  dw      0xffff
0067fc:  ffff  dw      0xffff
0067fe:  ffff  dw      0xffff
006800:  ffff  dw      0xffff
006802:  ffff  dw      0xffff
006804:  ffff  dw      0xffff
006806:  ffff  dw      0xffff
006808:  ffff  dw      0xffff
00680a:  ffff  dw      0xffff
00680c:  ffff  dw      0xffff
00680e:  ffff  dw      0xffff
006810:  ffff  dw      0xffff
006812:  ffff  dw      0xffff
006814:  ffff  dw      0xffff
006816:  ffff  dw      0xffff
006818:  ffff  dw      0xffff
00681a:  ffff  dw      0xffff
00681c:  ffff  dw      0xffff
00681e:  ffff  dw      0xffff
006820:  ffff  dw      0xffff
006822:  ffff  dw      0xffff
006824:  ffff  dw      0xffff
006826:  ffff  dw      0xffff
006828:  ffff  dw      0xffff
00682a:  ffff  dw      0xffff
00682c:  ffff  dw      0xffff
00682e:  ffff  dw      0xffff
006830:  ffff  dw      0xffff
006832:  ffff  dw      0xffff
006834:  ffff  dw      0xffff
006836:  ffff  dw      0xffff
006838:  ffff  dw      0xffff
00683a:  ffff  dw      0xffff
00683c:  ffff  dw      0xffff
00683e:  ffff  dw      0xffff
006840:  ffff  dw      0xffff
006842:  ffff  dw      0xffff
006844:  ffff  dw      0xffff
006846:  ffff  dw      0xffff
006848:  ffff  dw      0xffff
00684a:  ffff  dw      0xffff
00684c:  ffff  dw      0xffff
00684e:  ffff  dw      0xffff
006850:  ffff  dw      0xffff
006852:  ffff  dw      0xffff
006854:  ffff  dw      0xffff
006856:  ffff  dw      0xffff
006858:  ffff  dw      0xffff
00685a:  ffff  dw      0xffff
00685c:  ffff  dw      0xffff
00685e:  ffff  dw      0xffff
006860:  ffff  dw      0xffff
006862:  ffff  dw      0xffff
006864:  ffff  dw      0xffff
006866:  ffff  dw      0xffff
006868:  ffff  dw      0xffff
00686a:  ffff  dw      0xffff
00686c:  ffff  dw      0xffff
00686e:  ffff  dw      0xffff
006870:  ffff  dw      0xffff
006872:  ffff  dw      0xffff
006874:  ffff  dw      0xffff
006876:  ffff  dw      0xffff
006878:  ffff  dw      0xffff
00687a:  ffff  dw      0xffff
00687c:  ffff  dw      0xffff
00687e:  ffff  dw      0xffff
006880:  ffff  dw      0xffff
006882:  ffff  dw      0xffff
006884:  ffff  dw      0xffff
006886:  ffff  dw      0xffff
006888:  ffff  dw      0xffff
00688a:  ffff  dw      0xffff
00688c:  ffff  dw      0xffff
00688e:  ffff  dw      0xffff
006890:  ffff  dw      0xffff
006892:  ffff  dw      0xffff
006894:  ffff  dw      0xffff
006896:  ffff  dw      0xffff
006898:  ffff  dw      0xffff
00689a:  ffff  dw      0xffff
00689c:  ffff  dw      0xffff
00689e:  ffff  dw      0xffff
0068a0:  ffff  dw      0xffff
0068a2:  ffff  dw      0xffff
0068a4:  ffff  dw      0xffff
0068a6:  ffff  dw      0xffff
0068a8:  ffff  dw      0xffff
0068aa:  ffff  dw      0xffff
0068ac:  ffff  dw      0xffff
0068ae:  ffff  dw      0xffff
0068b0:  ffff  dw      0xffff
0068b2:  ffff  dw      0xffff
0068b4:  ffff  dw      0xffff
0068b6:  ffff  dw      0xffff
0068b8:  ffff  dw      0xffff
0068ba:  ffff  dw      0xffff
0068bc:  ffff  dw      0xffff
0068be:  ffff  dw      0xffff
0068c0:  ffff  dw      0xffff
0068c2:  ffff  dw      0xffff
0068c4:  ffff  dw      0xffff
0068c6:  ffff  dw      0xffff
0068c8:  ffff  dw      0xffff
0068ca:  ffff  dw      0xffff
0068cc:  ffff  dw      0xffff
0068ce:  ffff  dw      0xffff
0068d0:  ffff  dw      0xffff
0068d2:  ffff  dw      0xffff
0068d4:  ffff  dw      0xffff
0068d6:  ffff  dw      0xffff
0068d8:  ffff  dw      0xffff
0068da:  ffff  dw      0xffff
0068dc:  ffff  dw      0xffff
0068de:  ffff  dw      0xffff
0068e0:  ffff  dw      0xffff
0068e2:  ffff  dw      0xffff
0068e4:  ffff  dw      0xffff
0068e6:  ffff  dw      0xffff
0068e8:  ffff  dw      0xffff
0068ea:  ffff  dw      0xffff
0068ec:  ffff  dw      0xffff
0068ee:  ffff  dw      0xffff
0068f0:  ffff  dw      0xffff
0068f2:  ffff  dw      0xffff
0068f4:  ffff  dw      0xffff
0068f6:  ffff  dw      0xffff
0068f8:  ffff  dw      0xffff
0068fa:  ffff  dw      0xffff
0068fc:  ffff  dw      0xffff
0068fe:  ffff  dw      0xffff
006900:  ffff  dw      0xffff
006902:  ffff  dw      0xffff
006904:  ffff  dw      0xffff
006906:  ffff  dw      0xffff
006908:  ffff  dw      0xffff
00690a:  ffff  dw      0xffff
00690c:  ffff  dw      0xffff
00690e:  ffff  dw      0xffff
006910:  ffff  dw      0xffff
006912:  ffff  dw      0xffff
006914:  ffff  dw      0xffff
006916:  ffff  dw      0xffff
006918:  ffff  dw      0xffff
00691a:  ffff  dw      0xffff
00691c:  ffff  dw      0xffff
00691e:  ffff  dw      0xffff
006920:  ffff  dw      0xffff
006922:  ffff  dw      0xffff
006924:  ffff  dw      0xffff
006926:  ffff  dw      0xffff
006928:  ffff  dw      0xffff
00692a:  ffff  dw      0xffff
00692c:  ffff  dw      0xffff
00692e:  ffff  dw      0xffff
006930:  ffff  dw      0xffff
006932:  ffff  dw      0xffff
006934:  ffff  dw      0xffff
006936:  ffff  dw      0xffff
006938:  ffff  dw      0xffff
00693a:  ffff  dw      0xffff
00693c:  ffff  dw      0xffff
00693e:  ffff  dw      0xffff
006940:  ffff  dw      0xffff
006942:  ffff  dw      0xffff
006944:  ffff  dw      0xffff
006946:  ffff  dw      0xffff
006948:  ffff  dw      0xffff
00694a:  ffff  dw      0xffff
00694c:  ffff  dw      0xffff
00694e:  ffff  dw      0xffff
006950:  ffff  dw      0xffff
006952:  ffff  dw      0xffff
006954:  ffff  dw      0xffff
006956:  ffff  dw      0xffff
006958:  ffff  dw      0xffff
00695a:  ffff  dw      0xffff
00695c:  ffff  dw      0xffff
00695e:  ffff  dw      0xffff
006960:  ffff  dw      0xffff
006962:  ffff  dw      0xffff
006964:  ffff  dw      0xffff
006966:  ffff  dw      0xffff
006968:  ffff  dw      0xffff
00696a:  ffff  dw      0xffff
00696c:  ffff  dw      0xffff
00696e:  ffff  dw      0xffff
006970:  ffff  dw      0xffff
006972:  ffff  dw      0xffff
006974:  ffff  dw      0xffff
006976:  ffff  dw      0xffff
006978:  ffff  dw      0xffff
00697a:  ffff  dw      0xffff
00697c:  ffff  dw      0xffff
00697e:  ffff  dw      0xffff
006980:  ffff  dw      0xffff
006982:  ffff  dw      0xffff
006984:  ffff  dw      0xffff
006986:  ffff  dw      0xffff
006988:  ffff  dw      0xffff
00698a:  ffff  dw      0xffff
00698c:  ffff  dw      0xffff
00698e:  ffff  dw      0xffff
006990:  ffff  dw      0xffff
006992:  ffff  dw      0xffff
006994:  ffff  dw      0xffff
006996:  ffff  dw      0xffff
006998:  ffff  dw      0xffff
00699a:  ffff  dw      0xffff
00699c:  ffff  dw      0xffff
00699e:  ffff  dw      0xffff
0069a0:  ffff  dw      0xffff
0069a2:  ffff  dw      0xffff
0069a4:  ffff  dw      0xffff
0069a6:  ffff  dw      0xffff
0069a8:  ffff  dw      0xffff
0069aa:  ffff  dw      0xffff
0069ac:  ffff  dw      0xffff
0069ae:  ffff  dw      0xffff
0069b0:  ffff  dw      0xffff
0069b2:  ffff  dw      0xffff
0069b4:  ffff  dw      0xffff
0069b6:  ffff  dw      0xffff
0069b8:  ffff  dw      0xffff
0069ba:  ffff  dw      0xffff
0069bc:  ffff  dw      0xffff
0069be:  ffff  dw      0xffff
0069c0:  ffff  dw      0xffff
0069c2:  ffff  dw      0xffff
0069c4:  ffff  dw      0xffff
0069c6:  ffff  dw      0xffff
0069c8:  ffff  dw      0xffff
0069ca:  ffff  dw      0xffff
0069cc:  ffff  dw      0xffff
0069ce:  ffff  dw      0xffff
0069d0:  ffff  dw      0xffff
0069d2:  ffff  dw      0xffff
0069d4:  ffff  dw      0xffff
0069d6:  ffff  dw      0xffff
0069d8:  ffff  dw      0xffff
0069da:  ffff  dw      0xffff
0069dc:  ffff  dw      0xffff
0069de:  ffff  dw      0xffff
0069e0:  ffff  dw      0xffff
0069e2:  ffff  dw      0xffff
0069e4:  ffff  dw      0xffff
0069e6:  ffff  dw      0xffff
0069e8:  ffff  dw      0xffff
0069ea:  ffff  dw      0xffff
0069ec:  ffff  dw      0xffff
0069ee:  ffff  dw      0xffff
0069f0:  ffff  dw      0xffff
0069f2:  ffff  dw      0xffff
0069f4:  ffff  dw      0xffff
0069f6:  ffff  dw      0xffff
0069f8:  ffff  dw      0xffff
0069fa:  ffff  dw      0xffff
0069fc:  ffff  dw      0xffff
0069fe:  ffff  dw      0xffff
006a00:  ffff  dw      0xffff
006a02:  ffff  dw      0xffff
006a04:  ffff  dw      0xffff
006a06:  ffff  dw      0xffff
006a08:  ffff  dw      0xffff
006a0a:  ffff  dw      0xffff
006a0c:  ffff  dw      0xffff
006a0e:  ffff  dw      0xffff
006a10:  ffff  dw      0xffff
006a12:  ffff  dw      0xffff
006a14:  ffff  dw      0xffff
006a16:  ffff  dw      0xffff
006a18:  ffff  dw      0xffff
006a1a:  ffff  dw      0xffff
006a1c:  ffff  dw      0xffff
006a1e:  ffff  dw      0xffff
006a20:  ffff  dw      0xffff
006a22:  ffff  dw      0xffff
006a24:  ffff  dw      0xffff
006a26:  ffff  dw      0xffff
006a28:  ffff  dw      0xffff
006a2a:  ffff  dw      0xffff
006a2c:  ffff  dw      0xffff
006a2e:  ffff  dw      0xffff
006a30:  ffff  dw      0xffff
006a32:  ffff  dw      0xffff
006a34:  ffff  dw      0xffff
006a36:  ffff  dw      0xffff
006a38:  ffff  dw      0xffff
006a3a:  ffff  dw      0xffff
006a3c:  ffff  dw      0xffff
006a3e:  ffff  dw      0xffff
006a40:  ffff  dw      0xffff
006a42:  ffff  dw      0xffff
006a44:  ffff  dw      0xffff
006a46:  ffff  dw      0xffff
006a48:  ffff  dw      0xffff
006a4a:  ffff  dw      0xffff
006a4c:  ffff  dw      0xffff
006a4e:  ffff  dw      0xffff
006a50:  ffff  dw      0xffff
006a52:  ffff  dw      0xffff
006a54:  ffff  dw      0xffff
006a56:  ffff  dw      0xffff
006a58:  ffff  dw      0xffff
006a5a:  ffff  dw      0xffff
006a5c:  ffff  dw      0xffff
006a5e:  ffff  dw      0xffff
006a60:  ffff  dw      0xffff
006a62:  ffff  dw      0xffff
006a64:  ffff  dw      0xffff
006a66:  ffff  dw      0xffff
006a68:  ffff  dw      0xffff
006a6a:  ffff  dw      0xffff
006a6c:  ffff  dw      0xffff
006a6e:  ffff  dw      0xffff
006a70:  ffff  dw      0xffff
006a72:  ffff  dw      0xffff
006a74:  ffff  dw      0xffff
006a76:  ffff  dw      0xffff
006a78:  ffff  dw      0xffff
006a7a:  ffff  dw      0xffff
006a7c:  ffff  dw      0xffff
006a7e:  ffff  dw      0xffff
006a80:  ffff  dw      0xffff
006a82:  ffff  dw      0xffff
006a84:  ffff  dw      0xffff
006a86:  ffff  dw      0xffff
006a88:  ffff  dw      0xffff
006a8a:  ffff  dw      0xffff
006a8c:  ffff  dw      0xffff
006a8e:  ffff  dw      0xffff
006a90:  ffff  dw      0xffff
006a92:  ffff  dw      0xffff
006a94:  ffff  dw      0xffff
006a96:  ffff  dw      0xffff
006a98:  ffff  dw      0xffff
006a9a:  ffff  dw      0xffff
006a9c:  ffff  dw      0xffff
006a9e:  ffff  dw      0xffff
006aa0:  ffff  dw      0xffff
006aa2:  ffff  dw      0xffff
006aa4:  ffff  dw      0xffff
006aa6:  ffff  dw      0xffff
006aa8:  ffff  dw      0xffff
006aaa:  ffff  dw      0xffff
006aac:  ffff  dw      0xffff
006aae:  ffff  dw      0xffff
006ab0:  ffff  dw      0xffff
006ab2:  ffff  dw      0xffff
006ab4:  ffff  dw      0xffff
006ab6:  ffff  dw      0xffff
006ab8:  ffff  dw      0xffff
006aba:  ffff  dw      0xffff
006abc:  ffff  dw      0xffff
006abe:  ffff  dw      0xffff
006ac0:  ffff  dw      0xffff
006ac2:  ffff  dw      0xffff
006ac4:  ffff  dw      0xffff
006ac6:  ffff  dw      0xffff
006ac8:  ffff  dw      0xffff
006aca:  ffff  dw      0xffff
006acc:  ffff  dw      0xffff
006ace:  ffff  dw      0xffff
006ad0:  ffff  dw      0xffff
006ad2:  ffff  dw      0xffff
006ad4:  ffff  dw      0xffff
006ad6:  ffff  dw      0xffff
006ad8:  ffff  dw      0xffff
006ada:  ffff  dw      0xffff
006adc:  ffff  dw      0xffff
006ade:  ffff  dw      0xffff
006ae0:  ffff  dw      0xffff
006ae2:  ffff  dw      0xffff
006ae4:  ffff  dw      0xffff
006ae6:  ffff  dw      0xffff
006ae8:  ffff  dw      0xffff
006aea:  ffff  dw      0xffff
006aec:  ffff  dw      0xffff
006aee:  ffff  dw      0xffff
006af0:  ffff  dw      0xffff
006af2:  ffff  dw      0xffff
006af4:  ffff  dw      0xffff
006af6:  ffff  dw      0xffff
006af8:  ffff  dw      0xffff
006afa:  ffff  dw      0xffff
006afc:  ffff  dw      0xffff
006afe:  ffff  dw      0xffff
006b00:  ffff  dw      0xffff
006b02:  ffff  dw      0xffff
006b04:  ffff  dw      0xffff
006b06:  ffff  dw      0xffff
006b08:  ffff  dw      0xffff
006b0a:  ffff  dw      0xffff
006b0c:  ffff  dw      0xffff
006b0e:  ffff  dw      0xffff
006b10:  ffff  dw      0xffff
006b12:  ffff  dw      0xffff
006b14:  ffff  dw      0xffff
006b16:  ffff  dw      0xffff
006b18:  ffff  dw      0xffff
006b1a:  ffff  dw      0xffff
006b1c:  ffff  dw      0xffff
006b1e:  ffff  dw      0xffff
006b20:  ffff  dw      0xffff
006b22:  ffff  dw      0xffff
006b24:  ffff  dw      0xffff
006b26:  ffff  dw      0xffff
006b28:  ffff  dw      0xffff
006b2a:  ffff  dw      0xffff
006b2c:  ffff  dw      0xffff
006b2e:  ffff  dw      0xffff
006b30:  ffff  dw      0xffff
006b32:  ffff  dw      0xffff
006b34:  ffff  dw      0xffff
006b36:  ffff  dw      0xffff
006b38:  ffff  dw      0xffff
006b3a:  ffff  dw      0xffff
006b3c:  ffff  dw      0xffff
006b3e:  ffff  dw      0xffff
006b40:  ffff  dw      0xffff
006b42:  ffff  dw      0xffff
006b44:  ffff  dw      0xffff
006b46:  ffff  dw      0xffff
006b48:  ffff  dw      0xffff
006b4a:  ffff  dw      0xffff
006b4c:  ffff  dw      0xffff
006b4e:  ffff  dw      0xffff
006b50:  ffff  dw      0xffff
006b52:  ffff  dw      0xffff
006b54:  ffff  dw      0xffff
006b56:  ffff  dw      0xffff
006b58:  ffff  dw      0xffff
006b5a:  ffff  dw      0xffff
006b5c:  ffff  dw      0xffff
006b5e:  ffff  dw      0xffff
006b60:  ffff  dw      0xffff
006b62:  ffff  dw      0xffff
006b64:  ffff  dw      0xffff
006b66:  ffff  dw      0xffff
006b68:  ffff  dw      0xffff
006b6a:  ffff  dw      0xffff
006b6c:  ffff  dw      0xffff
006b6e:  ffff  dw      0xffff
006b70:  ffff  dw      0xffff
006b72:  ffff  dw      0xffff
006b74:  ffff  dw      0xffff
006b76:  ffff  dw      0xffff
006b78:  ffff  dw      0xffff
006b7a:  ffff  dw      0xffff
006b7c:  ffff  dw      0xffff
006b7e:  ffff  dw      0xffff
006b80:  ffff  dw      0xffff
006b82:  ffff  dw      0xffff
006b84:  ffff  dw      0xffff
006b86:  ffff  dw      0xffff
006b88:  ffff  dw      0xffff
006b8a:  ffff  dw      0xffff
006b8c:  ffff  dw      0xffff
006b8e:  ffff  dw      0xffff
006b90:  ffff  dw      0xffff
006b92:  ffff  dw      0xffff
006b94:  ffff  dw      0xffff
006b96:  ffff  dw      0xffff
006b98:  ffff  dw      0xffff
006b9a:  ffff  dw      0xffff
006b9c:  ffff  dw      0xffff
006b9e:  ffff  dw      0xffff
006ba0:  ffff  dw      0xffff
006ba2:  ffff  dw      0xffff
006ba4:  ffff  dw      0xffff
006ba6:  ffff  dw      0xffff
006ba8:  ffff  dw      0xffff
006baa:  ffff  dw      0xffff
006bac:  ffff  dw      0xffff
006bae:  ffff  dw      0xffff
006bb0:  ffff  dw      0xffff
006bb2:  ffff  dw      0xffff
006bb4:  ffff  dw      0xffff
006bb6:  ffff  dw      0xffff
006bb8:  ffff  dw      0xffff
006bba:  ffff  dw      0xffff
006bbc:  ffff  dw      0xffff
006bbe:  ffff  dw      0xffff
006bc0:  ffff  dw      0xffff
006bc2:  ffff  dw      0xffff
006bc4:  ffff  dw      0xffff
006bc6:  ffff  dw      0xffff
006bc8:  ffff  dw      0xffff
006bca:  ffff  dw      0xffff
006bcc:  ffff  dw      0xffff
006bce:  ffff  dw      0xffff
006bd0:  ffff  dw      0xffff
006bd2:  ffff  dw      0xffff
006bd4:  ffff  dw      0xffff
006bd6:  ffff  dw      0xffff
006bd8:  ffff  dw      0xffff
006bda:  ffff  dw      0xffff
006bdc:  ffff  dw      0xffff
006bde:  ffff  dw      0xffff
006be0:  ffff  dw      0xffff
006be2:  ffff  dw      0xffff
006be4:  ffff  dw      0xffff
006be6:  ffff  dw      0xffff
006be8:  ffff  dw      0xffff
006bea:  ffff  dw      0xffff
006bec:  ffff  dw      0xffff
006bee:  ffff  dw      0xffff
006bf0:  ffff  dw      0xffff
006bf2:  ffff  dw      0xffff
006bf4:  ffff  dw      0xffff
006bf6:  ffff  dw      0xffff
006bf8:  ffff  dw      0xffff
006bfa:  ffff  dw      0xffff
006bfc:  ffff  dw      0xffff
006bfe:  ffff  dw      0xffff
006c00:  ffff  dw      0xffff
006c02:  ffff  dw      0xffff
006c04:  ffff  dw      0xffff
006c06:  ffff  dw      0xffff
006c08:  ffff  dw      0xffff
006c0a:  ffff  dw      0xffff
006c0c:  ffff  dw      0xffff
006c0e:  ffff  dw      0xffff
006c10:  ffff  dw      0xffff
006c12:  ffff  dw      0xffff
006c14:  ffff  dw      0xffff
006c16:  ffff  dw      0xffff
006c18:  ffff  dw      0xffff
006c1a:  ffff  dw      0xffff
006c1c:  ffff  dw      0xffff
006c1e:  ffff  dw      0xffff
006c20:  ffff  dw      0xffff
006c22:  ffff  dw      0xffff
006c24:  ffff  dw      0xffff
006c26:  ffff  dw      0xffff
006c28:  ffff  dw      0xffff
006c2a:  ffff  dw      0xffff
006c2c:  ffff  dw      0xffff
006c2e:  ffff  dw      0xffff
006c30:  ffff  dw      0xffff
006c32:  ffff  dw      0xffff
006c34:  ffff  dw      0xffff
006c36:  ffff  dw      0xffff
006c38:  ffff  dw      0xffff
006c3a:  ffff  dw      0xffff
006c3c:  ffff  dw      0xffff
006c3e:  ffff  dw      0xffff
006c40:  ffff  dw      0xffff
006c42:  ffff  dw      0xffff
006c44:  ffff  dw      0xffff
006c46:  ffff  dw      0xffff
006c48:  ffff  dw      0xffff
006c4a:  ffff  dw      0xffff
006c4c:  ffff  dw      0xffff
006c4e:  ffff  dw      0xffff
006c50:  ffff  dw      0xffff
006c52:  ffff  dw      0xffff
006c54:  ffff  dw      0xffff
006c56:  ffff  dw      0xffff
006c58:  ffff  dw      0xffff
006c5a:  ffff  dw      0xffff
006c5c:  ffff  dw      0xffff
006c5e:  ffff  dw      0xffff
006c60:  ffff  dw      0xffff
006c62:  ffff  dw      0xffff
006c64:  ffff  dw      0xffff
006c66:  ffff  dw      0xffff
006c68:  ffff  dw      0xffff
006c6a:  ffff  dw      0xffff
006c6c:  ffff  dw      0xffff
006c6e:  ffff  dw      0xffff
006c70:  ffff  dw      0xffff
006c72:  ffff  dw      0xffff
006c74:  ffff  dw      0xffff
006c76:  ffff  dw      0xffff
006c78:  ffff  dw      0xffff
006c7a:  ffff  dw      0xffff
006c7c:  ffff  dw      0xffff
006c7e:  ffff  dw      0xffff
006c80:  ffff  dw      0xffff
006c82:  ffff  dw      0xffff
006c84:  ffff  dw      0xffff
006c86:  ffff  dw      0xffff
006c88:  ffff  dw      0xffff
006c8a:  ffff  dw      0xffff
006c8c:  ffff  dw      0xffff
006c8e:  ffff  dw      0xffff
006c90:  ffff  dw      0xffff
006c92:  ffff  dw      0xffff
006c94:  ffff  dw      0xffff
006c96:  ffff  dw      0xffff
006c98:  ffff  dw      0xffff
006c9a:  ffff  dw      0xffff
006c9c:  ffff  dw      0xffff
006c9e:  ffff  dw      0xffff
006ca0:  ffff  dw      0xffff
006ca2:  ffff  dw      0xffff
006ca4:  ffff  dw      0xffff
006ca6:  ffff  dw      0xffff
006ca8:  ffff  dw      0xffff
006caa:  ffff  dw      0xffff
006cac:  ffff  dw      0xffff
006cae:  ffff  dw      0xffff
006cb0:  ffff  dw      0xffff
006cb2:  ffff  dw      0xffff
006cb4:  ffff  dw      0xffff
006cb6:  ffff  dw      0xffff
006cb8:  ffff  dw      0xffff
006cba:  ffff  dw      0xffff
006cbc:  ffff  dw      0xffff
006cbe:  ffff  dw      0xffff
006cc0:  ffff  dw      0xffff
006cc2:  ffff  dw      0xffff
006cc4:  ffff  dw      0xffff
006cc6:  ffff  dw      0xffff
006cc8:  ffff  dw      0xffff
006cca:  ffff  dw      0xffff
006ccc:  ffff  dw      0xffff
006cce:  ffff  dw      0xffff
006cd0:  ffff  dw      0xffff
006cd2:  ffff  dw      0xffff
006cd4:  ffff  dw      0xffff
006cd6:  ffff  dw      0xffff
006cd8:  ffff  dw      0xffff
006cda:  ffff  dw      0xffff
006cdc:  ffff  dw      0xffff
006cde:  ffff  dw      0xffff
006ce0:  ffff  dw      0xffff
006ce2:  ffff  dw      0xffff
006ce4:  ffff  dw      0xffff
006ce6:  ffff  dw      0xffff
006ce8:  ffff  dw      0xffff
006cea:  ffff  dw      0xffff
006cec:  ffff  dw      0xffff
006cee:  ffff  dw      0xffff
006cf0:  ffff  dw      0xffff
006cf2:  ffff  dw      0xffff
006cf4:  ffff  dw      0xffff
006cf6:  ffff  dw      0xffff
006cf8:  ffff  dw      0xffff
006cfa:  ffff  dw      0xffff
006cfc:  ffff  dw      0xffff
006cfe:  ffff  dw      0xffff
006d00:  ffff  dw      0xffff
006d02:  ffff  dw      0xffff
006d04:  ffff  dw      0xffff
006d06:  ffff  dw      0xffff
006d08:  ffff  dw      0xffff
006d0a:  ffff  dw      0xffff
006d0c:  ffff  dw      0xffff
006d0e:  ffff  dw      0xffff
006d10:  ffff  dw      0xffff
006d12:  ffff  dw      0xffff
006d14:  ffff  dw      0xffff
006d16:  ffff  dw      0xffff
006d18:  ffff  dw      0xffff
006d1a:  ffff  dw      0xffff
006d1c:  ffff  dw      0xffff
006d1e:  ffff  dw      0xffff
006d20:  ffff  dw      0xffff
006d22:  ffff  dw      0xffff
006d24:  ffff  dw      0xffff
006d26:  ffff  dw      0xffff
006d28:  ffff  dw      0xffff
006d2a:  ffff  dw      0xffff
006d2c:  ffff  dw      0xffff
006d2e:  ffff  dw      0xffff
006d30:  ffff  dw      0xffff
006d32:  ffff  dw      0xffff
006d34:  ffff  dw      0xffff
006d36:  ffff  dw      0xffff
006d38:  ffff  dw      0xffff
006d3a:  ffff  dw      0xffff
006d3c:  ffff  dw      0xffff
006d3e:  ffff  dw      0xffff
006d40:  ffff  dw      0xffff
006d42:  ffff  dw      0xffff
006d44:  ffff  dw      0xffff
006d46:  ffff  dw      0xffff
006d48:  ffff  dw      0xffff
006d4a:  ffff  dw      0xffff
006d4c:  ffff  dw      0xffff
006d4e:  ffff  dw      0xffff
006d50:  ffff  dw      0xffff
006d52:  ffff  dw      0xffff
006d54:  ffff  dw      0xffff
006d56:  ffff  dw      0xffff
006d58:  ffff  dw      0xffff
006d5a:  ffff  dw      0xffff
006d5c:  ffff  dw      0xffff
006d5e:  ffff  dw      0xffff
006d60:  ffff  dw      0xffff
006d62:  ffff  dw      0xffff
006d64:  ffff  dw      0xffff
006d66:  ffff  dw      0xffff
006d68:  ffff  dw      0xffff
006d6a:  ffff  dw      0xffff
006d6c:  ffff  dw      0xffff
006d6e:  ffff  dw      0xffff
006d70:  ffff  dw      0xffff
006d72:  ffff  dw      0xffff
006d74:  ffff  dw      0xffff
006d76:  ffff  dw      0xffff
006d78:  ffff  dw      0xffff
006d7a:  ffff  dw      0xffff
006d7c:  ffff  dw      0xffff
006d7e:  ffff  dw      0xffff
006d80:  ffff  dw      0xffff
006d82:  ffff  dw      0xffff
006d84:  ffff  dw      0xffff
006d86:  ffff  dw      0xffff
006d88:  ffff  dw      0xffff
006d8a:  ffff  dw      0xffff
006d8c:  ffff  dw      0xffff
006d8e:  ffff  dw      0xffff
006d90:  ffff  dw      0xffff
006d92:  ffff  dw      0xffff
006d94:  ffff  dw      0xffff
006d96:  ffff  dw      0xffff
006d98:  ffff  dw      0xffff
006d9a:  ffff  dw      0xffff
006d9c:  ffff  dw      0xffff
006d9e:  ffff  dw      0xffff
006da0:  ffff  dw      0xffff
006da2:  ffff  dw      0xffff
006da4:  ffff  dw      0xffff
006da6:  ffff  dw      0xffff
006da8:  ffff  dw      0xffff
006daa:  ffff  dw      0xffff
006dac:  ffff  dw      0xffff
006dae:  ffff  dw      0xffff
006db0:  ffff  dw      0xffff
006db2:  ffff  dw      0xffff
006db4:  ffff  dw      0xffff
006db6:  ffff  dw      0xffff
006db8:  ffff  dw      0xffff
006dba:  ffff  dw      0xffff
006dbc:  ffff  dw      0xffff
006dbe:  ffff  dw      0xffff
006dc0:  ffff  dw      0xffff
006dc2:  ffff  dw      0xffff
006dc4:  ffff  dw      0xffff
006dc6:  ffff  dw      0xffff
006dc8:  ffff  dw      0xffff
006dca:  ffff  dw      0xffff
006dcc:  ffff  dw      0xffff
006dce:  ffff  dw      0xffff
006dd0:  ffff  dw      0xffff
006dd2:  ffff  dw      0xffff
006dd4:  ffff  dw      0xffff
006dd6:  ffff  dw      0xffff
006dd8:  ffff  dw      0xffff
006dda:  ffff  dw      0xffff
006ddc:  ffff  dw      0xffff
006dde:  ffff  dw      0xffff
006de0:  ffff  dw      0xffff
006de2:  ffff  dw      0xffff
006de4:  ffff  dw      0xffff
006de6:  ffff  dw      0xffff
006de8:  ffff  dw      0xffff
006dea:  ffff  dw      0xffff
006dec:  ffff  dw      0xffff
006dee:  ffff  dw      0xffff
006df0:  ffff  dw      0xffff
006df2:  ffff  dw      0xffff
006df4:  ffff  dw      0xffff
006df6:  ffff  dw      0xffff
006df8:  ffff  dw      0xffff
006dfa:  ffff  dw      0xffff
006dfc:  ffff  dw      0xffff
006dfe:  ffff  dw      0xffff
006e00:  ffff  dw      0xffff
006e02:  ffff  dw      0xffff
006e04:  ffff  dw      0xffff
006e06:  ffff  dw      0xffff
006e08:  ffff  dw      0xffff
006e0a:  ffff  dw      0xffff
006e0c:  ffff  dw      0xffff
006e0e:  ffff  dw      0xffff
006e10:  ffff  dw      0xffff
006e12:  ffff  dw      0xffff
006e14:  ffff  dw      0xffff
006e16:  ffff  dw      0xffff
006e18:  ffff  dw      0xffff
006e1a:  ffff  dw      0xffff
006e1c:  ffff  dw      0xffff
006e1e:  ffff  dw      0xffff
006e20:  ffff  dw      0xffff
006e22:  ffff  dw      0xffff
006e24:  ffff  dw      0xffff
006e26:  ffff  dw      0xffff
006e28:  ffff  dw      0xffff
006e2a:  ffff  dw      0xffff
006e2c:  ffff  dw      0xffff
006e2e:  ffff  dw      0xffff
006e30:  ffff  dw      0xffff
006e32:  ffff  dw      0xffff
006e34:  ffff  dw      0xffff
006e36:  ffff  dw      0xffff
006e38:  ffff  dw      0xffff
006e3a:  ffff  dw      0xffff
006e3c:  ffff  dw      0xffff
006e3e:  ffff  dw      0xffff
006e40:  ffff  dw      0xffff
006e42:  ffff  dw      0xffff
006e44:  ffff  dw      0xffff
006e46:  ffff  dw      0xffff
006e48:  ffff  dw      0xffff
006e4a:  ffff  dw      0xffff
006e4c:  ffff  dw      0xffff
006e4e:  ffff  dw      0xffff
006e50:  ffff  dw      0xffff
006e52:  ffff  dw      0xffff
006e54:  ffff  dw      0xffff
006e56:  ffff  dw      0xffff
006e58:  ffff  dw      0xffff
006e5a:  ffff  dw      0xffff
006e5c:  ffff  dw      0xffff
006e5e:  ffff  dw      0xffff
006e60:  ffff  dw      0xffff
006e62:  ffff  dw      0xffff
006e64:  ffff  dw      0xffff
006e66:  ffff  dw      0xffff
006e68:  ffff  dw      0xffff
006e6a:  ffff  dw      0xffff
006e6c:  ffff  dw      0xffff
006e6e:  ffff  dw      0xffff
006e70:  ffff  dw      0xffff
006e72:  ffff  dw      0xffff
006e74:  ffff  dw      0xffff
006e76:  ffff  dw      0xffff
006e78:  ffff  dw      0xffff
006e7a:  ffff  dw      0xffff
006e7c:  ffff  dw      0xffff
006e7e:  ffff  dw      0xffff
006e80:  ffff  dw      0xffff
006e82:  ffff  dw      0xffff
006e84:  ffff  dw      0xffff
006e86:  ffff  dw      0xffff
006e88:  ffff  dw      0xffff
006e8a:  ffff  dw      0xffff
006e8c:  ffff  dw      0xffff
006e8e:  ffff  dw      0xffff
006e90:  ffff  dw      0xffff
006e92:  ffff  dw      0xffff
006e94:  ffff  dw      0xffff
006e96:  ffff  dw      0xffff
006e98:  ffff  dw      0xffff
006e9a:  ffff  dw      0xffff
006e9c:  ffff  dw      0xffff
006e9e:  ffff  dw      0xffff
006ea0:  ffff  dw      0xffff
006ea2:  ffff  dw      0xffff
006ea4:  ffff  dw      0xffff
006ea6:  ffff  dw      0xffff
006ea8:  ffff  dw      0xffff
006eaa:  ffff  dw      0xffff
006eac:  ffff  dw      0xffff
006eae:  ffff  dw      0xffff
006eb0:  ffff  dw      0xffff
006eb2:  ffff  dw      0xffff
006eb4:  ffff  dw      0xffff
006eb6:  ffff  dw      0xffff
006eb8:  ffff  dw      0xffff
006eba:  ffff  dw      0xffff
006ebc:  ffff  dw      0xffff
006ebe:  ffff  dw      0xffff
006ec0:  ffff  dw      0xffff
006ec2:  ffff  dw      0xffff
006ec4:  ffff  dw      0xffff
006ec6:  ffff  dw      0xffff
006ec8:  ffff  dw      0xffff
006eca:  ffff  dw      0xffff
006ecc:  ffff  dw      0xffff
006ece:  ffff  dw      0xffff
006ed0:  ffff  dw      0xffff
006ed2:  ffff  dw      0xffff
006ed4:  ffff  dw      0xffff
006ed6:  ffff  dw      0xffff
006ed8:  ffff  dw      0xffff
006eda:  ffff  dw      0xffff
006edc:  ffff  dw      0xffff
006ede:  ffff  dw      0xffff
006ee0:  ffff  dw      0xffff
006ee2:  ffff  dw      0xffff
006ee4:  ffff  dw      0xffff
006ee6:  ffff  dw      0xffff
006ee8:  ffff  dw      0xffff
006eea:  ffff  dw      0xffff
006eec:  ffff  dw      0xffff
006eee:  ffff  dw      0xffff
006ef0:  ffff  dw      0xffff
006ef2:  ffff  dw      0xffff
006ef4:  ffff  dw      0xffff
006ef6:  ffff  dw      0xffff
006ef8:  ffff  dw      0xffff
006efa:  ffff  dw      0xffff
006efc:  ffff  dw      0xffff
006efe:  ffff  dw      0xffff
006f00:  ffff  dw      0xffff
006f02:  ffff  dw      0xffff
006f04:  ffff  dw      0xffff
006f06:  ffff  dw      0xffff
006f08:  ffff  dw      0xffff
006f0a:  ffff  dw      0xffff
006f0c:  ffff  dw      0xffff
006f0e:  ffff  dw      0xffff
006f10:  ffff  dw      0xffff
006f12:  ffff  dw      0xffff
006f14:  ffff  dw      0xffff
006f16:  ffff  dw      0xffff
006f18:  ffff  dw      0xffff
006f1a:  ffff  dw      0xffff
006f1c:  ffff  dw      0xffff
006f1e:  ffff  dw      0xffff
006f20:  ffff  dw      0xffff
006f22:  ffff  dw      0xffff
006f24:  ffff  dw      0xffff
006f26:  ffff  dw      0xffff
006f28:  ffff  dw      0xffff
006f2a:  ffff  dw      0xffff
006f2c:  ffff  dw      0xffff
006f2e:  ffff  dw      0xffff
006f30:  ffff  dw      0xffff
006f32:  ffff  dw      0xffff
006f34:  ffff  dw      0xffff
006f36:  ffff  dw      0xffff
006f38:  ffff  dw      0xffff
006f3a:  ffff  dw      0xffff
006f3c:  ffff  dw      0xffff
006f3e:  ffff  dw      0xffff
006f40:  ffff  dw      0xffff
006f42:  ffff  dw      0xffff
006f44:  ffff  dw      0xffff
006f46:  ffff  dw      0xffff
006f48:  ffff  dw      0xffff
006f4a:  ffff  dw      0xffff
006f4c:  ffff  dw      0xffff
006f4e:  ffff  dw      0xffff
006f50:  ffff  dw      0xffff
006f52:  ffff  dw      0xffff
006f54:  ffff  dw      0xffff
006f56:  ffff  dw      0xffff
006f58:  ffff  dw      0xffff
006f5a:  ffff  dw      0xffff
006f5c:  ffff  dw      0xffff
006f5e:  ffff  dw      0xffff
006f60:  ffff  dw      0xffff
006f62:  ffff  dw      0xffff
006f64:  ffff  dw      0xffff
006f66:  ffff  dw      0xffff
006f68:  ffff  dw      0xffff
006f6a:  ffff  dw      0xffff
006f6c:  ffff  dw      0xffff
006f6e:  ffff  dw      0xffff
006f70:  ffff  dw      0xffff
006f72:  ffff  dw      0xffff
006f74:  ffff  dw      0xffff
006f76:  ffff  dw      0xffff
006f78:  ffff  dw      0xffff
006f7a:  ffff  dw      0xffff
006f7c:  ffff  dw      0xffff
006f7e:  ffff  dw      0xffff
006f80:  ffff  dw      0xffff
006f82:  ffff  dw      0xffff
006f84:  ffff  dw      0xffff
006f86:  ffff  dw      0xffff
006f88:  ffff  dw      0xffff
006f8a:  ffff  dw      0xffff
006f8c:  ffff  dw      0xffff
006f8e:  ffff  dw      0xffff
006f90:  ffff  dw      0xffff
006f92:  ffff  dw      0xffff
006f94:  ffff  dw      0xffff
006f96:  ffff  dw      0xffff
006f98:  ffff  dw      0xffff
006f9a:  ffff  dw      0xffff
006f9c:  ffff  dw      0xffff
006f9e:  ffff  dw      0xffff
006fa0:  ffff  dw      0xffff
006fa2:  ffff  dw      0xffff
006fa4:  ffff  dw      0xffff
006fa6:  ffff  dw      0xffff
006fa8:  ffff  dw      0xffff
006faa:  ffff  dw      0xffff
006fac:  ffff  dw      0xffff
006fae:  ffff  dw      0xffff
006fb0:  ffff  dw      0xffff
006fb2:  ffff  dw      0xffff
006fb4:  ffff  dw      0xffff
006fb6:  ffff  dw      0xffff
006fb8:  ffff  dw      0xffff
006fba:  ffff  dw      0xffff
006fbc:  ffff  dw      0xffff
006fbe:  ffff  dw      0xffff
006fc0:  ffff  dw      0xffff
006fc2:  ffff  dw      0xffff
006fc4:  ffff  dw      0xffff
006fc6:  ffff  dw      0xffff
006fc8:  ffff  dw      0xffff
006fca:  ffff  dw      0xffff
006fcc:  ffff  dw      0xffff
006fce:  ffff  dw      0xffff
006fd0:  ffff  dw      0xffff
006fd2:  ffff  dw      0xffff
006fd4:  ffff  dw      0xffff
006fd6:  ffff  dw      0xffff
006fd8:  ffff  dw      0xffff
006fda:  ffff  dw      0xffff
006fdc:  ffff  dw      0xffff
006fde:  ffff  dw      0xffff
006fe0:  ffff  dw      0xffff
006fe2:  ffff  dw      0xffff
006fe4:  ffff  dw      0xffff
006fe6:  ffff  dw      0xffff
006fe8:  ffff  dw      0xffff
006fea:  ffff  dw      0xffff
006fec:  ffff  dw      0xffff
006fee:  ffff  dw      0xffff
006ff0:  ffff  dw      0xffff
006ff2:  ffff  dw      0xffff
006ff4:  ffff  dw      0xffff
006ff6:  ffff  dw      0xffff
006ff8:  ffff  dw      0xffff
006ffa:  ffff  dw      0xffff
006ffc:  ffff  dw      0xffff
006ffe:  ffff  dw      0xffff
007000:  ffff  dw      0xffff
007002:  ffff  dw      0xffff
007004:  ffff  dw      0xffff
007006:  ffff  dw      0xffff
007008:  ffff  dw      0xffff
00700a:  ffff  dw      0xffff
00700c:  ffff  dw      0xffff
00700e:  ffff  dw      0xffff
007010:  ffff  dw      0xffff
007012:  ffff  dw      0xffff
007014:  ffff  dw      0xffff
007016:  ffff  dw      0xffff
007018:  ffff  dw      0xffff
00701a:  ffff  dw      0xffff
00701c:  ffff  dw      0xffff
00701e:  ffff  dw      0xffff
007020:  ffff  dw      0xffff
007022:  ffff  dw      0xffff
007024:  ffff  dw      0xffff
007026:  ffff  dw      0xffff
007028:  ffff  dw      0xffff
00702a:  ffff  dw      0xffff
00702c:  ffff  dw      0xffff
00702e:  ffff  dw      0xffff
007030:  ffff  dw      0xffff
007032:  ffff  dw      0xffff
007034:  ffff  dw      0xffff
007036:  ffff  dw      0xffff
007038:  ffff  dw      0xffff
00703a:  ffff  dw      0xffff
00703c:  ffff  dw      0xffff
00703e:  ffff  dw      0xffff
007040:  ffff  dw      0xffff
007042:  ffff  dw      0xffff
007044:  ffff  dw      0xffff
007046:  ffff  dw      0xffff
007048:  ffff  dw      0xffff
00704a:  ffff  dw      0xffff
00704c:  ffff  dw      0xffff
00704e:  ffff  dw      0xffff
007050:  ffff  dw      0xffff
007052:  ffff  dw      0xffff
007054:  ffff  dw      0xffff
007056:  ffff  dw      0xffff
007058:  ffff  dw      0xffff
00705a:  ffff  dw      0xffff
00705c:  ffff  dw      0xffff
00705e:  ffff  dw      0xffff
007060:  ffff  dw      0xffff
007062:  ffff  dw      0xffff
007064:  ffff  dw      0xffff
007066:  ffff  dw      0xffff
007068:  ffff  dw      0xffff
00706a:  ffff  dw      0xffff
00706c:  ffff  dw      0xffff
00706e:  ffff  dw      0xffff
007070:  ffff  dw      0xffff
007072:  ffff  dw      0xffff
007074:  ffff  dw      0xffff
007076:  ffff  dw      0xffff
007078:  ffff  dw      0xffff
00707a:  ffff  dw      0xffff
00707c:  ffff  dw      0xffff
00707e:  ffff  dw      0xffff
007080:  ffff  dw      0xffff
007082:  ffff  dw      0xffff
007084:  ffff  dw      0xffff
007086:  ffff  dw      0xffff
007088:  ffff  dw      0xffff
00708a:  ffff  dw      0xffff
00708c:  ffff  dw      0xffff
00708e:  ffff  dw      0xffff
007090:  ffff  dw      0xffff
007092:  ffff  dw      0xffff
007094:  ffff  dw      0xffff
007096:  ffff  dw      0xffff
007098:  ffff  dw      0xffff
00709a:  ffff  dw      0xffff
00709c:  ffff  dw      0xffff
00709e:  ffff  dw      0xffff
0070a0:  ffff  dw      0xffff
0070a2:  ffff  dw      0xffff
0070a4:  ffff  dw      0xffff
0070a6:  ffff  dw      0xffff
0070a8:  ffff  dw      0xffff
0070aa:  ffff  dw      0xffff
0070ac:  ffff  dw      0xffff
0070ae:  ffff  dw      0xffff
0070b0:  ffff  dw      0xffff
0070b2:  ffff  dw      0xffff
0070b4:  ffff  dw      0xffff
0070b6:  ffff  dw      0xffff
0070b8:  ffff  dw      0xffff
0070ba:  ffff  dw      0xffff
0070bc:  ffff  dw      0xffff
0070be:  ffff  dw      0xffff
0070c0:  ffff  dw      0xffff
0070c2:  ffff  dw      0xffff
0070c4:  ffff  dw      0xffff
0070c6:  ffff  dw      0xffff
0070c8:  ffff  dw      0xffff
0070ca:  ffff  dw      0xffff
0070cc:  ffff  dw      0xffff
0070ce:  ffff  dw      0xffff
0070d0:  ffff  dw      0xffff
0070d2:  ffff  dw      0xffff
0070d4:  ffff  dw      0xffff
0070d6:  ffff  dw      0xffff
0070d8:  ffff  dw      0xffff
0070da:  ffff  dw      0xffff
0070dc:  ffff  dw      0xffff
0070de:  ffff  dw      0xffff
0070e0:  ffff  dw      0xffff
0070e2:  ffff  dw      0xffff
0070e4:  ffff  dw      0xffff
0070e6:  ffff  dw      0xffff
0070e8:  ffff  dw      0xffff
0070ea:  ffff  dw      0xffff
0070ec:  ffff  dw      0xffff
0070ee:  ffff  dw      0xffff
0070f0:  ffff  dw      0xffff
0070f2:  ffff  dw      0xffff
0070f4:  ffff  dw      0xffff
0070f6:  ffff  dw      0xffff
0070f8:  ffff  dw      0xffff
0070fa:  ffff  dw      0xffff
0070fc:  ffff  dw      0xffff
0070fe:  ffff  dw      0xffff
007100:  ffff  dw      0xffff
007102:  ffff  dw      0xffff
007104:  ffff  dw      0xffff
007106:  ffff  dw      0xffff
007108:  ffff  dw      0xffff
00710a:  ffff  dw      0xffff
00710c:  ffff  dw      0xffff
00710e:  ffff  dw      0xffff
007110:  ffff  dw      0xffff
007112:  ffff  dw      0xffff
007114:  ffff  dw      0xffff
007116:  ffff  dw      0xffff
007118:  ffff  dw      0xffff
00711a:  ffff  dw      0xffff
00711c:  ffff  dw      0xffff
00711e:  ffff  dw      0xffff
007120:  ffff  dw      0xffff
007122:  ffff  dw      0xffff
007124:  ffff  dw      0xffff
007126:  ffff  dw      0xffff
007128:  ffff  dw      0xffff
00712a:  ffff  dw      0xffff
00712c:  ffff  dw      0xffff
00712e:  ffff  dw      0xffff
007130:  ffff  dw      0xffff
007132:  ffff  dw      0xffff
007134:  ffff  dw      0xffff
007136:  ffff  dw      0xffff
007138:  ffff  dw      0xffff
00713a:  ffff  dw      0xffff
00713c:  ffff  dw      0xffff
00713e:  ffff  dw      0xffff
007140:  ffff  dw      0xffff
007142:  ffff  dw      0xffff
007144:  ffff  dw      0xffff
007146:  ffff  dw      0xffff
007148:  ffff  dw      0xffff
00714a:  ffff  dw      0xffff
00714c:  ffff  dw      0xffff
00714e:  ffff  dw      0xffff
007150:  ffff  dw      0xffff
007152:  ffff  dw      0xffff
007154:  ffff  dw      0xffff
007156:  ffff  dw      0xffff
007158:  ffff  dw      0xffff
00715a:  ffff  dw      0xffff
00715c:  ffff  dw      0xffff
00715e:  ffff  dw      0xffff
007160:  ffff  dw      0xffff
007162:  ffff  dw      0xffff
007164:  ffff  dw      0xffff
007166:  ffff  dw      0xffff
007168:  ffff  dw      0xffff
00716a:  ffff  dw      0xffff
00716c:  ffff  dw      0xffff
00716e:  ffff  dw      0xffff
007170:  ffff  dw      0xffff
007172:  ffff  dw      0xffff
007174:  ffff  dw      0xffff
007176:  ffff  dw      0xffff
007178:  ffff  dw      0xffff
00717a:  ffff  dw      0xffff
00717c:  ffff  dw      0xffff
00717e:  ffff  dw      0xffff
007180:  ffff  dw      0xffff
007182:  ffff  dw      0xffff
007184:  ffff  dw      0xffff
007186:  ffff  dw      0xffff
007188:  ffff  dw      0xffff
00718a:  ffff  dw      0xffff
00718c:  ffff  dw      0xffff
00718e:  ffff  dw      0xffff
007190:  ffff  dw      0xffff
007192:  ffff  dw      0xffff
007194:  ffff  dw      0xffff
007196:  ffff  dw      0xffff
007198:  ffff  dw      0xffff
00719a:  ffff  dw      0xffff
00719c:  ffff  dw      0xffff
00719e:  ffff  dw      0xffff
0071a0:  ffff  dw      0xffff
0071a2:  ffff  dw      0xffff
0071a4:  ffff  dw      0xffff
0071a6:  ffff  dw      0xffff
0071a8:  ffff  dw      0xffff
0071aa:  ffff  dw      0xffff
0071ac:  ffff  dw      0xffff
0071ae:  ffff  dw      0xffff
0071b0:  ffff  dw      0xffff
0071b2:  ffff  dw      0xffff
0071b4:  ffff  dw      0xffff
0071b6:  ffff  dw      0xffff
0071b8:  ffff  dw      0xffff
0071ba:  ffff  dw      0xffff
0071bc:  ffff  dw      0xffff
0071be:  ffff  dw      0xffff
0071c0:  ffff  dw      0xffff
0071c2:  ffff  dw      0xffff
0071c4:  ffff  dw      0xffff
0071c6:  ffff  dw      0xffff
0071c8:  ffff  dw      0xffff
0071ca:  ffff  dw      0xffff
0071cc:  ffff  dw      0xffff
0071ce:  ffff  dw      0xffff
0071d0:  ffff  dw      0xffff
0071d2:  ffff  dw      0xffff
0071d4:  ffff  dw      0xffff
0071d6:  ffff  dw      0xffff
0071d8:  ffff  dw      0xffff
0071da:  ffff  dw      0xffff
0071dc:  ffff  dw      0xffff
0071de:  ffff  dw      0xffff
0071e0:  ffff  dw      0xffff
0071e2:  ffff  dw      0xffff
0071e4:  ffff  dw      0xffff
0071e6:  ffff  dw      0xffff
0071e8:  ffff  dw      0xffff
0071ea:  ffff  dw      0xffff
0071ec:  ffff  dw      0xffff
0071ee:  ffff  dw      0xffff
0071f0:  ffff  dw      0xffff
0071f2:  ffff  dw      0xffff
0071f4:  ffff  dw      0xffff
0071f6:  ffff  dw      0xffff
0071f8:  ffff  dw      0xffff
0071fa:  ffff  dw      0xffff
0071fc:  ffff  dw      0xffff
0071fe:  ffff  dw      0xffff
007200:  ffff  dw      0xffff
007202:  ffff  dw      0xffff
007204:  ffff  dw      0xffff
007206:  ffff  dw      0xffff
007208:  ffff  dw      0xffff
00720a:  ffff  dw      0xffff
00720c:  ffff  dw      0xffff
00720e:  ffff  dw      0xffff
007210:  ffff  dw      0xffff
007212:  ffff  dw      0xffff
007214:  ffff  dw      0xffff
007216:  ffff  dw      0xffff
007218:  ffff  dw      0xffff
00721a:  ffff  dw      0xffff
00721c:  ffff  dw      0xffff
00721e:  ffff  dw      0xffff
007220:  ffff  dw      0xffff
007222:  ffff  dw      0xffff
007224:  ffff  dw      0xffff
007226:  ffff  dw      0xffff
007228:  ffff  dw      0xffff
00722a:  ffff  dw      0xffff
00722c:  ffff  dw      0xffff
00722e:  ffff  dw      0xffff
007230:  ffff  dw      0xffff
007232:  ffff  dw      0xffff
007234:  ffff  dw      0xffff
007236:  ffff  dw      0xffff
007238:  ffff  dw      0xffff
00723a:  ffff  dw      0xffff
00723c:  ffff  dw      0xffff
00723e:  ffff  dw      0xffff
007240:  ffff  dw      0xffff
007242:  ffff  dw      0xffff
007244:  ffff  dw      0xffff
007246:  ffff  dw      0xffff
007248:  ffff  dw      0xffff
00724a:  ffff  dw      0xffff
00724c:  ffff  dw      0xffff
00724e:  ffff  dw      0xffff
007250:  ffff  dw      0xffff
007252:  ffff  dw      0xffff
007254:  ffff  dw      0xffff
007256:  ffff  dw      0xffff
007258:  ffff  dw      0xffff
00725a:  ffff  dw      0xffff
00725c:  ffff  dw      0xffff
00725e:  ffff  dw      0xffff
007260:  ffff  dw      0xffff
007262:  ffff  dw      0xffff
007264:  ffff  dw      0xffff
007266:  ffff  dw      0xffff
007268:  ffff  dw      0xffff
00726a:  ffff  dw      0xffff
00726c:  ffff  dw      0xffff
00726e:  ffff  dw      0xffff
007270:  ffff  dw      0xffff
007272:  ffff  dw      0xffff
007274:  ffff  dw      0xffff
007276:  ffff  dw      0xffff
007278:  ffff  dw      0xffff
00727a:  ffff  dw      0xffff
00727c:  ffff  dw      0xffff
00727e:  ffff  dw      0xffff
007280:  ffff  dw      0xffff
007282:  ffff  dw      0xffff
007284:  ffff  dw      0xffff
007286:  ffff  dw      0xffff
007288:  ffff  dw      0xffff
00728a:  ffff  dw      0xffff
00728c:  ffff  dw      0xffff
00728e:  ffff  dw      0xffff
007290:  ffff  dw      0xffff
007292:  ffff  dw      0xffff
007294:  ffff  dw      0xffff
007296:  ffff  dw      0xffff
007298:  ffff  dw      0xffff
00729a:  ffff  dw      0xffff
00729c:  ffff  dw      0xffff
00729e:  ffff  dw      0xffff
0072a0:  ffff  dw      0xffff
0072a2:  ffff  dw      0xffff
0072a4:  ffff  dw      0xffff
0072a6:  ffff  dw      0xffff
0072a8:  ffff  dw      0xffff
0072aa:  ffff  dw      0xffff
0072ac:  ffff  dw      0xffff
0072ae:  ffff  dw      0xffff
0072b0:  ffff  dw      0xffff
0072b2:  ffff  dw      0xffff
0072b4:  ffff  dw      0xffff
0072b6:  ffff  dw      0xffff
0072b8:  ffff  dw      0xffff
0072ba:  ffff  dw      0xffff
0072bc:  ffff  dw      0xffff
0072be:  ffff  dw      0xffff
0072c0:  ffff  dw      0xffff
0072c2:  ffff  dw      0xffff
0072c4:  ffff  dw      0xffff
0072c6:  ffff  dw      0xffff
0072c8:  ffff  dw      0xffff
0072ca:  ffff  dw      0xffff
0072cc:  ffff  dw      0xffff
0072ce:  ffff  dw      0xffff
0072d0:  ffff  dw      0xffff
0072d2:  ffff  dw      0xffff
0072d4:  ffff  dw      0xffff
0072d6:  ffff  dw      0xffff
0072d8:  ffff  dw      0xffff
0072da:  ffff  dw      0xffff
0072dc:  ffff  dw      0xffff
0072de:  ffff  dw      0xffff
0072e0:  ffff  dw      0xffff
0072e2:  ffff  dw      0xffff
0072e4:  ffff  dw      0xffff
0072e6:  ffff  dw      0xffff
0072e8:  ffff  dw      0xffff
0072ea:  ffff  dw      0xffff
0072ec:  ffff  dw      0xffff
0072ee:  ffff  dw      0xffff
0072f0:  ffff  dw      0xffff
0072f2:  ffff  dw      0xffff
0072f4:  ffff  dw      0xffff
0072f6:  ffff  dw      0xffff
0072f8:  ffff  dw      0xffff
0072fa:  ffff  dw      0xffff
0072fc:  ffff  dw      0xffff
0072fe:  ffff  dw      0xffff
007300:  ffff  dw      0xffff
007302:  ffff  dw      0xffff
007304:  ffff  dw      0xffff
007306:  ffff  dw      0xffff
007308:  ffff  dw      0xffff
00730a:  ffff  dw      0xffff
00730c:  ffff  dw      0xffff
00730e:  ffff  dw      0xffff
007310:  ffff  dw      0xffff
007312:  ffff  dw      0xffff
007314:  ffff  dw      0xffff
007316:  ffff  dw      0xffff
007318:  ffff  dw      0xffff
00731a:  ffff  dw      0xffff
00731c:  ffff  dw      0xffff
00731e:  ffff  dw      0xffff
007320:  ffff  dw      0xffff
007322:  ffff  dw      0xffff
007324:  ffff  dw      0xffff
007326:  ffff  dw      0xffff
007328:  ffff  dw      0xffff
00732a:  ffff  dw      0xffff
00732c:  ffff  dw      0xffff
00732e:  ffff  dw      0xffff
007330:  ffff  dw      0xffff
007332:  ffff  dw      0xffff
007334:  ffff  dw      0xffff
007336:  ffff  dw      0xffff
007338:  ffff  dw      0xffff
00733a:  ffff  dw      0xffff
00733c:  ffff  dw      0xffff
00733e:  ffff  dw      0xffff
007340:  ffff  dw      0xffff
007342:  ffff  dw      0xffff
007344:  ffff  dw      0xffff
007346:  ffff  dw      0xffff
007348:  ffff  dw      0xffff
00734a:  ffff  dw      0xffff
00734c:  ffff  dw      0xffff
00734e:  ffff  dw      0xffff
007350:  ffff  dw      0xffff
007352:  ffff  dw      0xffff
007354:  ffff  dw      0xffff
007356:  ffff  dw      0xffff
007358:  ffff  dw      0xffff
00735a:  ffff  dw      0xffff
00735c:  ffff  dw      0xffff
00735e:  ffff  dw      0xffff
007360:  ffff  dw      0xffff
007362:  ffff  dw      0xffff
007364:  ffff  dw      0xffff
007366:  ffff  dw      0xffff
007368:  ffff  dw      0xffff
00736a:  ffff  dw      0xffff
00736c:  ffff  dw      0xffff
00736e:  ffff  dw      0xffff
007370:  ffff  dw      0xffff
007372:  ffff  dw      0xffff
007374:  ffff  dw      0xffff
007376:  ffff  dw      0xffff
007378:  ffff  dw      0xffff
00737a:  ffff  dw      0xffff
00737c:  ffff  dw      0xffff
00737e:  ffff  dw      0xffff
007380:  ffff  dw      0xffff
007382:  ffff  dw      0xffff
007384:  ffff  dw      0xffff
007386:  ffff  dw      0xffff
007388:  ffff  dw      0xffff
00738a:  ffff  dw      0xffff
00738c:  ffff  dw      0xffff
00738e:  ffff  dw      0xffff
007390:  ffff  dw      0xffff
007392:  ffff  dw      0xffff
007394:  ffff  dw      0xffff
007396:  ffff  dw      0xffff
007398:  ffff  dw      0xffff
00739a:  ffff  dw      0xffff
00739c:  ffff  dw      0xffff
00739e:  ffff  dw      0xffff
0073a0:  ffff  dw      0xffff
0073a2:  ffff  dw      0xffff
0073a4:  ffff  dw      0xffff
0073a6:  ffff  dw      0xffff
0073a8:  ffff  dw      0xffff
0073aa:  ffff  dw      0xffff
0073ac:  ffff  dw      0xffff
0073ae:  ffff  dw      0xffff
0073b0:  ffff  dw      0xffff
0073b2:  ffff  dw      0xffff
0073b4:  ffff  dw      0xffff
0073b6:  ffff  dw      0xffff
0073b8:  ffff  dw      0xffff
0073ba:  ffff  dw      0xffff
0073bc:  ffff  dw      0xffff
0073be:  ffff  dw      0xffff
0073c0:  ffff  dw      0xffff
0073c2:  ffff  dw      0xffff
0073c4:  ffff  dw      0xffff
0073c6:  ffff  dw      0xffff
0073c8:  ffff  dw      0xffff
0073ca:  ffff  dw      0xffff
0073cc:  ffff  dw      0xffff
0073ce:  ffff  dw      0xffff
0073d0:  ffff  dw      0xffff
0073d2:  ffff  dw      0xffff
0073d4:  ffff  dw      0xffff
0073d6:  ffff  dw      0xffff
0073d8:  ffff  dw      0xffff
0073da:  ffff  dw      0xffff
0073dc:  ffff  dw      0xffff
0073de:  ffff  dw      0xffff
0073e0:  ffff  dw      0xffff
0073e2:  ffff  dw      0xffff
0073e4:  ffff  dw      0xffff
0073e6:  ffff  dw      0xffff
0073e8:  ffff  dw      0xffff
0073ea:  ffff  dw      0xffff
0073ec:  ffff  dw      0xffff
0073ee:  ffff  dw      0xffff
0073f0:  ffff  dw      0xffff
0073f2:  ffff  dw      0xffff
0073f4:  ffff  dw      0xffff
0073f6:  ffff  dw      0xffff
0073f8:  ffff  dw      0xffff
0073fa:  ffff  dw      0xffff
0073fc:  ffff  dw      0xffff
0073fe:  ffff  dw      0xffff
007400:  ffff  dw      0xffff
007402:  ffff  dw      0xffff
007404:  ffff  dw      0xffff
007406:  ffff  dw      0xffff
007408:  ffff  dw      0xffff
00740a:  ffff  dw      0xffff
00740c:  ffff  dw      0xffff
00740e:  ffff  dw      0xffff
007410:  ffff  dw      0xffff
007412:  ffff  dw      0xffff
007414:  ffff  dw      0xffff
007416:  ffff  dw      0xffff
007418:  ffff  dw      0xffff
00741a:  ffff  dw      0xffff
00741c:  ffff  dw      0xffff
00741e:  ffff  dw      0xffff
007420:  ffff  dw      0xffff
007422:  ffff  dw      0xffff
007424:  ffff  dw      0xffff
007426:  ffff  dw      0xffff
007428:  ffff  dw      0xffff
00742a:  ffff  dw      0xffff
00742c:  ffff  dw      0xffff
00742e:  ffff  dw      0xffff
007430:  ffff  dw      0xffff
007432:  ffff  dw      0xffff
007434:  ffff  dw      0xffff
007436:  ffff  dw      0xffff
007438:  ffff  dw      0xffff
00743a:  ffff  dw      0xffff
00743c:  ffff  dw      0xffff
00743e:  ffff  dw      0xffff
007440:  ffff  dw      0xffff
007442:  ffff  dw      0xffff
007444:  ffff  dw      0xffff
007446:  ffff  dw      0xffff
007448:  ffff  dw      0xffff
00744a:  ffff  dw      0xffff
00744c:  ffff  dw      0xffff
00744e:  ffff  dw      0xffff
007450:  ffff  dw      0xffff
007452:  ffff  dw      0xffff
007454:  ffff  dw      0xffff
007456:  ffff  dw      0xffff
007458:  ffff  dw      0xffff
00745a:  ffff  dw      0xffff
00745c:  ffff  dw      0xffff
00745e:  ffff  dw      0xffff
007460:  ffff  dw      0xffff
007462:  ffff  dw      0xffff
007464:  ffff  dw      0xffff
007466:  ffff  dw      0xffff
007468:  ffff  dw      0xffff
00746a:  ffff  dw      0xffff
00746c:  ffff  dw      0xffff
00746e:  ffff  dw      0xffff
007470:  ffff  dw      0xffff
007472:  ffff  dw      0xffff
007474:  ffff  dw      0xffff
007476:  ffff  dw      0xffff
007478:  ffff  dw      0xffff
00747a:  ffff  dw      0xffff
00747c:  ffff  dw      0xffff
00747e:  ffff  dw      0xffff
007480:  ffff  dw      0xffff
007482:  ffff  dw      0xffff
007484:  ffff  dw      0xffff
007486:  ffff  dw      0xffff
007488:  ffff  dw      0xffff
00748a:  ffff  dw      0xffff
00748c:  ffff  dw      0xffff
00748e:  ffff  dw      0xffff
007490:  ffff  dw      0xffff
007492:  ffff  dw      0xffff
007494:  ffff  dw      0xffff
007496:  ffff  dw      0xffff
007498:  ffff  dw      0xffff
00749a:  ffff  dw      0xffff
00749c:  ffff  dw      0xffff
00749e:  ffff  dw      0xffff
0074a0:  ffff  dw      0xffff
0074a2:  ffff  dw      0xffff
0074a4:  ffff  dw      0xffff
0074a6:  ffff  dw      0xffff
0074a8:  ffff  dw      0xffff
0074aa:  ffff  dw      0xffff
0074ac:  ffff  dw      0xffff
0074ae:  ffff  dw      0xffff
0074b0:  ffff  dw      0xffff
0074b2:  ffff  dw      0xffff
0074b4:  ffff  dw      0xffff
0074b6:  ffff  dw      0xffff
0074b8:  ffff  dw      0xffff
0074ba:  ffff  dw      0xffff
0074bc:  ffff  dw      0xffff
0074be:  ffff  dw      0xffff
0074c0:  ffff  dw      0xffff
0074c2:  ffff  dw      0xffff
0074c4:  ffff  dw      0xffff
0074c6:  ffff  dw      0xffff
0074c8:  ffff  dw      0xffff
0074ca:  ffff  dw      0xffff
0074cc:  ffff  dw      0xffff
0074ce:  ffff  dw      0xffff
0074d0:  ffff  dw      0xffff
0074d2:  ffff  dw      0xffff
0074d4:  ffff  dw      0xffff
0074d6:  ffff  dw      0xffff
0074d8:  ffff  dw      0xffff
0074da:  ffff  dw      0xffff
0074dc:  ffff  dw      0xffff
0074de:  ffff  dw      0xffff
0074e0:  ffff  dw      0xffff
0074e2:  ffff  dw      0xffff
0074e4:  ffff  dw      0xffff
0074e6:  ffff  dw      0xffff
0074e8:  ffff  dw      0xffff
0074ea:  ffff  dw      0xffff
0074ec:  ffff  dw      0xffff
0074ee:  ffff  dw      0xffff
0074f0:  ffff  dw      0xffff
0074f2:  ffff  dw      0xffff
0074f4:  ffff  dw      0xffff
0074f6:  ffff  dw      0xffff
0074f8:  ffff  dw      0xffff
0074fa:  ffff  dw      0xffff
0074fc:  ffff  dw      0xffff
0074fe:  ffff  dw      0xffff
007500:  ffff  dw      0xffff
007502:  ffff  dw      0xffff
007504:  ffff  dw      0xffff
007506:  ffff  dw      0xffff
007508:  ffff  dw      0xffff
00750a:  ffff  dw      0xffff
00750c:  ffff  dw      0xffff
00750e:  ffff  dw      0xffff
007510:  ffff  dw      0xffff
007512:  ffff  dw      0xffff
007514:  ffff  dw      0xffff
007516:  ffff  dw      0xffff
007518:  ffff  dw      0xffff
00751a:  ffff  dw      0xffff
00751c:  ffff  dw      0xffff
00751e:  ffff  dw      0xffff
007520:  ffff  dw      0xffff
007522:  ffff  dw      0xffff
007524:  ffff  dw      0xffff
007526:  ffff  dw      0xffff
007528:  ffff  dw      0xffff
00752a:  ffff  dw      0xffff
00752c:  ffff  dw      0xffff
00752e:  ffff  dw      0xffff
007530:  ffff  dw      0xffff
007532:  ffff  dw      0xffff
007534:  ffff  dw      0xffff
007536:  ffff  dw      0xffff
007538:  ffff  dw      0xffff
00753a:  ffff  dw      0xffff
00753c:  ffff  dw      0xffff
00753e:  ffff  dw      0xffff
007540:  ffff  dw      0xffff
007542:  ffff  dw      0xffff
007544:  ffff  dw      0xffff
007546:  ffff  dw      0xffff
007548:  ffff  dw      0xffff
00754a:  ffff  dw      0xffff
00754c:  ffff  dw      0xffff
00754e:  ffff  dw      0xffff
007550:  ffff  dw      0xffff
007552:  ffff  dw      0xffff
007554:  ffff  dw      0xffff
007556:  ffff  dw      0xffff
007558:  ffff  dw      0xffff
00755a:  ffff  dw      0xffff
00755c:  ffff  dw      0xffff
00755e:  ffff  dw      0xffff
007560:  ffff  dw      0xffff
007562:  ffff  dw      0xffff
007564:  ffff  dw      0xffff
007566:  ffff  dw      0xffff
007568:  ffff  dw      0xffff
00756a:  ffff  dw      0xffff
00756c:  ffff  dw      0xffff
00756e:  ffff  dw      0xffff
007570:  ffff  dw      0xffff
007572:  ffff  dw      0xffff
007574:  ffff  dw      0xffff
007576:  ffff  dw      0xffff
007578:  ffff  dw      0xffff
00757a:  ffff  dw      0xffff
00757c:  ffff  dw      0xffff
00757e:  ffff  dw      0xffff
007580:  ffff  dw      0xffff
007582:  ffff  dw      0xffff
007584:  ffff  dw      0xffff
007586:  ffff  dw      0xffff
007588:  ffff  dw      0xffff
00758a:  ffff  dw      0xffff
00758c:  ffff  dw      0xffff
00758e:  ffff  dw      0xffff
007590:  ffff  dw      0xffff
007592:  ffff  dw      0xffff
007594:  ffff  dw      0xffff
007596:  ffff  dw      0xffff
007598:  ffff  dw      0xffff
00759a:  ffff  dw      0xffff
00759c:  ffff  dw      0xffff
00759e:  ffff  dw      0xffff
0075a0:  ffff  dw      0xffff
0075a2:  ffff  dw      0xffff
0075a4:  ffff  dw      0xffff
0075a6:  ffff  dw      0xffff
0075a8:  ffff  dw      0xffff
0075aa:  ffff  dw      0xffff
0075ac:  ffff  dw      0xffff
0075ae:  ffff  dw      0xffff
0075b0:  ffff  dw      0xffff
0075b2:  ffff  dw      0xffff
0075b4:  ffff  dw      0xffff
0075b6:  ffff  dw      0xffff
0075b8:  ffff  dw      0xffff
0075ba:  ffff  dw      0xffff
0075bc:  ffff  dw      0xffff
0075be:  ffff  dw      0xffff
0075c0:  ffff  dw      0xffff
0075c2:  ffff  dw      0xffff
0075c4:  ffff  dw      0xffff
0075c6:  ffff  dw      0xffff
0075c8:  ffff  dw      0xffff
0075ca:  ffff  dw      0xffff
0075cc:  ffff  dw      0xffff
0075ce:  ffff  dw      0xffff
0075d0:  ffff  dw      0xffff
0075d2:  ffff  dw      0xffff
0075d4:  ffff  dw      0xffff
0075d6:  ffff  dw      0xffff
0075d8:  ffff  dw      0xffff
0075da:  ffff  dw      0xffff
0075dc:  ffff  dw      0xffff
0075de:  ffff  dw      0xffff
0075e0:  ffff  dw      0xffff
0075e2:  ffff  dw      0xffff
0075e4:  ffff  dw      0xffff
0075e6:  ffff  dw      0xffff
0075e8:  ffff  dw      0xffff
0075ea:  ffff  dw      0xffff
0075ec:  ffff  dw      0xffff
0075ee:  ffff  dw      0xffff
0075f0:  ffff  dw      0xffff
0075f2:  ffff  dw      0xffff
0075f4:  ffff  dw      0xffff
0075f6:  ffff  dw      0xffff
0075f8:  ffff  dw      0xffff
0075fa:  ffff  dw      0xffff
0075fc:  ffff  dw      0xffff
0075fe:  ffff  dw      0xffff
007600:  ffff  dw      0xffff
007602:  ffff  dw      0xffff
007604:  ffff  dw      0xffff
007606:  ffff  dw      0xffff
007608:  ffff  dw      0xffff
00760a:  ffff  dw      0xffff
00760c:  ffff  dw      0xffff
00760e:  ffff  dw      0xffff
007610:  ffff  dw      0xffff
007612:  ffff  dw      0xffff
007614:  ffff  dw      0xffff
007616:  ffff  dw      0xffff
007618:  ffff  dw      0xffff
00761a:  ffff  dw      0xffff
00761c:  ffff  dw      0xffff
00761e:  ffff  dw      0xffff
007620:  ffff  dw      0xffff
007622:  ffff  dw      0xffff
007624:  ffff  dw      0xffff
007626:  ffff  dw      0xffff
007628:  ffff  dw      0xffff
00762a:  ffff  dw      0xffff
00762c:  ffff  dw      0xffff
00762e:  ffff  dw      0xffff
007630:  ffff  dw      0xffff
007632:  ffff  dw      0xffff
007634:  ffff  dw      0xffff
007636:  ffff  dw      0xffff
007638:  ffff  dw      0xffff
00763a:  ffff  dw      0xffff
00763c:  ffff  dw      0xffff
00763e:  ffff  dw      0xffff
007640:  ffff  dw      0xffff
007642:  ffff  dw      0xffff
007644:  ffff  dw      0xffff
007646:  ffff  dw      0xffff
007648:  ffff  dw      0xffff
00764a:  ffff  dw      0xffff
00764c:  ffff  dw      0xffff
00764e:  ffff  dw      0xffff
007650:  ffff  dw      0xffff
007652:  ffff  dw      0xffff
007654:  ffff  dw      0xffff
007656:  ffff  dw      0xffff
007658:  ffff  dw      0xffff
00765a:  ffff  dw      0xffff
00765c:  ffff  dw      0xffff
00765e:  ffff  dw      0xffff
007660:  ffff  dw      0xffff
007662:  ffff  dw      0xffff
007664:  ffff  dw      0xffff
007666:  ffff  dw      0xffff
007668:  ffff  dw      0xffff
00766a:  ffff  dw      0xffff
00766c:  ffff  dw      0xffff
00766e:  ffff  dw      0xffff
007670:  ffff  dw      0xffff
007672:  ffff  dw      0xffff
007674:  ffff  dw      0xffff
007676:  ffff  dw      0xffff
007678:  ffff  dw      0xffff
00767a:  ffff  dw      0xffff
00767c:  ffff  dw      0xffff
00767e:  ffff  dw      0xffff
007680:  ffff  dw      0xffff
007682:  ffff  dw      0xffff
007684:  ffff  dw      0xffff
007686:  ffff  dw      0xffff
007688:  ffff  dw      0xffff
00768a:  ffff  dw      0xffff
00768c:  ffff  dw      0xffff
00768e:  ffff  dw      0xffff
007690:  ffff  dw      0xffff
007692:  ffff  dw      0xffff
007694:  ffff  dw      0xffff
007696:  ffff  dw      0xffff
007698:  ffff  dw      0xffff
00769a:  ffff  dw      0xffff
00769c:  ffff  dw      0xffff
00769e:  ffff  dw      0xffff
0076a0:  ffff  dw      0xffff
0076a2:  ffff  dw      0xffff
0076a4:  ffff  dw      0xffff
0076a6:  ffff  dw      0xffff
0076a8:  ffff  dw      0xffff
0076aa:  ffff  dw      0xffff
0076ac:  ffff  dw      0xffff
0076ae:  ffff  dw      0xffff
0076b0:  ffff  dw      0xffff
0076b2:  ffff  dw      0xffff
0076b4:  ffff  dw      0xffff
0076b6:  ffff  dw      0xffff
0076b8:  ffff  dw      0xffff
0076ba:  ffff  dw      0xffff
0076bc:  ffff  dw      0xffff
0076be:  ffff  dw      0xffff
0076c0:  ffff  dw      0xffff
0076c2:  ffff  dw      0xffff
0076c4:  ffff  dw      0xffff
0076c6:  ffff  dw      0xffff
0076c8:  ffff  dw      0xffff
0076ca:  ffff  dw      0xffff
0076cc:  ffff  dw      0xffff
0076ce:  ffff  dw      0xffff
0076d0:  ffff  dw      0xffff
0076d2:  ffff  dw      0xffff
0076d4:  ffff  dw      0xffff
0076d6:  ffff  dw      0xffff
0076d8:  ffff  dw      0xffff
0076da:  ffff  dw      0xffff
0076dc:  ffff  dw      0xffff
0076de:  ffff  dw      0xffff
0076e0:  ffff  dw      0xffff
0076e2:  ffff  dw      0xffff
0076e4:  ffff  dw      0xffff
0076e6:  ffff  dw      0xffff
0076e8:  ffff  dw      0xffff
0076ea:  ffff  dw      0xffff
0076ec:  ffff  dw      0xffff
0076ee:  ffff  dw      0xffff
0076f0:  ffff  dw      0xffff
0076f2:  ffff  dw      0xffff
0076f4:  ffff  dw      0xffff
0076f6:  ffff  dw      0xffff
0076f8:  ffff  dw      0xffff
0076fa:  ffff  dw      0xffff
0076fc:  ffff  dw      0xffff
0076fe:  ffff  dw      0xffff
007700:  ffff  dw      0xffff
007702:  ffff  dw      0xffff
007704:  ffff  dw      0xffff
007706:  ffff  dw      0xffff
007708:  ffff  dw      0xffff
00770a:  ffff  dw      0xffff
00770c:  ffff  dw      0xffff
00770e:  ffff  dw      0xffff
007710:  ffff  dw      0xffff
007712:  ffff  dw      0xffff
007714:  ffff  dw      0xffff
007716:  ffff  dw      0xffff
007718:  ffff  dw      0xffff
00771a:  ffff  dw      0xffff
00771c:  ffff  dw      0xffff
00771e:  ffff  dw      0xffff
007720:  ffff  dw      0xffff
007722:  ffff  dw      0xffff
007724:  ffff  dw      0xffff
007726:  ffff  dw      0xffff
007728:  ffff  dw      0xffff
00772a:  ffff  dw      0xffff
00772c:  ffff  dw      0xffff
00772e:  ffff  dw      0xffff
007730:  ffff  dw      0xffff
007732:  ffff  dw      0xffff
007734:  ffff  dw      0xffff
007736:  ffff  dw      0xffff
007738:  ffff  dw      0xffff
00773a:  ffff  dw      0xffff
00773c:  ffff  dw      0xffff
00773e:  ffff  dw      0xffff
007740:  ffff  dw      0xffff
007742:  ffff  dw      0xffff
007744:  ffff  dw      0xffff
007746:  ffff  dw      0xffff
007748:  ffff  dw      0xffff
00774a:  ffff  dw      0xffff
00774c:  ffff  dw      0xffff
00774e:  ffff  dw      0xffff
007750:  ffff  dw      0xffff
007752:  ffff  dw      0xffff
007754:  ffff  dw      0xffff
007756:  ffff  dw      0xffff
007758:  ffff  dw      0xffff
00775a:  ffff  dw      0xffff
00775c:  ffff  dw      0xffff
00775e:  ffff  dw      0xffff
007760:  ffff  dw      0xffff
007762:  ffff  dw      0xffff
007764:  ffff  dw      0xffff
007766:  ffff  dw      0xffff
007768:  ffff  dw      0xffff
00776a:  ffff  dw      0xffff
00776c:  ffff  dw      0xffff
00776e:  ffff  dw      0xffff
007770:  ffff  dw      0xffff
007772:  ffff  dw      0xffff
007774:  ffff  dw      0xffff
007776:  ffff  dw      0xffff
007778:  ffff  dw      0xffff
00777a:  ffff  dw      0xffff
00777c:  ffff  dw      0xffff
00777e:  ffff  dw      0xffff
007780:  ffff  dw      0xffff
007782:  ffff  dw      0xffff
007784:  ffff  dw      0xffff
007786:  ffff  dw      0xffff
007788:  ffff  dw      0xffff
00778a:  ffff  dw      0xffff
00778c:  ffff  dw      0xffff
00778e:  ffff  dw      0xffff
007790:  ffff  dw      0xffff
007792:  ffff  dw      0xffff
007794:  ffff  dw      0xffff
007796:  ffff  dw      0xffff
007798:  ffff  dw      0xffff
00779a:  ffff  dw      0xffff
00779c:  ffff  dw      0xffff
00779e:  ffff  dw      0xffff
0077a0:  ffff  dw      0xffff
0077a2:  ffff  dw      0xffff
0077a4:  ffff  dw      0xffff
0077a6:  ffff  dw      0xffff
0077a8:  ffff  dw      0xffff
0077aa:  ffff  dw      0xffff
0077ac:  ffff  dw      0xffff
0077ae:  ffff  dw      0xffff
0077b0:  ffff  dw      0xffff
0077b2:  ffff  dw      0xffff
0077b4:  ffff  dw      0xffff
0077b6:  ffff  dw      0xffff
0077b8:  ffff  dw      0xffff
0077ba:  ffff  dw      0xffff
0077bc:  ffff  dw      0xffff
0077be:  ffff  dw      0xffff
0077c0:  ffff  dw      0xffff
0077c2:  ffff  dw      0xffff
0077c4:  ffff  dw      0xffff
0077c6:  ffff  dw      0xffff
0077c8:  ffff  dw      0xffff
0077ca:  ffff  dw      0xffff
0077cc:  ffff  dw      0xffff
0077ce:  ffff  dw      0xffff
0077d0:  ffff  dw      0xffff
0077d2:  ffff  dw      0xffff
0077d4:  ffff  dw      0xffff
0077d6:  ffff  dw      0xffff
0077d8:  ffff  dw      0xffff
0077da:  ffff  dw      0xffff
0077dc:  ffff  dw      0xffff
0077de:  ffff  dw      0xffff
0077e0:  ffff  dw      0xffff
0077e2:  ffff  dw      0xffff
0077e4:  ffff  dw      0xffff
0077e6:  ffff  dw      0xffff
0077e8:  ffff  dw      0xffff
0077ea:  ffff  dw      0xffff
0077ec:  ffff  dw      0xffff
0077ee:  ffff  dw      0xffff
0077f0:  ffff  dw      0xffff
0077f2:  ffff  dw      0xffff
0077f4:  ffff  dw      0xffff
0077f6:  ffff  dw      0xffff
0077f8:  ffff  dw      0xffff
0077fa:  ffff  dw      0xffff
0077fc:  ffff  dw      0xffff
0077fe:  ffff  dw      0xffff

label_282:                                                  ; address: 0x007800

007800:  ef7f  goto    label_313                            ; dest: 0x007afe
007802:  f03d

function_053:                                               ; address: 0x007804

007804:  6e0d  movwf   (Common_RAM + 13), A                 ; reg: 0x00d
007806:  0e03  movlw   0x03
007808:  d002  bra     label_283                            ; dest: 0x00780e

function_054:                                               ; address: 0x00780a

00780a:  6e0d  movwf   (Common_RAM + 13), A                 ; reg: 0x00d
00780c:  0e04  movlw   0x04

label_283:                                                  ; address: 0x00780e

00780e:  6e07  movwf   (Common_RAM + 7), A                  ; reg: 0x007
007810:  500e  movf    (Common_RAM + 14), W, A              ; reg: 0x00e
007812:  5c0c  subwf   (Common_RAM + 12), W, A              ; reg: 0x00c
007814:  e102  bnz     label_284
007816:  500d  movf    (Common_RAM + 13), W, A              ; reg: 0x00d
007818:  5c0b  subwf   (Common_RAM + 11), W, A              ; reg: 0x00b

label_284:                                                  ; address: 0x00781a

00781a:  0e04  movlw   0x04
00781c:  b0d8  skpnc
00781e:  0e01  movlw   0x01
007820:  b4d8  skpnz
007822:  0e02  movlw   0x02
007824:  1407  andwf   (Common_RAM + 7), W, A               ; reg: 0x007
007826:  a4d8  skpz
007828:  0e01  movlw   0x01
00782a:  0012  return  0x0

function_055:                                               ; address: 0x00782c

00782c:  0e80  movlw   0x80
00782e:  6e01  movwf   (Common_RAM + 1), A                  ; reg: 0x001
007830:  0efe  movlw   0xfe
007832:  d900  rcall   function_068                         ; dest: 0x007a34
007834:  0e01  movlw   0x01
007836:  d8fe  rcall   function_068                         ; dest: 0x007a34
007838:  0e75  movlw   0x75
00783a:  6e0c  movwf   (Common_RAM + 12), A                 ; reg: 0x00c
00783c:  0e30  movlw   0x30
00783e:  d141  bra     function_078                         ; dest: 0x007ac2

function_056:                                               ; address: 0x007840

007840:  6a01  clrf    (Common_RAM + 1), A                  ; reg: 0x001
007842:  8e01  bsf     (Common_RAM + 1), 0x7, A             ; reg: 0x001
007844:  6e16  movwf   (Common_RAM + 22), A                 ; reg: 0x016
007846:  0efe  movlw   0xfe
007848:  d8f5  rcall   function_068                         ; dest: 0x007a34
00784a:  5016  movf    (Common_RAM + 22), W, A              ; reg: 0x016
00784c:  d0f3  bra     function_068                         ; dest: 0x007a34

function_057:                                               ; address: 0x00784e

00784e:  6a05  clrf    (Common_RAM + 5), A                  ; reg: 0x005
007850:  0e80  movlw   0x80
007852:  6e1b  movwf   (Common_RAM + 27), A                 ; reg: 0x01b
007854:  d000  bra     label_285                            ; dest: 0x007856

label_285:                                                  ; address: 0x007856

007856:  6a0f  clrf    (Common_RAM + 15), A                 ; reg: 0x00f
007858:  6a10  clrf    (Common_RAM + 16), A                 ; reg: 0x010
00785a:  6a11  clrf    (Common_RAM + 17), A                 ; reg: 0x011
00785c:  6a11  clrf    (Common_RAM + 17), A                 ; reg: 0x011
00785e:  9a07  bcf     (Common_RAM + 7), 0x5, A             ; reg: 0x007

label_286:                                                  ; address: 0x007860

007860:  d8ed  rcall   function_069                         ; dest: 0x007a3c
007862:  a0d8  skpc
007864:  0012  return  0x0
007866:  0fd3  addlw   0xd3
007868:  b4d8  skpnz
00786a:  8a07  bsf     (Common_RAM + 7), 0x5, A             ; reg: 0x007
00786c:  0f2d  addlw   0x2d
00786e:  0fc6  addlw   0xc6
007870:  e203  bc      label_287
007872:  0f0a  addlw   0x0a
007874:  e3f5  bnc     label_286
007876:  d005  bra     label_288                            ; dest: 0x007882

label_287:                                                  ; address: 0x007878

007878:  0ff3  addlw   0xf3
00787a:  e2f2  bc      label_286
00787c:  0f06  addlw   0x06
00787e:  e3f0  bnc     label_286
007880:  0f0a  addlw   0x0a

label_288:                                                  ; address: 0x007882

007882:  6e0d  movwf   (Common_RAM + 13), A                 ; reg: 0x00d
007884:  0e04  movlw   0x04
007886:  6e0e  movwf   (Common_RAM + 14), A                 ; reg: 0x00e

label_289:                                                  ; address: 0x007888

007888:  90d8  clrc
00788a:  360f  rlcf    (Common_RAM + 15), F, A              ; reg: 0x00f
00788c:  3610  rlcf    (Common_RAM + 16), F, A              ; reg: 0x010
00788e:  3611  rlcf    (Common_RAM + 17), F, A              ; reg: 0x011
007890:  3612  rlcf    (Common_RAM + 18), F, A              ; reg: 0x012
007892:  2e0e  decfsz  (Common_RAM + 14), F, A              ; reg: 0x00e
007894:  d7f9  bra     label_289                            ; dest: 0x007888
007896:  500d  movf    (Common_RAM + 13), W, A              ; reg: 0x00d
007898:  120f  iorwf   (Common_RAM + 15), F, A              ; reg: 0x00f
00789a:  0605  decf    (Common_RAM + 5), F, A               ; reg: 0x005
00789c:  e00e  bz      label_291
00789e:  d8ce  rcall   function_069                         ; dest: 0x007a3c
0078a0:  a0d8  skpc
0078a2:  0012  return  0x0
0078a4:  0fc6  addlw   0xc6
0078a6:  e203  bc      label_290
0078a8:  0f0a  addlw   0x0a
0078aa:  e307  bnc     label_291
0078ac:  d7ea  bra     label_288                            ; dest: 0x007882

label_290:                                                  ; address: 0x0078ae

0078ae:  0ff3  addlw   0xf3
0078b0:  e204  bc      label_291
0078b2:  0f06  addlw   0x06
0078b4:  e302  bnc     label_291
0078b6:  0f0a  addlw   0x0a
0078b8:  d7e4  bra     label_288                            ; dest: 0x007882

label_291:                                                  ; address: 0x0078ba

0078ba:  aa07  btfss   (Common_RAM + 7), 0x5, A             ; reg: 0x007
0078bc:  d00b  bra     label_292                            ; dest: 0x0078d4
0078be:  1e0f  comf    (Common_RAM + 15), F, A              ; reg: 0x00f
0078c0:  1e10  comf    (Common_RAM + 16), F, A              ; reg: 0x010
0078c2:  1e11  comf    (Common_RAM + 17), F, A              ; reg: 0x011
0078c4:  1e12  comf    (Common_RAM + 18), F, A              ; reg: 0x012
0078c6:  2a0f  incf    (Common_RAM + 15), F, A              ; reg: 0x00f
0078c8:  b4d8  skpnz
0078ca:  2a10  incf    (Common_RAM + 16), F, A              ; reg: 0x010
0078cc:  b4d8  skpnz
0078ce:  2a11  incf    (Common_RAM + 17), F, A              ; reg: 0x011
0078d0:  b4d8  skpnz
0078d2:  2a12  incf    (Common_RAM + 18), F, A              ; reg: 0x012

label_292:                                                  ; address: 0x0078d4

0078d4:  500f  movf    (Common_RAM + 15), W, A              ; reg: 0x00f
0078d6:  80d8  setc
0078d8:  0012  return  0x0
0078da:  6a05  clrf    (Common_RAM + 5), A                  ; reg: 0x005

function_058:                                               ; address: 0x0078dc

0078dc:  6e0f  movwf   (Common_RAM + 15), A                 ; reg: 0x00f
0078de:  6a10  clrf    (Common_RAM + 16), A                 ; reg: 0x010
0078e0:  9600  bcf     Common_RAM, 0x3, A                   ; reg: 0x000
0078e2:  5005  movf    (Common_RAM + 5), W, A               ; reg: 0x005
0078e4:  b4d8  skpnz
0078e6:  8600  bsf     Common_RAM, 0x3, A                   ; reg: 0x000
0078e8:  0e04  movlw   0x04
0078ea:  6e04  movwf   (Common_RAM + 4), A                  ; reg: 0x004
0078ec:  3810  swapf   (Common_RAM + 16), W, A              ; reg: 0x010
0078ee:  d805  rcall   function_059                         ; dest: 0x0078fa
0078f0:  5010  movf    (Common_RAM + 16), W, A              ; reg: 0x010
0078f2:  d803  rcall   function_059                         ; dest: 0x0078fa
0078f4:  380f  swapf   (Common_RAM + 15), W, A              ; reg: 0x00f
0078f6:  d801  rcall   function_059                         ; dest: 0x0078fa
0078f8:  500f  movf    (Common_RAM + 15), W, A              ; reg: 0x00f

function_059:                                               ; address: 0x0078fa

0078fa:  0b0f  andlw   0x0f
0078fc:  0ff6  addlw   0xf6
0078fe:  b0d8  skpnc
007900:  0f07  addlw   0x07
007902:  0f0a  addlw   0x0a
007904:  d000  bra     label_293                            ; dest: 0x007906

label_293:                                                  ; address: 0x007906

007906:  6e0b  movwf   (Common_RAM + 11), A                 ; reg: 0x00b
007908:  4e04  dcfsnz  (Common_RAM + 4), F, A               ; reg: 0x004
00790a:  9600  bcf     Common_RAM, 0x3, A                   ; reg: 0x000
00790c:  5005  movf    (Common_RAM + 5), W, A               ; reg: 0x005
00790e:  e003  bz      label_294
007910:  5c04  subwf   (Common_RAM + 4), W, A               ; reg: 0x004
007912:  b0d8  skpnc
007914:  d007  bra     label_295                            ; dest: 0x007924

label_294:                                                  ; address: 0x007916

007916:  500b  movf    (Common_RAM + 11), W, A              ; reg: 0x00b
007918:  a4d8  skpz
00791a:  9600  bcf     Common_RAM, 0x3, A                   ; reg: 0x000
00791c:  b600  btfsc   Common_RAM, 0x3, A                   ; reg: 0x000
00791e:  d002  bra     label_295                            ; dest: 0x007924
007920:  0f30  addlw   0x30
007922:  d088  bra     function_068                         ; dest: 0x007a34

label_295:                                                  ; address: 0x007924

007924:  0012  return  0x0

function_060:                                               ; address: 0x007926

007926:  6e0f  movwf   (Common_RAM + 15), A                 ; reg: 0x00f

label_296:                                                  ; address: 0x007928

007928:  5004  movf    (Common_RAM + 4), W, A               ; reg: 0x004
00792a:  b4d8  skpnz
00792c:  0012  return  0x0
00792e:  c00f  movff   (Common_RAM + 15), FSR0L             ; reg1: 0x00f, reg2: 0xfe9
007930:  ffe9
007932:  c010  movff   (Common_RAM + 16), FSR0H             ; reg1: 0x010, reg2: 0xfea
007934:  ffea
007936:  50ef  movf    INDF0, W, A                          ; reg: 0xfef
007938:  b4d8  skpnz
00793a:  0012  return  0x0
00793c:  d87b  rcall   function_068                         ; dest: 0x007a34
00793e:  4a0f  infsnz  (Common_RAM + 15), F, A              ; reg: 0x00f
007940:  2a10  incf    (Common_RAM + 16), F, A              ; reg: 0x010
007942:  0604  decf    (Common_RAM + 4), F, A               ; reg: 0x004
007944:  d7f1  bra     label_296                            ; dest: 0x007928

function_061:                                               ; address: 0x007946

007946:  6aa6  clrf    EECON1, A                            ; reg: 0xfa6
007948:  8ea6  bsf     EECON1, EEPGD, A                     ; reg: 0xfa6, bit: 7

label_297:                                                  ; address: 0x00794a

00794a:  0009  tblrd*+
00794c:  50f5  movf    TABLAT, W, A                         ; reg: 0xff5
00794e:  e002  bz      label_298
007950:  d802  rcall   function_062                         ; dest: 0x007956
007952:  d7fb  bra     label_297                            ; dest: 0x00794a

label_298:                                                  ; address: 0x007954

007954:  0012  return  0x0

function_062:                                               ; address: 0x007956

007956:  6e14  movwf   (Common_RAM + 20), A                 ; reg: 0x014
007958:  988a  bcf     LATB, LATB4, A                       ; reg: 0xf8a, bit: 4
00795a:  9a89  bcf     LATA, LATA5, A                       ; reg: 0xf89, bit: 5
00795c:  9893  bcf     TRISB, RB4, A                        ; reg: 0xf93, bit: 4
00795e:  9a92  bcf     TRISA, RA5, A                        ; reg: 0xf92, bit: 5
007960:  0ef0  movlw   0xf0
007962:  1693  andwf   TRISB, F, A                          ; reg: 0xf93
007964:  5014  movf    (Common_RAM + 20), W, A              ; reg: 0x014
007966:  b200  btfsc   Common_RAM, 0x1, A                   ; reg: 0x000
007968:  d01e  bra     label_299                            ; dest: 0x0079a6
00796a:  0e3a  movlw   0x3a
00796c:  6e0c  movwf   (Common_RAM + 12), A                 ; reg: 0x00c
00796e:  0e98  movlw   0x98
007970:  d8a8  rcall   function_078                         ; dest: 0x007ac2
007972:  0e33  movlw   0x33
007974:  6e13  movwf   (Common_RAM + 19), A                 ; reg: 0x013
007976:  d82a  rcall   function_065                         ; dest: 0x0079cc
007978:  0e13  movlw   0x13
00797a:  6e0c  movwf   (Common_RAM + 12), A                 ; reg: 0x00c
00797c:  0e88  movlw   0x88
00797e:  d8a1  rcall   function_078                         ; dest: 0x007ac2
007980:  d825  rcall   function_065                         ; dest: 0x0079cc
007982:  0e64  movlw   0x64
007984:  d89d  rcall   function_077                         ; dest: 0x007ac0
007986:  d822  rcall   function_065                         ; dest: 0x0079cc
007988:  0e64  movlw   0x64
00798a:  d89a  rcall   function_077                         ; dest: 0x007ac0
00798c:  0e22  movlw   0x22
00798e:  6e13  movwf   (Common_RAM + 19), A                 ; reg: 0x013
007990:  d81d  rcall   function_065                         ; dest: 0x0079cc
007992:  0e28  movlw   0x28
007994:  d807  rcall   function_063                         ; dest: 0x0079a4
007996:  0e0c  movlw   0x0c
007998:  d805  rcall   function_063                         ; dest: 0x0079a4
00799a:  0e06  movlw   0x06
00799c:  d803  rcall   function_063                         ; dest: 0x0079a4
00799e:  8200  bsf     Common_RAM, 0x1, A                   ; reg: 0x000
0079a0:  5014  movf    (Common_RAM + 20), W, A              ; reg: 0x014
0079a2:  d001  bra     label_299                            ; dest: 0x0079a6

function_063:                                               ; address: 0x0079a4

0079a4:  8000  bsf     Common_RAM, 0x0, A                   ; reg: 0x000

label_299:                                                  ; address: 0x0079a6

0079a6:  6e13  movwf   (Common_RAM + 19), A                 ; reg: 0x013
0079a8:  a000  btfss   Common_RAM, 0x0, A                   ; reg: 0x000
0079aa:  d00a  bra     label_300                            ; dest: 0x0079c0
0079ac:  9a89  bcf     LATA, LATA5, A                       ; reg: 0xf89, bit: 5
0079ae:  0803  sublw   0x03
0079b0:  e30b  bnc     function_064
0079b2:  d80a  rcall   function_064                         ; dest: 0x0079c8
0079b4:  0e07  movlw   0x07
0079b6:  6e0c  movwf   (Common_RAM + 12), A                 ; reg: 0x00c
0079b8:  0ed0  movlw   0xd0
0079ba:  d883  rcall   function_078                         ; dest: 0x007ac2
0079bc:  80d8  setc
0079be:  0012  return  0x0

label_300:                                                  ; address: 0x0079c0

0079c0:  8000  bsf     Common_RAM, 0x0, A                   ; reg: 0x000
0079c2:  08fe  sublw   0xfe
0079c4:  e011  bz      label_301
0079c6:  8a89  bsf     LATA, LATA5, A                       ; reg: 0xf89, bit: 5

function_064:                                               ; address: 0x0079c8

0079c8:  3a13  swapf   (Common_RAM + 19), F, A              ; reg: 0x013
0079ca:  a000  btfss   Common_RAM, 0x0, A                   ; reg: 0x000

function_065:                                               ; address: 0x0079cc

0079cc:  9000  bcf     Common_RAM, 0x0, A                   ; reg: 0x000
0079ce:  888a  bsf     LATB, LATB4, A                       ; reg: 0xf8a, bit: 4
0079d0:  0ef0  movlw   0xf0
0079d2:  1681  andwf   PORTB, F, A                          ; reg: 0xf81
0079d4:  5013  movf    (Common_RAM + 19), W, A              ; reg: 0x013
0079d6:  0b0f  andlw   0x0f
0079d8:  1281  iorwf   PORTB, F, A                          ; reg: 0xf81
0079da:  988a  bcf     LATB, LATB4, A                       ; reg: 0xf8a, bit: 4
0079dc:  3a13  swapf   (Common_RAM + 19), F, A              ; reg: 0x013
0079de:  b000  btfsc   Common_RAM, 0x0, A                   ; reg: 0x000
0079e0:  d7f5  bra     function_065                         ; dest: 0x0079cc
0079e2:  0e32  movlw   0x32
0079e4:  d86d  rcall   function_077                         ; dest: 0x007ac0
0079e6:  80d8  setc

label_301:                                                  ; address: 0x0079e8

0079e8:  5014  movf    (Common_RAM + 20), W, A              ; reg: 0x014
0079ea:  0012  return  0x0

function_066:                                               ; address: 0x0079ec

0079ec:  b2ab  btfsc   RCSTA, OERR, A                       ; reg: 0xfab, bit: 1
0079ee:  98ab  bcf     RCSTA, CREN, A                       ; reg: 0xfab, bit: 4
0079f0:  88ab  bsf     RCSTA, CREN, A                       ; reg: 0xfab, bit: 4
0079f2:  c002  movff   (Common_RAM + 2), (Common_RAM + 11)  ; reg1: 0x002, reg2: 0x00b
0079f4:  f00b
0079f6:  c006  movff   (Common_RAM + 6), (Common_RAM + 12)  ; reg1: 0x006, reg2: 0x00c
0079f8:  f00c
0079fa:  6a0d  clrf    (Common_RAM + 13), A                 ; reg: 0x00d
0079fc:  6a0e  clrf    (Common_RAM + 14), A                 ; reg: 0x00e

label_302:                                                  ; address: 0x0079fe

0079fe:  0000  nop
007a00:  d000  bra     label_303                            ; dest: 0x007a02

label_303:                                                  ; address: 0x007a02

007a02:  0000  nop
007a04:  ba9e  btfsc   PIR1, RCIF, A                        ; reg: 0xf9e, bit: 5
007a06:  d00e  bra     label_304                            ; dest: 0x007a24
007a08:  68e8  setf    WREG, A                              ; reg: 0xfe8
007a0a:  260d  addwf   (Common_RAM + 13), F, A              ; reg: 0x00d
007a0c:  220e  addwfc  (Common_RAM + 14), F, A              ; reg: 0x00e
007a0e:  220b  addwfc  (Common_RAM + 11), F, A              ; reg: 0x00b
007a10:  220c  addwfc  (Common_RAM + 12), F, A              ; reg: 0x00c
007a12:  a0d8  skpc
007a14:  0012  return  0x0
007a16:  480d  infsnz  (Common_RAM + 13), W, A              ; reg: 0x00d
007a18:  3c0e  incfsz  (Common_RAM + 14), W, A              ; reg: 0x00e
007a1a:  d7f1  bra     label_302                            ; dest: 0x0079fe
007a1c:  0eb7  movlw   0xb7
007a1e:  6e0d  movwf   (Common_RAM + 13), A                 ; reg: 0x00d
007a20:  6a0e  clrf    (Common_RAM + 14), A                 ; reg: 0x00e
007a22:  d7ef  bra     label_303                            ; dest: 0x007a02

label_304:                                                  ; address: 0x007a24

007a24:  50ae  movf    RCREG, W, A                          ; reg: 0xfae
007a26:  80d8  setc
007a28:  0012  return  0x0

function_067:                                               ; address: 0x007a2a

007a2a:  a89e  btfss   PIR1, TXIF, A                        ; reg: 0xf9e, bit: 4
007a2c:  d7fe  bra     function_067                         ; dest: 0x007a2a
007a2e:  6ead  movwf   TXREG, A                             ; reg: 0xfad
007a30:  80d8  setc
007a32:  0012  return  0x0

function_068:                                               ; address: 0x007a34

007a34:  be01  btfsc   (Common_RAM + 1), 0x7, A             ; reg: 0x001
007a36:  d78f  bra     function_062                         ; dest: 0x007956
007a38:  b401  btfsc   (Common_RAM + 1), 0x2, A             ; reg: 0x001
007a3a:  d7f7  bra     function_067                         ; dest: 0x007a2a

function_069:                                               ; address: 0x007a3c

007a3c:  521b  movf    (Common_RAM + 27), F, A              ; reg: 0x01b
007a3e:  e0d6  bz      function_066
007a40:  80d8  setc
007a42:  be1b  btfsc   (Common_RAM + 27), 0x7, A            ; reg: 0x01b
007a44:  50ee  movf    POSTINC0, W, A                       ; reg: 0xfee
007a46:  0012  return  0x0

function_070:                                               ; address: 0x007a48

007a48:  6ea9  movwf   EEADR, A                             ; reg: 0xfa9
007a4a:  6aa6  clrf    EECON1, A                            ; reg: 0xfa6
007a4c:  80a6  bsf     EECON1, RD, A                        ; reg: 0xfa6, bit: 0
007a4e:  50a8  movf    EEDATA, W, A                         ; reg: 0xfa8
007a50:  2aa9  incf    EEADR, F, A                          ; reg: 0xfa9
007a52:  0012  return  0x0

function_071:                                               ; address: 0x007a54

007a54:  6ea8  movwf   EEDATA, A                            ; reg: 0xfa8
007a56:  6aa6  clrf    EECON1, A                            ; reg: 0xfa6
007a58:  84a6  bsf     EECON1, WREN, A                      ; reg: 0xfa6, bit: 2
007a5a:  0e55  movlw   0x55
007a5c:  6ea7  movwf   EECON2, A                            ; reg: 0xfa7
007a5e:  0eaa  movlw   0xaa
007a60:  6ea7  movwf   EECON2, A                            ; reg: 0xfa7
007a62:  82a6  bsf     EECON1, WR, A                        ; reg: 0xfa6, bit: 1

label_305:                                                  ; address: 0x007a64

007a64:  b2a6  btfsc   EECON1, WR, A                        ; reg: 0xfa6, bit: 1
007a66:  d7fe  bra     label_305                            ; dest: 0x007a64
007a68:  94a6  bcf     EECON1, WREN, A                      ; reg: 0xfa6, bit: 2
007a6a:  2aa9  incf    EEADR, F, A                          ; reg: 0xfa9
007a6c:  0012  return  0x0

function_072:                                               ; address: 0x007a6e

007a6e:  6ef5  movwf   TABLAT, A                            ; reg: 0xff5
007a70:  000c  tblwt*
007a72:  28f6  incf    TBLPTRL, W, A                        ; reg: 0xff6
007a74:  0b1f  andlw   0x1f
007a76:  e109  bnz     label_307
007a78:  0e84  movlw   0x84
007a7a:  6ea6  movwf   EECON1, A                            ; reg: 0xfa6
007a7c:  0e55  movlw   0x55
007a7e:  6ea7  movwf   EECON2, A                            ; reg: 0xfa7
007a80:  0eaa  movlw   0xaa
007a82:  6ea7  movwf   EECON2, A                            ; reg: 0xfa7
007a84:  82a6  bsf     EECON1, WR, A                        ; reg: 0xfa6, bit: 1
007a86:  d000  bra     label_306                            ; dest: 0x007a88

label_306:                                                  ; address: 0x007a88

007a88:  94a6  bcf     EECON1, WREN, A                      ; reg: 0xfa6, bit: 2

label_307:                                                  ; address: 0x007a8a

007a8a:  4af6  infsnz  TBLPTRL, F, A                        ; reg: 0xff6
007a8c:  2af7  incf    TBLPTRH, F, A                        ; reg: 0xff7
007a8e:  0012  return  0x0

function_073:                                               ; address: 0x007a90

007a90:  6ef6  movwf   TBLPTRL, A                           ; reg: 0xff6

function_074:                                               ; address: 0x007a92

007a92:  0e94  movlw   0x94
007a94:  6ea6  movwf   EECON1, A                            ; reg: 0xfa6
007a96:  0e55  movlw   0x55
007a98:  6ea7  movwf   EECON2, A                            ; reg: 0xfa7
007a9a:  0eaa  movlw   0xaa
007a9c:  6ea7  movwf   EECON2, A                            ; reg: 0xfa7
007a9e:  82a6  bsf     EECON1, WR, A                        ; reg: 0xfa6, bit: 1
007aa0:  0000  nop
007aa2:  94a6  bcf     EECON1, WREN, A                      ; reg: 0xfa6, bit: 2
007aa4:  0012  return  0x0

function_075:                                               ; address: 0x007aa6

007aa6:  6a0e  clrf    (Common_RAM + 14), A                 ; reg: 0x00e

function_076:                                               ; address: 0x007aa8

007aa8:  6e0d  movwf   (Common_RAM + 13), A                 ; reg: 0x00d

label_308:                                                  ; address: 0x007aaa

007aaa:  0eff  movlw   0xff
007aac:  260d  addwf   (Common_RAM + 13), F, A              ; reg: 0x00d
007aae:  220e  addwfc  (Common_RAM + 14), F, A              ; reg: 0x00e
007ab0:  d000  bra     label_309                            ; dest: 0x007ab2

label_309:                                                  ; address: 0x007ab2

007ab2:  a0d8  skpc
007ab4:  0012  return  0x0
007ab6:  0e03  movlw   0x03
007ab8:  6e0c  movwf   (Common_RAM + 12), A                 ; reg: 0x00c
007aba:  0ee5  movlw   0xe5
007abc:  d802  rcall   function_078                         ; dest: 0x007ac2
007abe:  d7f5  bra     label_308                            ; dest: 0x007aaa

function_077:                                               ; address: 0x007ac0

007ac0:  6a0c  clrf    (Common_RAM + 12), A                 ; reg: 0x00c

function_078:                                               ; address: 0x007ac2

007ac2:  0ffa  addlw   0xfa
007ac4:  6e0b  movwf   (Common_RAM + 11), A                 ; reg: 0x00b
007ac6:  0000  nop
007ac8:  e303  bnc     label_311
007aca:  d000  bra     label_310                            ; dest: 0x007acc

label_310:                                                  ; address: 0x007acc

007acc:  060b  decf    (Common_RAM + 11), F, A              ; reg: 0x00b
007ace:  e2fe  bc      label_310

label_311:                                                  ; address: 0x007ad0

007ad0:  060b  decf    (Common_RAM + 11), F, A              ; reg: 0x00b
007ad2:  060c  decf    (Common_RAM + 12), F, A              ; reg: 0x00c
007ad4:  e2fb  bc      label_310
007ad6:  0000  nop
007ad8:  0012  return  0x0

function_079:                                               ; address: 0x007ada

007ada:  4ef3  dcfsnz  PRODL, F, A                          ; reg: 0xff3
007adc:  d002  bra     label_312                            ; dest: 0x007ae2
007ade:  52e6  movf    POSTINC1, F, A                       ; reg: 0xfe6
007ae0:  d7fc  bra     function_079                         ; dest: 0x007ada

label_312:                                                  ; address: 0x007ae2

007ae2:  cfe6  movff   POSTINC1, POSTINC0                   ; reg1: 0xfe6, reg2: 0xfee
007ae4:  ffee
007ae6:  2ee8  decfsz  WREG, F, A                           ; reg: 0xfe8
007ae8:  d7fc  bra     label_312                            ; dest: 0x007ae2
007aea:  0012  return  0x0
007aec:  6f42  movwf   (Common_RAM + 66), B                 ; reg: 0x042
007aee:  746f  btg     UCFG, FSEN, A                        ; reg: 0xf6f, bit: 2
007af0:  6f6c  movwf   0x6c, B                              ; reg: 0x06c
007af2:  6461  cpfsgt  0x61, A                              ; reg: 0xf61
007af4:  7265  btg     0x65, 0x1, A                         ; reg: 0xf65
007af6:  6d20  negf    (Common_RAM + 32), B                 ; reg: 0x020
007af8:  646f  cpfsgt  UCFG, A                              ; reg: 0xf6f
007afa:  2065  addwfc  0x65, W, A                           ; reg: 0xf65
007afc:  0000  nop

label_313:                                                  ; address: 0x007afe

007afe:  6af8  clrf    TBLPTRU, A                           ; reg: 0xff8
007b00:  6a00  clrf    Common_RAM, A                        ; reg: 0x000
007b02:  0e05  movlw   0x05
007b04:  6eaf  movwf   SPBRG, A                             ; reg: 0xfaf
007b06:  0e20  movlw   0x20
007b08:  6eac  movwf   TXSTA, A                             ; reg: 0xfac
007b0a:  0e90  movlw   0x90
007b0c:  6eab  movwf   RCSTA, A                             ; reg: 0xfab
007b0e:  0100  movlb   0x0
007b10:  0edf  movlw   0xdf
007b12:  6e92  movwf   TRISA, A                             ; reg: 0xf92
007b14:  0e3c  movlw   0x3c
007b16:  6e93  movwf   TRISB, A                             ; reg: 0xf93
007b18:  0ebd  movlw   0xbd
007b1a:  6e94  movwf   TRISC, A                             ; reg: 0xf94
007b1c:  6a7b  clrf    UEP11, A                             ; reg: 0xf7b
007b1e:  6a7a  clrf    UEP10, A                             ; reg: 0xf7a
007b20:  6a7e  clrf    UEP14, A                             ; reg: 0xf7e
007b22:  6a7f  clrf    UEP15, A                             ; reg: 0xf7f
007b24:  0e0f  movlw   0x0f
007b26:  6ec1  movwf   ADCON1, A                            ; reg: 0xfc1
007b28:  0e05  movlw   0x05
007b2a:  dfbd  rcall   function_075                         ; dest: 0x007aa6
007b2c:  0e46  movlw   0x46
007b2e:  6f76  movwf   0x76, B                              ; reg: 0x076
007b30:  0e57  movlw   0x57
007b32:  6f77  movwf   0x77, B                              ; reg: 0x077
007b34:  0e5f  movlw   0x5f
007b36:  6f78  movwf   0x78, B                              ; reg: 0x078
007b38:  0e55  movlw   0x55
007b3a:  6f79  movwf   0x79, B                              ; reg: 0x079
007b3c:  0e70  movlw   0x70
007b3e:  6f7a  movwf   0x7a, B                              ; reg: 0x07a
007b40:  0e64  movlw   0x64
007b42:  6f7b  movwf   0x7b, B                              ; reg: 0x07b
007b44:  9c93  bcf     TRISB, RB6, A                        ; reg: 0xf93, bit: 6
007b46:  9c8a  bcf     LATB, LATB6, A                       ; reg: 0xf8a, bit: 6
007b48:  9382  bcf     0x82, 0x1, B                         ; reg: 0x082
007b4a:  d9db  rcall   function_082                         ; dest: 0x007f02
007b4c:  3182  rrcf    0x82, W, B                           ; reg: 0x082
007b4e:  32e8  rrcf    WREG, F, A                           ; reg: 0xfe8
007b50:  e215  bc      label_316
007b52:  0eff  movlw   0xff
007b54:  df79  rcall   function_070                         ; dest: 0x007a48
007b56:  6e1f  movwf   (Common_RAM + 31), A                 ; reg: 0x01f
007b58:  2c1f  decfsz  (Common_RAM + 31), W, A              ; reg: 0x01f
007b5a:  d006  bra     label_314                            ; dest: 0x007b68
007b5c:  68a9  setf    EEADR, A                             ; reg: 0xfa9
007b5e:  0e77  movlw   0x77
007b60:  df79  rcall   function_071                         ; dest: 0x007a54
007b62:  ef20  goto    label_004                            ; dest: 0x000040
007b64:  f000
007b66:  d009  bra     label_315                            ; dest: 0x007b7a

label_314:                                                  ; address: 0x007b68

007b68:  0e02  movlw   0x02
007b6a:  621f  cpfseq  (Common_RAM + 31), A                 ; reg: 0x01f
007b6c:  d006  bra     label_315                            ; dest: 0x007b7a
007b6e:  0efe  movlw   0xfe
007b70:  6ea9  movwf   EEADR, A                             ; reg: 0xfa9
007b72:  0e01  movlw   0x01
007b74:  df6f  rcall   function_071                         ; dest: 0x007a54
007b76:  ef20  goto    label_004                            ; dest: 0x000040
007b78:  f000

label_315:                                                  ; address: 0x007b7a

007b7a:  d003  bra     label_317                            ; dest: 0x007b82

label_316:                                                  ; address: 0x007b7c

007b7c:  68a9  setf    EEADR, A                             ; reg: 0xfa9
007b7e:  0e00  movlw   0x00
007b80:  df69  rcall   function_071                         ; dest: 0x007a54

label_317:                                                  ; address: 0x007b82

007b82:  8aac  bsf     TXSTA, TXEN, A                       ; reg: 0xfac, bit: 5
007b84:  88ab  bsf     RCSTA, CREN, A                       ; reg: 0xfab, bit: 4
007b86:  8eab  bsf     RCSTA, SPEN, A                       ; reg: 0xfab, bit: 7
007b88:  de51  rcall   function_055                         ; dest: 0x00782c
007b8a:  9294  bcf     TRISC, RC1, A                        ; reg: 0xf94, bit: 1
007b8c:  828b  bsf     LATC, LATC1, A                       ; reg: 0xf8b, bit: 1
007b8e:  0e80  movlw   0x80
007b90:  6e01  movwf   (Common_RAM + 1), A                  ; reg: 0x001
007b92:  de56  rcall   function_056                         ; dest: 0x007840
007b94:  0e7a  movlw   0x7a
007b96:  6ef7  movwf   TBLPTRH, A                           ; reg: 0xff7
007b98:  0eec  movlw   0xec
007b9a:  6ef6  movwf   TBLPTRL, A                           ; reg: 0xff6
007b9c:  ded4  rcall   function_061                         ; dest: 0x007946
007b9e:  ee00  lfsr    0x0, 0x024
007ba0:  f024
007ba2:  0e1f  movlw   0x1f

label_318:                                                  ; address: 0x007ba4

007ba4:  6aee  clrf    POSTINC0, A                          ; reg: 0xfee
007ba6:  2ee8  decfsz  WREG, F, A                           ; reg: 0xfe8
007ba8:  d7fd  bra     label_318                            ; dest: 0x007ba4
007baa:  9ef2  bcf     INTCON, GIE, A                       ; reg: 0xff2, bit: 7
007bac:  0e40  movlw   0x40
007bae:  6e1d  movwf   (Common_RAM + 29), A                 ; reg: 0x01d
007bb0:  6a1e  clrf    (Common_RAM + 30), A                 ; reg: 0x01e
007bb2:  6a20  clrf    (Common_RAM + 32), A                 ; reg: 0x020
007bb4:  6a21  clrf    (Common_RAM + 33), A                 ; reg: 0x021

label_319:                                                  ; address: 0x007bb6

007bb6:  6a08  clrf    (Common_RAM + 8), A                  ; reg: 0x008

label_320:                                                  ; address: 0x007bb8

007bb8:  ee00  lfsr    0x0, 0x076
007bba:  f076
007bbc:  5008  movf    (Common_RAM + 8), W, A               ; reg: 0x008
007bbe:  50eb  movf    PLUSW0, W, A                         ; reg: 0xfeb
007bc0:  6e19  movwf   (Common_RAM + 25), A                 ; reg: 0x019
007bc2:  ee00  lfsr    0x0, 0x07c
007bc4:  f07c
007bc6:  5008  movf    (Common_RAM + 8), W, A               ; reg: 0x008
007bc8:  c019  movff   (Common_RAM + 25), PLUSW0            ; reg1: 0x019, reg2: 0xfeb
007bca:  ffeb
007bcc:  2a08  incf    (Common_RAM + 8), F, A               ; reg: 0x008
007bce:  5008  movf    (Common_RAM + 8), W, A               ; reg: 0x008
007bd0:  0806  sublw   0x06
007bd2:  e1f2  bnz     label_320
007bd4:  d945  rcall   function_080                         ; dest: 0x007e60

label_321:                                                  ; address: 0x007bd6

007bd6:  ee00  lfsr    0x0, 0x043
007bd8:  f043
007bda:  0e2e  movlw   0x2e

label_322:                                                  ; address: 0x007bdc

007bdc:  6aee  clrf    POSTINC0, A                          ; reg: 0xfee
007bde:  2ee8  decfsz  WREG, F, A                           ; reg: 0xfe8
007be0:  d7fd  bra     label_322                            ; dest: 0x007bdc
007be2:  0ef4  movlw   0xf4
007be4:  6e02  movwf   (Common_RAM + 2), A                  ; reg: 0x002
007be6:  0e01  movlw   0x01
007be8:  6e06  movwf   (Common_RAM + 6), A                  ; reg: 0x006

label_323:                                                  ; address: 0x007bea

007bea:  df00  rcall   function_066                         ; dest: 0x0079ec
007bec:  e3e4  bnc     label_319
007bee:  083a  sublw   0x3a
007bf0:  e1fc  bnz     label_323
007bf2:  ee10  lfsr    0x1, 0x043
007bf4:  f043

label_324:                                                  ; address: 0x007bf6

007bf6:  defa  rcall   function_066                         ; dest: 0x0079ec
007bf8:  e3de  bnc     label_319
007bfa:  080d  sublw   0x0d
007bfc:  e102  bnz     label_325
007bfe:  6ae6  clrf    POSTINC1, A                          ; reg: 0xfe6
007c00:  d004  bra     label_326                            ; dest: 0x007c0a

label_325:                                                  ; address: 0x007c02

007c02:  50ae  movf    RCREG, W, A                          ; reg: 0xfae
007c04:  6ee6  movwf   POSTINC1, A                          ; reg: 0xfe6
007c06:  e001  bz      label_326
007c08:  d7f6  bra     label_324                            ; dest: 0x007bf6

label_326:                                                  ; address: 0x007c0a

007c0a:  9182  bcf     0x82, 0x0, B                         ; reg: 0x082
007c0c:  6a1f  clrf    (Common_RAM + 31), A                 ; reg: 0x01f

label_327:                                                  ; address: 0x007c0e

007c0e:  0e06  movlw   0x06
007c10:  601f  cpfslt  (Common_RAM + 31), A                 ; reg: 0x01f
007c12:  d00b  bra     label_329                            ; dest: 0x007c2a
007c14:  ee00  lfsr    0x0, 0x043
007c16:  f043
007c18:  501f  movf    (Common_RAM + 31), W, A              ; reg: 0x01f
007c1a:  50eb  movf    PLUSW0, W, A                         ; reg: 0xfeb
007c1c:  6e08  movwf   (Common_RAM + 8), A                  ; reg: 0x008
007c1e:  0e30  movlw   0x30
007c20:  5c08  subwf   (Common_RAM + 8), W, A               ; reg: 0x008
007c22:  e001  bz      label_328
007c24:  8182  bsf     0x82, 0x0, B                         ; reg: 0x082

label_328:                                                  ; address: 0x007c26

007c26:  2a1f  incf    (Common_RAM + 31), F, A              ; reg: 0x01f
007c28:  e1f2  bnz     label_327

label_329:                                                  ; address: 0x007c2a

007c2a:  3182  rrcf    0x82, W, B                           ; reg: 0x082
007c2c:  e201  bc      label_330
007c2e:  d193  bra     label_349                            ; dest: 0x007f56

label_330:                                                  ; address: 0x007c30

007c30:  6a22  clrf    (Common_RAM + 34), A                 ; reg: 0x022
007c32:  6a23  clrf    (Common_RAM + 35), A                 ; reg: 0x023
007c34:  6a1f  clrf    (Common_RAM + 31), A                 ; reg: 0x01f

label_331:                                                  ; address: 0x007c36

007c36:  0e14  movlw   0x14
007c38:  601f  cpfslt  (Common_RAM + 31), A                 ; reg: 0x01f
007c3a:  d01c  bra     label_332                            ; dest: 0x007c74
007c3c:  ee00  lfsr    0x0, 0x071
007c3e:  f071
007c40:  ee10  lfsr    0x1, 0x043
007c42:  f043
007c44:  501f  movf    (Common_RAM + 31), W, A              ; reg: 0x01f
007c46:  0d02  mullw   0x02
007c48:  cff3  movff   PRODL, (Common_RAM + 25)             ; reg1: 0xff3, reg2: 0x019
007c4a:  f019
007c4c:  cff4  movff   PRODH, (Common_RAM + 26)             ; reg1: 0xff4, reg2: 0x01a
007c4e:  f01a
007c50:  2819  incf    (Common_RAM + 25), W, A              ; reg: 0x019
007c52:  6ef3  movwf   PRODL, A                             ; reg: 0xff3
007c54:  0e02  movlw   0x02
007c56:  df41  rcall   function_079                         ; dest: 0x007ada
007c58:  6aef  clrf    INDF0, A                             ; reg: 0xfef
007c5a:  ee00  lfsr    0x0, 0x071
007c5c:  f071
007c5e:  ec27  call    function_057, 0x0                    ; dest: 0x00784e
007c60:  f03c
007c62:  6e19  movwf   (Common_RAM + 25), A                 ; reg: 0x019
007c64:  c010  movff   (Common_RAM + 16), (Common_RAM + 26) ; reg1: 0x010, reg2: 0x01a
007c66:  f01a
007c68:  5019  movf    (Common_RAM + 25), W, A              ; reg: 0x019
007c6a:  2622  addwf   (Common_RAM + 34), F, A              ; reg: 0x022
007c6c:  501a  movf    (Common_RAM + 26), W, A              ; reg: 0x01a
007c6e:  2223  addwfc  (Common_RAM + 35), F, A              ; reg: 0x023
007c70:  2a1f  incf    (Common_RAM + 31), F, A              ; reg: 0x01f
007c72:  e1e1  bnz     label_331

label_332:                                                  ; address: 0x007c74

007c74:  5022  movf    (Common_RAM + 34), W, A              ; reg: 0x022
007c76:  08ff  sublw   0xff
007c78:  6e19  movwf   (Common_RAM + 25), A                 ; reg: 0x019
007c7a:  0eff  movlw   0xff
007c7c:  5423  subfwb  (Common_RAM + 35), W, A              ; reg: 0x023
007c7e:  6e1a  movwf   (Common_RAM + 26), A                 ; reg: 0x01a
007c80:  0e01  movlw   0x01
007c82:  2419  addwf   (Common_RAM + 25), W, A              ; reg: 0x019
007c84:  6e22  movwf   (Common_RAM + 34), A                 ; reg: 0x022
007c86:  0e00  movlw   0x00
007c88:  201a  addwfc  (Common_RAM + 26), W, A              ; reg: 0x01a
007c8a:  6e23  movwf   (Common_RAM + 35), A                 ; reg: 0x023
007c8c:  ee00  lfsr    0x0, 0x071
007c8e:  f071
007c90:  ee10  lfsr    0x1, 0x043
007c92:  f043
007c94:  0e29  movlw   0x29
007c96:  6ef3  movwf   PRODL, A                             ; reg: 0xff3
007c98:  0e02  movlw   0x02
007c9a:  df1f  rcall   function_079                         ; dest: 0x007ada
007c9c:  6aef  clrf    INDF0, A                             ; reg: 0xfef
007c9e:  ee00  lfsr    0x0, 0x071
007ca0:  f071
007ca2:  ec27  call    function_057, 0x0                    ; dest: 0x00784e
007ca4:  f03c
007ca6:  6e20  movwf   (Common_RAM + 32), A                 ; reg: 0x020
007ca8:  c010  movff   (Common_RAM + 16), (Common_RAM + 33) ; reg1: 0x010, reg2: 0x021
007caa:  f021
007cac:  5020  movf    (Common_RAM + 32), W, A              ; reg: 0x020
007cae:  6222  cpfseq  (Common_RAM + 34), A                 ; reg: 0x022
007cb0:  d0d6  bra     label_343                            ; dest: 0x007e5e
007cb2:  6621  tstfsz  (Common_RAM + 33), A                 ; reg: 0x021
007cb4:  d0d4  bra     label_343                            ; dest: 0x007e5e
007cb6:  ee00  lfsr    0x0, 0x071
007cb8:  f071
007cba:  ee10  lfsr    0x1, 0x043
007cbc:  f043
007cbe:  0e03  movlw   0x03
007cc0:  6ef3  movwf   PRODL, A                             ; reg: 0xff3
007cc2:  0e04  movlw   0x04
007cc4:  df0a  rcall   function_079                         ; dest: 0x007ada
007cc6:  6aef  clrf    INDF0, A                             ; reg: 0xfef
007cc8:  ee00  lfsr    0x0, 0x071
007cca:  f071
007ccc:  ec27  call    function_057, 0x0                    ; dest: 0x00784e
007cce:  f03c
007cd0:  6e1d  movwf   (Common_RAM + 29), A                 ; reg: 0x01d
007cd2:  c010  movff   (Common_RAM + 16), (Common_RAM + 30) ; reg1: 0x010, reg2: 0x01e
007cd4:  f01e
007cd6:  0e3f  movlw   0x3f
007cd8:  141d  andwf   (Common_RAM + 29), W, A              ; reg: 0x01d
007cda:  6e08  movwf   (Common_RAM + 8), A                  ; reg: 0x008
007cdc:  6a09  clrf    (Common_RAM + 9), A                  ; reg: 0x009
007cde:  5009  movf    (Common_RAM + 9), W, A               ; reg: 0x009
007ce0:  1008  iorwf   (Common_RAM + 8), W, A               ; reg: 0x008
007ce2:  e002  bz      label_333
007ce4:  0e00  movlw   0x00
007ce6:  d001  bra     label_334                            ; dest: 0x007cea

label_333:                                                  ; address: 0x007ce8

007ce8:  0e01  movlw   0x01

label_334:                                                  ; address: 0x007cea

007cea:  6e1c  movwf   (Common_RAM + 28), A                 ; reg: 0x01c
007cec:  c01d  movff   (Common_RAM + 29), (Common_RAM + 11) ; reg1: 0x01d, reg2: 0x00b
007cee:  f00b
007cf0:  c01e  movff   (Common_RAM + 30), (Common_RAM + 12) ; reg1: 0x01e, reg2: 0x00c
007cf2:  f00c
007cf4:  0e77  movlw   0x77
007cf6:  6e0e  movwf   (Common_RAM + 14), A                 ; reg: 0x00e
007cf8:  0ec0  movlw   0xc0
007cfa:  ec05  call    function_054, 0x0                    ; dest: 0x00780a
007cfc:  f03c
007cfe:  161c  andwf   (Common_RAM + 28), F, A              ; reg: 0x01c
007d00:  c01d  movff   (Common_RAM + 29), (Common_RAM + 11) ; reg1: 0x01d, reg2: 0x00b
007d02:  f00b
007d04:  c01e  movff   (Common_RAM + 30), (Common_RAM + 12) ; reg1: 0x01e, reg2: 0x00c
007d06:  f00c
007d08:  6a0e  clrf    (Common_RAM + 14), A                 ; reg: 0x00e
007d0a:  0e40  movlw   0x40
007d0c:  ec02  call    function_053, 0x0                    ; dest: 0x007804
007d0e:  f03c
007d10:  161c  andwf   (Common_RAM + 28), F, A              ; reg: 0x01c
007d12:  e007  bz      label_335
007d14:  501e  movf    (Common_RAM + 30), W, A              ; reg: 0x01e
007d16:  101d  iorwf   (Common_RAM + 29), W, A              ; reg: 0x01d
007d18:  e004  bz      label_335
007d1a:  c01e  movff   (Common_RAM + 30), TBLPTRH           ; reg1: 0x01e, reg2: 0xff7
007d1c:  fff7
007d1e:  501d  movf    (Common_RAM + 29), W, A              ; reg: 0x01d
007d20:  deb7  rcall   function_073                         ; dest: 0x007a90

label_335:                                                  ; address: 0x007d22

007d22:  c01d  movff   (Common_RAM + 29), (Common_RAM + 11) ; reg1: 0x01d, reg2: 0x00b
007d24:  f00b
007d26:  c01e  movff   (Common_RAM + 30), (Common_RAM + 12) ; reg1: 0x01e, reg2: 0x00c
007d28:  f00c
007d2a:  0e77  movlw   0x77
007d2c:  6e0e  movwf   (Common_RAM + 14), A                 ; reg: 0x00e
007d2e:  0ec0  movlw   0xc0
007d30:  ec05  call    function_054, 0x0                    ; dest: 0x00780a
007d32:  f03c
007d34:  6e1c  movwf   (Common_RAM + 28), A                 ; reg: 0x01c
007d36:  c01d  movff   (Common_RAM + 29), (Common_RAM + 11) ; reg1: 0x01d, reg2: 0x00b
007d38:  f00b
007d3a:  c01e  movff   (Common_RAM + 30), (Common_RAM + 12) ; reg1: 0x01e, reg2: 0x00c
007d3c:  f00c
007d3e:  6a0e  clrf    (Common_RAM + 14), A                 ; reg: 0x00e
007d40:  0e40  movlw   0x40
007d42:  ec02  call    function_053, 0x0                    ; dest: 0x007804
007d44:  f03c
007d46:  161c  andwf   (Common_RAM + 28), F, A              ; reg: 0x01c
007d48:  e02d  bz      label_337
007d4a:  6a1f  clrf    (Common_RAM + 31), A                 ; reg: 0x01f

label_336:                                                  ; address: 0x007d4c

007d4c:  0e08  movlw   0x08
007d4e:  601f  cpfslt  (Common_RAM + 31), A                 ; reg: 0x01f
007d50:  d029  bra     label_337                            ; dest: 0x007da4
007d52:  ee00  lfsr    0x0, 0x071
007d54:  f071
007d56:  ee10  lfsr    0x1, 0x043
007d58:  f043
007d5a:  501f  movf    (Common_RAM + 31), W, A              ; reg: 0x01f
007d5c:  0d04  mullw   0x04
007d5e:  cff3  movff   PRODL, (Common_RAM + 25)             ; reg1: 0xff3, reg2: 0x019
007d60:  f019
007d62:  cff4  movff   PRODH, (Common_RAM + 26)             ; reg1: 0xff4, reg2: 0x01a
007d64:  f01a
007d66:  0e09  movlw   0x09
007d68:  2419  addwf   (Common_RAM + 25), W, A              ; reg: 0x019
007d6a:  6ef3  movwf   PRODL, A                             ; reg: 0xff3
007d6c:  0e04  movlw   0x04
007d6e:  deb5  rcall   function_079                         ; dest: 0x007ada
007d70:  6aef  clrf    INDF0, A                             ; reg: 0xfef
007d72:  ee00  lfsr    0x0, 0x071
007d74:  f071
007d76:  ec27  call    function_057, 0x0                    ; dest: 0x00784e
007d78:  f03c
007d7a:  6e20  movwf   (Common_RAM + 32), A                 ; reg: 0x020
007d7c:  c010  movff   (Common_RAM + 16), (Common_RAM + 33) ; reg1: 0x010, reg2: 0x021
007d7e:  f021
007d80:  501f  movf    (Common_RAM + 31), W, A              ; reg: 0x01f
007d82:  0d02  mullw   0x02
007d84:  cff3  movff   PRODL, (Common_RAM + 25)             ; reg1: 0xff3, reg2: 0x019
007d86:  f019
007d88:  cff4  movff   PRODH, (Common_RAM + 26)             ; reg1: 0xff4, reg2: 0x01a
007d8a:  f01a
007d8c:  5019  movf    (Common_RAM + 25), W, A              ; reg: 0x019
007d8e:  241d  addwf   (Common_RAM + 29), W, A              ; reg: 0x01d
007d90:  6ef6  movwf   TBLPTRL, A                           ; reg: 0xff6
007d92:  501a  movf    (Common_RAM + 26), W, A              ; reg: 0x01a
007d94:  201e  addwfc  (Common_RAM + 30), W, A              ; reg: 0x01e
007d96:  6ef7  movwf   TBLPTRH, A                           ; reg: 0xff7
007d98:  5021  movf    (Common_RAM + 33), W, A              ; reg: 0x021
007d9a:  de69  rcall   function_072                         ; dest: 0x007a6e
007d9c:  5020  movf    (Common_RAM + 32), W, A              ; reg: 0x020
007d9e:  de67  rcall   function_072                         ; dest: 0x007a6e
007da0:  2a1f  incf    (Common_RAM + 31), F, A              ; reg: 0x01f
007da2:  e1d4  bnz     label_336

label_337:                                                  ; address: 0x007da4

007da4:  0e3a  movlw   0x3a
007da6:  de41  rcall   function_067                         ; dest: 0x007a2a
007da8:  0e04  movlw   0x04
007daa:  6e01  movwf   (Common_RAM + 1), A                  ; reg: 0x001
007dac:  0e02  movlw   0x02
007dae:  6e05  movwf   (Common_RAM + 5), A                  ; reg: 0x005
007db0:  5022  movf    (Common_RAM + 34), W, A              ; reg: 0x022
007db2:  ec6e  call    function_058, 0x0                    ; dest: 0x0078dc
007db4:  f03c
007db6:  0e0d  movlw   0x0d
007db8:  de38  rcall   function_067                         ; dest: 0x007a2a
007dba:  0e0a  movlw   0x0a
007dbc:  de36  rcall   function_067                         ; dest: 0x007a2a
007dbe:  501d  movf    (Common_RAM + 29), W, A              ; reg: 0x01d
007dc0:  0a40  xorlw   0x40
007dc2:  101e  iorwf   (Common_RAM + 30), W, A              ; reg: 0x01e
007dc4:  e124  bnz     label_340
007dc6:  0e08  movlw   0x08
007dc8:  6e1f  movwf   (Common_RAM + 31), A                 ; reg: 0x01f

label_338:                                                  ; address: 0x007dca

007dca:  0e10  movlw   0x10
007dcc:  601f  cpfslt  (Common_RAM + 31), A                 ; reg: 0x01f
007dce:  d01c  bra     label_339                            ; dest: 0x007e08
007dd0:  ee00  lfsr    0x0, 0x071
007dd2:  f071
007dd4:  ee10  lfsr    0x1, 0x043
007dd6:  f043
007dd8:  501f  movf    (Common_RAM + 31), W, A              ; reg: 0x01f
007dda:  0d02  mullw   0x02
007ddc:  cff3  movff   PRODL, (Common_RAM + 25)             ; reg1: 0xff3, reg2: 0x019
007dde:  f019
007de0:  cff4  movff   PRODH, (Common_RAM + 26)             ; reg1: 0xff4, reg2: 0x01a
007de2:  f01a
007de4:  0e09  movlw   0x09
007de6:  2419  addwf   (Common_RAM + 25), W, A              ; reg: 0x019
007de8:  6ef3  movwf   PRODL, A                             ; reg: 0xff3
007dea:  0e02  movlw   0x02
007dec:  de76  rcall   function_079                         ; dest: 0x007ada
007dee:  6aef  clrf    INDF0, A                             ; reg: 0xfef
007df0:  ee00  lfsr    0x0, 0x071
007df2:  f071
007df4:  ec27  call    function_057, 0x0                    ; dest: 0x00784e
007df6:  f03c
007df8:  6e08  movwf   (Common_RAM + 8), A                  ; reg: 0x008
007dfa:  ee00  lfsr    0x0, 0x024
007dfc:  f024
007dfe:  501f  movf    (Common_RAM + 31), W, A              ; reg: 0x01f
007e00:  c008  movff   (Common_RAM + 8), PLUSW0             ; reg1: 0x008, reg2: 0xfeb
007e02:  ffeb
007e04:  2a1f  incf    (Common_RAM + 31), F, A              ; reg: 0x01f
007e06:  e1e1  bnz     label_338

label_339:                                                  ; address: 0x007e08

007e08:  68a9  setf    EEADR, A                             ; reg: 0xfa9
007e0a:  0e00  movlw   0x00
007e0c:  de23  rcall   function_071                         ; dest: 0x007a54

label_340:                                                  ; address: 0x007e0e

007e0e:  501d  movf    (Common_RAM + 29), W, A              ; reg: 0x01d
007e10:  0a50  xorlw   0x50
007e12:  101e  iorwf   (Common_RAM + 30), W, A              ; reg: 0x01e
007e14:  e124  bnz     label_343
007e16:  6a1f  clrf    (Common_RAM + 31), A                 ; reg: 0x01f

label_341:                                                  ; address: 0x007e18

007e18:  0e10  movlw   0x10
007e1a:  601f  cpfslt  (Common_RAM + 31), A                 ; reg: 0x01f
007e1c:  d01f  bra     label_342                            ; dest: 0x007e5c
007e1e:  ee00  lfsr    0x0, 0x071
007e20:  f071
007e22:  ee10  lfsr    0x1, 0x043
007e24:  f043
007e26:  501f  movf    (Common_RAM + 31), W, A              ; reg: 0x01f
007e28:  0d02  mullw   0x02
007e2a:  cff3  movff   PRODL, (Common_RAM + 25)             ; reg1: 0xff3, reg2: 0x019
007e2c:  f019
007e2e:  cff4  movff   PRODH, (Common_RAM + 26)             ; reg1: 0xff4, reg2: 0x01a
007e30:  f01a
007e32:  0e09  movlw   0x09
007e34:  2419  addwf   (Common_RAM + 25), W, A              ; reg: 0x019
007e36:  6ef3  movwf   PRODL, A                             ; reg: 0xff3
007e38:  0e02  movlw   0x02
007e3a:  de4f  rcall   function_079                         ; dest: 0x007ada
007e3c:  6aef  clrf    INDF0, A                             ; reg: 0xfef
007e3e:  0e10  movlw   0x10
007e40:  241f  addwf   (Common_RAM + 31), W, A              ; reg: 0x01f
007e42:  6e08  movwf   (Common_RAM + 8), A                  ; reg: 0x008
007e44:  ee00  lfsr    0x0, 0x071
007e46:  f071
007e48:  ec27  call    function_057, 0x0                    ; dest: 0x00784e
007e4a:  f03c
007e4c:  6e0a  movwf   (Common_RAM + 10), A                 ; reg: 0x00a
007e4e:  ee00  lfsr    0x0, 0x024
007e50:  f024
007e52:  5008  movf    (Common_RAM + 8), W, A               ; reg: 0x008
007e54:  c00a  movff   (Common_RAM + 10), PLUSW0            ; reg1: 0x00a, reg2: 0xfeb
007e56:  ffeb
007e58:  2a1f  incf    (Common_RAM + 31), F, A              ; reg: 0x01f
007e5a:  e1de  bnz     label_341

label_342:                                                  ; address: 0x007e5c

007e5c:  d81b  rcall   function_081                         ; dest: 0x007e94

label_343:                                                  ; address: 0x007e5e

007e5e:  d6bb  bra     label_321                            ; dest: 0x007bd6

function_080:                                               ; address: 0x007e60

007e60:  0e0d  movlw   0x0d
007e62:  ec15  call    function_067, 0x0                    ; dest: 0x007a2a
007e64:  f03d
007e66:  0e0a  movlw   0x0a
007e68:  ec15  call    function_067, 0x0                    ; dest: 0x007a2a
007e6a:  f03d
007e6c:  0e0c  movlw   0x0c
007e6e:  ec15  call    function_067, 0x0                    ; dest: 0x007a2a
007e70:  f03d
007e72:  0e3a  movlw   0x3a
007e74:  ec15  call    function_067, 0x0                    ; dest: 0x007a2a
007e76:  f03d
007e78:  0e04  movlw   0x04
007e7a:  6e01  movwf   (Common_RAM + 1), A                  ; reg: 0x001
007e7c:  0e06  movlw   0x06
007e7e:  6e04  movwf   (Common_RAM + 4), A                  ; reg: 0x004
007e80:  6a10  clrf    (Common_RAM + 16), A                 ; reg: 0x010
007e82:  0e7c  movlw   0x7c
007e84:  ec93  call    function_060, 0x0                    ; dest: 0x007926
007e86:  f03c
007e88:  0e0d  movlw   0x0d
007e8a:  ec15  call    function_067, 0x0                    ; dest: 0x007a2a
007e8c:  f03d
007e8e:  0e0a  movlw   0x0a
007e90:  ef15  goto    function_067                         ; dest: 0x007a2a
007e92:  f03d

function_081:                                               ; address: 0x007e94

007e94:  6af6  clrf    TBLPTRL, A                           ; reg: 0xff6
007e96:  6af7  clrf    TBLPTRH, A                           ; reg: 0xff7
007e98:  ddfc  rcall   function_074                         ; dest: 0x007a92
007e9a:  6af6  clrf    TBLPTRL, A                           ; reg: 0xff6
007e9c:  6af7  clrf    TBLPTRH, A                           ; reg: 0xff7
007e9e:  0e00  movlw   0x00
007ea0:  ec37  call    function_072, 0x0                    ; dest: 0x007a6e
007ea2:  f03d
007ea4:  0eef  movlw   0xef
007ea6:  ec37  call    function_072, 0x0                    ; dest: 0x007a6e
007ea8:  f03d
007eaa:  0e02  movlw   0x02
007eac:  6ef6  movwf   TBLPTRL, A                           ; reg: 0xff6
007eae:  6af7  clrf    TBLPTRH, A                           ; reg: 0xff7
007eb0:  0e3c  movlw   0x3c
007eb2:  ec37  call    function_072, 0x0                    ; dest: 0x007a6e
007eb4:  f03d
007eb6:  0ef0  movlw   0xf0
007eb8:  ec37  call    function_072, 0x0                    ; dest: 0x007a6e
007eba:  f03d
007ebc:  0e04  movlw   0x04
007ebe:  6ef6  movwf   TBLPTRL, A                           ; reg: 0xff6
007ec0:  6af7  clrf    TBLPTRH, A                           ; reg: 0xff7
007ec2:  0eff  movlw   0xff
007ec4:  ec37  call    function_072, 0x0                    ; dest: 0x007a6e
007ec6:  f03d
007ec8:  0eff  movlw   0xff
007eca:  ec37  call    function_072, 0x0                    ; dest: 0x007a6e
007ecc:  f03d
007ece:  0e06  movlw   0x06
007ed0:  6ef6  movwf   TBLPTRL, A                           ; reg: 0xff6
007ed2:  6af7  clrf    TBLPTRH, A                           ; reg: 0xff7
007ed4:  0eff  movlw   0xff
007ed6:  ec37  call    function_072, 0x0                    ; dest: 0x007a6e
007ed8:  f03d
007eda:  0eff  movlw   0xff
007edc:  ec37  call    function_072, 0x0                    ; dest: 0x007a6e
007ede:  f03d
007ee0:  0e08  movlw   0x08
007ee2:  6e1f  movwf   (Common_RAM + 31), A                 ; reg: 0x01f

label_344:                                                  ; address: 0x007ee4

007ee4:  0e20  movlw   0x20
007ee6:  601f  cpfslt  (Common_RAM + 31), A                 ; reg: 0x01f
007ee8:  d00b  bra     label_345                            ; dest: 0x007f00
007eea:  c01f  movff   (Common_RAM + 31), TBLPTRL           ; reg1: 0x01f, reg2: 0xff6
007eec:  fff6
007eee:  6af7  clrf    TBLPTRH, A                           ; reg: 0xff7
007ef0:  ee00  lfsr    0x0, 0x024
007ef2:  f024
007ef4:  501f  movf    (Common_RAM + 31), W, A              ; reg: 0x01f
007ef6:  50eb  movf    PLUSW0, W, A                         ; reg: 0xfeb
007ef8:  ec37  call    function_072, 0x0                    ; dest: 0x007a6e
007efa:  f03d
007efc:  2a1f  incf    (Common_RAM + 31), F, A              ; reg: 0x01f
007efe:  e1f2  bnz     label_344

label_345:                                                  ; address: 0x007f00

007f00:  0012  return  0x0

function_082:                                               ; address: 0x007f02

007f02:  6a1f  clrf    (Common_RAM + 31), A                 ; reg: 0x01f

label_346:                                                  ; address: 0x007f04

007f04:  0e0b  movlw   0x0b
007f06:  601f  cpfslt  (Common_RAM + 31), A                 ; reg: 0x01f
007f08:  d025  bra     label_348                            ; dest: 0x007f54
007f0a:  0e01  movlw   0x01
007f0c:  b082  btfsc   PORTC, RC0, A                        ; reg: 0xf82, bit: 0
007f0e:  6ae8  clrw
007f10:  6e1c  movwf   (Common_RAM + 28), A                 ; reg: 0x01c
007f12:  0e01  movlw   0x01
007f14:  b480  btfsc   PORTA, RA2, A                        ; reg: 0xf80, bit: 2
007f16:  6ae8  clrw
007f18:  161c  andwf   (Common_RAM + 28), F, A              ; reg: 0x01c
007f1a:  6ae8  clrw
007f1c:  b280  btfsc   PORTA, RA1, A                        ; reg: 0xf80, bit: 1
007f1e:  0e01  movlw   0x01
007f20:  161c  andwf   (Common_RAM + 28), F, A              ; reg: 0x01c
007f22:  e013  bz      label_347
007f24:  0e01  movlw   0x01
007f26:  6e0e  movwf   (Common_RAM + 14), A                 ; reg: 0x00e
007f28:  0ef4  movlw   0xf4
007f2a:  ec54  call    function_076, 0x0                    ; dest: 0x007aa8
007f2c:  f03d
007f2e:  0e01  movlw   0x01
007f30:  b082  btfsc   PORTC, RC0, A                        ; reg: 0xf82, bit: 0
007f32:  6ae8  clrw
007f34:  6e1c  movwf   (Common_RAM + 28), A                 ; reg: 0x01c
007f36:  0e01  movlw   0x01
007f38:  b480  btfsc   PORTA, RA2, A                        ; reg: 0xf80, bit: 2
007f3a:  6ae8  clrw
007f3c:  161c  andwf   (Common_RAM + 28), F, A              ; reg: 0x01c
007f3e:  6ae8  clrw
007f40:  b280  btfsc   PORTA, RA1, A                        ; reg: 0xf80, bit: 1
007f42:  0e01  movlw   0x01
007f44:  161c  andwf   (Common_RAM + 28), F, A              ; reg: 0x01c
007f46:  e001  bz      label_347
007f48:  8382  bsf     0x82, 0x1, B                         ; reg: 0x082

label_347:                                                  ; address: 0x007f4a

007f4a:  0e0a  movlw   0x0a
007f4c:  ec53  call    function_075, 0x0                    ; dest: 0x007aa6
007f4e:  f03d
007f50:  2a1f  incf    (Common_RAM + 31), F, A              ; reg: 0x01f
007f52:  e1d8  bnz     label_346

label_348:                                                  ; address: 0x007f54

007f54:  0012  return  0x0

label_349:                                                  ; address: 0x007f56

007f56:  df9e  rcall   function_081                         ; dest: 0x007e94
007f58:  9294  bcf     TRISC, RC1, A                        ; reg: 0xf94, bit: 1
007f5a:  928b  bcf     LATC, LATC1, A                       ; reg: 0xf8b, bit: 1
007f5c:  68a9  setf    EEADR, A                             ; reg: 0xfa9
007f5e:  0e01  movlw   0x01
007f60:  ec2a  call    function_071, 0x0                    ; dest: 0x007a54
007f62:  f03d
007f64:  0e01  movlw   0x01
007f66:  6e0e  movwf   (Common_RAM + 14), A                 ; reg: 0x00e
007f68:  0e2c  movlw   0x2c
007f6a:  ec54  call    function_076, 0x0                    ; dest: 0x007aa8
007f6c:  f03d
007f6e:  00ff  reset
007f70:  ffff  dw      0xffff
007f72:  ffff  dw      0xffff
007f74:  ffff  dw      0xffff
007f76:  ffff  dw      0xffff
007f78:  ffff  dw      0xffff
007f7a:  ffff  dw      0xffff
007f7c:  ffff  dw      0xffff
007f7e:  ffff  dw      0xffff
007f80:  ffff  dw      0xffff
007f82:  ffff  dw      0xffff
007f84:  ffff  dw      0xffff
007f86:  ffff  dw      0xffff
007f88:  ffff  dw      0xffff
007f8a:  ffff  dw      0xffff
007f8c:  ffff  dw      0xffff
007f8e:  ffff  dw      0xffff
007f90:  ffff  dw      0xffff
007f92:  ffff  dw      0xffff
007f94:  ffff  dw      0xffff
007f96:  ffff  dw      0xffff
007f98:  ffff  dw      0xffff
007f9a:  ffff  dw      0xffff
007f9c:  ffff  dw      0xffff
007f9e:  ffff  dw      0xffff
007fa0:  ffff  dw      0xffff
007fa2:  ffff  dw      0xffff
007fa4:  ffff  dw      0xffff
007fa6:  ffff  dw      0xffff
007fa8:  ffff  dw      0xffff
007faa:  ffff  dw      0xffff
007fac:  ffff  dw      0xffff
007fae:  ffff  dw      0xffff
007fb0:  ffff  dw      0xffff
007fb2:  ffff  dw      0xffff
007fb4:  ffff  dw      0xffff
007fb6:  ffff  dw      0xffff
007fb8:  ffff  dw      0xffff
007fba:  ffff  dw      0xffff
007fbc:  ffff  dw      0xffff
007fbe:  ffff  dw      0xffff
007fc0:  ffff  dw      0xffff
007fc2:  ffff  dw      0xffff
007fc4:  ffff  dw      0xffff
007fc6:  ffff  dw      0xffff
007fc8:  ffff  dw      0xffff
007fca:  ffff  dw      0xffff
007fcc:  ffff  dw      0xffff
007fce:  ffff  dw      0xffff
007fd0:  ffff  dw      0xffff
007fd2:  ffff  dw      0xffff
007fd4:  ffff  dw      0xffff
007fd6:  ffff  dw      0xffff
007fd8:  ffff  dw      0xffff
007fda:  ffff  dw      0xffff
007fdc:  ffff  dw      0xffff
007fde:  ffff  dw      0xffff
007fe0:  ffff  dw      0xffff
007fe2:  ffff  dw      0xffff
007fe4:  ffff  dw      0xffff
007fe6:  ffff  dw      0xffff
007fe8:  ffff  dw      0xffff
007fea:  ffff  dw      0xffff
007fec:  ffff  dw      0xffff
007fee:  ffff  dw      0xffff
007ff0:  ffff  dw      0xffff
007ff2:  ffff  dw      0xffff
007ff4:  ffff  dw      0xffff
007ff6:  ffff  dw      0xffff
007ff8:  ffff  dw      0xffff
007ffa:  ffff  dw      0xffff
007ffc:  ffff  dw      0xffff
007ffe:  ffff  dw      0xffff

;===============================================================================
; IDLOCS area
200000:  ff  db      0xff
200001:  ff  db      0xff
200002:  ff  db      0xff
200003:  ff  db      0xff
200004:  ff  db      0xff
200005:  ff  db      0xff
200006:  ff  db      0xff
200007:  ff  db      0xff

;===============================================================================
; CONFIG Bits area
300000:  ff  db      0xff
300001:  01  db      0x01
300002:  1f  db      0x1f
300003:  00  db      0x00
300004:  ff  db      0xff
300005:  00  db      0x00
300006:  80  db      0x80
300007:  ff  db      0xff
300008:  ff  db      0xff
300009:  ff  db      0xff
30000a:  ff  db      0xff
30000b:  ff  db      0xff
30000c:  ff  db      0xff
30000d:  ff  db      0xff

;===============================================================================
; EEDATA area
f00000:  00    db      0x00
f00001:  00    db      0x00
f00002:  00    db      0x00
f00003:  00    db      0x00
f00004:  00    db      0x00
f00005:  00    db      0x00
f00006:  00    db      0x00
f00007:  00    db      0x00
f00008:  00    db      0x00
f00009:  00    db      0x00
f0000a:  00    db      0x00
f0000b:  00    db      0x00
f0000c:  00    db      0x00
f0000d:  00    db      0x00
f0000e:  00    db      0x00
f0000f:  00    db      0x00
f00010:  00    db      0x00
f00011:  00    db      0x00
f00012:  00    db      0x00
f00013:  00    db      0x00
f00014:  00    db      0x00
f00015:  01    db      0x01
f00016:  01    db      0x01
f00017:  01    db      0x01
f00018:  01    db      0x01
f00019:  01    db      0x01
f0001a:  01    db      0x01
f0001b:  01    db      0x01
f0001c:  01    db      0x01
f0001d:  01    db      0x01
f0001e:  01    db      0x01
f0001f:  01    db      0x01
f00020:  01    db      0x01
f00021:  01    db      0x01
f00022:  01    db      0x01
f00023:  01    db      0x01
f00024:  01    db      0x01
f00025:  01    db      0x01
f00026:  01    db      0x01
f00027:  00    db      0x00
f00028:  00    db      0x00
f00029:  00    db      0x00
f0002a:  00    db      0x00
f0002b:  00    db      0x00
f0002c:  00    db      0x00
f0002d:  00    db      0x00
f0002e:  00    db      0x00
f0002f:  00    db      0x00
f00030:  00    db      0x00
f00031:  00    db      0x00
f00032:  00    db      0x00
f00033:  ff    db      0xff
f00034:  ff    db      0xff
f00035:  ff    db      0xff
f00036:  ff    db      0xff
f00037:  ff    db      0xff
f00038:  ff    db      0xff
f00039:  ff    db      0xff
f0003a:  ff    db      0xff
f0003b:  ff    db      0xff
f0003c:  ff    db      0xff
f0003d:  ff    db      0xff
f0003e:  ff    db      0xff
f0003f:  ff    db      0xff
f00040:  ff    db      0xff
f00041:  ff    db      0xff
f00042:  ff    db      0xff
f00043:  ff    db      0xff
f00044:  ff    db      0xff
f00045:  ff    db      0xff
f00046:  ff    db      0xff
f00047:  ff    db      0xff
f00048:  ff    db      0xff
f00049:  ff    db      0xff
f0004a:  ff    db      0xff
f0004b:  ff    db      0xff
f0004c:  ff    db      0xff
f0004d:  ff    db      0xff
f0004e:  ff    db      0xff
f0004f:  ff    db      0xff
f00050:  ff    db      0xff
f00051:  ff    db      0xff
f00052:  ff    db      0xff
f00053:  ff    db      0xff
f00054:  ff    db      0xff
f00055:  ff    db      0xff
f00056:  ff    db      0xff
f00057:  ff    db      0xff
f00058:  ff    db      0xff
f00059:  ff    db      0xff
f0005a:  ff    db      0xff
f0005b:  ff    db      0xff
f0005c:  ff    db      0xff
f0005d:  ff    db      0xff
f0005e:  ff    db      0xff
f0005f:  ff    db      0xff
f00060:  ff    db      0xff
f00061:  ff    db      0xff
f00062:  ff    db      0xff
f00063:  ff    db      0xff
f00064:  ff    db      0xff
f00065:  ff    db      0xff
f00066:  ff    db      0xff
f00067:  ff    db      0xff
f00068:  ff    db      0xff
f00069:  ff    db      0xff
f0006a:  ff    db      0xff
f0006b:  ff    db      0xff
f0006c:  ff    db      0xff
f0006d:  ff    db      0xff
f0006e:  ff    db      0xff
f0006f:  ff    db      0xff
f00070:  01    db      0x01
f00071:  04    db      0x04
f00072:  30    db      0x30                                 ; '0'
f00073:  01    db      0x01
f00074:  ff    db      0xff
f00075:  ff    db      0xff
f00076:  ff    db      0xff
f00077:  ff    db      0xff
f00078:  ff    db      0xff
f00079:  ff    db      0xff
f0007a:  ff    db      0xff
f0007b:  ff    db      0xff
f0007c:  ff    db      0xff
f0007d:  ff    db      0xff
f0007e:  ff    db      0xff
f0007f:  ff    db      0xff
f00080:  ff    db      0xff
f00081:  ff    db      0xff
f00082:  ff    db      0xff
f00083:  ff    db      0xff
f00084:  ff    db      0xff
f00085:  ff    db      0xff
f00086:  ff    db      0xff
f00087:  ff    db      0xff
f00088:  ff    db      0xff
f00089:  ff    db      0xff
f0008a:  ff    db      0xff
f0008b:  ff    db      0xff
f0008c:  ff    db      0xff
f0008d:  ff    db      0xff
f0008e:  ff    db      0xff
f0008f:  ff    db      0xff
f00090:  ff    db      0xff
f00091:  ff    db      0xff
f00092:  ff    db      0xff
f00093:  ff    db      0xff
f00094:  ff    db      0xff
f00095:  ff    db      0xff
f00096:  ff    db      0xff
f00097:  ff    db      0xff
f00098:  ff    db      0xff
f00099:  ff    db      0xff
f0009a:  ff    db      0xff
f0009b:  ff    db      0xff
f0009c:  ff    db      0xff
f0009d:  ff    db      0xff
f0009e:  ff    db      0xff
f0009f:  ff    db      0xff
f000a0:  ff    db      0xff
f000a1:  ff    db      0xff
f000a2:  ff    db      0xff
f000a3:  ff    db      0xff
f000a4:  ff    db      0xff
f000a5:  ff    db      0xff
f000a6:  ff    db      0xff
f000a7:  ff    db      0xff
f000a8:  ff    db      0xff
f000a9:  ff    db      0xff
f000aa:  ff    db      0xff
f000ab:  ff    db      0xff
f000ac:  ff    db      0xff
f000ad:  ff    db      0xff
f000ae:  ff    db      0xff
f000af:  ff    db      0xff
f000b0:  ff    db      0xff
f000b1:  ff    db      0xff
f000b2:  ff    db      0xff
f000b3:  ff    db      0xff
f000b4:  ff    db      0xff
f000b5:  ff    db      0xff
f000b6:  ff    db      0xff
f000b7:  ff    db      0xff
f000b8:  ff    db      0xff
f000b9:  ff    db      0xff
f000ba:  ff    db      0xff
f000bb:  ff    db      0xff
f000bc:  ff    db      0xff
f000bd:  ff    db      0xff
f000be:  ff    db      0xff
f000bf:  ff    db      0xff
f000c0:  ff    db      0xff
f000c1:  ff    db      0xff
f000c2:  ff    db      0xff
f000c3:  ff    db      0xff
f000c4:  ff    db      0xff
f000c5:  ff    db      0xff
f000c6:  ff    db      0xff
f000c7:  ff    db      0xff
f000c8:  ff    db      0xff
f000c9:  ff    db      0xff
f000ca:  ff    db      0xff
f000cb:  ff    db      0xff
f000cc:  ff    db      0xff
f000cd:  ff    db      0xff
f000ce:  ff    db      0xff
f000cf:  ff    db      0xff
f000d0:  ff    db      0xff
f000d1:  ff    db      0xff
f000d2:  ff    db      0xff
f000d3:  ff    db      0xff
f000d4:  ff    db      0xff
f000d5:  ff    db      0xff
f000d6:  ff    db      0xff
f000d7:  ff    db      0xff
f000d8:  ff    db      0xff
f000d9:  ff    db      0xff
f000da:  ff    db      0xff
f000db:  ff    db      0xff
f000dc:  ff    db      0xff
f000dd:  ff    db      0xff
f000de:  ff    db      0xff
f000df:  ff    db      0xff
f000e0:  ff    db      0xff
f000e1:  ff    db      0xff
f000e2:  ff    db      0xff
f000e3:  ff    db      0xff
f000e4:  ff    db      0xff
f000e5:  ff    db      0xff
f000e6:  ff    db      0xff
f000e7:  ff    db      0xff
f000e8:  ff    db      0xff
f000e9:  ff    db      0xff
f000ea:  ff    db      0xff
f000eb:  ff    db      0xff
f000ec:  ff    db      0xff
f000ed:  ff    db      0xff
f000ee:  ff    db      0xff
f000ef:  ff    db      0xff
f000f0:  ff    db      0xff
f000f1:  ff    db      0xff
f000f2:  ff    db      0xff
f000f3:  ff    db      0xff
f000f4:  ff    db      0xff
f000f5:  ff    db      0xff
f000f6:  ff    db      0xff
f000f7:  ff    db      0xff
f000f8:  ff    db      0xff
f000f9:  ff    db      0xff
f000fa:  ff    db      0xff
f000fb:  ff    db      0xff
f000fc:  ff    db      0xff
f000fd:  ff    db      0xff
f000fe:  ff    db      0xff
f000ff:  02    db      0x02
