gpasm-1.5.2 #1325 (Jan 30 2022) src/dlcp_fw/a   03/29/2026  18:21:48        PAGE  1


LOC    OBJECT CODE    LINE  SOURCE TEXT
  VALUE

Warning[215]: Processor superseded by command line.
                      00001     LIST P=18F2455
                      00002     #include <p18f2455.inc>
                      00001         LIST
                      00002 
                      00003 ;==========================================================================
                      00004 ; Build date : Oct 21 2015
                      00005 ;  MPASM PIC18F2455 processor include
                      00006 ; 
                      00007 ;  (c) Copyright 1999-2015 Microchip Technology, All rights reserved
                      00008 ;==========================================================================
                      00009 
                      01557         LIST
                      00003     #include "dlcp_main_ram.inc"
                      00001 ; DLCP MAIN V3.0 RAM variable definitions
                      00002 ; Auto-generated by disasm_to_source.py
                      00003 
                      00004 ; --- Named RAM variables ---
  00000001            00005 isr_save_fsr2l              EQU  0x001
  00000002            00006 isr_save_fsr2h              EQU  0x002
  00000055            00007 i2c_coeff_0                 EQU  0x055
  00000056            00008 i2c_coeff_1                 EQU  0x056
  00000057            00009 i2c_coeff_2                 EQU  0x057
  00000058            00010 i2c_coeff_3                 EQU  0x058
  0000005E            00011 active_flags                EQU  0x05E
  00000066            00012 logical_volume              EQU  0x066
  00000067            00013 logical_volume_1            EQU  0x067
  00000068            00014 logical_volume_2            EQU  0x068
  00000069            00015 logical_volume_3            EQU  0x069
  0000006E            00016 computed_volume             EQU  0x06E
  0000006F            00017 computed_volume_1           EQU  0x06F
  00000070            00018 computed_volume_2           EQU  0x070
  00000071            00019 computed_volume_3           EQU  0x071
  0000007E            00020 event_flags                 EQU  0x07E
  00000095            00021 usb_reinit_pending          EQU  0x095
  00000098            00022 rx_frame_position           EQU  0x098
  00000099            00023 input_select                EQU  0x099
  000000B3            00024 input_select_mirror         EQU  0x0B3
  000000C6            00025 rx_ring_rd                  EQU  0x0C6
  000000C7            00026 rx_ring_wr                  EQU  0x0C7
                      00027 
                      00028 ; --- Unnamed RAM variables ---
  00000000            00029 ram_0x000                   EQU  0x000
  00000003            00030 ram_0x003                   EQU  0x003
  00000004            00031 ram_0x004                   EQU  0x004
  00000005            00032 ram_0x005                   EQU  0x005
  00000006            00033 ram_0x006                   EQU  0x006
  00000007            00034 ram_0x007                   EQU  0x007
  00000008            00035 ram_0x008                   EQU  0x008
  00000009            00036 ram_0x009                   EQU  0x009
  0000000A            00037 ram_0x00A                   EQU  0x00A
  0000000B            00038 ram_0x00B                   EQU  0x00B
  0000000C            00039 ram_0x00C                   EQU  0x00C
gpasm-1.5.2 #1325 (Jan 30 2022) src/dlcp_fw/a   03/29/2026  18:21:48        PAGE  2


LOC    OBJECT CODE    LINE  SOURCE TEXT
  VALUE

  0000000D            00040 ram_0x00D                   EQU  0x00D
  0000000E            00041 ram_0x00E                   EQU  0x00E
  0000000F            00042 ram_0x00F                   EQU  0x00F
  00000010            00043 ram_0x010                   EQU  0x010
  00000011            00044 ram_0x011                   EQU  0x011
  00000012            00045 ram_0x012                   EQU  0x012
  00000013            00046 ram_0x013                   EQU  0x013
  00000014            00047 ram_0x014                   EQU  0x014
  00000015            00048 ram_0x015                   EQU  0x015
  00000016            00049 ram_0x016                   EQU  0x016
  00000017            00050 ram_0x017                   EQU  0x017
  00000018            00051 ram_0x018                   EQU  0x018
  00000019            00052 ram_0x019                   EQU  0x019
  0000001A            00053 ram_0x01A                   EQU  0x01A
  0000001B            00054 ram_0x01B                   EQU  0x01B
  0000001C            00055 ram_0x01C                   EQU  0x01C
  0000001D            00056 ram_0x01D                   EQU  0x01D
  0000001E            00057 ram_0x01E                   EQU  0x01E
  0000001F            00058 ram_0x01F                   EQU  0x01F
  00000020            00059 ram_0x020                   EQU  0x020
  00000021            00060 ram_0x021                   EQU  0x021
  00000022            00061 ram_0x022                   EQU  0x022
  00000023            00062 ram_0x023                   EQU  0x023
  00000024            00063 ram_0x024                   EQU  0x024
  00000025            00064 ram_0x025                   EQU  0x025
  00000026            00065 ram_0x026                   EQU  0x026
  00000027            00066 ram_0x027                   EQU  0x027
  00000028            00067 ram_0x028                   EQU  0x028
  00000029            00068 ram_0x029                   EQU  0x029
  0000002A            00069 ram_0x02A                   EQU  0x02A
  0000002B            00070 ram_0x02B                   EQU  0x02B
  0000002C            00071 ram_0x02C                   EQU  0x02C
  0000002D            00072 ram_0x02D                   EQU  0x02D
  0000002E            00073 ram_0x02E                   EQU  0x02E
  0000002F            00074 ram_0x02F                   EQU  0x02F
  00000030            00075 ram_0x030                   EQU  0x030
  00000031            00076 ram_0x031                   EQU  0x031
  00000032            00077 ram_0x032                   EQU  0x032
  00000033            00078 ram_0x033                   EQU  0x033
  00000034            00079 ram_0x034                   EQU  0x034
  00000035            00080 ram_0x035                   EQU  0x035
  00000036            00081 ram_0x036                   EQU  0x036
  00000037            00082 ram_0x037                   EQU  0x037
  00000038            00083 ram_0x038                   EQU  0x038
  00000039            00084 ram_0x039                   EQU  0x039
  0000003A            00085 ram_0x03A                   EQU  0x03A
  0000003B            00086 ram_0x03B                   EQU  0x03B
  0000003C            00087 ram_0x03C                   EQU  0x03C
  0000003D            00088 ram_0x03D                   EQU  0x03D
  0000003E            00089 ram_0x03E                   EQU  0x03E
  0000003F            00090 ram_0x03F                   EQU  0x03F
  00000040            00091 ram_0x040                   EQU  0x040
  00000041            00092 ram_0x041                   EQU  0x041
gpasm-1.5.2 #1325 (Jan 30 2022) src/dlcp_fw/a   03/29/2026  18:21:48        PAGE  3


LOC    OBJECT CODE    LINE  SOURCE TEXT
  VALUE

  00000042            00093 ram_0x042                   EQU  0x042
  00000043            00094 ram_0x043                   EQU  0x043
  00000044            00095 ram_0x044                   EQU  0x044
  00000045            00096 ram_0x045                   EQU  0x045
  00000046            00097 ram_0x046                   EQU  0x046
  00000047            00098 ram_0x047                   EQU  0x047
  00000048            00099 ram_0x048                   EQU  0x048
  00000049            00100 ram_0x049                   EQU  0x049
  0000004A            00101 ram_0x04A                   EQU  0x04A
  0000004B            00102 ram_0x04B                   EQU  0x04B
  0000004C            00103 ram_0x04C                   EQU  0x04C
  0000004D            00104 ram_0x04D                   EQU  0x04D
  0000004E            00105 ram_0x04E                   EQU  0x04E
  0000004F            00106 ram_0x04F                   EQU  0x04F
  00000050            00107 ram_0x050                   EQU  0x050
  00000051            00108 ram_0x051                   EQU  0x051
  00000052            00109 ram_0x052                   EQU  0x052
  00000053            00110 ram_0x053                   EQU  0x053
  00000054            00111 ram_0x054                   EQU  0x054
  00000059            00112 ram_0x059                   EQU  0x059
  0000005A            00113 ram_0x05A                   EQU  0x05A
  0000005B            00114 ram_0x05B                   EQU  0x05B
  0000005C            00115 ram_0x05C                   EQU  0x05C
  0000005D            00116 ram_0x05D                   EQU  0x05D
  0000005F            00117 ram_0x05F                   EQU  0x05F
  00000060            00118 ram_0x060                   EQU  0x060
  00000061            00119 ram_0x061                   EQU  0x061
  00000062            00120 ram_0x062                   EQU  0x062
  00000063            00121 ram_0x063                   EQU  0x063
  00000064            00122 ram_0x064                   EQU  0x064
  00000065            00123 ram_0x065                   EQU  0x065
  0000006A            00124 ram_0x06A                   EQU  0x06A
  0000006B            00125 ram_0x06B                   EQU  0x06B
  0000006C            00126 ram_0x06C                   EQU  0x06C
  0000006D            00127 ram_0x06D                   EQU  0x06D
  00000072            00128 ram_0x072                   EQU  0x072
  00000073            00129 ram_0x073                   EQU  0x073
  00000075            00130 ram_0x075                   EQU  0x075
  00000076            00131 ram_0x076                   EQU  0x076
  00000078            00132 ram_0x078                   EQU  0x078
  00000079            00133 ram_0x079                   EQU  0x079
  0000007A            00134 ram_0x07A                   EQU  0x07A
  0000007B            00135 ram_0x07B                   EQU  0x07B
  0000007C            00136 ram_0x07C                   EQU  0x07C
  0000007D            00137 ram_0x07D                   EQU  0x07D
  0000007F            00138 ram_0x07F                   EQU  0x07F
  00000080            00139 ram_0x080                   EQU  0x080
  00000081            00140 ram_0x081                   EQU  0x081
  00000082            00141 ram_0x082                   EQU  0x082
  00000083            00142 ram_0x083                   EQU  0x083
  00000084            00143 ram_0x084                   EQU  0x084
  00000085            00144 ram_0x085                   EQU  0x085
  00000086            00145 ram_0x086                   EQU  0x086
gpasm-1.5.2 #1325 (Jan 30 2022) src/dlcp_fw/a   03/29/2026  18:21:48        PAGE  4


LOC    OBJECT CODE    LINE  SOURCE TEXT
  VALUE

  00000087            00146 ram_0x087                   EQU  0x087
  00000088            00147 ram_0x088                   EQU  0x088
  00000089            00148 ram_0x089                   EQU  0x089
  0000008A            00149 ram_0x08A                   EQU  0x08A
  0000008B            00150 ram_0x08B                   EQU  0x08B
  0000008C            00151 ram_0x08C                   EQU  0x08C
  0000008D            00152 ram_0x08D                   EQU  0x08D
  0000008E            00153 ram_0x08E                   EQU  0x08E
  0000008F            00154 ram_0x08F                   EQU  0x08F
  00000090            00155 ram_0x090                   EQU  0x090
  00000091            00156 ram_0x091                   EQU  0x091
  00000092            00157 ram_0x092                   EQU  0x092
  00000093            00158 ram_0x093                   EQU  0x093
  00000094            00159 ram_0x094                   EQU  0x094
  00000096            00160 ram_0x096                   EQU  0x096
  00000097            00161 ram_0x097                   EQU  0x097
  0000009A            00162 ram_0x09A                   EQU  0x09A
  0000009B            00163 ram_0x09B                   EQU  0x09B
  0000009C            00164 ram_0x09C                   EQU  0x09C
  0000009D            00165 ram_0x09D                   EQU  0x09D
  0000009E            00166 ram_0x09E                   EQU  0x09E
  0000009F            00167 ram_0x09F                   EQU  0x09F
  000000A0            00168 ram_0x0A0                   EQU  0x0A0
  000000A1            00169 ram_0x0A1                   EQU  0x0A1
  000000A2            00170 ram_0x0A2                   EQU  0x0A2
  000000A3            00171 ram_0x0A3                   EQU  0x0A3
  000000A4            00172 ram_0x0A4                   EQU  0x0A4
  000000A5            00173 ram_0x0A5                   EQU  0x0A5
  000000A6            00174 ram_0x0A6                   EQU  0x0A6
  000000A7            00175 ram_0x0A7                   EQU  0x0A7
  000000A8            00176 ram_0x0A8                   EQU  0x0A8
  000000A9            00177 ram_0x0A9                   EQU  0x0A9
  000000AA            00178 ram_0x0AA                   EQU  0x0AA
  000000AB            00179 ram_0x0AB                   EQU  0x0AB
  000000AC            00180 ram_0x0AC                   EQU  0x0AC
  000000AD            00181 ram_0x0AD                   EQU  0x0AD
  000000AE            00182 ram_0x0AE                   EQU  0x0AE
  000000AF            00183 ram_0x0AF                   EQU  0x0AF
  000000B0            00184 ram_0x0B0                   EQU  0x0B0
  000000B1            00185 ram_0x0B1                   EQU  0x0B1
  000000B2            00186 ram_0x0B2                   EQU  0x0B2
  000000B4            00187 ram_0x0B4                   EQU  0x0B4
  000000B5            00188 ram_0x0B5                   EQU  0x0B5
  000000B6            00189 ram_0x0B6                   EQU  0x0B6
  000000B7            00190 ram_0x0B7                   EQU  0x0B7
  000000B8            00191 ram_0x0B8                   EQU  0x0B8
  000000B9            00192 ram_0x0B9                   EQU  0x0B9
  000000BA            00193 ram_0x0BA                   EQU  0x0BA
  000000BB            00194 ram_0x0BB                   EQU  0x0BB
  000000BC            00195 ram_0x0BC                   EQU  0x0BC
  000000BD            00196 ram_0x0BD                   EQU  0x0BD
  000000BE            00197 ram_0x0BE                   EQU  0x0BE
  000000BF            00198 ram_0x0BF                   EQU  0x0BF
gpasm-1.5.2 #1325 (Jan 30 2022) src/dlcp_fw/a   03/29/2026  18:21:48        PAGE  5


LOC    OBJECT CODE    LINE  SOURCE TEXT
  VALUE

  000000C0            00199 ram_0x0C0                   EQU  0x0C0
  000000C1            00200 ram_0x0C1                   EQU  0x0C1
  000000C2            00201 ram_0x0C2                   EQU  0x0C2
  000000C3            00202 ram_0x0C3                   EQU  0x0C3
  000000C4            00203 ram_0x0C4                   EQU  0x0C4
  000000C5            00204 ram_0x0C5                   EQU  0x0C5
  000000C8            00205 ram_0x0C8                   EQU  0x0C8
  000000C9            00206 ram_0x0C9                   EQU  0x0C9
  000000CA            00207 ram_0x0CA                   EQU  0x0CA
  000000CB            00208 ram_0x0CB                   EQU  0x0CB
  000000CC            00209 ram_0x0CC                   EQU  0x0CC
  000000CD            00210 ram_0x0CD                   EQU  0x0CD
  000000CE            00211 ram_0x0CE                   EQU  0x0CE
  000000CF            00212 ram_0x0CF                   EQU  0x0CF
  000000D0            00213 ram_0x0D0                   EQU  0x0D0
  000000D1            00214 ram_0x0D1                   EQU  0x0D1
  000000D2            00215 ram_0x0D2                   EQU  0x0D2
  000000D3            00216 ram_0x0D3                   EQU  0x0D3
  000000D5            00217 ram_0x0D5                   EQU  0x0D5
  000000D6            00218 ram_0x0D6                   EQU  0x0D6
  000000D7            00219 ram_0x0D7                   EQU  0x0D7
  000000D8            00220 ram_0x0D8                   EQU  0x0D8
  000000D9            00221 ram_0x0D9                   EQU  0x0D9
  000000DA            00222 ram_0x0DA                   EQU  0x0DA
  000000DB            00223 ram_0x0DB                   EQU  0x0DB
  000000DC            00224 ram_0x0DC                   EQU  0x0DC
  000000DD            00225 ram_0x0DD                   EQU  0x0DD
  000000DE            00226 ram_0x0DE                   EQU  0x0DE
  000000DF            00227 ram_0x0DF                   EQU  0x0DF
  000000E0            00228 ram_0x0E0                   EQU  0x0E0
  000000E1            00229 ram_0x0E1                   EQU  0x0E1
  000000E2            00230 ram_0x0E2                   EQU  0x0E2
  000000E3            00231 ram_0x0E3                   EQU  0x0E3
  000000E4            00232 ram_0x0E4                   EQU  0x0E4
  000000E5            00233 ram_0x0E5                   EQU  0x0E5
  000000E6            00234 ram_0x0E6                   EQU  0x0E6
  000000E7            00235 ram_0x0E7                   EQU  0x0E7
  000000E8            00236 ram_0x0E8                   EQU  0x0E8
  000000E9            00237 ram_0x0E9                   EQU  0x0E9
  000000EA            00238 ram_0x0EA                   EQU  0x0EA
  000000EB            00239 ram_0x0EB                   EQU  0x0EB
  000000ED            00240 ram_0x0ED                   EQU  0x0ED
  000000EE            00241 ram_0x0EE                   EQU  0x0EE
  000000EF            00242 ram_0x0EF                   EQU  0x0EF
  000000F0            00243 ram_0x0F0                   EQU  0x0F0
  000000F1            00244 ram_0x0F1                   EQU  0x0F1
  000000F2            00245 ram_0x0F2                   EQU  0x0F2
  000000F3            00246 ram_0x0F3                   EQU  0x0F3
  000000F4            00247 ram_0x0F4                   EQU  0x0F4
  000000F5            00248 ram_0x0F5                   EQU  0x0F5
  000000F6            00249 ram_0x0F6                   EQU  0x0F6
  000000F7            00250 ram_0x0F7                   EQU  0x0F7
  000000F8            00251 ram_0x0F8                   EQU  0x0F8
gpasm-1.5.2 #1325 (Jan 30 2022) src/dlcp_fw/a   03/29/2026  18:21:48        PAGE  6


LOC    OBJECT CODE    LINE  SOURCE TEXT
  VALUE

  000000F9            00252 ram_0x0F9                   EQU  0x0F9
  000000FA            00253 ram_0x0FA                   EQU  0x0FA
  000000FB            00254 ram_0x0FB                   EQU  0x0FB
  000000FC            00255 ram_0x0FC                   EQU  0x0FC
  000000FD            00256 ram_0x0FD                   EQU  0x0FD
  000000FE            00257 ram_0x0FE                   EQU  0x0FE
  00000116            00258 ram_0x116                   EQU  0x116
  00000117            00259 ram_0x117                   EQU  0x117
  00000118            00260 ram_0x118                   EQU  0x118
  00000119            00261 ram_0x119                   EQU  0x119
  0000011B            00262 ram_0x11B                   EQU  0x11B
  0000011C            00263 ram_0x11C                   EQU  0x11C
  0000011D            00264 ram_0x11D                   EQU  0x11D
  0000011E            00265 ram_0x11E                   EQU  0x11E
  0000011F            00266 ram_0x11F                   EQU  0x11F
  00000120            00267 ram_0x120                   EQU  0x120
  00000121            00268 ram_0x121                   EQU  0x121
  00000122            00269 ram_0x122                   EQU  0x122
  0000012C            00270 ram_0x12C                   EQU  0x12C
  0000012D            00271 ram_0x12D                   EQU  0x12D
  0000012E            00272 ram_0x12E                   EQU  0x12E
  0000012F            00273 ram_0x12F                   EQU  0x12F
  00000130            00274 ram_0x130                   EQU  0x130
  00000131            00275 ram_0x131                   EQU  0x131
  00000132            00276 ram_0x132                   EQU  0x132
  00000133            00277 ram_0x133                   EQU  0x133
  00000134            00278 ram_0x134                   EQU  0x134
  00000135            00279 ram_0x135                   EQU  0x135
  00000136            00280 ram_0x136                   EQU  0x136
  00000138            00281 ram_0x138                   EQU  0x138
  0000015A            00282 ram_0x15A                   EQU  0x15A
  0000015B            00283 ram_0x15B                   EQU  0x15B
  0000015C            00284 ram_0x15C                   EQU  0x15C
  0000015D            00285 ram_0x15D                   EQU  0x15D
  0000015E            00286 ram_0x15E                   EQU  0x15E
  0000015F            00287 ram_0x15F                   EQU  0x15F
  00000160            00288 ram_0x160                   EQU  0x160
  00000161            00289 ram_0x161                   EQU  0x161
  00000162            00290 ram_0x162                   EQU  0x162
  00000163            00291 ram_0x163                   EQU  0x163
  0000016C            00292 ram_0x16C                   EQU  0x16C
  0000016D            00293 ram_0x16D                   EQU  0x16D
  0000016E            00294 ram_0x16E                   EQU  0x16E
  0000016F            00295 ram_0x16F                   EQU  0x16F
  00000170            00296 ram_0x170                   EQU  0x170
  00000171            00297 ram_0x171                   EQU  0x171
  00000173            00298 ram_0x173                   EQU  0x173
  00000174            00299 ram_0x174                   EQU  0x174
  00000175            00300 ram_0x175                   EQU  0x175
  00000176            00301 ram_0x176                   EQU  0x176
  00000178            00302 ram_0x178                   EQU  0x178
  0000019D            00303 ram_0x19D                   EQU  0x19D
  0000019E            00304 ram_0x19E                   EQU  0x19E
gpasm-1.5.2 #1325 (Jan 30 2022) src/dlcp_fw/a   03/29/2026  18:21:48        PAGE  7


LOC    OBJECT CODE    LINE  SOURCE TEXT
  VALUE

  0000019F            00305 ram_0x19F                   EQU  0x19F
  000001A0            00306 ram_0x1A0                   EQU  0x1A0
  000001C8            00307 ram_0x1C8                   EQU  0x1C8
  000001D9            00308 ram_0x1D9                   EQU  0x1D9
  000001DA            00309 ram_0x1DA                   EQU  0x1DA
  000001DB            00310 ram_0x1DB                   EQU  0x1DB
  000001DC            00311 ram_0x1DC                   EQU  0x1DC
  000001DD            00312 ram_0x1DD                   EQU  0x1DD
  000001DE            00313 ram_0x1DE                   EQU  0x1DE
  000001DF            00314 ram_0x1DF                   EQU  0x1DF
  000001E0            00315 ram_0x1E0                   EQU  0x1E0
  000001E1            00316 ram_0x1E1                   EQU  0x1E1
  000001E2            00317 ram_0x1E2                   EQU  0x1E2
  000001E3            00318 ram_0x1E3                   EQU  0x1E3
  000001E4            00319 ram_0x1E4                   EQU  0x1E4
  00000409            00320 ram_0x409                   EQU  0x409
  0000040D            00321 ram_0x40D                   EQU  0x40D
  00000411            00322 ram_0x411                   EQU  0x411
                      00004 
                      00005 ; V3.1 named RAM aliases (multi-purpose registers)
  0000007F            00006 dsp_fault_flags         EQU  0x07F   ; bit2=ACKSTAT, bit6=DSP ping, bits[5:3]=retry
  0000000B            00007 timeout_lo              EQU  0x00B   ; bounded wait countdown low byte
  0000000C            00008 timeout_hi              EQU  0x00C   ; bounded wait countdown high byte
  00000005            00009 saved_w                 EQU  0x005   ; saved WREG for i2c_byte_tx
                      00010 
                      00011 
                      00012 ; ---------------------------------------------------------------------------
                      00013 ; Configuration Bits
                      00014 ; ---------------------------------------------------------------------------
Warning[212]: __CONFIG has been deprecated for PIC18 devices. Use directive CONFIG.
                      00015     __CONFIG  _CONFIG1L, 0x3A
Warning[212]: __CONFIG has been deprecated for PIC18 devices. Use directive CONFIG.
300000 463A           00016     __CONFIG  _CONFIG1H, 0x46
Warning[212]: __CONFIG has been deprecated for PIC18 devices. Use directive CONFIG.
                      00017     __CONFIG  _CONFIG2L, 0x3E
Warning[212]: __CONFIG has been deprecated for PIC18 devices. Use directive CONFIG.
300002 1E3E           00018     __CONFIG  _CONFIG2H, 0x1E
Warning[212]: __CONFIG has been deprecated for PIC18 devices. Use directive CONFIG.
300004 00FF           00019     __CONFIG  _CONFIG3H, 0x00
Warning[212]: __CONFIG has been deprecated for PIC18 devices. Use directive CONFIG.
300006 FF80           00020     __CONFIG  _CONFIG4L, 0x80
Warning[212]: __CONFIG has been deprecated for PIC18 devices. Use directive CONFIG.
                      00021     __CONFIG  _CONFIG5L, 0x0F
Warning[212]: __CONFIG has been deprecated for PIC18 devices. Use directive CONFIG.
300008 C00F           00022     __CONFIG  _CONFIG5H, 0xC0
Warning[212]: __CONFIG has been deprecated for PIC18 devices. Use directive CONFIG.
                      00023     __CONFIG  _CONFIG6L, 0x0F
Warning[212]: __CONFIG has been deprecated for PIC18 devices. Use directive CONFIG.
30000A A00F           00024     __CONFIG  _CONFIG6H, 0xA0
Warning[212]: __CONFIG has been deprecated for PIC18 devices. Use directive CONFIG.
                      00025     __CONFIG  _CONFIG7L, 0x0F
Warning[212]: __CONFIG has been deprecated for PIC18 devices. Use directive CONFIG.
30000C 400F           00026     __CONFIG  _CONFIG7H, 0x40
gpasm-1.5.2 #1325 (Jan 30 2022) src/dlcp_fw/a   03/29/2026  18:21:48        PAGE  8


LOC    OBJECT CODE    LINE  SOURCE TEXT
  VALUE

                      00027 
                      00028 ; ---------------------------------------------------------------------------
                      00029 ; App Entry (0x1000)
                      00030 ; ---------------------------------------------------------------------------
001000                00031     org 0x1000
001000 EF0A F008      00032     goto        flow_app_entry_1014
001004 FFFF           00033     dw          0xFFFF
001006 FFFF           00034     dw          0xFFFF
001008 CFD9 F001      00035     movff       FSR2L, isr_save_fsr2l
00100C CFDA F002      00036     movff       FSR2H, isr_save_fsr2h
001010 EDA2 F01D      00037     call        main_isr_dispatch, 0x1
001014                00038 flow_app_entry_1014:
001014 EFBA F01E      00039     goto        flow_main_flash_service_3ce8_3d4e
                      00040 
                      00041 ; ---------------------------------------------------------------------------
                      00042 ; USB Descriptors and Data Tables (0x1018-0x10AB)
                      00043 ; ---------------------------------------------------------------------------
001018                00044 hex_lookup_sentinel:  ; NUL byte sentinel
001018 3000 3231 3433 00045     dw  0x3000, 0x3231, 0x3433, 0x3635, 0x3837, 0x4139, 0x4342, 0x4544
       3635 3837 4139 
       4342 4544      
001028 A646 9A72      00046     dw  0xA646, 0x9A72
00102C                00047 usb_config_descriptor:  ; USB Configuration Descriptor
00102C 0209 0029 0101 00048     dw  0x0209, 0x0029, 0x0101, 0x8000, 0x0932, 0x0004, 0x0200, 0x0003
       8000 0932 0004 
       0200 0003      
00103C 0000           00049     dw  0x0000
00103E                00050 usb_hid_descriptor:  ; USB HID Descriptor
00103E 2109 0111 0100 00051     dw  0x2109, 0x0111, 0x0100, 0x1D22, 0x0700, 0x8105, 0x4003, 0x0100
       1D22 0700 8105 
       4003 0100      
00104E                00052 usb_ep1_out_descriptor:  ; Endpoint 1 OUT (interrupt)
00104E 0507 0301 0040 00053     dw  0x0507, 0x0301, 0x0040, 0x0601, 0xFF00, 0x0109, 0x01A1, 0x0119
       0601 FF00 0109 
       01A1 0119      
00105E 4029 0015 FF26 00054     dw  0x4029, 0x0015, 0xFF26, 0x7500, 0x9508, 0x8140, 0x1900, 0x2901
       7500 9508 8140 
       1900 2901      
00106E 9140 C000      00055     dw  0x9140, 0xC000
001072                00056 usb_string_desc_1:  ; String Descriptor 1: "Hypex BV"
001072 0316 0048 0079 00057     dw  0x0316, 0x0048, 0x0079, 0x0070, 0x0065, 0x0078, 0x0020, 0x0042
       0070 0065 0078 
       0020 0042      
001082 0056 0000 0000 00058     dw  0x0056, 0x0000, 0x0000
001088                00059 usb_device_descriptor:  ; USB Device Descriptor
001088 0112 0200 0000 00060     dw  0x0112, 0x0200, 0x0000, 0x0800, 0x04D8, 0xFF89, 0x0001, 0x0201
       0800 04D8 FF89 
       0001 0201      
001098 0100           00061     dw  0x0100
00109A                00062 usb_string_desc_2:  ; String Descriptor 2: "DLCP"
00109A 030C 0044 004C 00063     dw  0x030C, 0x0044, 0x004C, 0x0043, 0x0050, 0x0000
       0043 0050 0000 
0010A6                00064 usb_string_desc_0:  ; String Descriptor 0: LANGID
gpasm-1.5.2 #1325 (Jan 30 2022) src/dlcp_fw/a   03/29/2026  18:21:48        PAGE  9


LOC    OBJECT CODE    LINE  SOURCE TEXT
  VALUE

0010A6 0304 0409      00065     dw  0x0304, 0x0409
0010AA                00066 usb_data_pad:  ; Padding to code boundary
0010AA 0000           00067     dw  0x0000
                      00068 
                      00069 ; Sub-labels at odd byte addresses (EQU offsets)
  00001019            00070 hex_lookup_table  EQU  hex_lookup_sentinel + 0x1  ; ASCII hex digits: 0-9, A-F
  00001029            00071 string_desc_ptr_table  EQU  hex_lookup_sentinel + 0x11  ; String descriptor offset table
  00001035            00072 usb_interface_descriptor  EQU  usb_config_descriptor + 0x9  ; USB Interface Descriptor
  00001047            00073 usb_ep1_in_descriptor  EQU  usb_hid_descriptor + 0x9  ; Endpoint 1 IN (interrupt)
  00001055            00074 usb_hid_report_descriptor  EQU  usb_ep1_out_descriptor + 0x7  ; HID Report Descriptor
                      00075 
                      00076 ; ---------------------------------------------------------------------------
                      00077 ; Application Code
                      00078 ; ---------------------------------------------------------------------------
                      00079 
                      00080 
                      00081 ; ---------------------------------------------------------------------------
                      00082 ; Function: hid_command_dispatch
                      00083 ; Address : 0x10AC
                      00084 ; Notes   : USB HID command decode and top-level command/state dispatch.
                      00085 ; ---------------------------------------------------------------------------
0010AC                00086 hid_command_dispatch:
0010AC CFE8 F057      00087     movff       WREG, i2c_coeff_2
0010B0 EE21 F0ED      00088     lfsr        FSR2, 0x01ED
0010B4 EE10 F04D      00089     lfsr        FSR1, 0x004D
0010B8 0E07           00090     movlw       0x07
0010BA                00091 flow_hid_command_dispatch_10ba:
0010BA CFDE FFE6      00092     movff       POSTINC2, POSTINC1
0010BE 2EE8           00093     decfsz      WREG, F, ACCESS
0010C0 D7FC           00094     bra         flow_hid_command_dispatch_10ba
0010C2 5057           00095     movf        i2c_coeff_2, W, ACCESS
0010C4 0A42           00096     xorlw       0x42
0010C6 E101           00097     bnz         flow_hid_command_dispatch_10ca
0010C8 D244           00098     bra         hid_cmd_xor_dispatch
0010CA                00099 flow_hid_command_dispatch_10ca:
0010CA 0100           00100     movlb       0x0
0010CC 6BCB           00101     clrf        ram_0x0CB, BANKED
0010CE D241           00102     bra         hid_cmd_xor_dispatch
0010D0                00103 flow_hid_command_dispatch_10d0:
0010D0 C11B F097      00104     movff       ram_0x11B, ram_0x097
0010D4 0100           00105     movlb       0x0
0010D6 5197           00106     movf        ram_0x097, W, BANKED
0010D8 0A09           00107     xorlw       0x09
0010DA E114           00108     bnz         flow_hid_command_dispatch_1104
0010DC 0E02           00109     movlw       0x02
0010DE 6E58           00110     movwf       i2c_coeff_3, ACCESS
0010E0                00111 flow_hid_command_dispatch_10e0:
0010E0 DA67           00112     rcall       main_core_service_15b0
0010E2 50DF           00113     movf        INDF2, W, ACCESS
0010E4 E00A           00114     bz          flow_hid_command_dispatch_10fa
0010E6 DA64           00115     rcall       main_core_service_15b0
0010E8 0EBE           00116     movlw       0xBE
0010EA 2458           00117     addwf       i2c_coeff_3, W, ACCESS
gpasm-1.5.2 #1325 (Jan 30 2022) src/dlcp_fw/a   03/29/2026  18:21:48        PAGE 10


LOC    OBJECT CODE    LINE  SOURCE TEXT
  VALUE

0010EC 6EE1           00118     movwf       FSR1L, ACCESS
0010EE 6AE2           00119     clrf        FSR1H, ACCESS
0010F0 0E02           00120     movlw       0x02
0010F2 22E2           00121     addwfc      FSR1H, F, ACCESS
0010F4 CFDF FFE7      00122     movff       INDF2, INDF1
0010F8 D001           00123     bra         flow_hid_command_dispatch_10fc
0010FA                00124 flow_hid_command_dispatch_10fa:
0010FA DA61           00125     rcall       main_core_service_15be
0010FC                00126 flow_hid_command_dispatch_10fc:
0010FC 2A58           00127     incf        i2c_coeff_3, F, ACCESS
0010FE 0E1F           00128     movlw       0x1F
001100 6458           00129     cpfsgt      i2c_coeff_3, ACCESS
001102 D7EE           00130     bra         flow_hid_command_dispatch_10e0
001104                00131 flow_hid_command_dispatch_1104:
001104 0100           00132     movlb       0x0
001106 5197           00133     movf        ram_0x097, W, BANKED
001108 0A0A           00134     xorlw       0x0A
00110A E107           00135     bnz         flow_hid_command_dispatch_111a
00110C 0E02           00136     movlw       0x02
00110E 6E58           00137     movwf       i2c_coeff_3, ACCESS
001110                00138 flow_hid_command_dispatch_1110:
001110 DA56           00139     rcall       main_core_service_15be
001112 2A58           00140     incf        i2c_coeff_3, F, ACCESS
001114 0E1F           00141     movlw       0x1F
001116 6458           00142     cpfsgt      i2c_coeff_3, ACCESS
001118 D7FB           00143     bra         flow_hid_command_dispatch_1110
00111A                00144 flow_hid_command_dispatch_111a:
00111A 0E03           00145     movlw       0x03
00111C 0100           00146     movlb       0x0
00111E 6FC1           00147     movwf       ram_0x0C1, BANKED
001120 C11B F0C2      00148     movff       ram_0x11B, ram_0x0C2
001124 8BBD           00149     bsf         ram_0x0BD, 5, BANKED
001126                00150 flow_hid_command_dispatch_1126:
001126 ECAC F024      00151     call        main_timer_service_48a6, 0x0
00112A                00152 flow_hid_command_dispatch_112a:
00112A ECF0 F024      00153     call        main_core_service_492e, 0x0
00112E                00154 flow_hid_command_dispatch_112e:
00112E EC98 F011      00155     call        main_core_service_2328, 0x0
001132 D23B           00156     bra         flow_hid_command_dispatch_15aa
001134                00157 flow_hid_command_dispatch_1134:
001134 0101           00158     movlb       0x1
001136 051B           00159     decf        ram_0x01B, W, BANKED
001138 E118           00160     bnz         flow_hid_command_dispatch_116a
00113A C11C F0B7      00161     movff       ram_0x11C, ram_0x0B7
00113E D00E           00162     bra         flow_hid_command_dispatch_115c
001140                00163 flow_hid_command_dispatch_1140:
001140 0E04           00164     movlw       0x04
Message[1302]: RAM Bank undefined in this chunk of code. Ensure that bank bits are correct. Assuming bank 0 from now on.
001142 6FC1           00165     movwf       ram_0x0C1, BANKED
001144 0E01           00166     movlw       0x01
001146 6FC2           00167     movwf       ram_0x0C2, BANKED
001148 D7F0           00168     bra         flow_hid_command_dispatch_112a
00114A                00169 flow_hid_command_dispatch_114a:
gpasm-1.5.2 #1325 (Jan 30 2022) src/dlcp_fw/a   03/29/2026  18:21:48        PAGE 11


LOC    OBJECT CODE    LINE  SOURCE TEXT
  VALUE

00114A C11D F0B8      00170     movff       ram_0x11D, ram_0x0B8
00114E 0E04           00171     movlw       0x04
Message[1302]: RAM Bank undefined in this chunk of code. Ensure that bank bits are correct. Assuming bank 0 from now on.
001150 6FC1           00172     movwf       ram_0x0C1, BANKED
001152 0E01           00173     movlw       0x01
001154 6FC2           00174     movwf       ram_0x0C2, BANKED
001156 817F           00175     bsf         ram_0x07F, 0, BANKED
001158 8994           00176     bsf         ram_0x094, 4, BANKED
00115A D7E7           00177     bra         flow_hid_command_dispatch_112a
00115C                00178 flow_hid_command_dispatch_115c:
00115C 0100           00179     movlb       0x0
00115E 51B7           00180     movf        ram_0x0B7, W, BANKED
001160 0A01           00181     xorlw       0x01
001162 E0EE           00182     bz          flow_hid_command_dispatch_1140
001164 0A03           00183     xorlw       0x03
001166 E0F1           00184     bz          flow_hid_command_dispatch_114a
001168 D220           00185     bra         flow_hid_command_dispatch_15aa
00116A                00186 flow_hid_command_dispatch_116a:
00116A 511B           00187     movf        ram_0x01B, W, BANKED
00116C 0A02           00188     xorlw       0x02
00116E E001           00189     bz          flow_hid_command_dispatch_1172
001170 D21C           00190     bra         flow_hid_command_dispatch_15aa
001172                00191 flow_hid_command_dispatch_1172:
001172 C11E F0B5      00192     movff       ram_0x11E, ram_0x0B5
001176 0E04           00193     movlw       0x04
001178 0100           00194     movlb       0x0
00117A 6FC1           00195     movwf       ram_0x0C1, BANKED
00117C 0E02           00196     movlw       0x02
00117E 6FC2           00197     movwf       ram_0x0C2, BANKED
001180 51B5           00198     movf        ram_0x0B5, W, BANKED
001182 0A06           00199     xorlw       0x06
001184 E11D           00200     bnz         flow_hid_command_dispatch_11c0
001186 0E05           00201     movlw       0x05
001188 6E58           00202     movwf       i2c_coeff_3, ACCESS
00118A                00203 flow_hid_command_dispatch_118a:
00118A DA12           00204     rcall       main_core_service_15b0
00118C 50DF           00205     movf        INDF2, W, ACCESS
00118E E00A           00206     bz          flow_hid_command_dispatch_11a4
001190 DA0F           00207     rcall       main_core_service_15b0
001192 0EFB           00208     movlw       0xFB
001194 2458           00209     addwf       i2c_coeff_3, W, ACCESS
001196 6EE1           00210     movwf       FSR1L, ACCESS
001198 6AE2           00211     clrf        FSR1H, ACCESS
00119A 0E00           00212     movlw       0x00
00119C 22E2           00213     addwfc      FSR1H, F, ACCESS
00119E CFDF FFE7      00214     movff       INDF2, INDF1
0011A2 D007           00215     bra         flow_hid_command_dispatch_11b2
0011A4                00216 flow_hid_command_dispatch_11a4:
0011A4 0EFB           00217     movlw       0xFB
0011A6 2458           00218     addwf       i2c_coeff_3, W, ACCESS
0011A8 6ED9           00219     movwf       FSR2L, ACCESS
0011AA 6ADA           00220     clrf        FSR2H, ACCESS
0011AC 0E00           00221     movlw       0x00
gpasm-1.5.2 #1325 (Jan 30 2022) src/dlcp_fw/a   03/29/2026  18:21:48        PAGE 12


LOC    OBJECT CODE    LINE  SOURCE TEXT
  VALUE

0011AE 22DA           00222     addwfc      FSR2H, F, ACCESS
0011B0 68DF           00223     setf        INDF2, ACCESS
0011B2                00224 flow_hid_command_dispatch_11b2:
0011B2 2A58           00225     incf        i2c_coeff_3, F, ACCESS
0011B4 0E13           00226     movlw       0x13
0011B6 6458           00227     cpfsgt      i2c_coeff_3, ACCESS
0011B8 D7E8           00228     bra         flow_hid_command_dispatch_118a
0011BA 0100           00229     movlb       0x0
0011BC 89BD           00230     bsf         ram_0x0BD, 4, BANKED
0011BE D7B3           00231     bra         flow_hid_command_dispatch_1126
0011C0                00232 flow_hid_command_dispatch_11c0:
Message[1302]: RAM Bank undefined in this chunk of code. Ensure that bank bits are correct. Assuming bank 0 from now on.
0011C0 51B5           00233     movf        ram_0x0B5, W, BANKED
0011C2 0A05           00234     xorlw       0x05
0011C4 E0B2           00235     bz          flow_hid_command_dispatch_112a
0011C6 51B5           00236     movf        ram_0x0B5, W, BANKED
0011C8 0A07           00237     xorlw       0x07
0011CA E0AF           00238     bz          flow_hid_command_dispatch_112a
0011CC D1EE           00239     bra         flow_hid_command_dispatch_15aa
0011CE                00240 flow_hid_command_dispatch_11ce:
0011CE C11B F099      00241     movff       ram_0x11B, input_select
0011D2 C11F F071      00242     movff       ram_0x11F, computed_volume_3
0011D6 C120 F070      00243     movff       ram_0x120, computed_volume_2
0011DA C121 F06F      00244     movff       ram_0x121, computed_volume_1
0011DE C122 F06E      00245     movff       ram_0x122, computed_volume
0011E2 0101           00246     movlb       0x1
0011E4 B123           00247     btfsc       ram_0x023, 0, BANKED
0011E6 D002           00248     bra         flow_hid_command_dispatch_11ec
0011E8 985E           00249     bcf         active_flags, 4, ACCESS
0011EA D001           00250     bra         flow_hid_command_dispatch_11ee
0011EC                00251 flow_hid_command_dispatch_11ec:
0011EC 885E           00252     bsf         active_flags, 4, ACCESS
0011EE                00253 flow_hid_command_dispatch_11ee:
0011EE 0101           00254     movlb       0x1
0011F0 B124           00255     btfsc       ram_0x024, 0, BANKED
0011F2 D003           00256     bra         flow_hid_command_dispatch_11fa
0011F4 0100           00257     movlb       0x0
0011F6 91A4           00258     bcf         ram_0x0A4, 0, BANKED
0011F8 D002           00259     bra         flow_hid_command_dispatch_11fe
0011FA                00260 flow_hid_command_dispatch_11fa:
0011FA 0100           00261     movlb       0x0
0011FC 81A4           00262     bsf         ram_0x0A4, 0, BANKED
0011FE                00263 flow_hid_command_dispatch_11fe:
0011FE 0101           00264     movlb       0x1
001200 B125           00265     btfsc       ram_0x025, 0, BANKED
001202 D003           00266     bra         flow_hid_command_dispatch_120a
001204 0100           00267     movlb       0x0
001206 93A4           00268     bcf         ram_0x0A4, 1, BANKED
001208 D002           00269     bra         flow_hid_command_dispatch_120e
00120A                00270 flow_hid_command_dispatch_120a:
00120A 0100           00271     movlb       0x0
00120C 83A4           00272     bsf         ram_0x0A4, 1, BANKED
00120E                00273 flow_hid_command_dispatch_120e:
gpasm-1.5.2 #1325 (Jan 30 2022) src/dlcp_fw/a   03/29/2026  18:21:48        PAGE 13


LOC    OBJECT CODE    LINE  SOURCE TEXT
  VALUE

00120E 0101           00274     movlb       0x1
001210 B126           00275     btfsc       ram_0x026, 0, BANKED
001212 D003           00276     bra         flow_hid_command_dispatch_121a
001214 0100           00277     movlb       0x0
001216 95A4           00278     bcf         ram_0x0A4, 2, BANKED
001218 D002           00279     bra         flow_hid_command_dispatch_121e
00121A                00280 flow_hid_command_dispatch_121a:
00121A 0100           00281     movlb       0x0
00121C 85A4           00282     bsf         ram_0x0A4, 2, BANKED
00121E                00283 flow_hid_command_dispatch_121e:
00121E 0101           00284     movlb       0x1
001220 B128           00285     btfsc       ram_0x028, 0, BANKED
001222 D003           00286     bra         flow_hid_command_dispatch_122a
001224 0100           00287     movlb       0x0
001226 97A4           00288     bcf         ram_0x0A4, 3, BANKED
001228 D002           00289     bra         flow_hid_command_dispatch_122e
00122A                00290 flow_hid_command_dispatch_122a:
00122A 0100           00291     movlb       0x0
00122C 87A4           00292     bsf         ram_0x0A4, 3, BANKED
00122E                00293 flow_hid_command_dispatch_122e:
00122E 0101           00294     movlb       0x1
001230 B129           00295     btfsc       ram_0x029, 0, BANKED
001232 D003           00296     bra         flow_hid_command_dispatch_123a
001234 0100           00297     movlb       0x0
001236 99A4           00298     bcf         ram_0x0A4, 4, BANKED
001238 D002           00299     bra         flow_hid_command_dispatch_123e
00123A                00300 flow_hid_command_dispatch_123a:
00123A 0100           00301     movlb       0x0
00123C 89A4           00302     bsf         ram_0x0A4, 4, BANKED
00123E                00303 flow_hid_command_dispatch_123e:
00123E 0101           00304     movlb       0x1
001240 B12A           00305     btfsc       ram_0x02A, 0, BANKED
001242 D003           00306     bra         flow_hid_command_dispatch_124a
001244 0100           00307     movlb       0x0
001246 9BA4           00308     bcf         ram_0x0A4, 5, BANKED
001248 D002           00309     bra         flow_hid_command_dispatch_124e
00124A                00310 flow_hid_command_dispatch_124a:
00124A 0100           00311     movlb       0x0
00124C 8BA4           00312     bsf         ram_0x0A4, 5, BANKED
00124E                00313 flow_hid_command_dispatch_124e:
00124E C12C F060      00314     movff       ram_0x12C, ram_0x060
001252 C12D F061      00315     movff       ram_0x12D, ram_0x061
001256 C12E F062      00316     movff       ram_0x12E, ram_0x062
00125A C12F F063      00317     movff       ram_0x12F, ram_0x063
00125E C130 F064      00318     movff       ram_0x130, ram_0x064
001262 C131 F065      00319     movff       ram_0x131, ram_0x065
001266 C132 F05F      00320     movff       ram_0x132, ram_0x05F
00126A C133 F09B      00321     movff       ram_0x133, ram_0x09B
00126E C134 F09C      00322     movff       ram_0x134, ram_0x09C
001272 C135 F09D      00323     movff       ram_0x135, ram_0x09D
001276 C136 F09E      00324     movff       ram_0x136, ram_0x09E
00127A C138 F0B4      00325     movff       ram_0x138, ram_0x0B4
00127E 51B3           00326     movf        input_select_mirror, W, BANKED
gpasm-1.5.2 #1325 (Jan 30 2022) src/dlcp_fw/a   03/29/2026  18:21:48        PAGE 14


LOC    OBJECT CODE    LINE  SOURCE TEXT
  VALUE

001280 1999           00327     xorwf       input_select, W, BANKED
001282 A4D8           00328     btfss       STATUS, 2, ACCESS
001284 8194           00329     bsf         ram_0x094, 0, BANKED
001286 5169           00330     movf        logical_volume_3, W, BANKED
001288 1971           00331     xorwf       computed_volume_3, W, BANKED
00128A E108           00332     bnz         flow_hid_command_dispatch_129c
00128C 5168           00333     movf        logical_volume_2, W, BANKED
00128E 1970           00334     xorwf       computed_volume_2, W, BANKED
001290 E105           00335     bnz         flow_hid_command_dispatch_129c
001292 5167           00336     movf        logical_volume_1, W, BANKED
001294 196F           00337     xorwf       computed_volume_1, W, BANKED
001296 E102           00338     bnz         flow_hid_command_dispatch_129c
001298 5166           00339     movf        logical_volume, W, BANKED
00129A 196E           00340     xorwf       computed_volume, W, BANKED
00129C                00341 flow_hid_command_dispatch_129c:
00129C E002           00342     bz          flow_hid_command_dispatch_12a2
00129E 877E           00343     bsf         event_flags, 3, BANKED
0012A0 8394           00344     bsf         ram_0x094, 1, BANKED
0012A2                00345 flow_hid_command_dispatch_12a2:
0012A2 51AC           00346     movf        ram_0x0AC, W, BANKED
0012A4 199B           00347     xorwf       ram_0x09B, W, BANKED
0012A6 E002           00348     bz          flow_hid_command_dispatch_12ac
0012A8 877E           00349     bsf         event_flags, 3, BANKED
0012AA 87BD           00350     bsf         ram_0x0BD, 3, BANKED
0012AC                00351 flow_hid_command_dispatch_12ac:
0012AC 51AD           00352     movf        ram_0x0AD, W, BANKED
0012AE 199C           00353     xorwf       ram_0x09C, W, BANKED
0012B0 E002           00354     bz          flow_hid_command_dispatch_12b6
0012B2 877E           00355     bsf         event_flags, 3, BANKED
0012B4 87BD           00356     bsf         ram_0x0BD, 3, BANKED
0012B6                00357 flow_hid_command_dispatch_12b6:
0012B6 51AE           00358     movf        ram_0x0AE, W, BANKED
0012B8 199D           00359     xorwf       ram_0x09D, W, BANKED
0012BA E002           00360     bz          flow_hid_command_dispatch_12c0
0012BC 877E           00361     bsf         event_flags, 3, BANKED
0012BE 87BD           00362     bsf         ram_0x0BD, 3, BANKED
0012C0                00363 flow_hid_command_dispatch_12c0:
0012C0 51AF           00364     movf        ram_0x0AF, W, BANKED
0012C2 199E           00365     xorwf       ram_0x09E, W, BANKED
0012C4 E002           00366     bz          flow_hid_command_dispatch_12ca
0012C6 877E           00367     bsf         event_flags, 3, BANKED
0012C8 87BD           00368     bsf         ram_0x0BD, 3, BANKED
0012CA                00369 flow_hid_command_dispatch_12ca:
0012CA 0E01           00370     movlw       0x01
0012CC A85E           00371     btfss       active_flags, 4, ACCESS
0012CE 0E00           00372     movlw       0x00
0012D0 6E4C           00373     movwf       ram_0x04C, ACCESS
0012D2 0E01           00374     movlw       0x01
0012D4 AA5E           00375     btfss       active_flags, 5, ACCESS
0012D6 0E00           00376     movlw       0x00
0012D8 1A4C           00377     xorwf       ram_0x04C, F, ACCESS
0012DA E002           00378     bz          flow_hid_command_dispatch_12e0
0012DC 8B7E           00379     bsf         event_flags, 5, BANKED
gpasm-1.5.2 #1325 (Jan 30 2022) src/dlcp_fw/a   03/29/2026  18:21:48        PAGE 15


LOC    OBJECT CODE    LINE  SOURCE TEXT
  VALUE

0012DE 8794           00380     bsf         ram_0x094, 3, BANKED
0012E0                00381 flow_hid_command_dispatch_12e0:
0012E0 51B0           00382     movf        ram_0x0B0, W, BANKED
0012E2 19A4           00383     xorwf       ram_0x0A4, W, BANKED
0012E4 A4D8           00384     btfss       STATUS, 2, ACCESS
0012E6 8D7E           00385     bsf         event_flags, 6, BANKED
0012E8 51B4           00386     movf        ram_0x0B4, W, BANKED
0012EA 19B1           00387     xorwf       ram_0x0B1, W, BANKED
0012EC A4D8           00388     btfss       STATUS, 2, ACCESS
0012EE 837F           00389     bsf         ram_0x07F, 1, BANKED
0012F0 5160           00390     movf        ram_0x060, W, BANKED
0012F2 63A5           00391     cpfseq      ram_0x0A5, BANKED
0012F4 D017           00392     bra         flow_hid_command_dispatch_1324
Message[1302]: RAM Bank undefined in this chunk of code. Ensure that bank bits are correct. Assuming bank 0 from now on.
0012F6 51A6           00393     movf        ram_0x0A6, W, BANKED
0012F8 EE20 F061      00394     lfsr        FSR2, 0x0061
0012FC 62DF           00395     cpfseq      INDF2, ACCESS
0012FE D012           00396     bra         flow_hid_command_dispatch_1324
Message[1302]: RAM Bank undefined in this chunk of code. Ensure that bank bits are correct. Assuming bank 0 from now on.
001300 51A7           00397     movf        ram_0x0A7, W, BANKED
001302 EE20 F062      00398     lfsr        FSR2, 0x0062
001306 62DF           00399     cpfseq      INDF2, ACCESS
001308 D00D           00400     bra         flow_hid_command_dispatch_1324
Message[1302]: RAM Bank undefined in this chunk of code. Ensure that bank bits are correct. Assuming bank 0 from now on.
00130A 51A8           00401     movf        ram_0x0A8, W, BANKED
00130C EE20 F063      00402     lfsr        FSR2, 0x0063
001310 62DF           00403     cpfseq      INDF2, ACCESS
001312 D008           00404     bra         flow_hid_command_dispatch_1324
Message[1302]: RAM Bank undefined in this chunk of code. Ensure that bank bits are correct. Assuming bank 0 from now on.
001314 51A9           00405     movf        ram_0x0A9, W, BANKED
001316 EE20 F064      00406     lfsr        FSR2, 0x0064
00131A 62DF           00407     cpfseq      INDF2, ACCESS
00131C D003           00408     bra         flow_hid_command_dispatch_1324
Message[1302]: RAM Bank undefined in this chunk of code. Ensure that bank bits are correct. Assuming bank 0 from now on.
00131E 5165           00409     movf        ram_0x065, W, BANKED
001320 19AA           00410     xorwf       ram_0x0AA, W, BANKED
001322 A4D8           00411     btfss       STATUS, 2, ACCESS
001324                00412 flow_hid_command_dispatch_1324:
001324 897E           00413     bsf         event_flags, 4, BANKED
001326 C099 F0B3      00414     movff       input_select, input_select_mirror
00132A C06E F066      00415     movff       computed_volume, logical_volume
00132E C06F F067      00416     movff       computed_volume_1, logical_volume_1
001332 C070 F068      00417     movff       computed_volume_2, logical_volume_2
001336 C071 F069      00418     movff       computed_volume_3, logical_volume_3
00133A A85E           00419     btfss       active_flags, 4, ACCESS
00133C D002           00420     bra         flow_hid_command_dispatch_1342
00133E 8A5E           00421     bsf         active_flags, 5, ACCESS
001340 D001           00422     bra         flow_hid_command_dispatch_1344
001342                00423 flow_hid_command_dispatch_1342:
001342 9A5E           00424     bcf         active_flags, 5, ACCESS
001344                00425 flow_hid_command_dispatch_1344:
001344 C0A4 F0B0      00426     movff       ram_0x0A4, ram_0x0B0
001348 C060 F0A5      00427     movff       ram_0x060, ram_0x0A5
gpasm-1.5.2 #1325 (Jan 30 2022) src/dlcp_fw/a   03/29/2026  18:21:48        PAGE 16


LOC    OBJECT CODE    LINE  SOURCE TEXT
  VALUE

00134C C061 F0A6      00428     movff       ram_0x061, ram_0x0A6
001350 C062 F0A7      00429     movff       ram_0x062, ram_0x0A7
001354 C063 F0A8      00430     movff       ram_0x063, ram_0x0A8
001358 C064 F0A9      00431     movff       ram_0x064, ram_0x0A9
00135C C065 F0AA      00432     movff       ram_0x065, ram_0x0AA
001360 C0B4 F0B1      00433     movff       ram_0x0B4, ram_0x0B1
001364 C09B F0AC      00434     movff       ram_0x09B, ram_0x0AC
001368 C09C F0AD      00435     movff       ram_0x09C, ram_0x0AD
00136C C09D F0AE      00436     movff       ram_0x09D, ram_0x0AE
001370 C09E F0AF      00437     movff       ram_0x09E, ram_0x0AF
001374                00438 flow_hid_command_dispatch_1374:
001374 0E05           00439     movlw       0x05
001376 D006           00440     bra         flow_hid_command_dispatch_1384
001378                00441 flow_hid_command_dispatch_1378:
001378 0101           00442     movlb       0x1
00137A 051B           00443     decf        ram_0x01B, W, BANKED
00137C E106           00444     bnz         flow_hid_command_dispatch_138a
00137E ECFA F024      00445     call        main_core_service_4942, 0x0
001382 0E06           00446     movlw       0x06
001384                00447 flow_hid_command_dispatch_1384:
001384 0100           00448     movlb       0x0
001386 6FC1           00449     movwf       ram_0x0C1, BANKED
001388 D6D2           00450     bra         flow_hid_command_dispatch_112e
00138A                00451 flow_hid_command_dispatch_138a:
00138A 511B           00452     movf        ram_0x01B, W, BANKED
00138C 0A02           00453     xorlw       0x02
00138E E001           00454     bz          flow_hid_command_dispatch_1392
001390 D10C           00455     bra         flow_hid_command_dispatch_15aa
001392                00456 flow_hid_command_dispatch_1392:
001392 ECFA F024      00457     call        main_core_service_4942, 0x0
001396 D7EE           00458     bra         flow_hid_command_dispatch_1374
001398                00459 flow_hid_command_dispatch_1398:
001398 0101           00460     movlb       0x1
00139A 511B           00461     movf        ram_0x01B, W, BANKED
00139C 0A0F           00462     xorlw       0x0F
00139E B4D8           00463     btfsc       STATUS, 2, ACCESS
0013A0 8E5E           00464     bsf         active_flags, 7, ACCESS
0013A2                00465 flow_hid_command_dispatch_13a2:
0013A2 5057           00466     movf        i2c_coeff_2, W, ACCESS
0013A4 0A07           00467     xorlw       0x07
0013A6 E109           00468     bnz         flow_hid_command_dispatch_13ba
0013A8 0101           00469     movlb       0x1
0013AA 671B           00470     tstfsz      ram_0x01B, BANKED
0013AC D006           00471     bra         flow_hid_command_dispatch_13ba
0013AE 0100           00472     movlb       0x0
0013B0 6BC5           00473     clrf        ram_0x0C5, BANKED
0013B2 0E56           00474     movlw       0x56
0013B4 6F83           00475     movwf       ram_0x083, BANKED
0013B6 0E00           00476     movlw       0x00
0013B8 6B82           00477     clrf        ram_0x082, BANKED
0013BA                00478 flow_hid_command_dispatch_13ba:
0013BA 98AB           00479     bcf         RCSTA, 4, ACCESS
0013BC 805E           00480     bsf         active_flags, 0, ACCESS
gpasm-1.5.2 #1325 (Jan 30 2022) src/dlcp_fw/a   03/29/2026  18:21:48        PAGE 17


LOC    OBJECT CODE    LINE  SOURCE TEXT
  VALUE

0013BE 0100           00481     movlb       0x0
0013C0 6B98           00482     clrf        rx_frame_position, BANKED
0013C2 6BC7           00483     clrf        rx_ring_wr, BANKED
0013C4 6BC6           00484     clrf        rx_ring_rd, BANKED
0013C6 ECE0 F015      00485     call        main_flash_service_2bb8, 0x0
0013CA                00486 flow_hid_command_dispatch_13ca:
0013CA C057 F0C1      00487     movff       i2c_coeff_2, ram_0x0C1
0013CE D6AF           00488     bra         flow_hid_command_dispatch_112e
0013D0                00489 flow_hid_command_dispatch_13d0:
0013D0 0EA0           00490     movlw       0xA0
0013D2 0100           00491     movlb       0x0
0013D4 6F6E           00492     movwf       computed_volume, BANKED
0013D6 696F           00493     setf        computed_volume_1, BANKED
0013D8 6970           00494     setf        computed_volume_2, BANKED
0013DA 6971           00495     setf        computed_volume_3, BANKED
0013DC 0E01           00496     movlw       0x01
0013DE 6F99           00497     movwf       input_select, BANKED
0013E0 0E03           00498     movlw       0x03
0013E2 6E5F           00499     movwf       ram_0x05F, ACCESS
0013E4 6B60           00500     clrf        ram_0x060, BANKED
0013E6 6B61           00501     clrf        ram_0x061, BANKED
0013E8 6B62           00502     clrf        ram_0x062, BANKED
0013EA 0E01           00503     movlw       0x01
0013EC 6F63           00504     movwf       ram_0x063, BANKED
0013EE 6F64           00505     movwf       ram_0x064, BANKED
0013F0 6F65           00506     movwf       ram_0x065, BANKED
0013F2 6FB4           00507     movwf       ram_0x0B4, BANKED
0013F4 0E04           00508     movlw       0x04
0013F6 6FB8           00509     movwf       ram_0x0B8, BANKED
0013F8 6B9B           00510     clrf        ram_0x09B, BANKED
0013FA 6B9C           00511     clrf        ram_0x09C, BANKED
0013FC 6B9D           00512     clrf        ram_0x09D, BANKED
0013FE 6B9E           00513     clrf        ram_0x09E, BANKED
001400 6A58           00514     clrf        i2c_coeff_3, ACCESS
001402                00515 flow_hid_command_dispatch_1402:
001402 0EC0           00516     movlw       0xC0
001404 2458           00517     addwf       i2c_coeff_3, W, ACCESS
001406 6ED9           00518     movwf       FSR2L, ACCESS
001408 6ADA           00519     clrf        FSR2H, ACCESS
00140A 0E02           00520     movlw       0x02
00140C 22DA           00521     addwfc      FSR2H, F, ACCESS
00140E 68DF           00522     setf        INDF2, ACCESS
001410 2A58           00523     incf        i2c_coeff_3, F, ACCESS
001412 0E1D           00524     movlw       0x1D
001414 6458           00525     cpfsgt      i2c_coeff_3, ACCESS
001416 D7F5           00526     bra         flow_hid_command_dispatch_1402
001418 6A58           00527     clrf        i2c_coeff_3, ACCESS
00141A                00528 flow_hid_command_dispatch_141a:
00141A 0E00           00529     movlw       0x00
00141C 2458           00530     addwf       i2c_coeff_3, W, ACCESS
00141E 6ED9           00531     movwf       FSR2L, ACCESS
001420 6ADA           00532     clrf        FSR2H, ACCESS
001422 0E01           00533     movlw       0x01
gpasm-1.5.2 #1325 (Jan 30 2022) src/dlcp_fw/a   03/29/2026  18:21:48        PAGE 18


LOC    OBJECT CODE    LINE  SOURCE TEXT
  VALUE

001424 22DA           00534     addwfc      FSR2H, F, ACCESS
001426 68DF           00535     setf        INDF2, ACCESS
001428 2A58           00536     incf        i2c_coeff_3, F, ACCESS
00142A 0E0E           00537     movlw       0x0E
00142C 6458           00538     cpfsgt      i2c_coeff_3, ACCESS
00142E D7F5           00539     bra         flow_hid_command_dispatch_141a
001430 0100           00540     movlb       0x0
001432 81BD           00541     bsf         ram_0x0BD, 0, BANKED
001434 8BBD           00542     bsf         ram_0x0BD, 5, BANKED
001436 89BD           00543     bsf         ram_0x0BD, 4, BANKED
001438 83BD           00544     bsf         ram_0x0BD, 1, BANKED
00143A 85BD           00545     bsf         ram_0x0BD, 2, BANKED
00143C 87BD           00546     bsf         ram_0x0BD, 3, BANKED
00143E 817E           00547     bsf         event_flags, 0, BANKED
001440 EC32 F013      00548     call        main_core_service_265c, 0x0
001444 6A08           00549     clrf        ram_0x008, ACCESS
001446 6807           00550     setf        ram_0x007, ACCESS
001448 0E00           00551     movlw       0x00
00144A 6A09           00552     clrf        ram_0x009, ACCESS
00144C ECBC F023      00553     call        main_flash_service_46de, 0x0
001450 ECC3 F024      00554     call        hard_reset, 0x0
001454 D0AA           00555     bra         flow_hid_command_dispatch_15aa
001456                00556 fw_update_init_sequence:
001456 0100           00557     movlb       0x0
001458 67CB           00558     tstfsz      ram_0x0CB, BANKED
00145A D050           00559     bra         flow_hid_command_dispatch_14fc
00145C 6B7C           00560     clrf        ram_0x07C, BANKED
00145E 6B7D           00561     clrf        ram_0x07D, BANKED
001460 6B80           00562     clrf        ram_0x080, BANKED
001462 6B81           00563     clrf        ram_0x081, BANKED
001464 6B86           00564     clrf        ram_0x086, BANKED
001466 6B87           00565     clrf        ram_0x087, BANKED
001468 6B84           00566     clrf        ram_0x084, BANKED
00146A 6B85           00567     clrf        ram_0x085, BANKED
00146C 0101           00568     movlb       0x1
00146E 0E01           00569     movlw       0x01
001470 6E04           00570     movwf       ram_0x004, ACCESS
001472 0EC7           00571     movlw       0xC7
001474 6E03           00572     movwf       ram_0x003, ACCESS
001476 0E0A           00573     movlw       0x0A
001478 6E05           00574     movwf       ram_0x005, ACCESS
00147A ECEC F023      00575     call        ram_block_clear, 0x0
00147E 0101           00576     movlb       0x1
001480 0E01           00577     movlw       0x01
001482 6E04           00578     movwf       ram_0x004, ACCESS
001484 0E9A           00579     movlw       0x9A
001486 6E03           00580     movwf       ram_0x003, ACCESS
001488 0E2D           00581     movlw       0x2D
00148A 6E05           00582     movwf       ram_0x005, ACCESS
00148C ECEC F023      00583     call        ram_block_clear, 0x0
001490 0101           00584     movlb       0x1
001492 0E01           00585     movlw       0x01
001494 6E04           00586     movwf       ram_0x004, ACCESS
gpasm-1.5.2 #1325 (Jan 30 2022) src/dlcp_fw/a   03/29/2026  18:21:48        PAGE 19


LOC    OBJECT CODE    LINE  SOURCE TEXT
  VALUE

001496 0ED1           00587     movlw       0xD1
001498 6E03           00588     movwf       ram_0x003, ACCESS
00149A 0E08           00589     movlw       0x08
00149C 6E05           00590     movwf       ram_0x005, ACCESS
00149E ECEC F023      00591     call        ram_block_clear, 0x0
0014A2 EC74 F024      00592     call        factory_reset_status_emit, 0x0
0014A6 0E05           00593     movlw       0x05
0014A8 6E06           00594     movwf       ram_0x006, ACCESS
0014AA 0EDC           00595     movlw       0xDC
0014AC 6E05           00596     movwf       ram_0x005, ACCESS
0014AE 0101           00597     movlb       0x1
0014B0 0E01           00598     movlw       0x01
0014B2 6E08           00599     movwf       ram_0x008, ACCESS
0014B4 0ED1           00600     movlw       0xD1
0014B6 6E07           00601     movwf       ram_0x007, ACCESS
0014B8 0E08           00602     movlw       0x08
0014BA 6E09           00603     movwf       ram_0x009, ACCESS
0014BC EC65 F01D      00604     call        uart_rx_with_framing, 0x0
0014C0 6E4C           00605     movwf       ram_0x04C, ACCESS
0014C2 0E05           00606     movlw       0x05
0014C4 5C4C           00607     subwf       ram_0x04C, W, ACCESS
0014C6 E319           00608     bnc         flow_hid_command_dispatch_14fa
0014C8 0E01           00609     movlw       0x01
Message[1302]: RAM Bank undefined in this chunk of code. Ensure that bank bits are correct. Assuming bank 0 from now on.
0014CA 6FCB           00610     movwf       ram_0x0CB, BANKED
0014CC 6A58           00611     clrf        i2c_coeff_3, ACCESS
0014CE                00612 flow_hid_command_dispatch_14ce:
0014CE 5058           00613     movf        i2c_coeff_3, W, ACCESS
0014D0 0F4D           00614     addlw       0x4D
0014D2 6ED9           00615     movwf       FSR2L, ACCESS
0014D4 6ADA           00616     clrf        FSR2H, ACCESS
0014D6 50DF           00617     movf        INDF2, W, ACCESS
0014D8 6E4C           00618     movwf       ram_0x04C, ACCESS
0014DA 0ED1           00619     movlw       0xD1
0014DC 2458           00620     addwf       i2c_coeff_3, W, ACCESS
0014DE 6ED9           00621     movwf       FSR2L, ACCESS
0014E0 6ADA           00622     clrf        FSR2H, ACCESS
0014E2 0E01           00623     movlw       0x01
0014E4 22DA           00624     addwfc      FSR2H, F, ACCESS
0014E6 50DF           00625     movf        INDF2, W, ACCESS
0014E8 184C           00626     xorwf       ram_0x04C, W, ACCESS
0014EA E002           00627     bz          flow_hid_command_dispatch_14f0
0014EC 0100           00628     movlb       0x0
0014EE 6BCB           00629     clrf        ram_0x0CB, BANKED
0014F0                00630 flow_hid_command_dispatch_14f0:
0014F0 2A58           00631     incf        i2c_coeff_3, F, ACCESS
0014F2 0E05           00632     movlw       0x05
0014F4 6458           00633     cpfsgt      i2c_coeff_3, ACCESS
0014F6 D7EB           00634     bra         flow_hid_command_dispatch_14ce
0014F8 D001           00635     bra         flow_hid_command_dispatch_14fc
0014FA                00636 flow_hid_command_dispatch_14fa:
Message[1302]: RAM Bank undefined in this chunk of code. Ensure that bank bits are correct. Assuming bank 0 from now on.
0014FA 6BCB           00637     clrf        ram_0x0CB, BANKED
gpasm-1.5.2 #1325 (Jan 30 2022) src/dlcp_fw/a   03/29/2026  18:21:48        PAGE 20


LOC    OBJECT CODE    LINE  SOURCE TEXT
  VALUE

0014FC                00638 flow_hid_command_dispatch_14fc:
0014FC 0100           00639     movlb       0x0
0014FE 51CB           00640     movf        ram_0x0CB, W, BANKED
001500 E101           00641     bnz         flow_hid_command_dispatch_1504
001502 D763           00642     bra         flow_hid_command_dispatch_13ca
001504                00643 flow_hid_command_dispatch_1504:
001504 ECE7 F00A      00644     call        fw_update_relay, 0x0
001508 D760           00645     bra         flow_hid_command_dispatch_13ca
00150A                00646 flow_hid_command_dispatch_150a:
00150A C11E F056      00647     movff       ram_0x11E, i2c_coeff_1
00150E C11F F055      00648     movff       ram_0x11F, i2c_coeff_0
001512 C057 F0C1      00649     movff       i2c_coeff_2, ram_0x0C1
001516 EC98 F011      00650     call        main_core_service_2328, 0x0
Message[1302]: RAM Bank undefined in this chunk of code. Ensure that bank bits are correct. Assuming bank 0 from now on.
00151A 517D           00651     movf        ram_0x07D, W, BANKED
00151C 1856           00652     xorwf       i2c_coeff_1, W, ACCESS
00151E E102           00653     bnz         flow_hid_command_dispatch_1524
001520 517C           00654     movf        ram_0x07C, W, BANKED
001522 1855           00655     xorwf       i2c_coeff_0, W, ACCESS
001524                00656 flow_hid_command_dispatch_1524:
001524 E106           00657     bnz         flow_hid_command_dispatch_1532
001526 EC85 F023      00658     call        main_core_service_4672, 0x0
00152A 0EAA           00659     movlw       0xAA
00152C 0101           00660     movlb       0x1
00152E 6F5C           00661     movwf       ram_0x05C, BANKED
001530 D03C           00662     bra         flow_hid_command_dispatch_15aa
001532                00663 flow_hid_command_dispatch_1532:
001532 0E11           00664     movlw       0x11
001534 0101           00665     movlb       0x1
001536 6F5B           00666     movwf       ram_0x05B, BANKED
001538 0100           00667     movlb       0x0
00153A 6B84           00668     clrf        ram_0x084, BANKED
00153C 6B85           00669     clrf        ram_0x085, BANKED
00153E 6B80           00670     clrf        ram_0x080, BANKED
001540 6B81           00671     clrf        ram_0x081, BANKED
001542 6B86           00672     clrf        ram_0x086, BANKED
001544 6B87           00673     clrf        ram_0x087, BANKED
001546 6B7C           00674     clrf        ram_0x07C, BANKED
001548 6B7D           00675     clrf        ram_0x07D, BANKED
00154A D02F           00676     bra         flow_hid_command_dispatch_15aa
00154C                00677 flow_hid_command_dispatch_154c:
00154C 0101           00678     movlb       0x1
00154E 6B1A           00679     clrf        ram_0x01A, BANKED
001550 D02C           00680     bra         flow_hid_command_dispatch_15aa
001552                00681 hid_cmd_xor_dispatch:
001552 5057           00682     movf        i2c_coeff_2, W, ACCESS
001554 0A01           00683     xorlw       0x01
001556 E029           00684     bz          flow_hid_command_dispatch_15aa
001558 0A03           00685     xorlw       0x03
00155A E027           00686     bz          flow_hid_command_dispatch_15aa
00155C 0A01           00687     xorlw       0x01
00155E E101           00688     bnz         flow_hid_command_dispatch_1562
001560 D5B7           00689     bra         flow_hid_command_dispatch_10d0
gpasm-1.5.2 #1325 (Jan 30 2022) src/dlcp_fw/a   03/29/2026  18:21:48        PAGE 21


LOC    OBJECT CODE    LINE  SOURCE TEXT
  VALUE

001562                00690 flow_hid_command_dispatch_1562:
001562 0A07           00691     xorlw       0x07
001564 E101           00692     bnz         flow_hid_command_dispatch_1568
001566 D5E6           00693     bra         flow_hid_command_dispatch_1134
001568                00694 flow_hid_command_dispatch_1568:
001568 0A01           00695     xorlw       0x01
00156A E101           00696     bnz         flow_hid_command_dispatch_156e
00156C D630           00697     bra         flow_hid_command_dispatch_11ce
00156E                00698 flow_hid_command_dispatch_156e:
00156E 0A03           00699     xorlw       0x03
001570 E101           00700     bnz         flow_hid_command_dispatch_1574
001572 D702           00701     bra         flow_hid_command_dispatch_1378
001574                00702 flow_hid_command_dispatch_1574:
001574 0A01           00703     xorlw       0x01
001576 E101           00704     bnz         flow_hid_command_dispatch_157a
001578 D714           00705     bra         flow_hid_command_dispatch_13a2
00157A                00706 flow_hid_command_dispatch_157a:
00157A 0A0F           00707     xorlw       0x0F
00157C E101           00708     bnz         flow_hid_command_dispatch_1580
00157E D711           00709     bra         flow_hid_command_dispatch_13a2
001580                00710 flow_hid_command_dispatch_1580:
001580 0A01           00711     xorlw       0x01
001582 E101           00712     bnz         flow_hid_command_dispatch_1586
001584 D70E           00713     bra         flow_hid_command_dispatch_13a2
001586                00714 flow_hid_command_dispatch_1586:
001586 0A03           00715     xorlw       0x03
001588 E101           00716     bnz         flow_hid_command_dispatch_158c
00158A D70B           00717     bra         flow_hid_command_dispatch_13a2
00158C                00718 flow_hid_command_dispatch_158c:
00158C 0A01           00719     xorlw       0x01
00158E E101           00720     bnz         flow_hid_command_dispatch_1592
001590 D708           00721     bra         flow_hid_command_dispatch_13a2
001592                00722 flow_hid_command_dispatch_1592:
001592 0A07           00723     xorlw       0x07
001594 E101           00724     bnz         flow_hid_command_dispatch_1598
001596 D700           00725     bra         flow_hid_command_dispatch_1398
001598                00726 flow_hid_command_dispatch_1598:
001598 0A4C           00727     xorlw       0x4C
00159A E101           00728     bnz         flow_hid_command_dispatch_159e
00159C D719           00729     bra         flow_hid_command_dispatch_13d0
00159E                00730 flow_hid_command_dispatch_159e:
00159E 0A01           00731     xorlw       0x01
0015A0 E0B4           00732     bz          flow_hid_command_dispatch_150a
0015A2 0A03           00733     xorlw       0x03
0015A4 E101           00734     bnz         flow_hid_command_dispatch_15a8
0015A6 D757           00735     bra         fw_update_init_sequence
0015A8                00736 flow_hid_command_dispatch_15a8:
0015A8 D7D1           00737     bra         flow_hid_command_dispatch_154c
0015AA                00738 flow_hid_command_dispatch_15aa:
0015AA 0101           00739     movlb       0x1
0015AC 6B1A           00740     clrf        ram_0x01A, BANKED
0015AE 0012           00741     return      0
                      00742 
gpasm-1.5.2 #1325 (Jan 30 2022) src/dlcp_fw/a   03/29/2026  18:21:48        PAGE 22


LOC    OBJECT CODE    LINE  SOURCE TEXT
  VALUE

                      00743 
                      00744 ; ---------------------------------------------------------------------------
                      00745 ; Function: main_core_service_15b0
                      00746 ; Address : 0x15B0
                      00747 ; Notes   : Inferred core helper routine.
                      00748 ; ---------------------------------------------------------------------------
0015B0                00749 main_core_service_15b0:
0015B0 0E1A           00750     movlw       0x1A
0015B2 2458           00751     addwf       i2c_coeff_3, W, ACCESS
0015B4 6ED9           00752     movwf       FSR2L, ACCESS
0015B6 6ADA           00753     clrf        FSR2H, ACCESS
0015B8 0E01           00754     movlw       0x01
0015BA 22DA           00755     addwfc      FSR2H, F, ACCESS
0015BC 0012           00756     return      0
                      00757 
                      00758 
                      00759 ; ---------------------------------------------------------------------------
                      00760 ; Function: main_core_service_15be
                      00761 ; Address : 0x15BE
                      00762 ; Notes   : Inferred core helper routine.
                      00763 ; ---------------------------------------------------------------------------
0015BE                00764 main_core_service_15be:
0015BE 0EBE           00765     movlw       0xBE
0015C0 2458           00766     addwf       i2c_coeff_3, W, ACCESS
0015C2 6ED9           00767     movwf       FSR2L, ACCESS
0015C4 6ADA           00768     clrf        FSR2H, ACCESS
0015C6 0E02           00769     movlw       0x02
0015C8 22DA           00770     addwfc      FSR2H, F, ACCESS
0015CA 68DF           00771     setf        INDF2, ACCESS
0015CC 0012           00772     return      0
                      00773 
                      00774 ; ---------------------------------------------------------------------------
                      00775 ; Function: fw_update_relay
                      00776 ; Address : 0x15CE
                      00777 ; Notes   : Inferred flash helper; touches flash. Calls: main_uart_service_43a2, uart_tx_byte_blocking, 
                            uart_rx_with_framing.
                      00778 ; ---------------------------------------------------------------------------
0015CE                00779 fw_update_relay:
0015CE EE21 F0E5      00780     lfsr        FSR2, 0x01E5
0015D2 EE10 F01D      00781     lfsr        FSR1, 0x001D
0015D6 0E08           00782     movlw       0x08
0015D8                00783 flow_fw_update_relay_15d8:
0015D8 CFDE FFE6      00784     movff       POSTINC2, POSTINC1
0015DC 2EE8           00785     decfsz      WREG, F, ACCESS
0015DE D7FC           00786     bra         flow_fw_update_relay_15d8
0015E0 0E02           00787     movlw       0x02
0015E2 6E49           00788     movwf       ram_0x049, ACCESS
0015E4                00789 flow_fw_update_relay_15e4:
0015E4 0E1A           00790     movlw       0x1A
0015E6 2449           00791     addwf       ram_0x049, W, ACCESS
0015E8 6ED9           00792     movwf       FSR2L, ACCESS
0015EA 6ADA           00793     clrf        FSR2H, ACCESS
0015EC 0E01           00794     movlw       0x01
gpasm-1.5.2 #1325 (Jan 30 2022) src/dlcp_fw/a   03/29/2026  18:21:48        PAGE 23


LOC    OBJECT CODE    LINE  SOURCE TEXT
  VALUE

0015EE 22DA           00795     addwfc      FSR2H, F, ACCESS
0015F0 50DF           00796     movf        INDF2, W, ACCESS
0015F2 6E4A           00797     movwf       ram_0x04A, ACCESS
0015F4 0EC0           00798     movlw       0xC0
0015F6 0100           00799     movlb       0x0
0015F8 5D84           00800     subwf       ram_0x084, W, BANKED
0015FA 0E77           00801     movlw       0x77
0015FC 5985           00802     subwfb      ram_0x085, W, BANKED
0015FE E21A           00803     bc          flow_fw_update_relay_1634
001600 C04A F045      00804     movff       ram_0x04A, ram_0x045
001604 6A48           00805     clrf        ram_0x048, ACCESS
001606                00806 flow_fw_update_relay_1606:
001606 AB7D           00807     btfss       ram_0x07D, 5, BANKED
001608 D003           00808     bra         flow_fw_update_relay_1610
00160A 0E01           00809     movlw       0x01
00160C 6E44           00810     movwf       ram_0x044, ACCESS
00160E D001           00811     bra         flow_fw_update_relay_1612
001610                00812 flow_fw_update_relay_1610:
001610 6A44           00813     clrf        ram_0x044, ACCESS
001612                00814 flow_fw_update_relay_1612:
001612 90D8           00815     bcf         STATUS, 0, ACCESS
Message[1302]: RAM Bank undefined in this chunk of code. Ensure that bank bits are correct. Assuming bank 0 from now on.
001614 377C           00816     rlcf        ram_0x07C, F, BANKED
001616 377D           00817     rlcf        ram_0x07D, F, BANKED
001618 B045           00818     btfsc       ram_0x045, 0, ACCESS
00161A 817C           00819     bsf         ram_0x07C, 0, BANKED
00161C 90D8           00820     bcf         STATUS, 0, ACCESS
00161E 3245           00821     rrcf        ram_0x045, F, ACCESS
001620 5044           00822     movf        ram_0x044, W, ACCESS
001622 E004           00823     bz          flow_fw_update_relay_162c
001624 0E02           00824     movlw       0x02
001626 1B7C           00825     xorwf       ram_0x07C, F, BANKED
001628 0E44           00826     movlw       0x44
00162A 1B7D           00827     xorwf       ram_0x07D, F, BANKED
00162C                00828 flow_fw_update_relay_162c:
00162C 2A48           00829     incf        ram_0x048, F, ACCESS
00162E 0E07           00830     movlw       0x07
001630 6448           00831     cpfsgt      ram_0x048, ACCESS
001632 D7E9           00832     bra         flow_fw_update_relay_1606
001634                00833 flow_fw_update_relay_1634:
001634 0E40           00834     movlw       0x40
Message[1302]: RAM Bank undefined in this chunk of code. Ensure that bank bits are correct. Assuming bank 0 from now on.
001636 5D84           00835     subwf       ram_0x084, W, BANKED
001638 0E00           00836     movlw       0x00
00163A 5985           00837     subwfb      ram_0x085, W, BANKED
00163C E201           00838     bc          flow_fw_update_relay_1640
00163E D148           00839     bra         flow_fw_update_relay_18d0
001640                00840 flow_fw_update_relay_1640:
001640 0EC0           00841     movlw       0xC0
Message[1302]: RAM Bank undefined in this chunk of code. Ensure that bank bits are correct. Assuming bank 0 from now on.
001642 5D84           00842     subwf       ram_0x084, W, BANKED
001644 0E77           00843     movlw       0x77
001646 5985           00844     subwfb      ram_0x085, W, BANKED
gpasm-1.5.2 #1325 (Jan 30 2022) src/dlcp_fw/a   03/29/2026  18:21:48        PAGE 24


LOC    OBJECT CODE    LINE  SOURCE TEXT
  VALUE

001648 E301           00845     bnc         flow_fw_update_relay_164c
00164A D142           00846     bra         flow_fw_update_relay_18d0
00164C                00847 flow_fw_update_relay_164c:
00164C 0E0F           00848     movlw       0x0F
Message[1302]: RAM Bank undefined in this chunk of code. Ensure that bank bits are correct. Assuming bank 0 from now on.
00164E 1584           00849     andwf       ram_0x084, W, BANKED
001650 6F8A           00850     movwf       ram_0x08A, BANKED
001652 6B8B           00851     clrf        ram_0x08B, BANKED
001654 118B           00852     iorwf       ram_0x08B, W, BANKED
001656 E001           00853     bz          flow_fw_update_relay_165a
001658 D0EA           00854     bra         flow_fw_update_relay_182e
00165A                00855 flow_fw_update_relay_165a:
Message[1302]: RAM Bank undefined in this chunk of code. Ensure that bank bits are correct. Assuming bank 0 from now on.
00165A 5187           00856     movf        ram_0x087, W, BANKED
00165C 1186           00857     iorwf       ram_0x086, W, BANKED
00165E E101           00858     bnz         flow_fw_update_relay_1662
001660 D09D           00859     bra         flow_fw_update_relay_179c
001662                00860 flow_fw_update_relay_1662:
Message[1302]: RAM Bank undefined in this chunk of code. Ensure that bank bits are correct. Assuming bank 0 from now on.
001662 5186           00861     movf        ram_0x086, W, BANKED
001664 2780           00862     addwf       ram_0x080, F, BANKED
001666 0E00           00863     movlw       0x00
001668 2381           00864     addwfc      ram_0x081, F, BANKED
00166A 5187           00865     movf        ram_0x087, W, BANKED
00166C 2780           00866     addwf       ram_0x080, F, BANKED
00166E 0E00           00867     movlw       0x00
001670 2381           00868     addwfc      ram_0x081, F, BANKED
001672 1D80           00869     comf        ram_0x080, W, BANKED
001674 6E1B           00870     movwf       ram_0x01B, ACCESS
001676 1D81           00871     comf        ram_0x081, W, BANKED
001678 6E1C           00872     movwf       ram_0x01C, ACCESS
00167A 0EF1           00873     movlw       0xF1
00167C 241B           00874     addwf       ram_0x01B, W, ACCESS
00167E 6F80           00875     movwf       ram_0x080, BANKED
001680 0EFF           00876     movlw       0xFF
001682 201C           00877     addwfc      ram_0x01C, W, ACCESS
001684 6F81           00878     movwf       ram_0x081, BANKED
001686 5180           00879     movf        ram_0x080, W, BANKED
001688 EC12 F022      00880     call        main_uart_service_43a2, 0x0
00168C 0E0D           00881     movlw       0x0D
00168E EC98 F024      00882     call        uart_tx_byte_blocking, 0x0
001692 0E0A           00883     movlw       0x0A
001694 EC98 F024      00884     call        uart_tx_byte_blocking, 0x0
001698 C080 F01B      00885     movff       ram_0x080, ram_0x01B
00169C 3A1B           00886     swapf       ram_0x01B, F, ACCESS
00169E 0E0F           00887     movlw       0x0F
0016A0 161B           00888     andwf       ram_0x01B, F, ACCESS
0016A2 161B           00889     andwf       ram_0x01B, F, ACCESS
0016A4 501B           00890     movf        ram_0x01B, W, ACCESS
0016A6 0F19           00891     addlw       LOW(hex_lookup_table)               ; indexed TBLPTR -> hex_lookup_table
0016A8 6EF6           00892     movwf       TBLPTRL, ACCESS
0016AA 0E10           00893     movlw       HIGH(hex_lookup_table)
0016AC 6EF7           00894     movwf       TBLPTRH, ACCESS
gpasm-1.5.2 #1325 (Jan 30 2022) src/dlcp_fw/a   03/29/2026  18:21:48        PAGE 25


LOC    OBJECT CODE    LINE  SOURCE TEXT
  VALUE

0016AE 0E9A           00895     movlw       0x9A
0016B0 244B           00896     addwf       ram_0x04B, W, ACCESS
0016B2 6ED9           00897     movwf       FSR2L, ACCESS
0016B4 6ADA           00898     clrf        FSR2H, ACCESS
0016B6 0E01           00899     movlw       0x01
0016B8 22DA           00900     addwfc      FSR2H, F, ACCESS
0016BA 0008           00901     tblrd*
0016BC CFF5 FFDF      00902     movff       TABLAT, INDF2
0016C0 C080 F01B      00903     movff       ram_0x080, ram_0x01B
0016C4 0E0F           00904     movlw       0x0F
0016C6 161B           00905     andwf       ram_0x01B, F, ACCESS
0016C8 501B           00906     movf        ram_0x01B, W, ACCESS
0016CA 0F19           00907     addlw       LOW(hex_lookup_table)               ; indexed TBLPTR -> hex_lookup_table
0016CC 6EF6           00908     movwf       TBLPTRL, ACCESS
0016CE 0E10           00909     movlw       HIGH(hex_lookup_table)
0016D0 6EF7           00910     movwf       TBLPTRH, ACCESS
0016D2 0E9B           00911     movlw       0x9B
0016D4 244B           00912     addwf       ram_0x04B, W, ACCESS
0016D6 6ED9           00913     movwf       FSR2L, ACCESS
0016D8 6ADA           00914     clrf        FSR2H, ACCESS
0016DA 0E01           00915     movlw       0x01
0016DC 22DA           00916     addwfc      FSR2H, F, ACCESS
0016DE 0008           00917     tblrd*
0016E0 CFF5 FFDF      00918     movff       TABLAT, INDF2
0016E4 0E9C           00919     movlw       0x9C
0016E6 244B           00920     addwf       ram_0x04B, W, ACCESS
0016E8 6ED9           00921     movwf       FSR2L, ACCESS
0016EA 6ADA           00922     clrf        FSR2H, ACCESS
0016EC 0E01           00923     movlw       0x01
0016EE 22DA           00924     addwfc      FSR2H, F, ACCESS
0016F0 6ADF           00925     clrf        INDF2, ACCESS
0016F2 0E02           00926     movlw       0x02
0016F4 264B           00927     addwf       ram_0x04B, F, ACCESS
0016F6 0100           00928     movlb       0x0
0016F8 6B9F           00929     clrf        ram_0x09F, BANKED
0016FA                00930 flow_fw_update_relay_16fa:
0016FA 6A06           00931     clrf        ram_0x006, ACCESS
0016FC 0E0A           00932     movlw       0x0A
0016FE 6E05           00933     movwf       ram_0x005, ACCESS
001700 0101           00934     movlb       0x1
001702 0E01           00935     movlw       0x01
001704 6E08           00936     movwf       ram_0x008, ACCESS
001706 0EC7           00937     movlw       0xC7
001708 6E07           00938     movwf       ram_0x007, ACCESS
00170A 0E0A           00939     movlw       0x0A
00170C 6E09           00940     movwf       ram_0x009, ACCESS
00170E EC65 F01D      00941     call        uart_rx_with_framing, 0x0
001712 C1C8 F003      00942     movff       ram_0x1C8, ram_0x003
001716 0101           00943     movlb       0x1
001718 51C7           00944     movf        rx_ring_wr, W, BANKED
00171A ECEF F01F      00945     call        intel_hex_checksum_update, 0x0
00171E 0100           00946     movlb       0x0
001720 1980           00947     xorwf       ram_0x080, W, BANKED
gpasm-1.5.2 #1325 (Jan 30 2022) src/dlcp_fw/a   03/29/2026  18:21:48        PAGE 26


LOC    OBJECT CODE    LINE  SOURCE TEXT
  VALUE

001722 E103           00948     bnz         flow_fw_update_relay_172a
001724 0E01           00949     movlw       0x01
001726 6E43           00950     movwf       ram_0x043, ACCESS
001728 D036           00951     bra         flow_fw_update_relay_1796
00172A                00952 flow_fw_update_relay_172a:
00172A 6A43           00953     clrf        ram_0x043, ACCESS
00172C 6A19           00954     clrf        ram_0x019, ACCESS
00172E 0E1D           00955     movlw       0x1D
001730 6E18           00956     movwf       ram_0x018, ACCESS
001732 EC97 F023      00957     call        uart_tx_block_from_buffer, 0x0
001736 0100           00958     movlb       0x0
001738 C09F F012      00959     movff       ram_0x09F, ram_0x012
00173C 6A13           00960     clrf        ram_0x013, ACCESS
00173E 6A15           00961     clrf        ram_0x015, ACCESS
001740 0E0A           00962     movlw       0x0A
001742 6E14           00963     movwf       ram_0x014, ACCESS
001744 0E25           00964     movlw       0x25
001746 EC1B F021      00965     call        main_core_service_41b6, 0x0
00174A 6E1B           00966     movwf       ram_0x01B, ACCESS
00174C 6A19           00967     clrf        ram_0x019, ACCESS
00174E C01B F018      00968     movff       ram_0x01B, ram_0x018
001752 EC97 F023      00969     call        uart_tx_block_from_buffer, 0x0
001756 0E21           00970     movlw       0x21
001758 EC98 F024      00971     call        uart_tx_byte_blocking, 0x0
00175C EC7D F024      00972     call        main_uart_service_4860, 0x0
001760 0E0D           00973     movlw       0x0D
001762 EC98 F024      00974     call        uart_tx_byte_blocking, 0x0
001766 0E0A           00975     movlw       0x0A
001768 EC98 F024      00976     call        uart_tx_byte_blocking, 0x0
00176C 0E19           00977     movlw       0x19
00176E 0100           00978     movlb       0x0
001770 5D9F           00979     subwf       ram_0x09F, W, BANKED
001772 E20F           00980     bc          flow_fw_update_relay_1792
001774 2B9F           00981     incf        ram_0x09F, F, BANKED
001776 0101           00982     movlb       0x1
001778 0E01           00983     movlw       0x01
00177A 6E19           00984     movwf       ram_0x019, ACCESS
00177C 0E9A           00985     movlw       0x9A
00177E 6E18           00986     movwf       ram_0x018, ACCESS
001780 EC97 F023      00987     call        uart_tx_block_from_buffer, 0x0
001784 0E0D           00988     movlw       0x0D
001786 EC98 F024      00989     call        uart_tx_byte_blocking, 0x0
00178A 0E0A           00990     movlw       0x0A
00178C EC98 F024      00991     call        uart_tx_byte_blocking, 0x0
001790 D002           00992     bra         flow_fw_update_relay_1796
001792                00993 flow_fw_update_relay_1792:
Message[1302]: RAM Bank undefined in this chunk of code. Ensure that bank bits are correct. Assuming bank 0 from now on.
001792 2B9F           00994     incf        ram_0x09F, F, BANKED
001794 D0A3           00995     bra         flow_fw_update_relay_18dc
001796                00996 flow_fw_update_relay_1796:
001796 5043           00997     movf        ram_0x043, W, ACCESS
001798 E102           00998     bnz         flow_fw_update_relay_179e
00179A D7AF           00999     bra         flow_fw_update_relay_16fa
gpasm-1.5.2 #1325 (Jan 30 2022) src/dlcp_fw/a   03/29/2026  18:21:48        PAGE 27


LOC    OBJECT CODE    LINE  SOURCE TEXT
  VALUE

00179C                01000 flow_fw_update_relay_179c:
Message[1302]: RAM Bank undefined in this chunk of code. Ensure that bank bits are correct. Assuming bank 0 from now on.
00179C 6B8E           01001     clrf        ram_0x08E, BANKED
00179E                01002 flow_fw_update_relay_179e:
00179E 0EBF           01003     movlw       0xBF
0017A0 0100           01004     movlb       0x0
0017A2 5D84           01005     subwf       ram_0x084, W, BANKED
0017A4 0E77           01006     movlw       0x77
0017A6 5985           01007     subwfb      ram_0x085, W, BANKED
0017A8 E242           01008     bc          flow_fw_update_relay_182e
0017AA 0E04           01009     movlw       0x04
0017AC 5D8E           01010     subwf       ram_0x08E, W, BANKED
0017AE E206           01011     bc          flow_fw_update_relay_17bc
0017B0 2B8E           01012     incf        ram_0x08E, F, BANKED
0017B2 6A04           01013     clrf        ram_0x004, ACCESS
0017B4 0E0A           01014     movlw       0x0A
0017B6 6E03           01015     movwf       ram_0x003, ACCESS
0017B8 EC80 F022      01016     call        timer3_blocking_delay, 0x0
0017BC                01017 flow_fw_update_relay_17bc:
0017BC C084 F086      01018     movff       ram_0x084, ram_0x086
0017C0 C085 F087      01019     movff       ram_0x085, ram_0x087
0017C4 0E3A           01020     movlw       0x3A
0017C6 0101           01021     movlb       0x1
0017C8 6F9A           01022     movwf       ram_0x09A, BANKED
0017CA 0E31           01023     movlw       0x31
0017CC 6F9B           01024     movwf       ram_0x09B, BANKED
0017CE 0E30           01025     movlw       0x30
0017D0 6F9C           01026     movwf       ram_0x09C, BANKED
0017D2 C087 F01B      01027     movff       ram_0x087, ram_0x01B
0017D6 3A1B           01028     swapf       ram_0x01B, F, ACCESS
0017D8 0E0F           01029     movlw       0x0F
0017DA 161B           01030     andwf       ram_0x01B, F, ACCESS
0017DC D880           01031     rcall       nibble_to_hex_ascii
0017DE CFF5 F19D      01032     movff       TABLAT, ram_0x19D
0017E2 C087 F01B      01033     movff       ram_0x087, ram_0x01B
0017E6 0E0F           01034     movlw       0x0F
0017E8 D87A           01035     rcall       nibble_to_hex_ascii
0017EA CFF5 F19E      01036     movff       TABLAT, ram_0x19E
0017EE C086 F01B      01037     movff       ram_0x086, ram_0x01B
0017F2 3A1B           01038     swapf       ram_0x01B, F, ACCESS
0017F4 0E0F           01039     movlw       0x0F
0017F6 161B           01040     andwf       ram_0x01B, F, ACCESS
0017F8 D872           01041     rcall       nibble_to_hex_ascii
0017FA CFF5 F19F      01042     movff       TABLAT, ram_0x19F
0017FE C086 F01B      01043     movff       ram_0x086, ram_0x01B
001802 0E0F           01044     movlw       0x0F
001804 D86C           01045     rcall       nibble_to_hex_ascii
001806 CFF5 F1A0      01046     movff       TABLAT, ram_0x1A0
00180A 0E30           01047     movlw       0x30
Message[1302]: RAM Bank undefined in this chunk of code. Ensure that bank bits are correct. Assuming bank 0 from now on.
00180C 6FA1           01048     movwf       ram_0x0A1, BANKED
00180E 6FA2           01049     movwf       ram_0x0A2, BANKED
001810 6BA3           01050     clrf        ram_0x0A3, BANKED
gpasm-1.5.2 #1325 (Jan 30 2022) src/dlcp_fw/a   03/29/2026  18:21:48        PAGE 28


LOC    OBJECT CODE    LINE  SOURCE TEXT
  VALUE

001812 0E09           01051     movlw       0x09
001814 6E4B           01052     movwf       ram_0x04B, ACCESS
001816 EC7D F024      01053     call        main_uart_service_4860, 0x0
00181A 0101           01054     movlb       0x1
00181C 0E01           01055     movlw       0x01
00181E 6E19           01056     movwf       ram_0x019, ACCESS
001820 0E9A           01057     movlw       0x9A
001822 6E18           01058     movwf       ram_0x018, ACCESS
001824 EC97 F023      01059     call        uart_tx_block_from_buffer, 0x0
001828 0100           01060     movlb       0x0
00182A 6B80           01061     clrf        ram_0x080, BANKED
00182C 6B81           01062     clrf        ram_0x081, BANKED
00182E                01063 flow_fw_update_relay_182e:
00182E 0EBF           01064     movlw       0xBF
001830 5D84           01065     subwf       ram_0x084, W, BANKED
001832 0E77           01066     movlw       0x77
001834 5985           01067     subwfb      ram_0x085, W, BANKED
001836 E24A           01068     bc          flow_fw_update_relay_18cc
001838 A184           01069     btfss       ram_0x084, 0, BANKED
00183A D040           01070     bra         flow_fw_update_relay_18bc
00183C C046 F01B      01071     movff       ram_0x046, ram_0x01B
001840 3A1B           01072     swapf       ram_0x01B, F, ACCESS
001842 0E0F           01073     movlw       0x0F
001844 161B           01074     andwf       ram_0x01B, F, ACCESS
001846 D84B           01075     rcall       nibble_to_hex_ascii
001848 CFF5 F02F      01076     movff       TABLAT, ram_0x02F
00184C C046 F01B      01077     movff       ram_0x046, ram_0x01B
001850 0E0F           01078     movlw       0x0F
001852 D845           01079     rcall       nibble_to_hex_ascii
001854 CFF5 F030      01080     movff       TABLAT, ram_0x030
001858 C04A F01B      01081     movff       ram_0x04A, ram_0x01B
00185C 3A1B           01082     swapf       ram_0x01B, F, ACCESS
00185E 0E0F           01083     movlw       0x0F
001860 161B           01084     andwf       ram_0x01B, F, ACCESS
001862 D83D           01085     rcall       nibble_to_hex_ascii
001864 CFF5 F031      01086     movff       TABLAT, ram_0x031
001868 C04A F01B      01087     movff       ram_0x04A, ram_0x01B
00186C 0E0F           01088     movlw       0x0F
00186E D837           01089     rcall       nibble_to_hex_ascii
001870 CFF5 F032      01090     movff       TABLAT, ram_0x032
001874 6A33           01091     clrf        ram_0x033, ACCESS
001876 6A19           01092     clrf        ram_0x019, ACCESS
001878 0E2F           01093     movlw       0x2F
00187A 6E18           01094     movwf       ram_0x018, ACCESS
00187C EC97 F023      01095     call        uart_tx_block_from_buffer, 0x0
001880 6A47           01096     clrf        ram_0x047, ACCESS
001882 D00E           01097     bra         flow_fw_update_relay_18a0
001884                01098 flow_fw_update_relay_1884:
001884 5047           01099     movf        ram_0x047, W, ACCESS
001886 0F2F           01100     addlw       0x2F
001888 6ED9           01101     movwf       FSR2L, ACCESS
00188A 6ADA           01102     clrf        FSR2H, ACCESS
00188C 0E9A           01103     movlw       0x9A
gpasm-1.5.2 #1325 (Jan 30 2022) src/dlcp_fw/a   03/29/2026  18:21:48        PAGE 29


LOC    OBJECT CODE    LINE  SOURCE TEXT
  VALUE

00188E 244B           01104     addwf       ram_0x04B, W, ACCESS
001890 6EE1           01105     movwf       FSR1L, ACCESS
001892 6AE2           01106     clrf        FSR1H, ACCESS
001894 0E01           01107     movlw       0x01
001896 22E2           01108     addwfc      FSR1H, F, ACCESS
001898 CFDF FFE7      01109     movff       INDF2, INDF1
00189C 2A47           01110     incf        ram_0x047, F, ACCESS
00189E 2A4B           01111     incf        ram_0x04B, F, ACCESS
0018A0                01112 flow_fw_update_relay_18a0:
0018A0 5047           01113     movf        ram_0x047, W, ACCESS
0018A2 0F2F           01114     addlw       0x2F
0018A4 6ED9           01115     movwf       FSR2L, ACCESS
0018A6 6ADA           01116     clrf        FSR2H, ACCESS
0018A8 50DF           01117     movf        INDF2, W, ACCESS
0018AA E1EC           01118     bnz         flow_fw_update_relay_1884
0018AC 0E9A           01119     movlw       0x9A
0018AE 244B           01120     addwf       ram_0x04B, W, ACCESS
0018B0 6ED9           01121     movwf       FSR2L, ACCESS
0018B2 6ADA           01122     clrf        FSR2H, ACCESS
0018B4 0E01           01123     movlw       0x01
0018B6 22DA           01124     addwfc      FSR2H, F, ACCESS
0018B8 6ADF           01125     clrf        INDF2, ACCESS
0018BA D002           01126     bra         flow_fw_update_relay_18c0
0018BC                01127 flow_fw_update_relay_18bc:
0018BC C04A F046      01128     movff       ram_0x04A, ram_0x046
0018C0                01129 flow_fw_update_relay_18c0:
0018C0 504A           01130     movf        ram_0x04A, W, ACCESS
0018C2 0100           01131     movlb       0x0
0018C4 2780           01132     addwf       ram_0x080, F, BANKED
0018C6 0E00           01133     movlw       0x00
0018C8 2381           01134     addwfc      ram_0x081, F, BANKED
0018CA D002           01135     bra         flow_fw_update_relay_18d0
0018CC                01136 flow_fw_update_relay_18cc:
Message[1302]: RAM Bank undefined in this chunk of code. Ensure that bank bits are correct. Assuming bank 0 from now on.
0018CC 6B80           01137     clrf        ram_0x080, BANKED
0018CE 6B81           01138     clrf        ram_0x081, BANKED
0018D0                01139 flow_fw_update_relay_18d0:
0018D0 4B84           01140     infsnz      ram_0x084, F, BANKED
0018D2 2B85           01141     incf        ram_0x085, F, BANKED
0018D4 2A49           01142     incf        ram_0x049, F, ACCESS
0018D6 0E1F           01143     movlw       0x1F
0018D8 6449           01144     cpfsgt      ram_0x049, ACCESS
0018DA D684           01145     bra         flow_fw_update_relay_15e4
0018DC                01146 flow_fw_update_relay_18dc:
0018DC 0012           01147     return      0
                      01148 
                      01149 
                      01150 ; ---------------------------------------------------------------------------
                      01151 ; Function: nibble_to_hex_ascii
                      01152 ; Address : 0x18DE
                      01153 ; Notes   : Converts low nibble to ASCII hex via program-memory lookup table.
                      01154 ; ---------------------------------------------------------------------------
0018DE                01155 nibble_to_hex_ascii:
gpasm-1.5.2 #1325 (Jan 30 2022) src/dlcp_fw/a   03/29/2026  18:21:48        PAGE 30


LOC    OBJECT CODE    LINE  SOURCE TEXT
  VALUE

0018DE 161B           01156     andwf       ram_0x01B, F, ACCESS
0018E0 501B           01157     movf        ram_0x01B, W, ACCESS
0018E2 0F19           01158     addlw       LOW(hex_lookup_table)               ; indexed TBLPTR -> hex_lookup_table
0018E4 6EF6           01159     movwf       TBLPTRL, ACCESS
0018E6 0E10           01160     movlw       HIGH(hex_lookup_table)
0018E8 6EF7           01161     movwf       TBLPTRH, ACCESS
0018EA 0008           01162     tblrd*
0018EC 0012           01163     return      0
                      01164 
                      01165 ; ---------------------------------------------------------------------------
                      01166 ; Function: cmd_dispatch_gated
                      01167 ; Address : 0x18EE
                      01168 ; Notes   : Inferred i2c helper routine. Calls: i2c_secondary_dev_write, main_i2c_service_48e2, main_cor
                            e_service_4516.
                      01169 ; ---------------------------------------------------------------------------
0018EE                01170 cmd_dispatch_gated:
0018EE CFE8 F0FD      01171     movff       WREG, ram_0x0FD
0018F2 A65E           01172     btfss       active_flags, 3, ACCESS
0018F4 D177           01173     bra         cmd_gate_reject
Message[1302]: RAM Bank undefined in this chunk of code. Ensure that bank bits are correct. Assuming bank 0 from now on.
0018F6 A37E           01174     btfss       event_flags, 1, BANKED
0018F8 D057           01175     bra         flow_cmd_dispatch_gated_19a8
0018FA 877E           01176     bsf         event_flags, 3, BANKED
0018FC D039           01177     bra         flow_cmd_dispatch_gated_1970
0018FE                01178 flow_cmd_dispatch_gated_18fe:
0018FE 0E09           01179     movlw       0x09
001900 6E06           01180     movwf       ram_0x006, ACCESS
001902 0E0D           01181     movlw       0x0D
001904 ECA9 F023      01182     call        i2c_secondary_dev_write, 0x0
001908 0E70           01183     movlw       0x70
00190A 6E06           01184     movwf       ram_0x006, ACCESS
00190C 0E08           01185     movlw       0x08
00190E ECA9 F023      01186     call        i2c_secondary_dev_write, 0x0
001912 ECCA F024      01187     call        main_i2c_service_48e2, 0x0
001916 D03C           01188     bra         flow_cmd_dispatch_gated_1990
001918                01189 flow_cmd_dispatch_gated_1918:
001918 0E0A           01190     movlw       0x0A
00191A 6E06           01191     movwf       ram_0x006, ACCESS
00191C 0E0D           01192     movlw       0x0D
00191E ECA9 F023      01193     call        i2c_secondary_dev_write, 0x0
001922 0EB0           01194     movlw       0xB0
001924 6E06           01195     movwf       ram_0x006, ACCESS
001926 0E08           01196     movlw       0x08
001928 ECA9 F023      01197     call        i2c_secondary_dev_write, 0x0
00192C ECCA F024      01198     call        main_i2c_service_48e2, 0x0
001930 D02F           01199     bra         flow_cmd_dispatch_gated_1990
001932                01200 flow_cmd_dispatch_gated_1932:
001932 0E08           01201     movlw       0x08
001934 6E06           01202     movwf       ram_0x006, ACCESS
001936 0E0D           01203     movlw       0x0D
001938 ECA9 F023      01204     call        i2c_secondary_dev_write, 0x0
00193C 0E30           01205     movlw       0x30
00193E 6E06           01206     movwf       ram_0x006, ACCESS
gpasm-1.5.2 #1325 (Jan 30 2022) src/dlcp_fw/a   03/29/2026  18:21:48        PAGE 31


LOC    OBJECT CODE    LINE  SOURCE TEXT
  VALUE

001940 0E08           01207     movlw       0x08
001942 ECA9 F023      01208     call        i2c_secondary_dev_write, 0x0
001946 ECCA F024      01209     call        main_i2c_service_48e2, 0x0
00194A D022           01210     bra         flow_cmd_dispatch_gated_1990
00194C                01211 flow_cmd_dispatch_gated_194c:
00194C 0E0B           01212     movlw       0x0B
00194E 6E06           01213     movwf       ram_0x006, ACCESS
001950 0E0D           01214     movlw       0x0D
001952 ECA9 F023      01215     call        i2c_secondary_dev_write, 0x0
001956 0EF0           01216     movlw       0xF0
001958 6E06           01217     movwf       ram_0x006, ACCESS
00195A 0E08           01218     movlw       0x08
00195C ECA9 F023      01219     call        i2c_secondary_dev_write, 0x0
001960 ECCA F024      01220     call        main_i2c_service_48e2, 0x0
001964 D015           01221     bra         flow_cmd_dispatch_gated_1990
001966                01222 flow_cmd_dispatch_gated_1966:
001966 ECD7 F022      01223     call        main_core_service_4516, 0x0
00196A EC03 F025      01224     call        main_core_service_4954, 0x0
00196E D010           01225     bra         flow_cmd_dispatch_gated_1990
001970                01226 flow_cmd_dispatch_gated_1970:
Message[1302]: RAM Bank undefined in this chunk of code. Ensure that bank bits are correct. Assuming bank 0 from now on.
001970 5193           01227     movf        ram_0x093, W, BANKED
001972 E0F9           01228     bz          flow_cmd_dispatch_gated_1966
001974 0A01           01229     xorlw       0x01
001976 E0C3           01230     bz          flow_cmd_dispatch_gated_18fe
001978 0A03           01231     xorlw       0x03
00197A E0CE           01232     bz          flow_cmd_dispatch_gated_1918
00197C 0A01           01233     xorlw       0x01
00197E E0D9           01234     bz          flow_cmd_dispatch_gated_1932
001980 0A07           01235     xorlw       0x07
001982 E0E4           01236     bz          flow_cmd_dispatch_gated_194c
001984 0A01           01237     xorlw       0x01
001986 E0EF           01238     bz          flow_cmd_dispatch_gated_1966
001988 0A03           01239     xorlw       0x03
00198A E0ED           01240     bz          flow_cmd_dispatch_gated_1966
00198C 0A01           01241     xorlw       0x01
00198E E0EB           01242     bz          flow_cmd_dispatch_gated_1966
001990                01243 flow_cmd_dispatch_gated_1990:
001990 0E05           01244     movlw       0x05
001992 0100           01245     movlb       0x0
001994 6FC1           01246     movwf       ram_0x0C1, BANKED
001996 51FD           01247     movf        ram_0x0FD, W, BANKED
001998 A4D8           01248     btfss       STATUS, 2, ACCESS
00199A EC1D F023      01249     call        main_usb_service_45a2, 0x0
00199E 0100           01250     movlb       0x0
0019A0 937E           01251     bcf         event_flags, 1, BANKED
0019A2 81BD           01252     bsf         ram_0x0BD, 0, BANKED
0019A4 ECAC F024      01253     call        main_timer_service_48a6, 0x0
0019A8                01254 flow_cmd_dispatch_gated_19a8:
0019A8 0100           01255     movlb       0x0
0019AA A77E           01256     btfss       event_flags, 3, BANKED
0019AC D064           01257     bra         flow_cmd_dispatch_gated_1a76
0019AE 985E           01258     bcf         active_flags, 4, ACCESS
gpasm-1.5.2 #1325 (Jan 30 2022) src/dlcp_fw/a   03/29/2026  18:21:48        PAGE 32


LOC    OBJECT CODE    LINE  SOURCE TEXT
  VALUE

0019B0 9B7E           01259     bcf         event_flags, 5, BANKED
0019B2 8D7E           01260     bsf         event_flags, 6, BANKED
0019B4 6BA4           01261     clrf        ram_0x0A4, BANKED
0019B6 C0A4 F0B0      01262     movff       ram_0x0A4, ram_0x0B0
0019BA 6B9A           01263     clrf        ram_0x09A, BANKED
0019BC D00C           01264     bra         flow_cmd_dispatch_gated_19d6
0019BE                01265 flow_cmd_dispatch_gated_19be:
0019BE C09B F09A      01266     movff       ram_0x09B, ram_0x09A
0019C2 D011           01267     bra         flow_cmd_dispatch_gated_19e6
0019C4                01268 flow_cmd_dispatch_gated_19c4:
0019C4 C09C F09A      01269     movff       ram_0x09C, ram_0x09A
0019C8 D00E           01270     bra         flow_cmd_dispatch_gated_19e6
0019CA                01271 flow_cmd_dispatch_gated_19ca:
0019CA C09D F09A      01272     movff       ram_0x09D, ram_0x09A
0019CE D00B           01273     bra         flow_cmd_dispatch_gated_19e6
0019D0                01274 flow_cmd_dispatch_gated_19d0:
0019D0 C09E F09A      01275     movff       ram_0x09E, ram_0x09A
0019D4 D008           01276     bra         flow_cmd_dispatch_gated_19e6
0019D6                01277 flow_cmd_dispatch_gated_19d6:
Message[1302]: RAM Bank undefined in this chunk of code. Ensure that bank bits are correct. Assuming bank 0 from now on.
0019D6 5193           01278     movf        ram_0x093, W, BANKED
0019D8 E0F2           01279     bz          flow_cmd_dispatch_gated_19be
0019DA 0A05           01280     xorlw       0x05
0019DC E0F3           01281     bz          flow_cmd_dispatch_gated_19c4
0019DE 0A03           01282     xorlw       0x03
0019E0 E0F4           01283     bz          flow_cmd_dispatch_gated_19ca
0019E2 0A01           01284     xorlw       0x01
0019E4 E0F5           01285     bz          flow_cmd_dispatch_gated_19d0
0019E6                01286 flow_cmd_dispatch_gated_19e6:
0019E6 519A           01287     movf        ram_0x09A, W, BANKED
0019E8 256E           01288     addwf       computed_volume, W, BANKED
0019EA 6E0D           01289     movwf       ram_0x00D, ACCESS
0019EC 0E00           01290     movlw       0x00
0019EE 216F           01291     addwfc      computed_volume_1, W, BANKED
0019F0 6E0E           01292     movwf       ram_0x00E, ACCESS
0019F2 0E00           01293     movlw       0x00
0019F4 2170           01294     addwfc      computed_volume_2, W, BANKED
0019F6 6E0F           01295     movwf       ram_0x00F, ACCESS
0019F8 0E00           01296     movlw       0x00
0019FA 2171           01297     addwfc      computed_volume_3, W, BANKED
0019FC 6E10           01298     movwf       ram_0x010, ACCESS
0019FE EC30 F01F      01299     call        main_core_service_3e0a, 0x0
001A02 C00D F012      01300     movff       ram_0x00D, ram_0x012
001A06 C00E F013      01301     movff       ram_0x00E, ram_0x013
001A0A C00F F014      01302     movff       ram_0x00F, ram_0x014
001A0E C010 F015      01303     movff       ram_0x010, ram_0x015
001A12 0E47           01304     movlw       0x47
001A14 6E16           01305     movwf       ram_0x016, ACCESS
001A16 0EC9           01306     movlw       0xC9
001A18 6E17           01307     movwf       ram_0x017, ACCESS
001A1A 0EEB           01308     movlw       0xEB
001A1C 6E18           01309     movwf       ram_0x018, ACCESS
001A1E 0E3D           01310     movlw       0x3D
gpasm-1.5.2 #1325 (Jan 30 2022) src/dlcp_fw/a   03/29/2026  18:21:48        PAGE 33


LOC    OBJECT CODE    LINE  SOURCE TEXT
  VALUE

001A20 6E19           01311     movwf       ram_0x019, ACCESS
001A22 EC62 F015      01312     call        main_core_service_2abc, 0x0
001A26 C012 F0ED      01313     movff       ram_0x012, ram_0x0ED
001A2A C013 F0EE      01314     movff       ram_0x013, ram_0x0EE
001A2E C014 F0EF      01315     movff       ram_0x014, ram_0x0EF
001A32 C015 F0F0      01316     movff       ram_0x015, ram_0x0F0
001A36 C0ED F02F      01317     movff       ram_0x0ED, ram_0x02F
001A3A C0EE F030      01318     movff       ram_0x0EE, ram_0x030
001A3E C0EF F031      01319     movff       ram_0x0EF, ram_0x031
001A42 C0F0 F032      01320     movff       ram_0x0F0, ram_0x032
001A46 ECC3 F014      01321     call        main_core_service_297e, 0x0
001A4A C02F F055      01322     movff       ram_0x02F, i2c_coeff_0
001A4E C030 F056      01323     movff       ram_0x030, i2c_coeff_1
001A52 C031 F057      01324     movff       ram_0x031, i2c_coeff_2
001A56 C032 F058      01325     movff       ram_0x032, i2c_coeff_3
001A5A ECAE F025      01326     call        volume_dsp_write, 0x0       ; V3.1 Fix B: verified volume write
001A5E 0E05           01327     movlw       0x05
001A60 0100           01328     movlb       0x0
001A62 6FC1           01329     movwf       ram_0x0C1, BANKED
001A64 51FD           01330     movf        ram_0x0FD, W, BANKED
001A66 A4D8           01331     btfss       STATUS, 2, ACCESS
001A68 EC1D F023      01332     call        main_usb_service_45a2, 0x0
001A6C 0100           01333     movlb       0x0
001A6E 0000           01334     nop                                     ; V3.1: dirty bit managed by volume_dsp_write
001A70 81BD           01335     bsf         ram_0x0BD, 0, BANKED
001A72 ECAC F024      01336     call        main_timer_service_48a6, 0x0
001A76                01337 flow_cmd_dispatch_gated_1a76:
001A76 AE5E           01338     btfss       active_flags, 7, ACCESS
001A78 D011           01339     bra         flow_cmd_dispatch_gated_1a9c
001A7A 0E00           01340     movlw       0x00
001A7C 6A55           01341     clrf        i2c_coeff_0, ACCESS
001A7E 6A56           01342     clrf        i2c_coeff_1, ACCESS
001A80 6A57           01343     clrf        i2c_coeff_2, ACCESS
001A82 6A58           01344     clrf        i2c_coeff_3, ACCESS
001A84 ECB3 F022      01345     call        i2c_tas3108_coeff_write, 0x0
001A88 EC06 F023      01346     call        main_core_service_4574, 0x0
001A8C EC08 F025      01347     call        main_uart_service_495e, 0x0
001A90 9E5E           01348     bcf         active_flags, 7, ACCESS
001A92 0100           01349     movlb       0x0
001A94 AB7E           01350     btfss       event_flags, 5, BANKED
001A96 B85E           01351     btfsc       active_flags, 4, ACCESS
001A98 D001           01352     bra         flow_cmd_dispatch_gated_1a9c
001A9A 877E           01353     bsf         event_flags, 3, BANKED
001A9C                01354 flow_cmd_dispatch_gated_1a9c:
001A9C 0100           01355     movlb       0x0
001A9E AB7E           01356     btfss       event_flags, 5, BANKED
001AA0 D014           01357     bra         flow_cmd_dispatch_gated_1aca
001AA2 A85E           01358     btfss       active_flags, 4, ACCESS
001AA4 D008           01359     bra         flow_cmd_dispatch_gated_1ab6
001AA6 0E00           01360     movlw       0x00
001AA8 6A55           01361     clrf        i2c_coeff_0, ACCESS
001AAA 6A56           01362     clrf        i2c_coeff_1, ACCESS
001AAC 6A57           01363     clrf        i2c_coeff_2, ACCESS
gpasm-1.5.2 #1325 (Jan 30 2022) src/dlcp_fw/a   03/29/2026  18:21:48        PAGE 34


LOC    OBJECT CODE    LINE  SOURCE TEXT
  VALUE

001AAE 6A58           01364     clrf        i2c_coeff_3, ACCESS
001AB0 ECB3 F022      01365     call        i2c_tas3108_coeff_write, 0x0
001AB4 D001           01366     bra         flow_cmd_dispatch_gated_1ab8
001AB6                01367 flow_cmd_dispatch_gated_1ab6:
Message[1302]: RAM Bank undefined in this chunk of code. Ensure that bank bits are correct. Assuming bank 0 from now on.
001AB6 877E           01368     bsf         event_flags, 3, BANKED
001AB8                01369 flow_cmd_dispatch_gated_1ab8:
001AB8 0E05           01370     movlw       0x05
001ABA 0100           01371     movlb       0x0
001ABC 6FC1           01372     movwf       ram_0x0C1, BANKED
001ABE 51FD           01373     movf        ram_0x0FD, W, BANKED
001AC0 A4D8           01374     btfss       STATUS, 2, ACCESS
001AC2 EC1D F023      01375     call        main_usb_service_45a2, 0x0
001AC6 0100           01376     movlb       0x0
001AC8 9B7E           01377     bcf         event_flags, 5, BANKED
001ACA                01378 flow_cmd_dispatch_gated_1aca:
001ACA AD7E           01379     btfss       event_flags, 6, BANKED
001ACC D06E           01380     bra         flow_cmd_dispatch_gated_1baa
001ACE B1A4           01381     btfsc       ram_0x0A4, 0, BANKED
001AD0 D004           01382     bra         flow_cmd_dispatch_gated_1ada
001AD2 0E5F           01383     movlw       0x5F
001AD4 6FF2           01384     movwf       ram_0x0F2, BANKED
001AD6 0E1C           01385     movlw       0x1C
001AD8 D003           01386     bra         flow_cmd_dispatch_gated_1ae0
001ADA                01387 flow_cmd_dispatch_gated_1ada:
001ADA 0E5F           01388     movlw       0x5F
Message[1302]: RAM Bank undefined in this chunk of code. Ensure that bank bits are correct. Assuming bank 0 from now on.
001ADC 6FF2           01389     movwf       ram_0x0F2, BANKED
001ADE 0E08           01390     movlw       0x08
001AE0                01391 flow_cmd_dispatch_gated_1ae0:
001AE0 6FF1           01392     movwf       ram_0x0F1, BANKED
001AE2 C0F1 F013      01393     movff       ram_0x0F1, ram_0x013
001AE6 C0F2 F014      01394     movff       ram_0x0F2, ram_0x014
001AEA EC21 F01C      01395     call        main_i2c_service_381c, 0x0
001AEE 0100           01396     movlb       0x0
001AF0 B3A4           01397     btfsc       ram_0x0A4, 1, BANKED
001AF2 D004           01398     bra         flow_cmd_dispatch_gated_1afc
001AF4 0E5F           01399     movlw       0x5F
001AF6 6FF4           01400     movwf       ram_0x0F4, BANKED
001AF8 0E44           01401     movlw       0x44
001AFA D003           01402     bra         flow_cmd_dispatch_gated_1b02
001AFC                01403 flow_cmd_dispatch_gated_1afc:
001AFC 0E5F           01404     movlw       0x5F
Message[1302]: RAM Bank undefined in this chunk of code. Ensure that bank bits are correct. Assuming bank 0 from now on.
001AFE 6FF4           01405     movwf       ram_0x0F4, BANKED
001B00 0E30           01406     movlw       0x30
001B02                01407 flow_cmd_dispatch_gated_1b02:
001B02 6FF3           01408     movwf       ram_0x0F3, BANKED
001B04 C0F3 F013      01409     movff       ram_0x0F3, ram_0x013
001B08 C0F4 F014      01410     movff       ram_0x0F4, ram_0x014
001B0C EC21 F01C      01411     call        main_i2c_service_381c, 0x0
001B10 0100           01412     movlb       0x0
001B12 B5A4           01413     btfsc       ram_0x0A4, 2, BANKED
gpasm-1.5.2 #1325 (Jan 30 2022) src/dlcp_fw/a   03/29/2026  18:21:48        PAGE 35


LOC    OBJECT CODE    LINE  SOURCE TEXT
  VALUE

001B14 D004           01414     bra         flow_cmd_dispatch_gated_1b1e
001B16 0E5F           01415     movlw       0x5F
001B18 6FF6           01416     movwf       ram_0x0F6, BANKED
001B1A 0E6C           01417     movlw       0x6C
001B1C D003           01418     bra         flow_cmd_dispatch_gated_1b24
001B1E                01419 flow_cmd_dispatch_gated_1b1e:
001B1E 0E5F           01420     movlw       0x5F
Message[1302]: RAM Bank undefined in this chunk of code. Ensure that bank bits are correct. Assuming bank 0 from now on.
001B20 6FF6           01421     movwf       ram_0x0F6, BANKED
001B22 0E58           01422     movlw       0x58
001B24                01423 flow_cmd_dispatch_gated_1b24:
001B24 6FF5           01424     movwf       ram_0x0F5, BANKED
001B26 C0F5 F013      01425     movff       ram_0x0F5, ram_0x013
001B2A C0F6 F014      01426     movff       ram_0x0F6, ram_0x014
001B2E EC21 F01C      01427     call        main_i2c_service_381c, 0x0
001B32 0100           01428     movlb       0x0
001B34 B7A4           01429     btfsc       ram_0x0A4, 3, BANKED
001B36 D004           01430     bra         flow_cmd_dispatch_gated_1b40
001B38 0E5F           01431     movlw       0x5F
001B3A 6FF8           01432     movwf       ram_0x0F8, BANKED
001B3C 0E94           01433     movlw       0x94
001B3E D003           01434     bra         flow_cmd_dispatch_gated_1b46
001B40                01435 flow_cmd_dispatch_gated_1b40:
001B40 0E5F           01436     movlw       0x5F
Message[1302]: RAM Bank undefined in this chunk of code. Ensure that bank bits are correct. Assuming bank 0 from now on.
001B42 6FF8           01437     movwf       ram_0x0F8, BANKED
001B44 0E80           01438     movlw       0x80
001B46                01439 flow_cmd_dispatch_gated_1b46:
001B46 6FF7           01440     movwf       ram_0x0F7, BANKED
001B48 C0F7 F013      01441     movff       ram_0x0F7, ram_0x013
001B4C C0F8 F014      01442     movff       ram_0x0F8, ram_0x014
001B50 EC21 F01C      01443     call        main_i2c_service_381c, 0x0
001B54 0100           01444     movlb       0x0
001B56 B9A4           01445     btfsc       ram_0x0A4, 4, BANKED
001B58 D004           01446     bra         flow_cmd_dispatch_gated_1b62
001B5A 0E5F           01447     movlw       0x5F
001B5C 6FFA           01448     movwf       ram_0x0FA, BANKED
001B5E 0EBC           01449     movlw       0xBC
001B60 D003           01450     bra         flow_cmd_dispatch_gated_1b68
001B62                01451 flow_cmd_dispatch_gated_1b62:
001B62 0E5F           01452     movlw       0x5F
Message[1302]: RAM Bank undefined in this chunk of code. Ensure that bank bits are correct. Assuming bank 0 from now on.
001B64 6FFA           01453     movwf       ram_0x0FA, BANKED
001B66 0EA8           01454     movlw       0xA8
001B68                01455 flow_cmd_dispatch_gated_1b68:
001B68 6FF9           01456     movwf       ram_0x0F9, BANKED
001B6A C0F9 F013      01457     movff       ram_0x0F9, ram_0x013
001B6E C0FA F014      01458     movff       ram_0x0FA, ram_0x014
001B72 EC21 F01C      01459     call        main_i2c_service_381c, 0x0
001B76 0100           01460     movlb       0x0
001B78 BBA4           01461     btfsc       ram_0x0A4, 5, BANKED
001B7A D004           01462     bra         flow_cmd_dispatch_gated_1b84
001B7C 0E5F           01463     movlw       0x5F
gpasm-1.5.2 #1325 (Jan 30 2022) src/dlcp_fw/a   03/29/2026  18:21:48        PAGE 36


LOC    OBJECT CODE    LINE  SOURCE TEXT
  VALUE

001B7E 6FFC           01464     movwf       ram_0x0FC, BANKED
001B80 0EE4           01465     movlw       0xE4
001B82 D003           01466     bra         flow_cmd_dispatch_gated_1b8a
001B84                01467 flow_cmd_dispatch_gated_1b84:
001B84 0E5F           01468     movlw       0x5F
Message[1302]: RAM Bank undefined in this chunk of code. Ensure that bank bits are correct. Assuming bank 0 from now on.
001B86 6FFC           01469     movwf       ram_0x0FC, BANKED
001B88 0ED0           01470     movlw       0xD0
001B8A                01471 flow_cmd_dispatch_gated_1b8a:
001B8A 6FFB           01472     movwf       ram_0x0FB, BANKED
001B8C C0FB F013      01473     movff       ram_0x0FB, ram_0x013
001B90 C0FC F014      01474     movff       ram_0x0FC, ram_0x014
001B94 EC21 F01C      01475     call        main_i2c_service_381c, 0x0
001B98 0E05           01476     movlw       0x05
001B9A 0100           01477     movlb       0x0
001B9C 6FC1           01478     movwf       ram_0x0C1, BANKED
001B9E 51FD           01479     movf        ram_0x0FD, W, BANKED
001BA0 A4D8           01480     btfss       STATUS, 2, ACCESS
001BA2 EC1D F023      01481     call        main_usb_service_45a2, 0x0
001BA6 0100           01482     movlb       0x0
001BA8 9D7E           01483     bcf         event_flags, 6, BANKED
001BAA                01484 flow_cmd_dispatch_gated_1baa:
001BAA A97E           01485     btfss       event_flags, 4, BANKED
001BAC D00D           01486     bra         flow_cmd_dispatch_gated_1bc8
001BAE EC84 F010      01487     call        main_i2c_service_2100, 0x0
001BB2 0100           01488     movlb       0x0
001BB4 997E           01489     bcf         event_flags, 4, BANKED
001BB6 83BD           01490     bsf         ram_0x0BD, 1, BANKED
001BB8 0E05           01491     movlw       0x05
001BBA 6FC1           01492     movwf       ram_0x0C1, BANKED
001BBC 51FD           01493     movf        ram_0x0FD, W, BANKED
001BBE A4D8           01494     btfss       STATUS, 2, ACCESS
001BC0 EC1D F023      01495     call        main_usb_service_45a2, 0x0
001BC4 ECAC F024      01496     call        main_timer_service_48a6, 0x0
001BC8                01497 flow_cmd_dispatch_gated_1bc8:
001BC8 0100           01498     movlb       0x0
001BCA A17F           01499     btfss       ram_0x07F, 0, BANKED
001BCC D004           01500     bra         flow_cmd_dispatch_gated_1bd6
001BCE 917F           01501     bcf         ram_0x07F, 0, BANKED
001BD0 85BD           01502     bsf         ram_0x0BD, 2, BANKED
001BD2 ECAC F024      01503     call        main_timer_service_48a6, 0x0
001BD6                01504 flow_cmd_dispatch_gated_1bd6:
001BD6 0100           01505     movlb       0x0
001BD8 A37F           01506     btfss       ram_0x07F, 1, BANKED
001BDA D004           01507     bra         cmd_gate_reject
001BDC 937F           01508     bcf         ram_0x07F, 1, BANKED
001BDE 85BD           01509     bsf         ram_0x0BD, 2, BANKED
001BE0 ECAC F024      01510     call        main_timer_service_48a6, 0x0
001BE4                01511 cmd_gate_reject:
001BE4 0012           01512     return      0
                      01513 
                      01514 
                      01515 ; ---------------------------------------------------------------------------
gpasm-1.5.2 #1325 (Jan 30 2022) src/dlcp_fw/a   03/29/2026  18:21:48        PAGE 37


LOC    OBJECT CODE    LINE  SOURCE TEXT
  VALUE

                      01516 ; Function: main_uart_service_1be6
                      01517 ; Address : 0x1BE6
                      01518 ; Notes   : Inferred uart helper routine. Calls: rx_ring_has_data, rx_ring_read, uart_tx_byte_blocking.
                      01519 ; ---------------------------------------------------------------------------
001BE6                01520 main_uart_service_1be6:
001BE6 6A09           01521     clrf        ram_0x009, ACCESS
001BE8 D14B           01522     bra         flow_main_uart_service_1be6_1e78
001BEA                01523 flow_main_uart_service_1be6_1bea:
001BEA EC86 F024      01524     call        rx_ring_has_data, 0x0
001BEE 0900           01525     iorlw       0x00
001BF0 E101           01526     bnz         flow_main_uart_service_1be6_1bf4
001BF2 D148           01527     bra         flow_main_uart_service_1be6_1e7c
001BF4                01528 flow_main_uart_service_1be6_1bf4:
001BF4 EC49 F023      01529     call        rx_ring_read, 0x0
001BF8 6E0A           01530     movwf       ram_0x00A, ACCESS
001BFA 0E7F           01531     movlw       0x7F
001BFC 640A           01532     cpfsgt      ram_0x00A, ACCESS
001BFE D021           01533     bra         flow_main_uart_service_1be6_1c42
001C00 500A           01534     movf        ram_0x00A, W, ACCESS
001C02 0AB0           01535     xorlw       0xB0
001C04 E104           01536     bnz         flow_main_uart_service_1be6_1c0e
001C06 0E01           01537     movlw       0x01
Message[1302]: RAM Bank undefined in this chunk of code. Ensure that bank bits are correct. Assuming bank 0 from now on.
001C08 6F98           01538     movwf       rx_frame_position, BANKED
001C0A 905E           01539     bcf         active_flags, 0, ACCESS
001C0C D014           01540     bra         parser_route_phase_handler
001C0E                01541 flow_main_uart_service_1be6_1c0e:
001C0E 500A           01542     movf        ram_0x00A, W, ACCESS
001C10 0AB1           01543     xorlw       0xB1
001C12 E104           01544     bnz         flow_main_uart_service_1be6_1c1c
001C14 0E01           01545     movlw       0x01
Message[1302]: RAM Bank undefined in this chunk of code. Ensure that bank bits are correct. Assuming bank 0 from now on.
001C16 6F98           01546     movwf       rx_frame_position, BANKED
001C18 805E           01547     bsf         active_flags, 0, ACCESS
001C1A D00D           01548     bra         parser_route_phase_handler
001C1C                01549 flow_main_uart_service_1be6_1c1c:
Message[1302]: RAM Bank undefined in this chunk of code. Ensure that bank bits are correct. Assuming bank 0 from now on.
001C1C 6B98           01550     clrf        rx_frame_position, BANKED
001C1E 905E           01551     bcf         active_flags, 0, ACCESS
001C20 C00A F005      01552     movff       ram_0x00A, ram_0x005
001C24 0EF0           01553     movlw       0xF0
001C26 1605           01554     andwf       ram_0x005, F, ACCESS
001C28 5005           01555     movf        ram_0x005, W, ACCESS
001C2A 0AB0           01556     xorlw       0xB0
001C2C E104           01557     bnz         parser_route_phase_handler
001C2E 500A           01558     movf        ram_0x00A, W, ACCESS
001C30 0ABF           01559     xorlw       0xBF
001C32 A4D8           01560     btfss       STATUS, 2, ACCESS
001C34 060A           01561     decf        ram_0x00A, F, ACCESS
001C36                01562 parser_route_phase_handler:
001C36 B05E           01563     btfsc       active_flags, 0, ACCESS
001C38 D127           01564     bra         flow_main_uart_service_1be6_1e80
001C3A 500A           01565     movf        ram_0x00A, W, ACCESS
gpasm-1.5.2 #1325 (Jan 30 2022) src/dlcp_fw/a   03/29/2026  18:21:48        PAGE 38


LOC    OBJECT CODE    LINE  SOURCE TEXT
  VALUE

001C3C EC98 F024      01566     call        uart_tx_byte_blocking, 0x0
001C40 D123           01567     bra         flow_main_uart_service_1be6_1e80
001C42                01568 flow_main_uart_service_1be6_1c42:
001C42 B05E           01569     btfsc       active_flags, 0, ACCESS
001C44 D006           01570     bra         flow_main_uart_service_1be6_1c52
001C46 0E02           01571     movlw       0x02
Message[1302]: RAM Bank undefined in this chunk of code. Ensure that bank bits are correct. Assuming bank 0 from now on.
001C48 5D98           01572     subwf       rx_frame_position, W, BANKED
001C4A E203           01573     bc          flow_main_uart_service_1be6_1c52
001C4C 500A           01574     movf        ram_0x00A, W, ACCESS
001C4E EC98 F024      01575     call        uart_tx_byte_blocking, 0x0
001C52                01576 flow_main_uart_service_1be6_1c52:
001C52 0100           01577     movlb       0x0
001C54 5198           01578     movf        rx_frame_position, W, BANKED
001C56 A4D8           01579     btfss       STATUS, 2, ACCESS
001C58 2B98           01580     incf        rx_frame_position, F, BANKED
001C5A 0E02           01581     movlw       0x02
001C5C 5D98           01582     subwf       rx_frame_position, W, BANKED
001C5E E201           01583     bc          flow_main_uart_service_1be6_1c62
001C60 D113           01584     bra         flow_main_uart_service_1be6_1e80
001C62                01585 flow_main_uart_service_1be6_1c62:
Message[1302]: RAM Bank undefined in this chunk of code. Ensure that bank bits are correct. Assuming bank 0 from now on.
001C62 5198           01586     movf        rx_frame_position, W, BANKED
001C64 0A02           01587     xorlw       0x02
001C66 E103           01588     bnz         flow_main_uart_service_1be6_1c6e
001C68 C00A F0A2      01589     movff       ram_0x00A, ram_0x0A2
001C6C D10D           01590     bra         flow_main_uart_service_1be6_1e80
001C6E                01591 flow_main_uart_service_1be6_1c6e:
001C6E C00A F0A3      01592     movff       ram_0x00A, ram_0x0A3
001C72 C00A F0BC      01593     movff       ram_0x00A, ram_0x0BC
001C76 8C5E           01594     bsf         active_flags, 6, ACCESS
001C78 0E01           01595     movlw       0x01
Message[1302]: RAM Bank undefined in this chunk of code. Ensure that bank bits are correct. Assuming bank 0 from now on.
001C7A 6F98           01596     movwf       rx_frame_position, BANKED
001C7C D0D8           01597     bra         cmd_dispatch_xor_chain
001C7E                01598 wake_request_handler:
001C7E 0E01           01599     movlw       0x01
001C80 B65E           01600     btfsc       active_flags, 3, ACCESS
001C82 0E00           01601     movlw       0x00
001C84 6E05           01602     movwf       ram_0x005, ACCESS
001C86 4605           01603     rlncf       ram_0x005, F, ACCESS
001C88 4605           01604     rlncf       ram_0x005, F, ACCESS
Message[1302]: RAM Bank undefined in this chunk of code. Ensure that bank bits are correct. Assuming bank 0 from now on.
001C8A 517E           01605     movf        event_flags, W, BANKED
001C8C 1805           01606     xorwf       ram_0x005, W, ACCESS
001C8E 0BFB           01607     andlw       0xFB
001C90 1805           01608     xorwf       ram_0x005, W, ACCESS
001C92 6F7E           01609     movwf       event_flags, BANKED
001C94 B57E           01610     btfsc       event_flags, 2, BANKED
001C96 865E           01611     bsf         active_flags, 3, ACCESS
001C98 D0ED           01612     bra         flow_main_uart_service_1be6_1e6c
001C9A                01613 standby_request_handler:
001C9A A65E           01614     btfss       active_flags, 3, ACCESS
gpasm-1.5.2 #1325 (Jan 30 2022) src/dlcp_fw/a   03/29/2026  18:21:48        PAGE 39


LOC    OBJECT CODE    LINE  SOURCE TEXT
  VALUE

001C9C D002           01615     bra         flow_main_uart_service_1be6_1ca2
Message[1302]: RAM Bank undefined in this chunk of code. Ensure that bank bits are correct. Assuming bank 0 from now on.
001C9E 857E           01616     bsf         event_flags, 2, BANKED
001CA0 D002           01617     bra         flow_main_uart_service_1be6_1ca6
001CA2                01618 flow_main_uart_service_1be6_1ca2:
001CA2 0100           01619     movlb       0x0
001CA4 957E           01620     bcf         event_flags, 2, BANKED
001CA6                01621 flow_main_uart_service_1be6_1ca6:
001CA6 B57E           01622     btfsc       event_flags, 2, BANKED
001CA8 965E           01623     bcf         active_flags, 3, ACCESS
001CAA D0E4           01624     bra         flow_main_uart_service_1be6_1e6c
001CAC                01625 cmd03_mute_on_handler:
Message[1302]: RAM Bank undefined in this chunk of code. Ensure that bank bits are correct. Assuming bank 0 from now on.
001CAC B794           01626     btfsc       ram_0x094, 3, BANKED
001CAE D013           01627     bra         flow_main_uart_service_1be6_1cd6
001CB0 885E           01628     bsf         active_flags, 4, ACCESS
001CB2 0E01           01629     movlw       0x01
001CB4 A85E           01630     btfss       active_flags, 4, ACCESS
001CB6 0E00           01631     movlw       0x00
001CB8 6E05           01632     movwf       ram_0x005, ACCESS
001CBA AA5E           01633     btfss       active_flags, 5, ACCESS
001CBC D002           01634     bra         flow_main_uart_service_1be6_1cc2
001CBE 0E01           01635     movlw       0x01
001CC0 D001           01636     bra         flow_main_uart_service_1be6_1cc4
001CC2                01637 flow_main_uart_service_1be6_1cc2:
001CC2 0E00           01638     movlw       0x00
001CC4                01639 flow_main_uart_service_1be6_1cc4:
001CC4 1A05           01640     xorwf       ram_0x005, F, ACCESS
001CC6 A4D8           01641     btfss       STATUS, 2, ACCESS
001CC8                01642 flow_main_uart_service_1be6_1cc8:
Message[1302]: RAM Bank undefined in this chunk of code. Ensure that bank bits are correct. Assuming bank 0 from now on.
001CC8 8B7E           01643     bsf         event_flags, 5, BANKED
001CCA                01644 flow_main_uart_service_1be6_1cca:
001CCA A85E           01645     btfss       active_flags, 4, ACCESS
001CCC D002           01646     bra         flow_main_uart_service_1be6_1cd2
001CCE 8A5E           01647     bsf         active_flags, 5, ACCESS
001CD0 D001           01648     bra         flow_main_uart_service_1be6_1cd4
001CD2                01649 flow_main_uart_service_1be6_1cd2:
001CD2 9A5E           01650     bcf         active_flags, 5, ACCESS
001CD4                01651 flow_main_uart_service_1be6_1cd4:
001CD4 D0CF           01652     bra         flow_main_uart_service_1be6_1e6c
001CD6                01653 flow_main_uart_service_1be6_1cd6:
001CD6 0E02           01654     movlw       0x02
001CD8 A85E           01655     btfss       active_flags, 4, ACCESS
001CDA 0E03           01656     movlw       0x03
Message[1302]: RAM Bank undefined in this chunk of code. Ensure that bank bits are correct. Assuming bank 0 from now on.
001CDC 6FBC           01657     movwf       ram_0x0BC, BANKED
001CDE 9794           01658     bcf         ram_0x094, 3, BANKED
001CE0 D0C9           01659     bra         flow_main_uart_service_1be6_1e6c
001CE2                01660 cmd03_mute_off_handler:
Message[1302]: RAM Bank undefined in this chunk of code. Ensure that bank bits are correct. Assuming bank 0 from now on.
001CE2 B794           01661     btfsc       ram_0x094, 3, BANKED
001CE4 D7F8           01662     bra         flow_main_uart_service_1be6_1cd6
gpasm-1.5.2 #1325 (Jan 30 2022) src/dlcp_fw/a   03/29/2026  18:21:48        PAGE 40


LOC    OBJECT CODE    LINE  SOURCE TEXT
  VALUE

001CE6 985E           01663     bcf         active_flags, 4, ACCESS
001CE8 0E01           01664     movlw       0x01
001CEA A85E           01665     btfss       active_flags, 4, ACCESS
001CEC 0E00           01666     movlw       0x00
001CEE 6E05           01667     movwf       ram_0x005, ACCESS
001CF0 AA5E           01668     btfss       active_flags, 5, ACCESS
001CF2 D7E7           01669     bra         flow_main_uart_service_1be6_1cc2
001CF4 0E01           01670     movlw       0x01
001CF6 1A05           01671     xorwf       ram_0x005, F, ACCESS
001CF8 E1E7           01672     bnz         flow_main_uart_service_1be6_1cc8
001CFA D7E7           01673     bra         flow_main_uart_service_1be6_1cca
001CFC                01674 cmd03_subdispatch:
Message[1302]: RAM Bank undefined in this chunk of code. Ensure that bank bits are correct. Assuming bank 0 from now on.
001CFC 51A3           01675     movf        ram_0x0A3, W, BANKED
001CFE E0CD           01676     bz          standby_request_handler
001D00 0A01           01677     xorlw       0x01
001D02 E0BD           01678     bz          wake_request_handler
001D04 0A03           01679     xorlw       0x03
001D06 E0D2           01680     bz          cmd03_mute_on_handler
001D08 0A01           01681     xorlw       0x01
001D0A E0EB           01682     bz          cmd03_mute_off_handler
001D0C D0B3           01683     bra         flow_main_uart_service_1be6_1e6c
001D0E                01684 cmd04_status_response:
001D0E ECDE F01D      01685     call        send_status_burst, 0x0
001D12 D0B0           01686     bra         flow_main_uart_service_1be6_1e6c
001D14                01687 cmd06_input_select_handler:
Message[1302]: RAM Bank undefined in this chunk of code. Ensure that bank bits are correct. Assuming bank 0 from now on.
001D14 B194           01688     btfsc       ram_0x094, 0, BANKED
001D16 D005           01689     bra         flow_main_uart_service_1be6_1d22
001D18 C0A3 F099      01690     movff       ram_0x0A3, input_select
001D1C C099 F0B3      01691     movff       input_select, input_select_mirror
001D20 D0A9           01692     bra         flow_main_uart_service_1be6_1e6c
001D22                01693 flow_main_uart_service_1be6_1d22:
001D22 C099 F0BC      01694     movff       input_select, ram_0x0BC
Message[1302]: RAM Bank undefined in this chunk of code. Ensure that bank bits are correct. Assuming bank 0 from now on.
001D26 9194           01695     bcf         ram_0x094, 0, BANKED
001D28 D0A5           01696     bra         flow_main_uart_service_1be6_1e6c
001D2A                01697 volume_cmd_handler:
Message[1302]: RAM Bank undefined in this chunk of code. Ensure that bank bits are correct. Assuming bank 0 from now on.
001D2A B394           01698     btfsc       ram_0x094, 1, BANKED
001D2C D029           01699     bra         flow_main_uart_service_1be6_1d80
001D2E 0EA0           01700     movlw       0xA0
001D30 6E05           01701     movwf       ram_0x005, ACCESS
001D32 6806           01702     setf        ram_0x006, ACCESS
001D34 51A3           01703     movf        ram_0x0A3, W, BANKED
001D36 6E07           01704     movwf       ram_0x007, ACCESS
001D38 6A08           01705     clrf        ram_0x008, ACCESS
001D3A 5005           01706     movf        ram_0x005, W, ACCESS
001D3C 2607           01707     addwf       ram_0x007, F, ACCESS
001D3E 5006           01708     movf        ram_0x006, W, ACCESS
001D40 2208           01709     addwfc      ram_0x008, F, ACCESS
001D42 C007 F06E      01710     movff       ram_0x007, computed_volume
001D46 C008 F06F      01711     movff       ram_0x008, computed_volume_1
gpasm-1.5.2 #1325 (Jan 30 2022) src/dlcp_fw/a   03/29/2026  18:21:48        PAGE 41


LOC    OBJECT CODE    LINE  SOURCE TEXT
  VALUE

001D4A 0E00           01712     movlw       0x00
001D4C BF6F           01713     btfsc       computed_volume_1, 7, BANKED
001D4E 0EFF           01714     movlw       0xFF
001D50 6F70           01715     movwf       computed_volume_2, BANKED
001D52 6F71           01716     movwf       computed_volume_3, BANKED
001D54 1969           01717     xorwf       logical_volume_3, W, BANKED
001D56 E108           01718     bnz         flow_main_uart_service_1be6_1d68
001D58 5168           01719     movf        logical_volume_2, W, BANKED
001D5A 1970           01720     xorwf       computed_volume_2, W, BANKED
001D5C E105           01721     bnz         flow_main_uart_service_1be6_1d68
001D5E 5167           01722     movf        logical_volume_1, W, BANKED
001D60 196F           01723     xorwf       computed_volume_1, W, BANKED
001D62 E102           01724     bnz         flow_main_uart_service_1be6_1d68
001D64 5166           01725     movf        logical_volume, W, BANKED
001D66 196E           01726     xorwf       computed_volume, W, BANKED
001D68                01727 flow_main_uart_service_1be6_1d68:
001D68 E101           01728     bnz         flow_main_uart_service_1be6_1d6c
001D6A D084           01729     bra         flow_main_uart_service_1be6_1e6c
001D6C                01730 flow_main_uart_service_1be6_1d6c:
Message[1302]: RAM Bank undefined in this chunk of code. Ensure that bank bits are correct. Assuming bank 0 from now on.
001D6C 877E           01731     bsf         event_flags, 3, BANKED
                      01732     ; V3.1 Fix B': do NOT copy computed->logical here (deferred to volume_dsp_write)
001D6E 0000           01733     nop
001D70 0000           01734     nop
001D72 0000           01735     nop
001D74 0000           01736     nop
001D76 0000           01737     nop
001D78 0000           01738     nop
001D7A 0000           01739     nop
001D7C 0000           01740     nop
001D7E D07A           01741     bra         flow_main_uart_service_1be6_1e6c
001D80                01742 flow_main_uart_service_1be6_1d80:
Message[1302]: RAM Bank undefined in this chunk of code. Ensure that bank bits are correct. Assuming bank 0 from now on.
001D80 516E           01743     movf        computed_volume, W, BANKED
001D82 0F60           01744     addlw       0x60
001D84 6FBC           01745     movwf       ram_0x0BC, BANKED
001D86 9394           01746     bcf         ram_0x094, 1, BANKED
001D88 D075           01747     bra         flow_main_uart_service_1be6_1e6c
001D8A                01748 flow_main_uart_service_1be6_1d8a:
Message[1302]: RAM Bank undefined in this chunk of code. Ensure that bank bits are correct. Assuming bank 0 from now on.
001D8A 51A3           01749     movf        ram_0x0A3, W, BANKED
001D8C 0A29           01750     xorlw       0x29
001D8E E172           01751     bnz         flow_main_uart_service_1be6_1e6c
001D90 EC4B F024      01752     call        report_cmd29_status, 0x0
001D94 D06F           01753     bra         flow_main_uart_service_1be6_1e6c
001D96                01754 flow_main_uart_service_1be6_1d96:
001D96 C0A3 F060      01755     movff       ram_0x0A3, ram_0x060
Message[1302]: RAM Bank undefined in this chunk of code. Ensure that bank bits are correct. Assuming bank 0 from now on.
001D9A 51A5           01756     movf        ram_0x0A5, W, BANKED
001D9C 1960           01757     xorwf       ram_0x060, W, BANKED
001D9E E06A           01758     bz          flow_main_uart_service_1be6_1e6c
001DA0 897E           01759     bsf         event_flags, 4, BANKED
001DA2 C060 F0A5      01760     movff       ram_0x060, ram_0x0A5
gpasm-1.5.2 #1325 (Jan 30 2022) src/dlcp_fw/a   03/29/2026  18:21:48        PAGE 42


LOC    OBJECT CODE    LINE  SOURCE TEXT
  VALUE

001DA6 D066           01761     bra         flow_main_uart_service_1be6_1e6c
001DA8                01762 flow_main_uart_service_1be6_1da8:
001DA8 C0A3 F061      01763     movff       ram_0x0A3, ram_0x061
Message[1302]: RAM Bank undefined in this chunk of code. Ensure that bank bits are correct. Assuming bank 0 from now on.
001DAC 5161           01764     movf        ram_0x061, W, BANKED
001DAE 19A6           01765     xorwf       ram_0x0A6, W, BANKED
001DB0 A4D8           01766     btfss       STATUS, 2, ACCESS
001DB2 897E           01767     bsf         event_flags, 4, BANKED
001DB4 C061 F0A6      01768     movff       ram_0x061, ram_0x0A6
001DB8 D05D           01769     bra         flow_main_uart_service_1be6_1e6c
001DBA                01770 flow_main_uart_service_1be6_1dba:
001DBA C0A3 F062      01771     movff       ram_0x0A3, ram_0x062
Message[1302]: RAM Bank undefined in this chunk of code. Ensure that bank bits are correct. Assuming bank 0 from now on.
001DBE 5162           01772     movf        ram_0x062, W, BANKED
001DC0 19A7           01773     xorwf       ram_0x0A7, W, BANKED
001DC2 A4D8           01774     btfss       STATUS, 2, ACCESS
001DC4 897E           01775     bsf         event_flags, 4, BANKED
001DC6 C062 F0A7      01776     movff       ram_0x062, ram_0x0A7
001DCA D054           01777     bra         flow_main_uart_service_1be6_1e6c
001DCC                01778 flow_main_uart_service_1be6_1dcc:
001DCC C0A3 F063      01779     movff       ram_0x0A3, ram_0x063
Message[1302]: RAM Bank undefined in this chunk of code. Ensure that bank bits are correct. Assuming bank 0 from now on.
001DD0 5163           01780     movf        ram_0x063, W, BANKED
001DD2 19A8           01781     xorwf       ram_0x0A8, W, BANKED
001DD4 A4D8           01782     btfss       STATUS, 2, ACCESS
001DD6 897E           01783     bsf         event_flags, 4, BANKED
001DD8 C063 F0A8      01784     movff       ram_0x063, ram_0x0A8
001DDC D04B           01785     bra         flow_main_uart_service_1be6_1e6c
001DDE                01786 flow_main_uart_service_1be6_1dde:
001DDE C0A3 F064      01787     movff       ram_0x0A3, ram_0x064
Message[1302]: RAM Bank undefined in this chunk of code. Ensure that bank bits are correct. Assuming bank 0 from now on.
001DE2 5164           01788     movf        ram_0x064, W, BANKED
001DE4 19A9           01789     xorwf       ram_0x0A9, W, BANKED
001DE6 A4D8           01790     btfss       STATUS, 2, ACCESS
001DE8 897E           01791     bsf         event_flags, 4, BANKED
001DEA C064 F0A9      01792     movff       ram_0x064, ram_0x0A9
001DEE D042           01793     bra         flow_main_uart_service_1be6_1e6c
001DF0                01794 flow_main_uart_service_1be6_1df0:
001DF0 C0A3 F065      01795     movff       ram_0x0A3, ram_0x065
Message[1302]: RAM Bank undefined in this chunk of code. Ensure that bank bits are correct. Assuming bank 0 from now on.
001DF4 5165           01796     movf        ram_0x065, W, BANKED
001DF6 19AA           01797     xorwf       ram_0x0AA, W, BANKED
001DF8 A4D8           01798     btfss       STATUS, 2, ACCESS
001DFA 897E           01799     bsf         event_flags, 4, BANKED
001DFC C065 F0AA      01800     movff       ram_0x065, ram_0x0AA
001E00 D039           01801     bra         flow_main_uart_service_1be6_1e6c
001E02                01802 flow_main_uart_service_1be6_1e02:
Message[1302]: RAM Bank undefined in this chunk of code. Ensure that bank bits are correct. Assuming bank 0 from now on.
001E02 B994           01803     btfsc       ram_0x094, 4, BANKED
001E04 D007           01804     bra         flow_main_uart_service_1be6_1e14
001E06 51B8           01805     movf        ram_0x0B8, W, BANKED
001E08 19A3           01806     xorwf       ram_0x0A3, W, BANKED
001E0A E034           01807     bz          flow_main_uart_service_1be6_1e6c
gpasm-1.5.2 #1325 (Jan 30 2022) src/dlcp_fw/a   03/29/2026  18:21:48        PAGE 43


LOC    OBJECT CODE    LINE  SOURCE TEXT
  VALUE

001E0C C0A3 F0B8      01808     movff       ram_0x0A3, ram_0x0B8
001E10 817F           01809     bsf         ram_0x07F, 0, BANKED
001E12 D030           01810     bra         flow_main_uart_service_1be6_1e6c
001E14                01811 flow_main_uart_service_1be6_1e14:
001E14 C0B8 F0BC      01812     movff       ram_0x0B8, ram_0x0BC
Message[1302]: RAM Bank undefined in this chunk of code. Ensure that bank bits are correct. Assuming bank 0 from now on.
001E18 9994           01813     bcf         ram_0x094, 4, BANKED
001E1A D02C           01814     bra         flow_main_uart_service_1be6_1e6c
001E1C                01815 flow_main_uart_service_1be6_1e1c:
001E1C C0A3 F0C3      01816     movff       ram_0x0A3, ram_0x0C3
Message[1302]: RAM Bank undefined in this chunk of code. Ensure that bank bits are correct. Assuming bank 0 from now on.
001E20 51B2           01817     movf        ram_0x0B2, W, BANKED
001E22 19C3           01818     xorwf       ram_0x0C3, W, BANKED
001E24 A4D8           01819     btfss       STATUS, 2, ACCESS
001E26 81BD           01820     bsf         ram_0x0BD, 0, BANKED
001E28 C0C3 F0B2      01821     movff       ram_0x0C3, ram_0x0B2
001E2C D023           01822     bra         flow_main_uart_service_1be6_1e6c
001E2E                01823 cmd_dispatch_xor_chain:
Message[1302]: RAM Bank undefined in this chunk of code. Ensure that bank bits are correct. Assuming bank 0 from now on.
001E2E 51A2           01824     movf        ram_0x0A2, W, BANKED
001E30 0A03           01825     xorlw       0x03
001E32 E101           01826     bnz         flow_main_uart_service_1be6_1e36
001E34 D763           01827     bra         cmd03_subdispatch
001E36                01828 flow_main_uart_service_1be6_1e36:
001E36 0A07           01829     xorlw       0x07
001E38 E101           01830     bnz         flow_main_uart_service_1be6_1e3c
001E3A D769           01831     bra         cmd04_status_response
001E3C                01832 flow_main_uart_service_1be6_1e3c:
001E3C 0A02           01833     xorlw       0x02
001E3E E101           01834     bnz         flow_main_uart_service_1be6_1e42
001E40 D769           01835     bra         cmd06_input_select_handler
001E42                01836 flow_main_uart_service_1be6_1e42:
001E42 0A01           01837     xorlw       0x01
001E44 E101           01838     bnz         flow_main_uart_service_1be6_1e48
001E46 D771           01839     bra         volume_cmd_handler
001E48                01840 flow_main_uart_service_1be6_1e48:
001E48 0A17           01841     xorlw       0x17
001E4A E09F           01842     bz          flow_main_uart_service_1be6_1d8a
001E4C 0A07           01843     xorlw       0x07
001E4E E0A3           01844     bz          flow_main_uart_service_1be6_1d96
001E50 0A0F           01845     xorlw       0x0F
001E52 E0AA           01846     bz          flow_main_uart_service_1be6_1da8
001E54 0A01           01847     xorlw       0x01
001E56 E0B1           01848     bz          flow_main_uart_service_1be6_1dba
001E58 0A03           01849     xorlw       0x03
001E5A E0B8           01850     bz          flow_main_uart_service_1be6_1dcc
001E5C 0A01           01851     xorlw       0x01
001E5E E0BF           01852     bz          flow_main_uart_service_1be6_1dde
001E60 0A07           01853     xorlw       0x07
001E62 E0C6           01854     bz          flow_main_uart_service_1be6_1df0
001E64 0A01           01855     xorlw       0x01
001E66 E0CD           01856     bz          flow_main_uart_service_1be6_1e02
001E68 0A03           01857     xorlw       0x03
gpasm-1.5.2 #1325 (Jan 30 2022) src/dlcp_fw/a   03/29/2026  18:21:48        PAGE 44


LOC    OBJECT CODE    LINE  SOURCE TEXT
  VALUE

001E6A E0D8           01858     bz          flow_main_uart_service_1be6_1e1c
001E6C 0A3E           01859     xorlw       0x3E                            ; V3.1: cumulative 0x1E ^ 0x3E = 0x20
001E6E B4D8           01860     btfsc       STATUS, 2, ACCESS               ; Z = cmd 0x20
001E70 EFDA F025      01861     goto        preset_select_handler
001E74                01862 flow_main_uart_service_1be6_1e6c:
001E74 AC5E           01863     btfss       active_flags, 6, ACCESS
001E76 D008           01864     bra         flow_main_uart_service_1be6_1e80
001E78 0100           01865     movlb       0x0
001E7A 51BC           01866     movf        ram_0x0BC, W, BANKED
001E7C EC98 F024      01867     call        uart_tx_byte_blocking, 0x0
001E80                01868 flow_main_uart_service_1be6_1e78:
001E80 9C5E           01869     bcf         active_flags, 6, ACCESS
001E82 D002           01870     bra         flow_main_uart_service_1be6_1e80
001E84                01871 flow_main_uart_service_1be6_1e7c:
001E84 0E01           01872     movlw       0x01
001E86 6E09           01873     movwf       ram_0x009, ACCESS
001E88                01874 flow_main_uart_service_1be6_1e80:
001E88 5009           01875     movf        ram_0x009, W, ACCESS
001E8A A4D8           01876     btfss       STATUS, 2, ACCESS
001E8C 0012           01877     return      0
001E8E D6AD           01878     bra         flow_main_uart_service_1be6_1bea
                      01879 
                      01880 
                      01881 ; ---------------------------------------------------------------------------
                      01882 ; Function: main_core_service_1e88
                      01883 ; Address : 0x1E88
                      01884 ; Notes   : Inferred core helper routine. Calls: eeprom_read_byte, main_flash_service_46de.
                      01885 ; ---------------------------------------------------------------------------
001E90                01886 main_core_service_1e88:
001E90 0E00           01887     movlw       0x00
001E92 6A04           01888     clrf        ram_0x004, ACCESS
001E94 6A03           01889     clrf        ram_0x003, ACCESS
001E96 EC8F F024      01890     call        eeprom_read_byte, 0x0
001E9A 0100           01891     movlb       0x0
001E9C 6F71           01892     movwf       computed_volume_3, BANKED
001E9E 6A04           01893     clrf        ram_0x004, ACCESS
001EA0 0E01           01894     movlw       0x01
001EA2 6E03           01895     movwf       ram_0x003, ACCESS
001EA4 EC8F F024      01896     call        eeprom_read_byte, 0x0
001EA8 0100           01897     movlb       0x0
001EAA 6F70           01898     movwf       computed_volume_2, BANKED
001EAC 6A04           01899     clrf        ram_0x004, ACCESS
001EAE 0E02           01900     movlw       0x02
001EB0 6E03           01901     movwf       ram_0x003, ACCESS
001EB2 EC8F F024      01902     call        eeprom_read_byte, 0x0
001EB6 0100           01903     movlb       0x0
001EB8 6F6F           01904     movwf       computed_volume_1, BANKED
001EBA 6A04           01905     clrf        ram_0x004, ACCESS
001EBC 0E03           01906     movlw       0x03
001EBE 6E03           01907     movwf       ram_0x003, ACCESS
001EC0 EC8F F024      01908     call        eeprom_read_byte, 0x0
001EC4 0100           01909     movlb       0x0
001EC6 6F6E           01910     movwf       computed_volume, BANKED
gpasm-1.5.2 #1325 (Jan 30 2022) src/dlcp_fw/a   03/29/2026  18:21:48        PAGE 45


LOC    OBJECT CODE    LINE  SOURCE TEXT
  VALUE

001EC8 6A04           01911     clrf        ram_0x004, ACCESS
001ECA 0E04           01912     movlw       0x04
001ECC 6E03           01913     movwf       ram_0x003, ACCESS
001ECE EC8F F024      01914     call        eeprom_read_byte, 0x0
001ED2 0100           01915     movlb       0x0
001ED4 6F99           01916     movwf       input_select, BANKED
001ED6 6A04           01917     clrf        ram_0x004, ACCESS
001ED8 0E07           01918     movlw       0x07
001EDA 6E03           01919     movwf       ram_0x003, ACCESS
001EDC EC8F F024      01920     call        eeprom_read_byte, 0x0
001EE0 0100           01921     movlb       0x0
001EE2 6F60           01922     movwf       ram_0x060, BANKED
001EE4 6A04           01923     clrf        ram_0x004, ACCESS
001EE6 0E08           01924     movlw       0x08
001EE8 6E03           01925     movwf       ram_0x003, ACCESS
001EEA EC8F F024      01926     call        eeprom_read_byte, 0x0
001EEE 0100           01927     movlb       0x0
001EF0 6F61           01928     movwf       ram_0x061, BANKED
001EF2 6A04           01929     clrf        ram_0x004, ACCESS
001EF4 0E09           01930     movlw       0x09
001EF6 6E03           01931     movwf       ram_0x003, ACCESS
001EF8 EC8F F024      01932     call        eeprom_read_byte, 0x0
001EFC 0100           01933     movlb       0x0
001EFE 6F62           01934     movwf       ram_0x062, BANKED
001F00 6A04           01935     clrf        ram_0x004, ACCESS
001F02 0E0A           01936     movlw       0x0A
001F04 6E03           01937     movwf       ram_0x003, ACCESS
001F06 EC8F F024      01938     call        eeprom_read_byte, 0x0
001F0A 0100           01939     movlb       0x0
001F0C 6F63           01940     movwf       ram_0x063, BANKED
001F0E 6A04           01941     clrf        ram_0x004, ACCESS
001F10 0E0B           01942     movlw       0x0B
001F12 6E03           01943     movwf       ram_0x003, ACCESS
001F14 EC8F F024      01944     call        eeprom_read_byte, 0x0
001F18 0100           01945     movlb       0x0
001F1A 6F64           01946     movwf       ram_0x064, BANKED
001F1C 6A04           01947     clrf        ram_0x004, ACCESS
001F1E 0E0C           01948     movlw       0x0C
001F20 6E03           01949     movwf       ram_0x003, ACCESS
001F22 EC8F F024      01950     call        eeprom_read_byte, 0x0
001F26 0100           01951     movlb       0x0
001F28 6F65           01952     movwf       ram_0x065, BANKED
001F2A 6A04           01953     clrf        ram_0x004, ACCESS
001F2C 0E0D           01954     movlw       0x0D
001F2E 6E03           01955     movwf       ram_0x003, ACCESS
001F30 EC8F F024      01956     call        eeprom_read_byte, 0x0
001F34 6E5F           01957     movwf       ram_0x05F, ACCESS
001F36 6A04           01958     clrf        ram_0x004, ACCESS
001F38 0E14           01959     movlw       0x14
001F3A 6E03           01960     movwf       ram_0x003, ACCESS
001F3C EC8F F024      01961     call        eeprom_read_byte, 0x0
001F40 0100           01962     movlb       0x0
001F42 6FC3           01963     movwf       ram_0x0C3, BANKED
gpasm-1.5.2 #1325 (Jan 30 2022) src/dlcp_fw/a   03/29/2026  18:21:48        PAGE 46


LOC    OBJECT CODE    LINE  SOURCE TEXT
  VALUE

001F44 5171           01964     movf        computed_volume_3, W, BANKED
001F46 0A80           01965     xorlw       0x80
001F48 0F80           01966     addlw       0x80
001F4A E108           01967     bnz         flow_main_core_service_1e88_1f54
001F4C 0E00           01968     movlw       0x00
001F4E 5D70           01969     subwf       computed_volume_2, W, BANKED
001F50 E105           01970     bnz         flow_main_core_service_1e88_1f54
001F52 0E00           01971     movlw       0x00
001F54 5D6F           01972     subwf       computed_volume_1, W, BANKED
001F56 E102           01973     bnz         flow_main_core_service_1e88_1f54
001F58 0E13           01974     movlw       0x13
001F5A 5D6E           01975     subwf       computed_volume, W, BANKED
001F5C                01976 flow_main_core_service_1e88_1f54:
001F5C E305           01977     bnc         flow_main_core_service_1e88_1f60
001F5E 0EA0           01978     movlw       0xA0
001F60 6F6E           01979     movwf       computed_volume, BANKED
001F62 696F           01980     setf        computed_volume_1, BANKED
001F64 6970           01981     setf        computed_volume_2, BANKED
001F66 6971           01982     setf        computed_volume_3, BANKED
001F68                01983 flow_main_core_service_1e88_1f60:
001F68 0E08           01984     movlw       0x08
001F6A 6599           01985     cpfsgt      input_select, BANKED
001F6C D002           01986     bra         flow_main_core_service_1e88_1f6a
001F6E 0E01           01987     movlw       0x01
Message[1302]: RAM Bank undefined in this chunk of code. Ensure that bank bits are correct. Assuming bank 0 from now on.
001F70 6F99           01988     movwf       input_select, BANKED
001F72                01989 flow_main_core_service_1e88_1f6a:
001F72 0E03           01990     movlw       0x03
001F74 6560           01991     cpfsgt      ram_0x060, BANKED
001F76 D001           01992     bra         flow_main_core_service_1e88_1f72
Message[1302]: RAM Bank undefined in this chunk of code. Ensure that bank bits are correct. Assuming bank 0 from now on.
001F78 6B60           01993     clrf        ram_0x060, BANKED
001F7A                01994 flow_main_core_service_1e88_1f72:
001F7A EE20 F061      01995     lfsr        FSR2, 0x0061
001F7E 0E03           01996     movlw       0x03
001F80 64DF           01997     cpfsgt      INDF2, ACCESS
001F82 D001           01998     bra         flow_main_core_service_1e88_1f7e
Message[1302]: RAM Bank undefined in this chunk of code. Ensure that bank bits are correct. Assuming bank 0 from now on.
001F84 6B61           01999     clrf        ram_0x061, BANKED
001F86                02000 flow_main_core_service_1e88_1f7e:
001F86 EE20 F062      02001     lfsr        FSR2, 0x0062
001F8A 0E03           02002     movlw       0x03
001F8C 64DF           02003     cpfsgt      INDF2, ACCESS
001F8E D001           02004     bra         flow_main_core_service_1e88_1f8a
Message[1302]: RAM Bank undefined in this chunk of code. Ensure that bank bits are correct. Assuming bank 0 from now on.
001F90 6B62           02005     clrf        ram_0x062, BANKED
001F92                02006 flow_main_core_service_1e88_1f8a:
001F92 EE20 F063      02007     lfsr        FSR2, 0x0063
001F96 0E03           02008     movlw       0x03
001F98 64DF           02009     cpfsgt      INDF2, ACCESS
001F9A D002           02010     bra         flow_main_core_service_1e88_1f98
001F9C 0E01           02011     movlw       0x01
Message[1302]: RAM Bank undefined in this chunk of code. Ensure that bank bits are correct. Assuming bank 0 from now on.
gpasm-1.5.2 #1325 (Jan 30 2022) src/dlcp_fw/a   03/29/2026  18:21:48        PAGE 47


LOC    OBJECT CODE    LINE  SOURCE TEXT
  VALUE

001F9E 6F63           02012     movwf       ram_0x063, BANKED
001FA0                02013 flow_main_core_service_1e88_1f98:
001FA0 EE20 F064      02014     lfsr        FSR2, 0x0064
001FA4 0E03           02015     movlw       0x03
001FA6 64DF           02016     cpfsgt      INDF2, ACCESS
001FA8 D002           02017     bra         flow_main_core_service_1e88_1fa6
001FAA 0E01           02018     movlw       0x01
Message[1302]: RAM Bank undefined in this chunk of code. Ensure that bank bits are correct. Assuming bank 0 from now on.
001FAC 6F64           02019     movwf       ram_0x064, BANKED
001FAE                02020 flow_main_core_service_1e88_1fa6:
001FAE EE20 F065      02021     lfsr        FSR2, 0x0065
001FB2 0E03           02022     movlw       0x03
001FB4 64DF           02023     cpfsgt      INDF2, ACCESS
001FB6 D002           02024     bra         flow_main_core_service_1e88_1fb4
001FB8 0E01           02025     movlw       0x01
Message[1302]: RAM Bank undefined in this chunk of code. Ensure that bank bits are correct. Assuming bank 0 from now on.
001FBA 6F64           02026     movwf       ram_0x064, BANKED
001FBC                02027 flow_main_core_service_1e88_1fb4:
001FBC 0E03           02028     movlw       0x03
001FBE 645F           02029     cpfsgt      ram_0x05F, ACCESS
001FC0 D001           02030     bra         flow_main_core_service_1e88_1fbc
001FC2 6E5F           02031     movwf       ram_0x05F, ACCESS
001FC4                02032 flow_main_core_service_1e88_1fbc:
001FC4 0E04           02033     movlw       0x04
Message[1302]: RAM Bank undefined in this chunk of code. Ensure that bank bits are correct. Assuming bank 0 from now on.
001FC6 65C3           02034     cpfsgt      ram_0x0C3, BANKED
001FC8 D002           02035     bra         flow_main_core_service_1e88_1fc6
001FCA 0E01           02036     movlw       0x01
Message[1302]: RAM Bank undefined in this chunk of code. Ensure that bank bits are correct. Assuming bank 0 from now on.
001FCC 6FC3           02037     movwf       ram_0x0C3, BANKED
001FCE                02038 flow_main_core_service_1e88_1fc6:
001FCE C06E F066      02039     movff       computed_volume, logical_volume
001FD2 C06F F067      02040     movff       computed_volume_1, logical_volume_1
001FD6 C070 F068      02041     movff       computed_volume_2, logical_volume_2
001FDA C071 F069      02042     movff       computed_volume_3, logical_volume_3
001FDE C099 F0B3      02043     movff       input_select, input_select_mirror
001FE2 C060 F0A5      02044     movff       ram_0x060, ram_0x0A5
001FE6 C061 F0A6      02045     movff       ram_0x061, ram_0x0A6
001FEA C062 F0A7      02046     movff       ram_0x062, ram_0x0A7
001FEE C063 F0A8      02047     movff       ram_0x063, ram_0x0A8
001FF2 C064 F0A9      02048     movff       ram_0x064, ram_0x0A9
001FF6 C065 F0AA      02049     movff       ram_0x065, ram_0x0AA
001FFA C0C3 F0B2      02050     movff       ram_0x0C3, ram_0x0B2
001FFE 6A04           02051     clrf        ram_0x004, ACCESS
002000 0E0F           02052     movlw       0x0F
002002 6E03           02053     movwf       ram_0x003, ACCESS
002004 EC8F F024      02054     call        eeprom_read_byte, 0x0
002008 0100           02055     movlb       0x0
00200A 6FB4           02056     movwf       ram_0x0B4, BANKED
00200C 29B4           02057     incf        ram_0x0B4, W, BANKED
00200E B4D8           02058     btfsc       STATUS, 2, ACCESS
002010 91B4           02059     bcf         ram_0x0B4, 0, BANKED
002012 C0B4 F0B1      02060     movff       ram_0x0B4, ram_0x0B1
gpasm-1.5.2 #1325 (Jan 30 2022) src/dlcp_fw/a   03/29/2026  18:21:48        PAGE 48


LOC    OBJECT CODE    LINE  SOURCE TEXT
  VALUE

002016 6A04           02061     clrf        ram_0x004, ACCESS
002018 0E0E           02062     movlw       0x0E
00201A 6E03           02063     movwf       ram_0x003, ACCESS
00201C EC8F F024      02064     call        eeprom_read_byte, 0x0
002020 0100           02065     movlb       0x0
002022 6FB8           02066     movwf       ram_0x0B8, BANKED
002024 0E03           02067     movlw       0x03
002026 5DB8           02068     subwf       ram_0x0B8, W, BANKED
002028 E202           02069     bc          flow_main_core_service_1e88_2026
00202A 0E03           02070     movlw       0x03
00202C 6FB8           02071     movwf       ram_0x0B8, BANKED
00202E                02072 flow_main_core_service_1e88_2026:
00202E 0E04           02073     movlw       0x04
002030 65B8           02074     cpfsgt      ram_0x0B8, BANKED
002032 D002           02075     bra         flow_main_core_service_1e88_2030
002034 0E03           02076     movlw       0x03
Message[1302]: RAM Bank undefined in this chunk of code. Ensure that bank bits are correct. Assuming bank 0 from now on.
002036 6FB8           02077     movwf       ram_0x0B8, BANKED
002038                02078 flow_main_core_service_1e88_2030:
002038 6A04           02079     clrf        ram_0x004, ACCESS
00203A 0E10           02080     movlw       0x10
00203C 6E03           02081     movwf       ram_0x003, ACCESS
00203E EC8F F024      02082     call        eeprom_read_byte, 0x0
002042 0100           02083     movlb       0x0
002044 6F9B           02084     movwf       ram_0x09B, BANKED
002046 6A04           02085     clrf        ram_0x004, ACCESS
002048 0E11           02086     movlw       0x11
00204A 6E03           02087     movwf       ram_0x003, ACCESS
00204C EC8F F024      02088     call        eeprom_read_byte, 0x0
002050 0100           02089     movlb       0x0
002052 6F9C           02090     movwf       ram_0x09C, BANKED
002054 6A04           02091     clrf        ram_0x004, ACCESS
002056 0E12           02092     movlw       0x12
002058 6E03           02093     movwf       ram_0x003, ACCESS
00205A EC8F F024      02094     call        eeprom_read_byte, 0x0
00205E 0100           02095     movlb       0x0
002060 6F9D           02096     movwf       ram_0x09D, BANKED
002062 6A04           02097     clrf        ram_0x004, ACCESS
002064 0E13           02098     movlw       0x13
002066 6E03           02099     movwf       ram_0x003, ACCESS
002068 EC8F F024      02100     call        eeprom_read_byte, 0x0
00206C 0100           02101     movlb       0x0
00206E 6F9E           02102     movwf       ram_0x09E, BANKED
002070 0E12           02103     movlw       0x12
002072 659B           02104     cpfsgt      ram_0x09B, BANKED
002074 D001           02105     bra         flow_main_core_service_1e88_2070
Message[1302]: RAM Bank undefined in this chunk of code. Ensure that bank bits are correct. Assuming bank 0 from now on.
002076 6B9B           02106     clrf        ram_0x09B, BANKED
002078                02107 flow_main_core_service_1e88_2070:
002078 0E12           02108     movlw       0x12
00207A 659C           02109     cpfsgt      ram_0x09C, BANKED
00207C D001           02110     bra         flow_main_core_service_1e88_2078
Message[1302]: RAM Bank undefined in this chunk of code. Ensure that bank bits are correct. Assuming bank 0 from now on.
gpasm-1.5.2 #1325 (Jan 30 2022) src/dlcp_fw/a   03/29/2026  18:21:48        PAGE 49


LOC    OBJECT CODE    LINE  SOURCE TEXT
  VALUE

00207E 6B9C           02111     clrf        ram_0x09C, BANKED
002080                02112 flow_main_core_service_1e88_2078:
002080 0E12           02113     movlw       0x12
002082 659D           02114     cpfsgt      ram_0x09D, BANKED
002084 D001           02115     bra         flow_main_core_service_1e88_2080
Message[1302]: RAM Bank undefined in this chunk of code. Ensure that bank bits are correct. Assuming bank 0 from now on.
002086 6B9D           02116     clrf        ram_0x09D, BANKED
002088                02117 flow_main_core_service_1e88_2080:
002088 0E12           02118     movlw       0x12
00208A 659E           02119     cpfsgt      ram_0x09E, BANKED
00208C D001           02120     bra         flow_main_core_service_1e88_2088
Message[1302]: RAM Bank undefined in this chunk of code. Ensure that bank bits are correct. Assuming bank 0 from now on.
00208E 6B9E           02121     clrf        ram_0x09E, BANKED
002090                02122 flow_main_core_service_1e88_2088:
002090 C09B F0AC      02123     movff       ram_0x09B, ram_0x0AC
002094 C09C F0AD      02124     movff       ram_0x09C, ram_0x0AD
002098 C09D F0AE      02125     movff       ram_0x09D, ram_0x0AE
00209C C09E F0AF      02126     movff       ram_0x09E, ram_0x0AF
0020A0 0E50           02127     movlw       0x50
0020A2 6E0A           02128     movwf       ram_0x00A, ACCESS
0020A4                02129 flow_main_core_service_1e88_209c:
0020A4 0101           02130     movlb       0x1
0020A6 0EB0           02131     movlw       0xB0
0020A8 240A           02132     addwf       ram_0x00A, W, ACCESS
0020AA 6ED9           02133     movwf       FSR2L, ACCESS
0020AC 6ADA           02134     clrf        FSR2H, ACCESS
0020AE 0E00           02135     movlw       0x00
0020B0 22DA           02136     addwfc      FSR2H, F, ACCESS
0020B2 C00A F003      02137     movff       ram_0x00A, ram_0x003
0020B6 6A04           02138     clrf        ram_0x004, ACCESS
0020B8 EC8F F024      02139     call        eeprom_read_byte, 0x0
0020BC 6EDF           02140     movwf       INDF2, ACCESS
0020BE 2A0A           02141     incf        ram_0x00A, F, ACCESS
0020C0 0E5E           02142     movlw       0x5E
0020C2 640A           02143     cpfsgt      ram_0x00A, ACCESS
0020C4 D7EF           02144     bra         flow_main_core_service_1e88_209c
0020C6 0E60           02145     movlw       0x60
0020C8 6E0A           02146     movwf       ram_0x00A, ACCESS
0020CA                02147 flow_main_core_service_1e88_20c2:
0020CA 0102           02148     movlb       0x2
0020CC 0E60           02149     movlw       0x60
0020CE 240A           02150     addwf       ram_0x00A, W, ACCESS
0020D0 6ED9           02151     movwf       FSR2L, ACCESS
0020D2 6ADA           02152     clrf        FSR2H, ACCESS
0020D4 0E02           02153     movlw       0x02
0020D6 22DA           02154     addwfc      FSR2H, F, ACCESS
0020D8 C00A F003      02155     movff       ram_0x00A, ram_0x003
0020DC 6A04           02156     clrf        ram_0x004, ACCESS
0020DE EC8F F024      02157     call        eeprom_read_byte, 0x0
0020E2 6EDF           02158     movwf       INDF2, ACCESS
0020E4 2A0A           02159     incf        ram_0x00A, F, ACCESS
0020E6 0E7D           02160     movlw       0x7D
0020E8 640A           02161     cpfsgt      ram_0x00A, ACCESS
gpasm-1.5.2 #1325 (Jan 30 2022) src/dlcp_fw/a   03/29/2026  18:21:48        PAGE 50


LOC    OBJECT CODE    LINE  SOURCE TEXT
  VALUE

0020EA D7EF           02162     bra         flow_main_core_service_1e88_20c2
0020EC 6A08           02163     clrf        ram_0x008, ACCESS
0020EE 0E80           02164     movlw       0x80
0020F0 6E07           02165     movwf       ram_0x007, ACCESS
0020F2 0E02           02166     movlw       0x02
0020F4 6E09           02167     movwf       ram_0x009, ACCESS
0020F6 ECBC F023      02168     call        main_flash_service_46de, 0x0
0020FA 6A08           02169     clrf        ram_0x008, ACCESS
0020FC 0E81           02170     movlw       0x81
0020FE 6E07           02171     movwf       ram_0x007, ACCESS
002100 0E03           02172     movlw       0x03
002102 6E09           02173     movwf       ram_0x009, ACCESS
002104 EFBC F023      02174     goto        main_flash_service_46de
                      02175 
                      02176 
                      02177 ; ---------------------------------------------------------------------------
                      02178 ; Function: main_i2c_service_2100
                      02179 ; Address : 0x2100
                      02180 ; Notes   : Inferred i2c helper; touches i2c. Calls: ram_block_clear, i2c_wait_bus_idle, main_core_servi
                            ce_4448.
                      02181 ; ---------------------------------------------------------------------------
002108                02182 main_i2c_service_2100:
002108 6A04           02183     clrf        ram_0x004, ACCESS
00210A 0ED7           02184     movlw       0xD7
00210C 6E03           02185     movwf       ram_0x003, ACCESS
00210E 0E04           02186     movlw       0x04
002110 6E05           02187     movwf       ram_0x005, ACCESS
002112 ECEC F023      02188     call        ram_block_clear, 0x0
002116 6A04           02189     clrf        ram_0x004, ACCESS
002118 0100           02190     movlb       0x0
00211A 0EDB           02191     movlw       0xDB
00211C 6E03           02192     movwf       ram_0x003, ACCESS
00211E 0E04           02193     movlw       0x04
002120 6E05           02194     movwf       ram_0x005, ACCESS
002122 ECEC F023      02195     call        ram_block_clear, 0x0
002126 6A04           02196     clrf        ram_0x004, ACCESS
002128 0100           02197     movlb       0x0
00212A 0EDF           02198     movlw       0xDF
00212C 6E03           02199     movwf       ram_0x003, ACCESS
00212E 0E04           02200     movlw       0x04
002130 6E05           02201     movwf       ram_0x005, ACCESS
002132 ECEC F023      02202     call        ram_block_clear, 0x0
002136 0101           02203     movlb       0x1
002138 0E01           02204     movlw       0x01
00213A 6E04           02205     movwf       ram_0x004, ACCESS
00213C 0ED9           02206     movlw       0xD9
00213E 6E03           02207     movwf       ram_0x003, ACCESS
002140 0E04           02208     movlw       0x04
002142 6E05           02209     movwf       ram_0x005, ACCESS
002144 ECEC F023      02210     call        ram_block_clear, 0x0
002148 6A04           02211     clrf        ram_0x004, ACCESS
00214A 0100           02212     movlb       0x0
00214C 0EE3           02213     movlw       0xE3
gpasm-1.5.2 #1325 (Jan 30 2022) src/dlcp_fw/a   03/29/2026  18:21:48        PAGE 51


LOC    OBJECT CODE    LINE  SOURCE TEXT
  VALUE

00214E 6E03           02214     movwf       ram_0x003, ACCESS
002150 0E04           02215     movlw       0x04
002152 6E05           02216     movwf       ram_0x005, ACCESS
002154 ECEC F023      02217     call        ram_block_clear, 0x0
002158 0101           02218     movlb       0x1
00215A 0E01           02219     movlw       0x01
00215C 6E04           02220     movwf       ram_0x004, ACCESS
00215E 0EDD           02221     movlw       0xDD
002160 6E03           02222     movwf       ram_0x003, ACCESS
002162 0E04           02223     movlw       0x04
002164 6E05           02224     movwf       ram_0x005, ACCESS
002166 ECEC F023      02225     call        ram_block_clear, 0x0
00216A 0101           02226     movlb       0x1
00216C 0E01           02227     movlw       0x01
00216E 6E04           02228     movwf       ram_0x004, ACCESS
002170 0EE1           02229     movlw       0xE1
002172 6E03           02230     movwf       ram_0x003, ACCESS
002174 0E04           02231     movlw       0x04
002176 6E05           02232     movwf       ram_0x005, ACCESS
002178 ECEC F023      02233     call        ram_block_clear, 0x0
00217C ECB4 F024      02234     call        i2c_wait_bus_idle, 0x0
002180 6A59           02235     clrf        ram_0x059, ACCESS
002182                02236 flow_main_i2c_service_2100_217a:
002182 5059           02237     movf        ram_0x059, W, ACCESS
002184 0100           02238     movlb       0x0
002186 0F60           02239     addlw       0x60
002188 6ED9           02240     movwf       FSR2L, ACCESS
00218A 6ADA           02241     clrf        FSR2H, ACCESS
00218C 50DF           02242     movf        INDF2, W, ACCESS
00218E EC65 F022      02243     call        main_core_service_4448, 0x0
002192 D01E           02244     bra         flow_main_i2c_service_2100_21c8
002194                02245 flow_main_i2c_service_2100_218c:
002194 C0A0 F0D7      02246     movff       ram_0x0A0, ram_0x0D7
002198 C0B9 F0D8      02247     movff       ram_0x0B9, ram_0x0D8
00219C D025           02248     bra         flow_main_i2c_service_2100_21e0
00219E                02249 flow_main_i2c_service_2100_2196:
00219E C0A0 F0DB      02250     movff       ram_0x0A0, ram_0x0DB
0021A2 C0B9 F0DC      02251     movff       ram_0x0B9, ram_0x0DC
0021A6 D020           02252     bra         flow_main_i2c_service_2100_21e0
0021A8                02253 flow_main_i2c_service_2100_21a0:
0021A8 C0A0 F0DF      02254     movff       ram_0x0A0, ram_0x0DF
0021AC C0B9 F0E0      02255     movff       ram_0x0B9, ram_0x0E0
0021B0 D01B           02256     bra         flow_main_i2c_service_2100_21e0
0021B2                02257 flow_main_i2c_service_2100_21aa:
0021B2 C0A0 F1D9      02258     movff       ram_0x0A0, ram_0x1D9
0021B6 C0B9 F1DA      02259     movff       ram_0x0B9, ram_0x1DA
0021BA D016           02260     bra         flow_main_i2c_service_2100_21e0
0021BC                02261 flow_main_i2c_service_2100_21b4:
0021BC C0A0 F0E4      02262     movff       ram_0x0A0, ram_0x0E4
0021C0 C0B9 F0E5      02263     movff       ram_0x0B9, ram_0x0E5
0021C4 D011           02264     bra         flow_main_i2c_service_2100_21e0
0021C6                02265 flow_main_i2c_service_2100_21be:
0021C6 C0A0 F1E0      02266     movff       ram_0x0A0, ram_0x1E0
gpasm-1.5.2 #1325 (Jan 30 2022) src/dlcp_fw/a   03/29/2026  18:21:48        PAGE 52


LOC    OBJECT CODE    LINE  SOURCE TEXT
  VALUE

0021CA C0B9 F1E1      02267     movff       ram_0x0B9, ram_0x1E1
0021CE D00C           02268     bra         flow_main_i2c_service_2100_21e0
0021D0                02269 flow_main_i2c_service_2100_21c8:
0021D0 5059           02270     movf        ram_0x059, W, ACCESS
0021D2 E0E0           02271     bz          flow_main_i2c_service_2100_218c
0021D4 0A01           02272     xorlw       0x01
0021D6 E0E3           02273     bz          flow_main_i2c_service_2100_2196
0021D8 0A03           02274     xorlw       0x03
0021DA E0E6           02275     bz          flow_main_i2c_service_2100_21a0
0021DC 0A01           02276     xorlw       0x01
0021DE E0E9           02277     bz          flow_main_i2c_service_2100_21aa
0021E0 0A07           02278     xorlw       0x07
0021E2 E0EC           02279     bz          flow_main_i2c_service_2100_21b4
0021E4 0A01           02280     xorlw       0x01
0021E6 E0EF           02281     bz          flow_main_i2c_service_2100_21be
0021E8                02282 flow_main_i2c_service_2100_21e0:
0021E8 2A59           02283     incf        ram_0x059, F, ACCESS
0021EA 0E05           02284     movlw       0x05
0021EC 6459           02285     cpfsgt      ram_0x059, ACCESS
0021EE D7C9           02286     bra         flow_main_i2c_service_2100_217a
0021F0 6A5A           02287     clrf        ram_0x05A, ACCESS
0021F2 D03F           02288     bra         flow_main_i2c_service_2100_226a
0021F4                02289 flow_main_i2c_service_2100_21ec:
0021F4 C0D7 F06A      02290     movff       ram_0x0D7, ram_0x06A
0021F8 C0D8 F06B      02291     movff       ram_0x0D8, ram_0x06B
0021FC C0D9 F06C      02292     movff       ram_0x0D9, ram_0x06C
002200 C0DA F06D      02293     movff       ram_0x0DA, ram_0x06D
002204 D044           02294     bra         flow_main_i2c_service_2100_2286
002206                02295 flow_main_i2c_service_2100_21fe:
002206 C0DB F06A      02296     movff       ram_0x0DB, ram_0x06A
00220A C0DC F06B      02297     movff       ram_0x0DC, ram_0x06B
00220E C0DD F06C      02298     movff       ram_0x0DD, ram_0x06C
002212 C0DE F06D      02299     movff       ram_0x0DE, ram_0x06D
002216 D03B           02300     bra         flow_main_i2c_service_2100_2286
002218                02301 flow_main_i2c_service_2100_2210:
002218 C0DF F06A      02302     movff       ram_0x0DF, ram_0x06A
00221C C0E0 F06B      02303     movff       ram_0x0E0, ram_0x06B
002220 C0E1 F06C      02304     movff       ram_0x0E1, ram_0x06C
002224 C0E2 F06D      02305     movff       ram_0x0E2, ram_0x06D
002228 D032           02306     bra         flow_main_i2c_service_2100_2286
00222A                02307 flow_main_i2c_service_2100_2222:
00222A C1D9 F06A      02308     movff       ram_0x1D9, ram_0x06A
00222E C1DA F06B      02309     movff       ram_0x1DA, ram_0x06B
002232 C1DB F06C      02310     movff       ram_0x1DB, ram_0x06C
002236 C1DC F06D      02311     movff       ram_0x1DC, ram_0x06D
00223A D029           02312     bra         flow_main_i2c_service_2100_2286
00223C                02313 flow_main_i2c_service_2100_2234:
00223C C0E3 F06A      02314     movff       ram_0x0E3, ram_0x06A
002240 C0E4 F06B      02315     movff       ram_0x0E4, ram_0x06B
002244 C0E5 F06C      02316     movff       ram_0x0E5, ram_0x06C
002248 C0E6 F06D      02317     movff       ram_0x0E6, ram_0x06D
00224C D020           02318     bra         flow_main_i2c_service_2100_2286
00224E                02319 flow_main_i2c_service_2100_2246:
gpasm-1.5.2 #1325 (Jan 30 2022) src/dlcp_fw/a   03/29/2026  18:21:48        PAGE 53


LOC    OBJECT CODE    LINE  SOURCE TEXT
  VALUE

00224E C1DD F06A      02320     movff       ram_0x1DD, ram_0x06A
002252 C1DE F06B      02321     movff       ram_0x1DE, ram_0x06B
002256 C1DF F06C      02322     movff       ram_0x1DF, ram_0x06C
00225A C1E0 F06D      02323     movff       ram_0x1E0, ram_0x06D
00225E D017           02324     bra         flow_main_i2c_service_2100_2286
002260                02325 flow_main_i2c_service_2100_2258:
002260 C1E1 F06A      02326     movff       ram_0x1E1, ram_0x06A
002264 C1E2 F06B      02327     movff       ram_0x1E2, ram_0x06B
002268 C1E3 F06C      02328     movff       ram_0x1E3, ram_0x06C
00226C C1E4 F06D      02329     movff       ram_0x1E4, ram_0x06D
002270 D00E           02330     bra         flow_main_i2c_service_2100_2286
002272                02331 flow_main_i2c_service_2100_226a:
002272 505A           02332     movf        ram_0x05A, W, ACCESS
002274 E0BF           02333     bz          flow_main_i2c_service_2100_21ec
002276 0A01           02334     xorlw       0x01
002278 E0C6           02335     bz          flow_main_i2c_service_2100_21fe
00227A 0A03           02336     xorlw       0x03
00227C E0CD           02337     bz          flow_main_i2c_service_2100_2210
00227E 0A01           02338     xorlw       0x01
002280 E0D4           02339     bz          flow_main_i2c_service_2100_2222
002282 0A07           02340     xorlw       0x07
002284 E0DB           02341     bz          flow_main_i2c_service_2100_2234
002286 0A01           02342     xorlw       0x01
002288 E0E2           02343     bz          flow_main_i2c_service_2100_2246
00228A 0A03           02344     xorlw       0x03
00228C E0E9           02345     bz          flow_main_i2c_service_2100_2258
00228E                02346 flow_main_i2c_service_2100_2286:
00228E 80C5           02347     bsf         SSPCON2, 0, ACCESS
002290                02348 flow_main_i2c_service_2100_2288:
002290 B0C5           02349     btfsc       SSPCON2, 0, ACCESS
002292 D7FE           02350     bra         flow_main_i2c_service_2100_2288
002294 0E68           02351     movlw       0x68
002296 EC5F F01F      02352     call        i2c_byte_tx, 0x0
00229A 0101           02353     movlb       0x1
00229C 0E0F           02354     movlw       0x0F
00229E 245A           02355     addwf       ram_0x05A, W, ACCESS
0022A0 6ED9           02356     movwf       FSR2L, ACCESS
0022A2 6ADA           02357     clrf        FSR2H, ACCESS
0022A4 0E01           02358     movlw       0x01
0022A6 22DA           02359     addwfc      FSR2H, F, ACCESS
0022A8 50DF           02360     movf        INDF2, W, ACCESS
0022AA EC5F F01F      02361     call        i2c_byte_tx, 0x0
0022AE 6A5B           02362     clrf        ram_0x05B, ACCESS
0022B0                02363 flow_main_i2c_service_2100_22a8:
0022B0 505B           02364     movf        ram_0x05B, W, ACCESS
0022B2 0100           02365     movlb       0x0
0022B4 0F6A           02366     addlw       0x6A
0022B6 6ED9           02367     movwf       FSR2L, ACCESS
0022B8 6ADA           02368     clrf        FSR2H, ACCESS
0022BA 0E02           02369     movlw       0x02
0022BC 62DF           02370     cpfseq      INDF2, ACCESS
0022BE D005           02371     bra         flow_main_i2c_service_2100_22c2
0022C0 6A55           02372     clrf        i2c_coeff_0, ACCESS
gpasm-1.5.2 #1325 (Jan 30 2022) src/dlcp_fw/a   03/29/2026  18:21:48        PAGE 54


LOC    OBJECT CODE    LINE  SOURCE TEXT
  VALUE

0022C2 6A56           02373     clrf        i2c_coeff_1, ACCESS
0022C4 6A57           02374     clrf        i2c_coeff_2, ACCESS
0022C6 0E3F           02375     movlw       0x3F
0022C8 D00C           02376     bra         flow_main_i2c_service_2100_22da
0022CA                02377 flow_main_i2c_service_2100_22c2:
0022CA 505B           02378     movf        ram_0x05B, W, ACCESS
0022CC 0F6A           02379     addlw       0x6A
0022CE 6ED9           02380     movwf       FSR2L, ACCESS
0022D0 6ADA           02381     clrf        FSR2H, ACCESS
0022D2 0E03           02382     movlw       0x03
0022D4 62DF           02383     cpfseq      INDF2, ACCESS
0022D6 D007           02384     bra         flow_main_i2c_service_2100_22de
0022D8 6A55           02385     clrf        i2c_coeff_0, ACCESS
0022DA 6A56           02386     clrf        i2c_coeff_1, ACCESS
0022DC 0E80           02387     movlw       0x80
0022DE 6E57           02388     movwf       i2c_coeff_2, ACCESS
0022E0 0EBF           02389     movlw       0xBF
0022E2                02390 flow_main_i2c_service_2100_22da:
0022E2 6E58           02391     movwf       i2c_coeff_3, ACCESS
0022E4 D00F           02392     bra         flow_main_i2c_service_2100_22fc
0022E6                02393 flow_main_i2c_service_2100_22de:
0022E6 505B           02394     movf        ram_0x05B, W, ACCESS
0022E8 0F6A           02395     addlw       0x6A
0022EA 6ED9           02396     movwf       FSR2L, ACCESS
0022EC 6ADA           02397     clrf        FSR2H, ACCESS
0022EE 50DF           02398     movf        INDF2, W, ACCESS
0022F0 EC33 F023      02399     call        main_core_service_45ce, 0x0
0022F4 C00D F055      02400     movff       ram_0x00D, i2c_coeff_0
0022F8 C00E F056      02401     movff       ram_0x00E, i2c_coeff_1
0022FC C00F F057      02402     movff       ram_0x00F, i2c_coeff_2
002300 C010 F058      02403     movff       ram_0x010, i2c_coeff_3
002304                02404 flow_main_i2c_service_2100_22fc:
002304 C055 F049      02405     movff       i2c_coeff_0, ram_0x049
002308 C056 F04A      02406     movff       i2c_coeff_1, ram_0x04A
00230C C057 F04B      02407     movff       i2c_coeff_2, ram_0x04B
002310 C058 F04C      02408     movff       i2c_coeff_3, ram_0x04C
002314 ECE6 F01C      02409     call        main_i2c_service_39a6, 0x0
002318 2A5B           02410     incf        ram_0x05B, F, ACCESS
00231A 0E03           02411     movlw       0x03
00231C 645B           02412     cpfsgt      ram_0x05B, ACCESS
00231E D7C8           02413     bra         flow_main_i2c_service_2100_22a8
002320 84C5           02414     bsf         SSPCON2, 2, ACCESS
002322                02415 flow_main_i2c_service_2100_231a:
002322 B4C5           02416     btfsc       SSPCON2, 2, ACCESS
002324 D7FE           02417     bra         flow_main_i2c_service_2100_231a
002326 2A5A           02418     incf        ram_0x05A, F, ACCESS
002328 0E06           02419     movlw       0x06
00232A 645A           02420     cpfsgt      ram_0x05A, ACCESS
00232C D7A2           02421     bra         flow_main_i2c_service_2100_226a
00232E 0C06           02422     retlw       0x06
                      02423 
                      02424 
                      02425 ; ---------------------------------------------------------------------------
gpasm-1.5.2 #1325 (Jan 30 2022) src/dlcp_fw/a   03/29/2026  18:21:48        PAGE 55


LOC    OBJECT CODE    LINE  SOURCE TEXT
  VALUE

                      02426 ; Function: main_core_service_2328
                      02427 ; Address : 0x2328
                      02428 ; Notes   : Inferred core helper routine. Calls: main_core_service_24ac.
                      02429 ; ---------------------------------------------------------------------------
002330                02430 main_core_service_2328:
002330 C0C1 F15A      02431     movff       ram_0x0C1, ram_0x15A
002334 D0A2           02432     bra         flow_main_core_service_2328_2472
002336                02433 flow_main_core_service_2328_232e:
002336 C0C2 F15B      02434     movff       ram_0x0C2, ram_0x15B
00233A 0E02           02435     movlw       0x02
00233C 6E03           02436     movwf       ram_0x003, ACCESS
00233E                02437 flow_main_core_service_2328_2336:
00233E 0EBE           02438     movlw       0xBE
002340 2403           02439     addwf       ram_0x003, W, ACCESS
002342 6ED9           02440     movwf       FSR2L, ACCESS
002344 6ADA           02441     clrf        FSR2H, ACCESS
002346 0E02           02442     movlw       0x02
002348 D8B5           02443     rcall       main_core_service_24ac
00234A 0E1F           02444     movlw       0x1F
00234C 6403           02445     cpfsgt      ram_0x003, ACCESS
00234E D7F7           02446     bra         flow_main_core_service_2328_2336
002350 D0AE           02447     bra         flow_main_core_service_2328_24a6
002352                02448 flow_main_core_service_2328_234a:
002352 C0C2 F15B      02449     movff       ram_0x0C2, ram_0x15B
Message[1302]: RAM Bank undefined in this chunk of code. Ensure that bank bits are correct. Assuming bank 0 from now on.
002356 05C2           02450     decf        ram_0x0C2, W, BANKED
002358 E105           02451     bnz         flow_main_core_service_2328_235c
00235A C0B7 F15C      02452     movff       ram_0x0B7, ram_0x15C
00235E C0B8 F15D      02453     movff       ram_0x0B8, ram_0x15D
002362 D0A5           02454     bra         flow_main_core_service_2328_24a6
002364                02455 flow_main_core_service_2328_235c:
Message[1302]: RAM Bank undefined in this chunk of code. Ensure that bank bits are correct. Assuming bank 0 from now on.
002364 51C2           02456     movf        ram_0x0C2, W, BANKED
002366 0A02           02457     xorlw       0x02
002368 E001           02458     bz          flow_main_core_service_2328_2364
00236A D0A1           02459     bra         flow_main_core_service_2328_24a6
00236C                02460 flow_main_core_service_2328_2364:
00236C C0B5 F15E      02461     movff       ram_0x0B5, ram_0x15E
002370 0E05           02462     movlw       0x05
002372 6E03           02463     movwf       ram_0x003, ACCESS
002374                02464 flow_main_core_service_2328_236c:
002374 0EFB           02465     movlw       0xFB
002376 2403           02466     addwf       ram_0x003, W, ACCESS
002378 6ED9           02467     movwf       FSR2L, ACCESS
00237A 6ADA           02468     clrf        FSR2H, ACCESS
00237C 0E00           02469     movlw       0x00
00237E D89A           02470     rcall       main_core_service_24ac
002380 0E13           02471     movlw       0x13
002382 6403           02472     cpfsgt      ram_0x003, ACCESS
002384 D7F7           02473     bra         flow_main_core_service_2328_236c
002386 D093           02474     bra         flow_main_core_service_2328_24a6
002388                02475 flow_main_core_service_2328_2380:
002388 C093 F15B      02476     movff       ram_0x093, ram_0x15B
gpasm-1.5.2 #1325 (Jan 30 2022) src/dlcp_fw/a   03/29/2026  18:21:48        PAGE 56


LOC    OBJECT CODE    LINE  SOURCE TEXT
  VALUE

00238C C099 F15C      02477     movff       input_select, ram_0x15C
002390 0101           02478     movlb       0x1
002392 6B5D           02479     clrf        ram_0x05D, BANKED
002394 6B5E           02480     clrf        active_flags, BANKED
002396 C071 F15F      02481     movff       computed_volume_3, ram_0x15F
00239A C070 F160      02482     movff       computed_volume_2, ram_0x160
00239E C06F F161      02483     movff       computed_volume_1, ram_0x161
0023A2 C06E F162      02484     movff       computed_volume, ram_0x162
0023A6 0E00           02485     movlw       0x00
0023A8 B85E           02486     btfsc       active_flags, 4, ACCESS
0023AA 0E01           02487     movlw       0x01
0023AC 6F63           02488     movwf       ram_0x063, BANKED
0023AE 0E00           02489     movlw       0x00
0023B0 0100           02490     movlb       0x0
0023B2 B1A4           02491     btfsc       ram_0x0A4, 0, BANKED
0023B4 0E01           02492     movlw       0x01
0023B6 0101           02493     movlb       0x1
0023B8 6F64           02494     movwf       ram_0x064, BANKED
0023BA 0E00           02495     movlw       0x00
0023BC 0100           02496     movlb       0x0
0023BE B3A4           02497     btfsc       ram_0x0A4, 1, BANKED
0023C0 0E01           02498     movlw       0x01
0023C2 0101           02499     movlb       0x1
0023C4 6F65           02500     movwf       ram_0x065, BANKED
0023C6 0E00           02501     movlw       0x00
0023C8 0100           02502     movlb       0x0
0023CA B5A4           02503     btfsc       ram_0x0A4, 2, BANKED
0023CC 0E01           02504     movlw       0x01
0023CE 0101           02505     movlb       0x1
0023D0 6F66           02506     movwf       logical_volume, BANKED
0023D2 0E00           02507     movlw       0x00
0023D4 0100           02508     movlb       0x0
0023D6 B7A4           02509     btfsc       ram_0x0A4, 3, BANKED
0023D8 0E01           02510     movlw       0x01
0023DA 0101           02511     movlb       0x1
0023DC 6F68           02512     movwf       logical_volume_2, BANKED
0023DE 0E00           02513     movlw       0x00
0023E0 0100           02514     movlb       0x0
0023E2 B9A4           02515     btfsc       ram_0x0A4, 4, BANKED
0023E4 0E01           02516     movlw       0x01
0023E6 0101           02517     movlb       0x1
0023E8 6F69           02518     movwf       logical_volume_3, BANKED
0023EA 0E00           02519     movlw       0x00
0023EC 0100           02520     movlb       0x0
0023EE BBA4           02521     btfsc       ram_0x0A4, 5, BANKED
0023F0 0E01           02522     movlw       0x01
0023F2 0101           02523     movlb       0x1
0023F4 6F6A           02524     movwf       ram_0x06A, BANKED
0023F6 C060 F16C      02525     movff       ram_0x060, ram_0x16C
0023FA C061 F16D      02526     movff       ram_0x061, ram_0x16D
0023FE C062 F16E      02527     movff       ram_0x062, ram_0x16E
002402 C063 F16F      02528     movff       ram_0x063, ram_0x16F
002406 C064 F170      02529     movff       ram_0x064, ram_0x170
gpasm-1.5.2 #1325 (Jan 30 2022) src/dlcp_fw/a   03/29/2026  18:21:48        PAGE 57


LOC    OBJECT CODE    LINE  SOURCE TEXT
  VALUE

00240A C065 F171      02530     movff       ram_0x065, ram_0x171
00240E C0B4 F178      02531     movff       ram_0x0B4, ram_0x178
002412 D04D           02532     bra         flow_main_core_service_2328_24a6
002414                02533 flow_main_core_service_2328_240c:
002414 0E03           02534     movlw       0x03
002416 0101           02535     movlb       0x1
002418 6F5B           02536     movwf       ram_0x05B, BANKED
00241A 0E02           02537     movlw       0x02
00241C 6F5C           02538     movwf       ram_0x05C, BANKED
00241E 0E03           02539     movlw       0x03
002420 6F5D           02540     movwf       ram_0x05D, BANKED
002422 C099 F15E      02541     movff       input_select, ram_0x15E
002426 6B5F           02542     clrf        ram_0x05F, BANKED
002428 6B60           02543     clrf        ram_0x060, BANKED
00242A 6B61           02544     clrf        ram_0x061, BANKED
00242C C05F F163      02545     movff       ram_0x05F, ram_0x163
002430 0E06           02546     movlw       0x06
002432 6F64           02547     movwf       ram_0x064, BANKED
002434 0E0F           02548     movlw       0x0F
002436 6F65           02549     movwf       ram_0x065, BANKED
002438 6F66           02550     movwf       logical_volume, BANKED
00243A 6F67           02551     movwf       logical_volume_1, BANKED
00243C 6F68           02552     movwf       logical_volume_2, BANKED
00243E 6F69           02553     movwf       logical_volume_3, BANKED
002440 6F6A           02554     movwf       ram_0x06A, BANKED
002442 0E0A           02555     movlw       0x0A
002444 6F6B           02556     movwf       ram_0x06B, BANKED
002446 6F6C           02557     movwf       ram_0x06C, BANKED
002448 6F6D           02558     movwf       ram_0x06D, BANKED
00244A 6F6E           02559     movwf       computed_volume, BANKED
00244C 6F6F           02560     movwf       computed_volume_1, BANKED
00244E 6F70           02561     movwf       computed_volume_2, BANKED
002450 0E01           02562     movlw       0x01
002452 6F71           02563     movwf       computed_volume_3, BANKED
002454 6F72           02564     movwf       ram_0x072, BANKED
002456 C09B F173      02565     movff       ram_0x09B, ram_0x173
00245A C09C F174      02566     movff       ram_0x09C, ram_0x174
00245E C09D F175      02567     movff       ram_0x09D, ram_0x175
002462 C09E F176      02568     movff       ram_0x09E, ram_0x176
002466 D023           02569     bra         flow_main_core_service_2328_24a6
002468                02570 flow_main_core_service_2328_2460:
002468 C11B F15B      02571     movff       ram_0x11B, ram_0x15B
00246C D020           02572     bra         flow_main_core_service_2328_24a6
00246E                02573 flow_main_core_service_2328_2466:
00246E 0101           02574     movlb       0x1
002470 6B5B           02575     clrf        ram_0x05B, BANKED
002472 6B5C           02576     clrf        ram_0x05C, BANKED
002474 6B5D           02577     clrf        ram_0x05D, BANKED
002476 6B5E           02578     clrf        active_flags, BANKED
002478 D01A           02579     bra         flow_main_core_service_2328_24a6
00247A                02580 flow_main_core_service_2328_2472:
00247A 0100           02581     movlb       0x0
00247C 51C1           02582     movf        ram_0x0C1, W, BANKED
gpasm-1.5.2 #1325 (Jan 30 2022) src/dlcp_fw/a   03/29/2026  18:21:48        PAGE 58


LOC    OBJECT CODE    LINE  SOURCE TEXT
  VALUE

00247E 0A03           02583     xorlw       0x03
002480 E101           02584     bnz         flow_main_core_service_2328_247c
002482 D759           02585     bra         flow_main_core_service_2328_232e
002484                02586 flow_main_core_service_2328_247c:
002484 0A07           02587     xorlw       0x07
002486 E101           02588     bnz         flow_main_core_service_2328_2482
002488 D764           02589     bra         flow_main_core_service_2328_234a
00248A                02590 flow_main_core_service_2328_2482:
00248A 0A01           02591     xorlw       0x01
00248C E101           02592     bnz         flow_main_core_service_2328_2488
00248E D77C           02593     bra         flow_main_core_service_2328_2380
002490                02594 flow_main_core_service_2328_2488:
002490 0A03           02595     xorlw       0x03
002492 E0C0           02596     bz          flow_main_core_service_2328_240c
002494 0A01           02597     xorlw       0x01
002496 E0E8           02598     bz          flow_main_core_service_2328_2460
002498 0A0F           02599     xorlw       0x0F
00249A E0E6           02600     bz          flow_main_core_service_2328_2460
00249C 0A01           02601     xorlw       0x01
00249E E0E4           02602     bz          flow_main_core_service_2328_2460
0024A0 0A03           02603     xorlw       0x03
0024A2 E0E2           02604     bz          flow_main_core_service_2328_2460
0024A4 0A01           02605     xorlw       0x01
0024A6 E0E0           02606     bz          flow_main_core_service_2328_2460
0024A8 0A07           02607     xorlw       0x07
0024AA E0DE           02608     bz          flow_main_core_service_2328_2460
0024AC D7E0           02609     bra         flow_main_core_service_2328_2466
0024AE                02610 flow_main_core_service_2328_24a6:
0024AE 0100           02611     movlb       0x0
0024B0 6BC1           02612     clrf        ram_0x0C1, BANKED
0024B2 0012           02613     return      0
                      02614 
                      02615 
                      02616 ; ---------------------------------------------------------------------------
                      02617 ; Function: main_core_service_24ac
                      02618 ; Address : 0x24AC
                      02619 ; Notes   : Inferred core helper routine.
                      02620 ; ---------------------------------------------------------------------------
0024B4                02621 main_core_service_24ac:
0024B4 22DA           02622     addwfc      FSR2H, F, ACCESS
0024B6 0E5A           02623     movlw       0x5A
0024B8 2403           02624     addwf       ram_0x003, W, ACCESS
0024BA 6EE1           02625     movwf       FSR1L, ACCESS
0024BC 6AE2           02626     clrf        FSR1H, ACCESS
0024BE 0E01           02627     movlw       0x01
0024C0 22E2           02628     addwfc      FSR1H, F, ACCESS
0024C2 CFDF FFE7      02629     movff       INDF2, INDF1
0024C6 2A03           02630     incf        ram_0x003, F, ACCESS
0024C8 0012           02631     return      0
                      02632 
                      02633 
                      02634 ; ---------------------------------------------------------------------------
                      02635 ; Function: main_core_service_24c2
gpasm-1.5.2 #1325 (Jan 30 2022) src/dlcp_fw/a   03/29/2026  18:21:48        PAGE 59


LOC    OBJECT CODE    LINE  SOURCE TEXT
  VALUE

                      02636 ; Address : 0x24C2
                      02637 ; Notes   : Inferred core helper routine. Calls: main_core_service_2650, main_core_service_263e, main_co
                            re_service_30d8.
                      02638 ; ---------------------------------------------------------------------------
0024CA                02639 main_core_service_24c2:
0024CA C020 F028      02640     movff       ram_0x020, ram_0x028
0024CE C021 F029      02641     movff       ram_0x021, ram_0x029
0024D2 C022 F02A      02642     movff       ram_0x022, ram_0x02A
0024D6 C023 F02B      02643     movff       ram_0x023, ram_0x02B
0024DA 0E18           02644     movlw       0x18
0024DC D001           02645     bra         flow_main_core_service_24c2_24d8
0024DE                02646 flow_main_core_service_24c2_24d6:
0024DE D8BC           02647     rcall       main_core_service_2650
0024E0                02648 flow_main_core_service_24c2_24d8:
0024E0 2EE8           02649     decfsz      WREG, F, ACCESS
0024E2 D7FD           02650     bra         flow_main_core_service_24c2_24d6
0024E4 5028           02651     movf        ram_0x028, W, ACCESS
0024E6 6E2E           02652     movwf       ram_0x02E, ACCESS
0024E8 C024 F028      02653     movff       ram_0x024, ram_0x028
0024EC C025 F029      02654     movff       ram_0x025, ram_0x029
0024F0 C026 F02A      02655     movff       ram_0x026, ram_0x02A
0024F4 C027 F02B      02656     movff       ram_0x027, ram_0x02B
0024F8 0E18           02657     movlw       0x18
0024FA D001           02658     bra         flow_main_core_service_24c2_24f6
0024FC                02659 flow_main_core_service_24c2_24f4:
0024FC D8AD           02660     rcall       main_core_service_2650
0024FE                02661 flow_main_core_service_24c2_24f6:
0024FE 2EE8           02662     decfsz      WREG, F, ACCESS
002500 D7FD           02663     bra         flow_main_core_service_24c2_24f4
002502 5028           02664     movf        ram_0x028, W, ACCESS
002504 6E2D           02665     movwf       ram_0x02D, ACCESS
002506 502E           02666     movf        ram_0x02E, W, ACCESS
002508 E009           02667     bz          flow_main_core_service_24c2_2514
00250A 502D           02668     movf        ram_0x02D, W, ACCESS
00250C 5C2E           02669     subwf       ram_0x02E, W, ACCESS
00250E E20F           02670     bc          flow_main_core_service_24c2_2526
002510 502E           02671     movf        ram_0x02E, W, ACCESS
002512 5C2D           02672     subwf       ram_0x02D, W, ACCESS
002514 6E28           02673     movwf       ram_0x028, ACCESS
002516 0E21           02674     movlw       0x21
002518 5C28           02675     subwf       ram_0x028, W, ACCESS
00251A E309           02676     bnc         flow_main_core_service_24c2_2526
00251C                02677 flow_main_core_service_24c2_2514:
00251C C024 F020      02678     movff       ram_0x024, ram_0x020
002520 C025 F021      02679     movff       ram_0x025, ram_0x021
002524 C026 F022      02680     movff       ram_0x026, ram_0x022
002528 C027 F023      02681     movff       ram_0x027, ram_0x023
00252C D08B           02682     bra         flow_main_core_service_24c2_263c
00252E                02683 flow_main_core_service_24c2_2526:
00252E 502D           02684     movf        ram_0x02D, W, ACCESS
002530 E009           02685     bz          flow_main_core_service_24c2_253c
002532 502E           02686     movf        ram_0x02E, W, ACCESS
002534 5C2D           02687     subwf       ram_0x02D, W, ACCESS
gpasm-1.5.2 #1325 (Jan 30 2022) src/dlcp_fw/a   03/29/2026  18:21:48        PAGE 60


LOC    OBJECT CODE    LINE  SOURCE TEXT
  VALUE

002536 E20F           02688     bc          flow_main_core_service_24c2_254e
002538 502D           02689     movf        ram_0x02D, W, ACCESS
00253A 5C2E           02690     subwf       ram_0x02E, W, ACCESS
00253C 6E28           02691     movwf       ram_0x028, ACCESS
00253E 0E21           02692     movlw       0x21
002540 5C28           02693     subwf       ram_0x028, W, ACCESS
002542 E309           02694     bnc         flow_main_core_service_24c2_254e
002544                02695 flow_main_core_service_24c2_253c:
002544 C020 F020      02696     movff       ram_0x020, ram_0x020
002548 C021 F021      02697     movff       ram_0x021, ram_0x021
00254C C022 F022      02698     movff       ram_0x022, ram_0x022
002550 C023 F023      02699     movff       ram_0x023, ram_0x023
002554 D077           02700     bra         flow_main_core_service_24c2_263c
002556                02701 flow_main_core_service_24c2_254e:
002556 0E06           02702     movlw       0x06
002558 6E2C           02703     movwf       ram_0x02C, ACCESS
00255A BE23           02704     btfsc       ram_0x023, 7, ACCESS
00255C 8E2C           02705     bsf         ram_0x02C, 7, ACCESS
00255E BE27           02706     btfsc       ram_0x027, 7, ACCESS
002560 8C2C           02707     bsf         ram_0x02C, 6, ACCESS
002562 8E22           02708     bsf         ram_0x022, 7, ACCESS
002564 6A23           02709     clrf        ram_0x023, ACCESS
002566 8E26           02710     bsf         ram_0x026, 7, ACCESS
002568 6A27           02711     clrf        ram_0x027, ACCESS
00256A 502D           02712     movf        ram_0x02D, W, ACCESS
00256C 5C2E           02713     subwf       ram_0x02E, W, ACCESS
00256E E21A           02714     bc          flow_main_core_service_24c2_259c
002570                02715 flow_main_core_service_24c2_2568:
002570 90D8           02716     bcf         STATUS, 0, ACCESS
002572 3624           02717     rlcf        ram_0x024, F, ACCESS
002574 3625           02718     rlcf        ram_0x025, F, ACCESS
002576 3626           02719     rlcf        ram_0x026, F, ACCESS
002578 3627           02720     rlcf        ram_0x027, F, ACCESS
00257A 062D           02721     decf        ram_0x02D, F, ACCESS
00257C 502D           02722     movf        ram_0x02D, W, ACCESS
00257E 182E           02723     xorwf       ram_0x02E, W, ACCESS
002580 E00D           02724     bz          flow_main_core_service_24c2_2594
002582 062C           02725     decf        ram_0x02C, F, ACCESS
002584 C02C F028      02726     movff       ram_0x02C, ram_0x028
002588 0E07           02727     movlw       0x07
00258A 1628           02728     andwf       ram_0x028, F, ACCESS
00258C E007           02729     bz          flow_main_core_service_24c2_2594
00258E D7F0           02730     bra         flow_main_core_service_24c2_2568
002590                02731 flow_main_core_service_24c2_2588:
002590 90D8           02732     bcf         STATUS, 0, ACCESS
002592 3223           02733     rrcf        ram_0x023, F, ACCESS
002594 3222           02734     rrcf        ram_0x022, F, ACCESS
002596 3221           02735     rrcf        ram_0x021, F, ACCESS
002598 3220           02736     rrcf        ram_0x020, F, ACCESS
00259A 2A2E           02737     incf        ram_0x02E, F, ACCESS
00259C                02738 flow_main_core_service_24c2_2594:
00259C 502D           02739     movf        ram_0x02D, W, ACCESS
00259E 622E           02740     cpfseq      ram_0x02E, ACCESS
gpasm-1.5.2 #1325 (Jan 30 2022) src/dlcp_fw/a   03/29/2026  18:21:48        PAGE 61


LOC    OBJECT CODE    LINE  SOURCE TEXT
  VALUE

0025A0 D7F7           02741     bra         flow_main_core_service_24c2_2588
0025A2 D01C           02742     bra         flow_main_core_service_24c2_25d4
0025A4                02743 flow_main_core_service_24c2_259c:
0025A4 502E           02744     movf        ram_0x02E, W, ACCESS
0025A6 5C2D           02745     subwf       ram_0x02D, W, ACCESS
0025A8 E219           02746     bc          flow_main_core_service_24c2_25d4
0025AA                02747 flow_main_core_service_24c2_25a2:
0025AA 90D8           02748     bcf         STATUS, 0, ACCESS
0025AC 3620           02749     rlcf        ram_0x020, F, ACCESS
0025AE 3621           02750     rlcf        ram_0x021, F, ACCESS
0025B0 3622           02751     rlcf        ram_0x022, F, ACCESS
0025B2 3623           02752     rlcf        ram_0x023, F, ACCESS
0025B4 062E           02753     decf        ram_0x02E, F, ACCESS
0025B6 502D           02754     movf        ram_0x02D, W, ACCESS
0025B8 182E           02755     xorwf       ram_0x02E, W, ACCESS
0025BA E00D           02756     bz          flow_main_core_service_24c2_25ce
0025BC 062C           02757     decf        ram_0x02C, F, ACCESS
0025BE C02C F028      02758     movff       ram_0x02C, ram_0x028
0025C2 0E07           02759     movlw       0x07
0025C4 1628           02760     andwf       ram_0x028, F, ACCESS
0025C6 E007           02761     bz          flow_main_core_service_24c2_25ce
0025C8 D7F0           02762     bra         flow_main_core_service_24c2_25a2
0025CA                02763 flow_main_core_service_24c2_25c2:
0025CA 90D8           02764     bcf         STATUS, 0, ACCESS
0025CC 3227           02765     rrcf        ram_0x027, F, ACCESS
0025CE 3226           02766     rrcf        ram_0x026, F, ACCESS
0025D0 3225           02767     rrcf        ram_0x025, F, ACCESS
0025D2 3224           02768     rrcf        ram_0x024, F, ACCESS
0025D4 2A2D           02769     incf        ram_0x02D, F, ACCESS
0025D6                02770 flow_main_core_service_24c2_25ce:
0025D6 502D           02771     movf        ram_0x02D, W, ACCESS
0025D8 622E           02772     cpfseq      ram_0x02E, ACCESS
0025DA D7F7           02773     bra         flow_main_core_service_24c2_25c2
0025DC                02774 flow_main_core_service_24c2_25d4:
0025DC AE2C           02775     btfss       ram_0x02C, 7, ACCESS
0025DE D009           02776     bra         flow_main_core_service_24c2_25ea
0025E0 1E20           02777     comf        ram_0x020, F, ACCESS
0025E2 1E21           02778     comf        ram_0x021, F, ACCESS
0025E4 1E22           02779     comf        ram_0x022, F, ACCESS
0025E6 1E23           02780     comf        ram_0x023, F, ACCESS
0025E8 2A20           02781     incf        ram_0x020, F, ACCESS
0025EA 0E00           02782     movlw       0x00
0025EC 2221           02783     addwfc      ram_0x021, F, ACCESS
0025EE 2222           02784     addwfc      ram_0x022, F, ACCESS
0025F0 2223           02785     addwfc      ram_0x023, F, ACCESS
0025F2                02786 flow_main_core_service_24c2_25ea:
0025F2 AC2C           02787     btfss       ram_0x02C, 6, ACCESS
0025F4 D002           02788     bra         flow_main_core_service_24c2_25f2
0025F6 1E24           02789     comf        ram_0x024, F, ACCESS
0025F8 D826           02790     rcall       main_core_service_263e
0025FA                02791 flow_main_core_service_24c2_25f2:
0025FA 6A2C           02792     clrf        ram_0x02C, ACCESS
0025FC 5020           02793     movf        ram_0x020, W, ACCESS
gpasm-1.5.2 #1325 (Jan 30 2022) src/dlcp_fw/a   03/29/2026  18:21:48        PAGE 62


LOC    OBJECT CODE    LINE  SOURCE TEXT
  VALUE

0025FE 2624           02794     addwf       ram_0x024, F, ACCESS
002600 5021           02795     movf        ram_0x021, W, ACCESS
002602 2225           02796     addwfc      ram_0x025, F, ACCESS
002604 5022           02797     movf        ram_0x022, W, ACCESS
002606 2226           02798     addwfc      ram_0x026, F, ACCESS
002608 5023           02799     movf        ram_0x023, W, ACCESS
00260A 2227           02800     addwfc      ram_0x027, F, ACCESS
00260C AE27           02801     btfss       ram_0x027, 7, ACCESS
00260E D004           02802     bra         flow_main_core_service_24c2_2610
002610 1E24           02803     comf        ram_0x024, F, ACCESS
002612 D819           02804     rcall       main_core_service_263e
002614 0E01           02805     movlw       0x01
002616 6E2C           02806     movwf       ram_0x02C, ACCESS
002618                02807 flow_main_core_service_24c2_2610:
002618 C024 F003      02808     movff       ram_0x024, ram_0x003
00261C C025 F004      02809     movff       ram_0x025, ram_0x004
002620 C026 F005      02810     movff       ram_0x026, ram_0x005
002624 C027 F006      02811     movff       ram_0x027, ram_0x006
002628 C02E F007      02812     movff       ram_0x02E, ram_0x007
00262C C02C F008      02813     movff       ram_0x02C, ram_0x008
002630 EC7D F018      02814     call        main_core_service_30d8, 0x0
002634 C003 F020      02815     movff       ram_0x003, ram_0x020
002638 C004 F021      02816     movff       ram_0x004, ram_0x021
00263C C005 F022      02817     movff       ram_0x005, ram_0x022
002640 C006 F023      02818     movff       ram_0x006, ram_0x023
002644                02819 flow_main_core_service_24c2_263c:
002644 0012           02820     return      0
                      02821 
                      02822 
                      02823 ; ---------------------------------------------------------------------------
                      02824 ; Function: main_core_service_263e
                      02825 ; Address : 0x263E
                      02826 ; Notes   : Inferred core helper routine.
                      02827 ; ---------------------------------------------------------------------------
002646                02828 main_core_service_263e:
002646 1E25           02829     comf        ram_0x025, F, ACCESS
002648 1E26           02830     comf        ram_0x026, F, ACCESS
00264A 1E27           02831     comf        ram_0x027, F, ACCESS
00264C 2A24           02832     incf        ram_0x024, F, ACCESS
00264E 0E00           02833     movlw       0x00
002650 2225           02834     addwfc      ram_0x025, F, ACCESS
002652 2226           02835     addwfc      ram_0x026, F, ACCESS
002654 2227           02836     addwfc      ram_0x027, F, ACCESS
002656 0C00           02837     retlw       0x00
                      02838 
                      02839 
                      02840 ; ---------------------------------------------------------------------------
                      02841 ; Function: main_core_service_2650
                      02842 ; Address : 0x2650
                      02843 ; Notes   : Inferred core helper routine.
                      02844 ; ---------------------------------------------------------------------------
002658                02845 main_core_service_2650:
002658 90D8           02846     bcf         STATUS, 0, ACCESS
gpasm-1.5.2 #1325 (Jan 30 2022) src/dlcp_fw/a   03/29/2026  18:21:48        PAGE 63


LOC    OBJECT CODE    LINE  SOURCE TEXT
  VALUE

00265A 322B           02847     rrcf        ram_0x02B, F, ACCESS
00265C 322A           02848     rrcf        ram_0x02A, F, ACCESS
00265E 3229           02849     rrcf        ram_0x029, F, ACCESS
002660 3228           02850     rrcf        ram_0x028, F, ACCESS
002662 0012           02851     return      0
                      02852 
                      02853 
                      02854 ; ---------------------------------------------------------------------------
                      02855 ; Function: main_core_service_265c
                      02856 ; Address : 0x265C
                      02857 ; Notes   : Inferred core helper routine. Calls: main_flash_service_46de.
                      02858 ; ---------------------------------------------------------------------------
002664                02859 main_core_service_265c:
002664 0100           02860     movlb       0x0
002666 A17E           02861     btfss       event_flags, 0, BANKED
002668 D0C6           02862     bra         flow_main_core_service_265c_27ee
00266A A1BD           02863     btfss       ram_0x0BD, 0, BANKED
00266C D033           02864     bra         flow_main_core_service_265c_26cc
00266E 6A08           02865     clrf        ram_0x008, ACCESS
002670 0E03           02866     movlw       0x03
002672 6E07           02867     movwf       ram_0x007, ACCESS
002674 C06E F009      02868     movff       computed_volume, ram_0x009
002678 ECBC F023      02869     call        main_flash_service_46de, 0x0
00267C 6A08           02870     clrf        ram_0x008, ACCESS
00267E 0E02           02871     movlw       0x02
002680 6E07           02872     movwf       ram_0x007, ACCESS
002682 C06F F009      02873     movff       computed_volume_1, ram_0x009
002686 ECBC F023      02874     call        main_flash_service_46de, 0x0
00268A 6A08           02875     clrf        ram_0x008, ACCESS
00268C 0E01           02876     movlw       0x01
00268E 6E07           02877     movwf       ram_0x007, ACCESS
002690 C070 F009      02878     movff       computed_volume_2, ram_0x009
002694 ECBC F023      02879     call        main_flash_service_46de, 0x0
002698 0E00           02880     movlw       0x00
00269A 6A08           02881     clrf        ram_0x008, ACCESS
00269C 6A07           02882     clrf        ram_0x007, ACCESS
00269E C071 F009      02883     movff       computed_volume_3, ram_0x009
0026A2 ECBC F023      02884     call        main_flash_service_46de, 0x0
0026A6 6A08           02885     clrf        ram_0x008, ACCESS
0026A8 0E04           02886     movlw       0x04
0026AA 6E07           02887     movwf       ram_0x007, ACCESS
0026AC C099 F009      02888     movff       input_select, ram_0x009
0026B0 ECBC F023      02889     call        main_flash_service_46de, 0x0
0026B4 6A08           02890     clrf        ram_0x008, ACCESS
0026B6 0E0D           02891     movlw       0x0D
0026B8 6E07           02892     movwf       ram_0x007, ACCESS
0026BA C05F F009      02893     movff       ram_0x05F, ram_0x009
0026BE ECBC F023      02894     call        main_flash_service_46de, 0x0
0026C2 6A08           02895     clrf        ram_0x008, ACCESS
0026C4 0E14           02896     movlw       0x14
0026C6 6E07           02897     movwf       ram_0x007, ACCESS
0026C8 C0C3 F009      02898     movff       ram_0x0C3, ram_0x009
0026CC ECBC F023      02899     call        main_flash_service_46de, 0x0
gpasm-1.5.2 #1325 (Jan 30 2022) src/dlcp_fw/a   03/29/2026  18:21:48        PAGE 64


LOC    OBJECT CODE    LINE  SOURCE TEXT
  VALUE

0026D0 0100           02900     movlb       0x0
0026D2 91BD           02901     bcf         ram_0x0BD, 0, BANKED
0026D4                02902 flow_main_core_service_265c_26cc:
0026D4 A3BD           02903     btfss       ram_0x0BD, 1, BANKED
0026D6 D02C           02904     bra         flow_main_core_service_265c_2728
0026D8 6A08           02905     clrf        ram_0x008, ACCESS
0026DA 0E07           02906     movlw       0x07
0026DC 6E07           02907     movwf       ram_0x007, ACCESS
0026DE C060 F009      02908     movff       ram_0x060, ram_0x009
0026E2 ECBC F023      02909     call        main_flash_service_46de, 0x0
0026E6 6A08           02910     clrf        ram_0x008, ACCESS
0026E8 0E08           02911     movlw       0x08
0026EA 6E07           02912     movwf       ram_0x007, ACCESS
0026EC C061 F009      02913     movff       ram_0x061, ram_0x009
0026F0 ECBC F023      02914     call        main_flash_service_46de, 0x0
0026F4 6A08           02915     clrf        ram_0x008, ACCESS
0026F6 0E09           02916     movlw       0x09
0026F8 6E07           02917     movwf       ram_0x007, ACCESS
0026FA C062 F009      02918     movff       ram_0x062, ram_0x009
0026FE ECBC F023      02919     call        main_flash_service_46de, 0x0
002702 6A08           02920     clrf        ram_0x008, ACCESS
002704 0E0A           02921     movlw       0x0A
002706 6E07           02922     movwf       ram_0x007, ACCESS
002708 C063 F009      02923     movff       ram_0x063, ram_0x009
00270C ECBC F023      02924     call        main_flash_service_46de, 0x0
002710 6A08           02925     clrf        ram_0x008, ACCESS
002712 0E0B           02926     movlw       0x0B
002714 6E07           02927     movwf       ram_0x007, ACCESS
002716 C064 F009      02928     movff       ram_0x064, ram_0x009
00271A ECBC F023      02929     call        main_flash_service_46de, 0x0
00271E 6A08           02930     clrf        ram_0x008, ACCESS
002720 0E0C           02931     movlw       0x0C
002722 6E07           02932     movwf       ram_0x007, ACCESS
002724 C065 F009      02933     movff       ram_0x065, ram_0x009
002728 ECBC F023      02934     call        main_flash_service_46de, 0x0
00272C 0100           02935     movlb       0x0
00272E 93BD           02936     bcf         ram_0x0BD, 1, BANKED
002730                02937 flow_main_core_service_265c_2728:
002730 A5BD           02938     btfss       ram_0x0BD, 2, BANKED
002732 D010           02939     bra         flow_main_core_service_265c_274c
002734 6A08           02940     clrf        ram_0x008, ACCESS
002736 0E0F           02941     movlw       0x0F
002738 6E07           02942     movwf       ram_0x007, ACCESS
00273A C0B4 F009      02943     movff       ram_0x0B4, ram_0x009
00273E ECBC F023      02944     call        main_flash_service_46de, 0x0
002742 6A08           02945     clrf        ram_0x008, ACCESS
002744 0E0E           02946     movlw       0x0E
002746 6E07           02947     movwf       ram_0x007, ACCESS
002748 C0B8 F009      02948     movff       ram_0x0B8, ram_0x009
00274C ECBC F023      02949     call        main_flash_service_46de, 0x0
002750 0100           02950     movlb       0x0
002752 95BD           02951     bcf         ram_0x0BD, 2, BANKED
002754                02952 flow_main_core_service_265c_274c:
gpasm-1.5.2 #1325 (Jan 30 2022) src/dlcp_fw/a   03/29/2026  18:21:48        PAGE 65


LOC    OBJECT CODE    LINE  SOURCE TEXT
  VALUE

002754 A7BD           02953     btfss       ram_0x0BD, 3, BANKED
002756 D01E           02954     bra         flow_main_core_service_265c_278c
002758 6A08           02955     clrf        ram_0x008, ACCESS
00275A 0E10           02956     movlw       0x10
00275C 6E07           02957     movwf       ram_0x007, ACCESS
00275E C09B F009      02958     movff       ram_0x09B, ram_0x009
002762 ECBC F023      02959     call        main_flash_service_46de, 0x0
002766 6A08           02960     clrf        ram_0x008, ACCESS
002768 0E11           02961     movlw       0x11
00276A 6E07           02962     movwf       ram_0x007, ACCESS
00276C C09C F009      02963     movff       ram_0x09C, ram_0x009
002770 ECBC F023      02964     call        main_flash_service_46de, 0x0
002774 6A08           02965     clrf        ram_0x008, ACCESS
002776 0E12           02966     movlw       0x12
002778 6E07           02967     movwf       ram_0x007, ACCESS
00277A C09D F009      02968     movff       ram_0x09D, ram_0x009
00277E ECBC F023      02969     call        main_flash_service_46de, 0x0
002782 6A08           02970     clrf        ram_0x008, ACCESS
002784 0E13           02971     movlw       0x13
002786 6E07           02972     movwf       ram_0x007, ACCESS
002788 C09E F009      02973     movff       ram_0x09E, ram_0x009
00278C ECBC F023      02974     call        main_flash_service_46de, 0x0
002790 0100           02975     movlb       0x0
002792 97BD           02976     bcf         ram_0x0BD, 3, BANKED
002794                02977 flow_main_core_service_265c_278c:
002794 A9BD           02978     btfss       ram_0x0BD, 4, BANKED
002796 D016           02979     bra         flow_main_core_service_265c_27bc
002798 0E50           02980     movlw       0x50
00279A 6E0A           02981     movwf       ram_0x00A, ACCESS
00279C                02982 flow_main_core_service_265c_2794:
00279C C00A F007      02983     movff       ram_0x00A, ram_0x007
0027A0 6A08           02984     clrf        ram_0x008, ACCESS
0027A2 0101           02985     movlb       0x1
0027A4 0EB0           02986     movlw       0xB0
0027A6 240A           02987     addwf       ram_0x00A, W, ACCESS
0027A8 6ED9           02988     movwf       FSR2L, ACCESS
0027AA 6ADA           02989     clrf        FSR2H, ACCESS
0027AC 0E00           02990     movlw       0x00
0027AE 22DA           02991     addwfc      FSR2H, F, ACCESS
0027B0 50DF           02992     movf        INDF2, W, ACCESS
0027B2 6E09           02993     movwf       ram_0x009, ACCESS
0027B4 ECBC F023      02994     call        main_flash_service_46de, 0x0
0027B8 2A0A           02995     incf        ram_0x00A, F, ACCESS
0027BA 0E5E           02996     movlw       0x5E
0027BC 640A           02997     cpfsgt      ram_0x00A, ACCESS
0027BE D7EE           02998     bra         flow_main_core_service_265c_2794
0027C0 0100           02999     movlb       0x0
0027C2 99BD           03000     bcf         ram_0x0BD, 4, BANKED
0027C4                03001 flow_main_core_service_265c_27bc:
0027C4 ABBD           03002     btfss       ram_0x0BD, 5, BANKED
0027C6 D016           03003     bra         flow_main_core_service_265c_27ec
0027C8 0E60           03004     movlw       0x60
0027CA 6E0A           03005     movwf       ram_0x00A, ACCESS
gpasm-1.5.2 #1325 (Jan 30 2022) src/dlcp_fw/a   03/29/2026  18:21:48        PAGE 66


LOC    OBJECT CODE    LINE  SOURCE TEXT
  VALUE

0027CC                03006 flow_main_core_service_265c_27c4:
0027CC C00A F007      03007     movff       ram_0x00A, ram_0x007
0027D0 6A08           03008     clrf        ram_0x008, ACCESS
0027D2 0102           03009     movlb       0x2
0027D4 0E60           03010     movlw       0x60
0027D6 240A           03011     addwf       ram_0x00A, W, ACCESS
0027D8 6ED9           03012     movwf       FSR2L, ACCESS
0027DA 6ADA           03013     clrf        FSR2H, ACCESS
0027DC 0E02           03014     movlw       0x02
0027DE 22DA           03015     addwfc      FSR2H, F, ACCESS
0027E0 50DF           03016     movf        INDF2, W, ACCESS
0027E2 6E09           03017     movwf       ram_0x009, ACCESS
0027E4 ECBC F023      03018     call        main_flash_service_46de, 0x0
0027E8 2A0A           03019     incf        ram_0x00A, F, ACCESS
0027EA 0E7D           03020     movlw       0x7D
0027EC 640A           03021     cpfsgt      ram_0x00A, ACCESS
0027EE D7EE           03022     bra         flow_main_core_service_265c_27c4
0027F0 0100           03023     movlb       0x0
0027F2 9BBD           03024     bcf         ram_0x0BD, 5, BANKED
0027F4                03025 flow_main_core_service_265c_27ec:
0027F4 917E           03026     bcf         event_flags, 0, BANKED
0027F6                03027 flow_main_core_service_265c_27ee:
0027F6 0012           03028     return      0
                      03029 
                      03030 
                      03031 ; ---------------------------------------------------------------------------
                      03032 ; Function: main_i2c_service_27f0
                      03033 ; Address : 0x27F0
                      03034 ; Notes   : Inferred i2c helper routine. Calls: i2c_secondary_dev_write, i2c_secondary_dev_random_read.
                      03035 ; ---------------------------------------------------------------------------
0027F8                03036 main_i2c_service_27f0:
0027F8 A65E           03037     btfss       active_flags, 3, ACCESS
0027FA D0C4           03038     bra         flow_main_i2c_service_27f0_297c
0027FC 0E64           03039     movlw       0x64
0027FE 0100           03040     movlb       0x0
002800 65BB           03041     cpfsgt      ram_0x0BB, BANKED
002802 D0BF           03042     bra         flow_main_i2c_service_27f0_297a
Message[1302]: RAM Bank undefined in this chunk of code. Ensure that bank bits are correct. Assuming bank 0 from now on.
002804 6BBB           03043     clrf        ram_0x0BB, BANKED
002806 D055           03044     bra         flow_main_i2c_service_27f0_28aa
002808                03045 flow_main_i2c_service_27f0_2800:
Message[1302]: RAM Bank undefined in this chunk of code. Ensure that bank bits are correct. Assuming bank 0 from now on.
002808 51B6           03046     movf        ram_0x0B6, W, BANKED
00280A 0F08           03047     addlw       0x08
00280C 6FBE           03048     movwf       ram_0x0BE, BANKED
00280E D063           03049     bra         flow_main_i2c_service_27f0_28ce
002810                03050 flow_main_i2c_service_27f0_2808:
Message[1302]: RAM Bank undefined in this chunk of code. Ensure that bank bits are correct. Assuming bank 0 from now on.
002810 6B93           03051     clrf        ram_0x093, BANKED
002812 D061           03052     bra         flow_main_i2c_service_27f0_28ce
002814                03053 flow_main_i2c_service_27f0_280c:
002814 0E01           03054     movlw       0x01
Message[1302]: RAM Bank undefined in this chunk of code. Ensure that bank bits are correct. Assuming bank 0 from now on.
gpasm-1.5.2 #1325 (Jan 30 2022) src/dlcp_fw/a   03/29/2026  18:21:48        PAGE 67


LOC    OBJECT CODE    LINE  SOURCE TEXT
  VALUE

002816 6F93           03055     movwf       ram_0x093, BANKED
002818 505F           03056     movf        ram_0x05F, W, ACCESS
00281A E05D           03057     bz          flow_main_i2c_service_27f0_28ce
00281C 0E05           03058     movlw       0x05
00281E D047           03059     bra         flow_main_i2c_service_27f0_28a6
002820                03060 flow_main_i2c_service_27f0_2818:
002820 0E02           03061     movlw       0x02
Message[1302]: RAM Bank undefined in this chunk of code. Ensure that bank bits are correct. Assuming bank 0 from now on.
002822 6F93           03062     movwf       ram_0x093, BANKED
002824 045F           03063     decf        ram_0x05F, W, ACCESS
002826 E102           03064     bnz         flow_main_i2c_service_27f0_2824
002828 0E01           03065     movlw       0x01
00282A 6F93           03066     movwf       ram_0x093, BANKED
00282C                03067 flow_main_i2c_service_27f0_2824:
00282C 0E01           03068     movlw       0x01
00282E 645F           03069     cpfsgt      ram_0x05F, ACCESS
002830 D052           03070     bra         flow_main_i2c_service_27f0_28ce
002832 0E06           03071     movlw       0x06
002834 D03C           03072     bra         flow_main_i2c_service_27f0_28a6
002836                03073 flow_main_i2c_service_27f0_282e:
002836 0E03           03074     movlw       0x03
Message[1302]: RAM Bank undefined in this chunk of code. Ensure that bank bits are correct. Assuming bank 0 from now on.
002838 6F93           03075     movwf       ram_0x093, BANKED
00283A 045F           03076     decf        ram_0x05F, W, ACCESS
00283C E102           03077     bnz         flow_main_i2c_service_27f0_283a
00283E 0E02           03078     movlw       0x02
002840 6F93           03079     movwf       ram_0x093, BANKED
002842                03080 flow_main_i2c_service_27f0_283a:
002842 505F           03081     movf        ram_0x05F, W, ACCESS
002844 0A02           03082     xorlw       0x02
002846 E102           03083     bnz         flow_main_i2c_service_27f0_2844
002848 0E01           03084     movlw       0x01
00284A 6F93           03085     movwf       ram_0x093, BANKED
00284C                03086 flow_main_i2c_service_27f0_2844:
00284C 505F           03087     movf        ram_0x05F, W, ACCESS
00284E 0A03           03088     xorlw       0x03
002850 E142           03089     bnz         flow_main_i2c_service_27f0_28ce
002852 0E07           03090     movlw       0x07
002854 D02C           03091     bra         flow_main_i2c_service_27f0_28a6
002856                03092 flow_main_i2c_service_27f0_284e:
002856 0E04           03093     movlw       0x04
Message[1302]: RAM Bank undefined in this chunk of code. Ensure that bank bits are correct. Assuming bank 0 from now on.
002858 6F93           03094     movwf       ram_0x093, BANKED
00285A 045F           03095     decf        ram_0x05F, W, ACCESS
00285C E102           03096     bnz         flow_main_i2c_service_27f0_285a
00285E 0E03           03097     movlw       0x03
002860 6F93           03098     movwf       ram_0x093, BANKED
002862                03099 flow_main_i2c_service_27f0_285a:
002862 505F           03100     movf        ram_0x05F, W, ACCESS
002864 0A02           03101     xorlw       0x02
002866 E102           03102     bnz         flow_main_i2c_service_27f0_2864
002868 0E02           03103     movlw       0x02
00286A 6F93           03104     movwf       ram_0x093, BANKED
gpasm-1.5.2 #1325 (Jan 30 2022) src/dlcp_fw/a   03/29/2026  18:21:48        PAGE 68


LOC    OBJECT CODE    LINE  SOURCE TEXT
  VALUE

00286C                03105 flow_main_i2c_service_27f0_2864:
00286C 505F           03106     movf        ram_0x05F, W, ACCESS
00286E 0A03           03107     xorlw       0x03
002870 E132           03108     bnz         flow_main_i2c_service_27f0_28ce
002872 0E01           03109     movlw       0x01
002874 D01C           03110     bra         flow_main_i2c_service_27f0_28a6
002876                03111 flow_main_i2c_service_27f0_286e:
002876 045F           03112     decf        ram_0x05F, W, ACCESS
002878 E102           03113     bnz         flow_main_i2c_service_27f0_2876
00287A 0E04           03114     movlw       0x04
Message[1302]: RAM Bank undefined in this chunk of code. Ensure that bank bits are correct. Assuming bank 0 from now on.
00287C 6F93           03115     movwf       ram_0x093, BANKED
00287E                03116 flow_main_i2c_service_27f0_2876:
00287E 505F           03117     movf        ram_0x05F, W, ACCESS
002880 0A02           03118     xorlw       0x02
002882 E102           03119     bnz         flow_main_i2c_service_27f0_2880
002884 0E03           03120     movlw       0x03
002886 6F93           03121     movwf       ram_0x093, BANKED
002888                03122 flow_main_i2c_service_27f0_2880:
002888 505F           03123     movf        ram_0x05F, W, ACCESS
00288A 0A03           03124     xorlw       0x03
00288C E124           03125     bnz         flow_main_i2c_service_27f0_28ce
00288E 0E02           03126     movlw       0x02
002890 D00E           03127     bra         flow_main_i2c_service_27f0_28a6
002892                03128 flow_main_i2c_service_27f0_288a:
002892 505F           03129     movf        ram_0x05F, W, ACCESS
002894 0A02           03130     xorlw       0x02
002896 E102           03131     bnz         flow_main_i2c_service_27f0_2894
002898 0E04           03132     movlw       0x04
Message[1302]: RAM Bank undefined in this chunk of code. Ensure that bank bits are correct. Assuming bank 0 from now on.
00289A 6F93           03133     movwf       ram_0x093, BANKED
00289C                03134 flow_main_i2c_service_27f0_2894:
00289C 505F           03135     movf        ram_0x05F, W, ACCESS
00289E 0A03           03136     xorlw       0x03
0028A0 E11A           03137     bnz         flow_main_i2c_service_27f0_28ce
0028A2 0E03           03138     movlw       0x03
0028A4 D004           03139     bra         flow_main_i2c_service_27f0_28a6
0028A6                03140 flow_main_i2c_service_27f0_289e:
0028A6 505F           03141     movf        ram_0x05F, W, ACCESS
0028A8 0A03           03142     xorlw       0x03
0028AA E115           03143     bnz         flow_main_i2c_service_27f0_28ce
0028AC 0E04           03144     movlw       0x04
0028AE                03145 flow_main_i2c_service_27f0_28a6:
Message[1302]: RAM Bank undefined in this chunk of code. Ensure that bank bits are correct. Assuming bank 0 from now on.
0028AE 6F93           03146     movwf       ram_0x093, BANKED
0028B0 D012           03147     bra         flow_main_i2c_service_27f0_28ce
0028B2                03148 flow_main_i2c_service_27f0_28aa:
Message[1302]: RAM Bank undefined in this chunk of code. Ensure that bank bits are correct. Assuming bank 0 from now on.
0028B2 5199           03149     movf        input_select, W, BANKED
0028B4 E0A9           03150     bz          flow_main_i2c_service_27f0_2800
0028B6 0A01           03151     xorlw       0x01
0028B8 E0AB           03152     bz          flow_main_i2c_service_27f0_2808
0028BA 0A03           03153     xorlw       0x03
gpasm-1.5.2 #1325 (Jan 30 2022) src/dlcp_fw/a   03/29/2026  18:21:48        PAGE 69


LOC    OBJECT CODE    LINE  SOURCE TEXT
  VALUE

0028BC E0AB           03154     bz          flow_main_i2c_service_27f0_280c
0028BE 0A01           03155     xorlw       0x01
0028C0 E0AF           03156     bz          flow_main_i2c_service_27f0_2818
0028C2 0A07           03157     xorlw       0x07
0028C4 E0B8           03158     bz          flow_main_i2c_service_27f0_282e
0028C6 0A01           03159     xorlw       0x01
0028C8 E0C6           03160     bz          flow_main_i2c_service_27f0_284e
0028CA 0A03           03161     xorlw       0x03
0028CC E0D4           03162     bz          flow_main_i2c_service_27f0_286e
0028CE 0A01           03163     xorlw       0x01
0028D0 E0E0           03164     bz          flow_main_i2c_service_27f0_288a
0028D2 0A0F           03165     xorlw       0x0F
0028D4 E0E8           03166     bz          flow_main_i2c_service_27f0_289e
0028D6                03167 flow_main_i2c_service_27f0_28ce:
0028D6 6799           03168     tstfsz      input_select, BANKED
0028D8 D018           03169     bra         flow_main_i2c_service_27f0_2902
0028DA C0BE F006      03170     movff       ram_0x0BE, ram_0x006
0028DE 0E0D           03171     movlw       0x0D
0028E0 ECA9 F023      03172     call        i2c_secondary_dev_write, 0x0
0028E4 0E13           03173     movlw       0x13
0028E6 EC5E F021      03174     call        i2c_secondary_dev_random_read, 0x0
0028EA 0100           03175     movlb       0x0
0028EC 6FBE           03176     movwf       ram_0x0BE, BANKED
0028EE 67BE           03177     tstfsz      ram_0x0BE, BANKED
0028F0 D010           03178     bra         flow_main_i2c_service_27f0_290a
0028F2 6B93           03179     clrf        ram_0x093, BANKED
0028F4 0E0A           03180     movlw       0x0A
0028F6 65BA           03181     cpfsgt      ram_0x0BA, BANKED
0028F8 D00A           03182     bra         flow_main_i2c_service_27f0_2906
Message[1302]: RAM Bank undefined in this chunk of code. Ensure that bank bits are correct. Assuming bank 0 from now on.
0028FA 6BBA           03183     clrf        ram_0x0BA, BANKED
0028FC 0E04           03184     movlw       0x04
0028FE 5DB6           03185     subwf       ram_0x0B6, W, BANKED
002900 A0D8           03186     btfss       STATUS, 0, ACCESS
002902 2BB6           03187     incf        ram_0x0B6, F, BANKED
002904 51B6           03188     movf        ram_0x0B6, W, BANKED
002906 0A04           03189     xorlw       0x04
002908 E12D           03190     bnz         flow_main_i2c_service_27f0_295c
00290A                03191 flow_main_i2c_service_27f0_2902:
00290A 6BB6           03192     clrf        ram_0x0B6, BANKED
00290C D02B           03193     bra         flow_main_i2c_service_27f0_295c
00290E                03194 flow_main_i2c_service_27f0_2906:
Message[1302]: RAM Bank undefined in this chunk of code. Ensure that bank bits are correct. Assuming bank 0 from now on.
00290E 2BBA           03195     incf        ram_0x0BA, F, BANKED
002910 D029           03196     bra         flow_main_i2c_service_27f0_295c
002912                03197 flow_main_i2c_service_27f0_290a:
Message[1302]: RAM Bank undefined in this chunk of code. Ensure that bank bits are correct. Assuming bank 0 from now on.
002912 67B6           03198     tstfsz      ram_0x0B6, BANKED
002914 D002           03199     bra         flow_main_i2c_service_27f0_2912
002916 0E03           03200     movlw       0x03
002918 6F93           03201     movwf       ram_0x093, BANKED
00291A                03202 flow_main_i2c_service_27f0_2912:
00291A 05B6           03203     decf        ram_0x0B6, W, BANKED
gpasm-1.5.2 #1325 (Jan 30 2022) src/dlcp_fw/a   03/29/2026  18:21:48        PAGE 70


LOC    OBJECT CODE    LINE  SOURCE TEXT
  VALUE

00291C E102           03204     bnz         flow_main_i2c_service_27f0_291a
00291E 0E01           03205     movlw       0x01
002920 6F93           03206     movwf       ram_0x093, BANKED
002922                03207 flow_main_i2c_service_27f0_291a:
002922 51B6           03208     movf        ram_0x0B6, W, BANKED
002924 0A02           03209     xorlw       0x02
002926 E102           03210     bnz         flow_main_i2c_service_27f0_2924
002928 0E02           03211     movlw       0x02
00292A 6F93           03212     movwf       ram_0x093, BANKED
00292C                03213 flow_main_i2c_service_27f0_2924:
00292C 51B6           03214     movf        ram_0x0B6, W, BANKED
00292E 0A03           03215     xorlw       0x03
002930 E102           03216     bnz         flow_main_i2c_service_27f0_292e
002932 0E04           03217     movlw       0x04
002934 6F93           03218     movwf       ram_0x093, BANKED
002936                03219 flow_main_i2c_service_27f0_292e:
002936 0E12           03220     movlw       0x12
002938 EC5E F021      03221     call        i2c_secondary_dev_random_read, 0x0
00293C 0100           03222     movlb       0x0
00293E 6FBF           03223     movwf       ram_0x0BF, BANKED
002940 51BF           03224     movf        ram_0x0BF, W, BANKED
002942 A4D8           03225     btfss       STATUS, 2, ACCESS
002944 885E           03226     bsf         active_flags, 4, ACCESS
002946 0E01           03227     movlw       0x01
002948 A85E           03228     btfss       active_flags, 4, ACCESS
00294A 0E00           03229     movlw       0x00
00294C 6E08           03230     movwf       ram_0x008, ACCESS
00294E 0E01           03231     movlw       0x01
002950 AA5E           03232     btfss       active_flags, 5, ACCESS
002952 0E00           03233     movlw       0x00
002954 1A08           03234     xorwf       ram_0x008, F, ACCESS
002956 A4D8           03235     btfss       STATUS, 2, ACCESS
002958 8B7E           03236     bsf         event_flags, 5, BANKED
00295A A85E           03237     btfss       active_flags, 4, ACCESS
00295C D002           03238     bra         flow_main_i2c_service_27f0_295a
00295E 8A5E           03239     bsf         active_flags, 5, ACCESS
002960 D001           03240     bra         flow_main_i2c_service_27f0_295c
002962                03241 flow_main_i2c_service_27f0_295a:
002962 9A5E           03242     bcf         active_flags, 5, ACCESS
002964                03243 flow_main_i2c_service_27f0_295c:
002964 0100           03244     movlb       0x0
002966 5193           03245     movf        ram_0x093, W, BANKED
002968 0A02           03246     xorlw       0x02
00296A B4D8           03247     btfsc       STATUS, 2, ACCESS
00296C B082           03248     btfsc       PORTC, 0, ACCESS
00296E D002           03249     bra         flow_main_i2c_service_27f0_296c
002970 C0C3 F093      03250     movff       ram_0x0C3, ram_0x093
002974                03251 flow_main_i2c_service_27f0_296c:
002974 51AB           03252     movf        ram_0x0AB, W, BANKED
002976 1993           03253     xorwf       ram_0x093, W, BANKED
002978 A4D8           03254     btfss       STATUS, 2, ACCESS
00297A 837E           03255     bsf         event_flags, 1, BANKED
00297C C093 F0AB      03256     movff       ram_0x093, ram_0x0AB
gpasm-1.5.2 #1325 (Jan 30 2022) src/dlcp_fw/a   03/29/2026  18:21:48        PAGE 71


LOC    OBJECT CODE    LINE  SOURCE TEXT
  VALUE

002980 D001           03257     bra         flow_main_i2c_service_27f0_297c
002982                03258 flow_main_i2c_service_27f0_297a:
Message[1302]: RAM Bank undefined in this chunk of code. Ensure that bank bits are correct. Assuming bank 0 from now on.
002982 2BBB           03259     incf        ram_0x0BB, F, BANKED
002984                03260 flow_main_i2c_service_27f0_297c:
002984 0012           03261     return      0
                      03262 
                      03263 
                      03264 ; ---------------------------------------------------------------------------
                      03265 ; Function: main_core_service_297e
                      03266 ; Address : 0x297E
                      03267 ; Notes   : Inferred core helper routine. Calls: main_core_service_2ca8, main_core_service_24c2, main_co
                            re_service_3ec4.
                      03268 ; ---------------------------------------------------------------------------
002986                03269 main_core_service_297e:
002986 6A11           03270     clrf        ram_0x011, ACCESS
002988 6A12           03271     clrf        ram_0x012, ACCESS
00298A 0E80           03272     movlw       0x80
00298C 6E13           03273     movwf       ram_0x013, ACCESS
00298E 0E44           03274     movlw       0x44
002990 6E14           03275     movwf       ram_0x014, ACCESS
002992 C02F F00D      03276     movff       ram_0x02F, ram_0x00D
002996 C030 F00E      03277     movff       ram_0x030, ram_0x00E
00299A C031 F00F      03278     movff       ram_0x031, ram_0x00F
00299E C032 F010      03279     movff       ram_0x032, ram_0x010
0029A2 EC58 F016      03280     call        main_core_service_2ca8, 0x0
0029A6 C00D F020      03281     movff       ram_0x00D, ram_0x020
0029AA C00E F021      03282     movff       ram_0x00E, ram_0x021
0029AE C00F F022      03283     movff       ram_0x00F, ram_0x022
0029B2 C010 F023      03284     movff       ram_0x010, ram_0x023
0029B6 6A24           03285     clrf        ram_0x024, ACCESS
0029B8 6A25           03286     clrf        ram_0x025, ACCESS
0029BA 0E80           03287     movlw       0x80
0029BC 6E26           03288     movwf       ram_0x026, ACCESS
0029BE 0E3F           03289     movlw       0x3F
0029C0 6E27           03290     movwf       ram_0x027, ACCESS
0029C2 EC65 F012      03291     call        main_core_service_24c2, 0x0
0029C6 C020 F02F      03292     movff       ram_0x020, ram_0x02F
0029CA C021 F030      03293     movff       ram_0x021, ram_0x030
0029CE C022 F031      03294     movff       ram_0x022, ram_0x031
0029D2 C023 F032      03295     movff       ram_0x023, ram_0x032
0029D6 C02F F025      03296     movff       ram_0x02F, ram_0x025
0029DA C030 F026      03297     movff       ram_0x030, ram_0x026
0029DE C031 F027      03298     movff       ram_0x031, ram_0x027
0029E2 C032 F028      03299     movff       ram_0x032, ram_0x028
0029E6 0E2F           03300     movlw       0x2F
0029E8 EC95 F01F      03301     call        main_core_service_3ec4, 0x0
0029EC C02F F025      03302     movff       ram_0x02F, ram_0x025
0029F0 C030 F026      03303     movff       ram_0x030, ram_0x026
0029F4 C031 F027      03304     movff       ram_0x031, ram_0x027
0029F8 C032 F028      03305     movff       ram_0x032, ram_0x028
0029FC 0E2F           03306     movlw       0x2F
0029FE EC95 F01F      03307     call        main_core_service_3ec4, 0x0
gpasm-1.5.2 #1325 (Jan 30 2022) src/dlcp_fw/a   03/29/2026  18:21:48        PAGE 72


LOC    OBJECT CODE    LINE  SOURCE TEXT
  VALUE

002A02 C02F F025      03308     movff       ram_0x02F, ram_0x025
002A06 C030 F026      03309     movff       ram_0x030, ram_0x026
002A0A C031 F027      03310     movff       ram_0x031, ram_0x027
002A0E C032 F028      03311     movff       ram_0x032, ram_0x028
002A12 0E2F           03312     movlw       0x2F
002A14 EC95 F01F      03313     call        main_core_service_3ec4, 0x0
002A18 C02F F025      03314     movff       ram_0x02F, ram_0x025
002A1C C030 F026      03315     movff       ram_0x030, ram_0x026
002A20 C031 F027      03316     movff       ram_0x031, ram_0x027
002A24 C032 F028      03317     movff       ram_0x032, ram_0x028
002A28 0E2F           03318     movlw       0x2F
002A2A EC95 F01F      03319     call        main_core_service_3ec4, 0x0
002A2E C02F F025      03320     movff       ram_0x02F, ram_0x025
002A32 C030 F026      03321     movff       ram_0x030, ram_0x026
002A36 C031 F027      03322     movff       ram_0x031, ram_0x027
002A3A C032 F028      03323     movff       ram_0x032, ram_0x028
002A3E 0E2F           03324     movlw       0x2F
002A40 EC95 F01F      03325     call        main_core_service_3ec4, 0x0
002A44 C02F F025      03326     movff       ram_0x02F, ram_0x025
002A48 C030 F026      03327     movff       ram_0x030, ram_0x026
002A4C C031 F027      03328     movff       ram_0x031, ram_0x027
002A50 C032 F028      03329     movff       ram_0x032, ram_0x028
002A54 0E2F           03330     movlw       0x2F
002A56 EC95 F01F      03331     call        main_core_service_3ec4, 0x0
002A5A C02F F025      03332     movff       ram_0x02F, ram_0x025
002A5E C030 F026      03333     movff       ram_0x030, ram_0x026
002A62 C031 F027      03334     movff       ram_0x031, ram_0x027
002A66 C032 F028      03335     movff       ram_0x032, ram_0x028
002A6A 0E2F           03336     movlw       0x2F
002A6C EC95 F01F      03337     call        main_core_service_3ec4, 0x0
002A70 C02F F025      03338     movff       ram_0x02F, ram_0x025
002A74 C030 F026      03339     movff       ram_0x030, ram_0x026
002A78 C031 F027      03340     movff       ram_0x031, ram_0x027
002A7C C032 F028      03341     movff       ram_0x032, ram_0x028
002A80 0E2F           03342     movlw       0x2F
002A82 EC95 F01F      03343     call        main_core_service_3ec4, 0x0
002A86 C02F F025      03344     movff       ram_0x02F, ram_0x025
002A8A C030 F026      03345     movff       ram_0x030, ram_0x026
002A8E C031 F027      03346     movff       ram_0x031, ram_0x027
002A92 C032 F028      03347     movff       ram_0x032, ram_0x028
002A96 0E2F           03348     movlw       0x2F
002A98 EC95 F01F      03349     call        main_core_service_3ec4, 0x0
002A9C C02F F025      03350     movff       ram_0x02F, ram_0x025
002AA0 C030 F026      03351     movff       ram_0x030, ram_0x026
002AA4 C031 F027      03352     movff       ram_0x031, ram_0x027
002AA8 C032 F028      03353     movff       ram_0x032, ram_0x028
002AAC 0E2F           03354     movlw       0x2F
002AAE EC95 F01F      03355     call        main_core_service_3ec4, 0x0
002AB2 C02F F02F      03356     movff       ram_0x02F, ram_0x02F
002AB6 C030 F030      03357     movff       ram_0x030, ram_0x030
002ABA C031 F031      03358     movff       ram_0x031, ram_0x031
002ABE C032 F032      03359     movff       ram_0x032, ram_0x032
002AC2 0012           03360     return      0
gpasm-1.5.2 #1325 (Jan 30 2022) src/dlcp_fw/a   03/29/2026  18:21:48        PAGE 73


LOC    OBJECT CODE    LINE  SOURCE TEXT
  VALUE

                      03361 
                      03362 
                      03363 ; ---------------------------------------------------------------------------
                      03364 ; Function: main_core_service_2abc
                      03365 ; Address : 0x2ABC
                      03366 ; Notes   : Inferred core helper routine. Calls: main_core_service_2bac, main_core_service_2b8e, main_co
                            re_service_2b9e.
                      03367 ; ---------------------------------------------------------------------------
002AC4                03368 main_core_service_2abc:
002AC4 C012 F01A      03369     movff       ram_0x012, ram_0x01A
002AC8 C013 F01B      03370     movff       ram_0x013, ram_0x01B
002ACC C014 F01C      03371     movff       ram_0x014, ram_0x01C
002AD0 C015 F01D      03372     movff       ram_0x015, ram_0x01D
002AD4 0E18           03373     movlw       0x18
002AD6 D001           03374     bra         flow_main_core_service_2abc_2ad2
002AD8                03375 flow_main_core_service_2abc_2ad0:
002AD8 D86D           03376     rcall       main_core_service_2bac
002ADA                03377 flow_main_core_service_2abc_2ad2:
002ADA 2EE8           03378     decfsz      WREG, F, ACCESS
002ADC D7FD           03379     bra         flow_main_core_service_2abc_2ad0
002ADE 501A           03380     movf        ram_0x01A, W, ACCESS
002AE0 6E1E           03381     movwf       ram_0x01E, ACCESS
002AE2 661E           03382     tstfsz      ram_0x01E, ACCESS
002AE4 D001           03383     bra         flow_main_core_service_2abc_2ae0
002AE6 D011           03384     bra         flow_main_core_service_2abc_2b02
002AE8                03385 flow_main_core_service_2abc_2ae0:
002AE8 C016 F01A      03386     movff       ram_0x016, ram_0x01A
002AEC C017 F01B      03387     movff       ram_0x017, ram_0x01B
002AF0 C018 F01C      03388     movff       ram_0x018, ram_0x01C
002AF4 C019 F01D      03389     movff       ram_0x019, ram_0x01D
002AF8 0E18           03390     movlw       0x18
002AFA D001           03391     bra         flow_main_core_service_2abc_2af6
002AFC                03392 flow_main_core_service_2abc_2af4:
002AFC D85B           03393     rcall       main_core_service_2bac
002AFE                03394 flow_main_core_service_2abc_2af6:
002AFE 2EE8           03395     decfsz      WREG, F, ACCESS
002B00 D7FD           03396     bra         flow_main_core_service_2abc_2af4
002B02 501A           03397     movf        ram_0x01A, W, ACCESS
002B04 6E24           03398     movwf       ram_0x024, ACCESS
002B06 6624           03399     tstfsz      ram_0x024, ACCESS
002B08 D005           03400     bra         flow_main_core_service_2abc_2b0c
002B0A                03401 flow_main_core_service_2abc_2b02:
002B0A 6A12           03402     clrf        ram_0x012, ACCESS
002B0C 6A13           03403     clrf        ram_0x013, ACCESS
002B0E 6A14           03404     clrf        ram_0x014, ACCESS
002B10 6A15           03405     clrf        ram_0x015, ACCESS
002B12 D040           03406     bra         flow_main_core_service_2abc_2b8c
002B14                03407 flow_main_core_service_2abc_2b0c:
002B14 5024           03408     movf        ram_0x024, W, ACCESS
002B16 0F7B           03409     addlw       0x7B
002B18 261E           03410     addwf       ram_0x01E, F, ACCESS
002B1A C015 F024      03411     movff       ram_0x015, ram_0x024
002B1E 5019           03412     movf        ram_0x019, W, ACCESS
gpasm-1.5.2 #1325 (Jan 30 2022) src/dlcp_fw/a   03/29/2026  18:21:48        PAGE 74


LOC    OBJECT CODE    LINE  SOURCE TEXT
  VALUE

002B20 1A24           03413     xorwf       ram_0x024, F, ACCESS
002B22 0E80           03414     movlw       0x80
002B24 1624           03415     andwf       ram_0x024, F, ACCESS
002B26 8E14           03416     bsf         ram_0x014, 7, ACCESS
002B28 8E18           03417     bsf         ram_0x018, 7, ACCESS
002B2A 6A19           03418     clrf        ram_0x019, ACCESS
002B2C 6A1F           03419     clrf        ram_0x01F, ACCESS
002B2E 6A20           03420     clrf        ram_0x020, ACCESS
002B30 6A21           03421     clrf        ram_0x021, ACCESS
002B32 6A22           03422     clrf        ram_0x022, ACCESS
002B34 0E07           03423     movlw       0x07
002B36 6E23           03424     movwf       ram_0x023, ACCESS
002B38                03425 flow_main_core_service_2abc_2b30:
002B38 A012           03426     btfss       ram_0x012, 0, ACCESS
002B3A D002           03427     bra         flow_main_core_service_2abc_2b38
002B3C 5016           03428     movf        ram_0x016, W, ACCESS
002B3E D82B           03429     rcall       main_core_service_2b8e
002B40                03430 flow_main_core_service_2abc_2b38:
002B40 D832           03431     rcall       main_core_service_2b9e
002B42 3616           03432     rlcf        ram_0x016, F, ACCESS
002B44 3617           03433     rlcf        ram_0x017, F, ACCESS
002B46 3618           03434     rlcf        ram_0x018, F, ACCESS
002B48 3619           03435     rlcf        ram_0x019, F, ACCESS
002B4A 2E23           03436     decfsz      ram_0x023, F, ACCESS
002B4C D7F5           03437     bra         flow_main_core_service_2abc_2b30
002B4E 0E11           03438     movlw       0x11
002B50 6E23           03439     movwf       ram_0x023, ACCESS
002B52                03440 flow_main_core_service_2abc_2b4a:
002B52 A012           03441     btfss       ram_0x012, 0, ACCESS
002B54 D002           03442     bra         flow_main_core_service_2abc_2b52
002B56 5016           03443     movf        ram_0x016, W, ACCESS
002B58 D81E           03444     rcall       main_core_service_2b8e
002B5A                03445 flow_main_core_service_2abc_2b52:
002B5A D825           03446     rcall       main_core_service_2b9e
002B5C 3222           03447     rrcf        ram_0x022, F, ACCESS
002B5E 3221           03448     rrcf        ram_0x021, F, ACCESS
002B60 3220           03449     rrcf        ram_0x020, F, ACCESS
002B62 321F           03450     rrcf        ram_0x01F, F, ACCESS
002B64 2E23           03451     decfsz      ram_0x023, F, ACCESS
002B66 D7F5           03452     bra         flow_main_core_service_2abc_2b4a
002B68 C01F F003      03453     movff       ram_0x01F, ram_0x003
002B6C C020 F004      03454     movff       ram_0x020, ram_0x004
002B70 C021 F005      03455     movff       ram_0x021, ram_0x005
002B74 C022 F006      03456     movff       ram_0x022, ram_0x006
002B78 C01E F007      03457     movff       ram_0x01E, ram_0x007
002B7C C024 F008      03458     movff       ram_0x024, ram_0x008
002B80 EC7D F018      03459     call        main_core_service_30d8, 0x0
002B84 C003 F012      03460     movff       ram_0x003, ram_0x012
002B88 C004 F013      03461     movff       ram_0x004, ram_0x013
002B8C C005 F014      03462     movff       ram_0x005, ram_0x014
002B90 C006 F015      03463     movff       ram_0x006, ram_0x015
002B94                03464 flow_main_core_service_2abc_2b8c:
002B94 0012           03465     return      0
gpasm-1.5.2 #1325 (Jan 30 2022) src/dlcp_fw/a   03/29/2026  18:21:48        PAGE 75


LOC    OBJECT CODE    LINE  SOURCE TEXT
  VALUE

                      03466 
                      03467 
                      03468 ; ---------------------------------------------------------------------------
                      03469 ; Function: main_core_service_2b8e
                      03470 ; Address : 0x2B8E
                      03471 ; Notes   : Inferred core helper routine.
                      03472 ; ---------------------------------------------------------------------------
002B96                03473 main_core_service_2b8e:
002B96 261F           03474     addwf       ram_0x01F, F, ACCESS
002B98 5017           03475     movf        ram_0x017, W, ACCESS
002B9A 2220           03476     addwfc      ram_0x020, F, ACCESS
002B9C 5018           03477     movf        ram_0x018, W, ACCESS
002B9E 2221           03478     addwfc      ram_0x021, F, ACCESS
002BA0 5019           03479     movf        ram_0x019, W, ACCESS
002BA2 2222           03480     addwfc      ram_0x022, F, ACCESS
002BA4 0012           03481     return      0
                      03482 
                      03483 
                      03484 ; ---------------------------------------------------------------------------
                      03485 ; Function: main_core_service_2b9e
                      03486 ; Address : 0x2B9E
                      03487 ; Notes   : Inferred core helper routine.
                      03488 ; ---------------------------------------------------------------------------
002BA6                03489 main_core_service_2b9e:
002BA6 90D8           03490     bcf         STATUS, 0, ACCESS
002BA8 3215           03491     rrcf        ram_0x015, F, ACCESS
002BAA 3214           03492     rrcf        ram_0x014, F, ACCESS
002BAC 3213           03493     rrcf        ram_0x013, F, ACCESS
002BAE 3212           03494     rrcf        ram_0x012, F, ACCESS
002BB0 90D8           03495     bcf         STATUS, 0, ACCESS
002BB2 0012           03496     return      0
                      03497 
                      03498 
                      03499 ; ---------------------------------------------------------------------------
                      03500 ; Function: main_core_service_2bac
                      03501 ; Address : 0x2BAC
                      03502 ; Notes   : Inferred core helper routine.
                      03503 ; ---------------------------------------------------------------------------
002BB4                03504 main_core_service_2bac:
002BB4 90D8           03505     bcf         STATUS, 0, ACCESS
002BB6 321D           03506     rrcf        ram_0x01D, F, ACCESS
002BB8 321C           03507     rrcf        ram_0x01C, F, ACCESS
002BBA 321B           03508     rrcf        ram_0x01B, F, ACCESS
002BBC 321A           03509     rrcf        ram_0x01A, F, ACCESS
002BBE 0012           03510     return      0
                      03511 
                      03512 
                      03513 ; ---------------------------------------------------------------------------
                      03514 ; Function: main_flash_service_2bb8
                      03515 ; Address : 0x2BB8
                      03516 ; Notes   : Inferred flash helper routine. Calls: flash_read, flash_erase, flash_write.
                      03517 ; ---------------------------------------------------------------------------
002BC0                03518 main_flash_service_2bb8:
gpasm-1.5.2 #1325 (Jan 30 2022) src/dlcp_fw/a   03/29/2026  18:21:48        PAGE 76


LOC    OBJECT CODE    LINE  SOURCE TEXT
  VALUE

Message[1302]: RAM Bank undefined in this chunk of code. Ensure that bank bits are correct. Assuming bank 0 from now on.
002BC0 67C5           03519     tstfsz      ram_0x0C5, BANKED
002BC2 D010           03520     bra         flow_main_flash_service_2bb8_2bdc
002BC4 C082 F003      03521     movff       ram_0x082, ram_0x003
002BC8 C083 F004      03522     movff       ram_0x083, ram_0x004
002BCC 6A05           03523     clrf        ram_0x005, ACCESS
002BCE 6A06           03524     clrf        ram_0x006, ACCESS
002BD0 6A08           03525     clrf        ram_0x008, ACCESS
002BD2 0EC0           03526     movlw       0xC0
002BD4 6E07           03527     movwf       ram_0x007, ACCESS
002BD6 0103           03528     movlb       0x3
002BD8 0E03           03529     movlw       0x03
002BDA 6E0A           03530     movwf       ram_0x00A, ACCESS
002BDC 0E00           03531     movlw       0x00
002BDE 6E09           03532     movwf       ram_0x009, ACCESS
002BE0 EC47 F020      03533     call        flash_read, 0x0
002BE4                03534 flow_main_flash_service_2bb8_2bdc:
002BE4 0101           03535     movlb       0x1
002BE6 511B           03536     movf        ram_0x01B, W, BANKED
002BE8 E004           03537     bz          flow_main_flash_service_2bb8_2bea
002BEA 6A1D           03538     clrf        ram_0x01D, ACCESS
002BEC 0E02           03539     movlw       0x02
002BEE 6E1C           03540     movwf       ram_0x01C, ACCESS
002BF0 D002           03541     bra         flow_main_flash_service_2bb8_2bee
002BF2                03542 flow_main_flash_service_2bb8_2bea:
002BF2 6A1C           03543     clrf        ram_0x01C, ACCESS
002BF4 6A1D           03544     clrf        ram_0x01D, ACCESS
002BF6                03545 flow_main_flash_service_2bb8_2bee:
002BF6 C01C F01E      03546     movff       ram_0x01C, ram_0x01E
002BFA 0E04           03547     movlw       0x04
002BFC 6E1F           03548     movwf       ram_0x01F, ACCESS
002BFE                03549 flow_main_flash_service_2bb8_2bf6:
002BFE 0E1A           03550     movlw       0x1A
002C00 6E18           03551     movwf       ram_0x018, ACCESS
002C02 0E01           03552     movlw       0x01
002C04 6E19           03553     movwf       ram_0x019, ACCESS
002C06 501F           03554     movf        ram_0x01F, W, ACCESS
002C08 2618           03555     addwf       ram_0x018, F, ACCESS
002C0A 0E00           03556     movlw       0x00
002C0C 2219           03557     addwfc      ram_0x019, F, ACCESS
002C0E 501E           03558     movf        ram_0x01E, W, ACCESS
002C10 5C18           03559     subwf       ram_0x018, W, ACCESS
002C12 6ED9           03560     movwf       FSR2L, ACCESS
002C14 5019           03561     movf        ram_0x019, W, ACCESS
002C16 A0D8           03562     btfss       STATUS, 0, ACCESS
002C18 0419           03563     decf        ram_0x019, W, ACCESS
002C1A 6EDA           03564     movwf       FSR2H, ACCESS
002C1C 0E00           03565     movlw       0x00
002C1E 6E1A           03566     movwf       ram_0x01A, ACCESS
002C20 0E03           03567     movlw       0x03
002C22 6E1B           03568     movwf       ram_0x01B, ACCESS
002C24 0100           03569     movlb       0x0
002C26 51C5           03570     movf        ram_0x0C5, W, BANKED
gpasm-1.5.2 #1325 (Jan 30 2022) src/dlcp_fw/a   03/29/2026  18:21:48        PAGE 77


LOC    OBJECT CODE    LINE  SOURCE TEXT
  VALUE

002C28 261A           03571     addwf       ram_0x01A, F, ACCESS
002C2A 0E00           03572     movlw       0x00
002C2C 221B           03573     addwfc      ram_0x01B, F, ACCESS
002C2E 501F           03574     movf        ram_0x01F, W, ACCESS
002C30 241A           03575     addwf       ram_0x01A, W, ACCESS
002C32 6EE1           03576     movwf       FSR1L, ACCESS
002C34 0E00           03577     movlw       0x00
002C36 201B           03578     addwfc      ram_0x01B, W, ACCESS
002C38 6EE2           03579     movwf       FSR1H, ACCESS
002C3A CFDF FFE7      03580     movff       INDF2, INDF1
002C3E 2A1F           03581     incf        ram_0x01F, F, ACCESS
002C40 0E17           03582     movlw       0x17
002C42 641F           03583     cpfsgt      ram_0x01F, ACCESS
002C44 D7DC           03584     bra         flow_main_flash_service_2bb8_2bf6
002C46 0E18           03585     movlw       0x18
Message[1302]: RAM Bank undefined in this chunk of code. Ensure that bank bits are correct. Assuming bank 0 from now on.
002C48 27C5           03586     addwf       ram_0x0C5, F, BANKED
002C4A 0EBF           03587     movlw       0xBF
002C4C 65C5           03588     cpfsgt      ram_0x0C5, BANKED
002C4E D02F           03589     bra         flow_main_flash_service_2bb8_2ca6
Message[1302]: RAM Bank undefined in this chunk of code. Ensure that bank bits are correct. Assuming bank 0 from now on.
002C50 6BC5           03590     clrf        ram_0x0C5, BANKED
002C52 0E3F           03591     movlw       0x3F
002C54 5D82           03592     subwf       ram_0x082, W, BANKED
002C56 0E5F           03593     movlw       0x5F
002C58 5983           03594     subwfb      ram_0x083, W, BANKED
002C5A E229           03595     bc          flow_main_flash_service_2bb8_2ca6
002C5C C082 F003      03596     movff       ram_0x082, ram_0x003
002C60 C083 F004      03597     movff       ram_0x083, ram_0x004
002C64 6A05           03598     clrf        ram_0x005, ACCESS
002C66 6A06           03599     clrf        ram_0x006, ACCESS
002C68 0EBF           03600     movlw       0xBF
002C6A 2582           03601     addwf       ram_0x082, W, BANKED
002C6C 6E18           03602     movwf       ram_0x018, ACCESS
002C6E 0E00           03603     movlw       0x00
002C70 2183           03604     addwfc      ram_0x083, W, BANKED
002C72 6E19           03605     movwf       ram_0x019, ACCESS
002C74 C018 F007      03606     movff       ram_0x018, ram_0x007
002C78 C019 F008      03607     movff       ram_0x019, ram_0x008
002C7C 6A09           03608     clrf        ram_0x009, ACCESS
002C7E 6A0A           03609     clrf        ram_0x00A, ACCESS
002C80 ECE9 F01E      03610     call        flash_erase, 0x0
002C84 C082 F003      03611     movff       ram_0x082, ram_0x003
002C88 C083 F004      03612     movff       ram_0x083, ram_0x004
002C8C 6A05           03613     clrf        ram_0x005, ACCESS
002C8E 6A06           03614     clrf        ram_0x006, ACCESS
002C90 6A08           03615     clrf        ram_0x008, ACCESS
002C92 0EC0           03616     movlw       0xC0
002C94 6E07           03617     movwf       ram_0x007, ACCESS
002C96 0103           03618     movlb       0x3
002C98 0E03           03619     movlw       0x03
002C9A 6E0A           03620     movwf       ram_0x00A, ACCESS
002C9C 0E00           03621     movlw       0x00
gpasm-1.5.2 #1325 (Jan 30 2022) src/dlcp_fw/a   03/29/2026  18:21:48        PAGE 78


LOC    OBJECT CODE    LINE  SOURCE TEXT
  VALUE

002C9E 6E09           03622     movwf       ram_0x009, ACCESS
002CA0 EC3B F017      03623     call        flash_write, 0x0
002CA4 0EC0           03624     movlw       0xC0
002CA6 0100           03625     movlb       0x0
002CA8 2782           03626     addwf       ram_0x082, F, BANKED
002CAA 0E00           03627     movlw       0x00
002CAC 2383           03628     addwfc      ram_0x083, F, BANKED
002CAE                03629 flow_main_flash_service_2bb8_2ca6:
002CAE 0012           03630     return      0
                      03631 
                      03632 
                      03633 ; ---------------------------------------------------------------------------
                      03634 ; Function: main_core_service_2ca8
                      03635 ; Address : 0x2CA8
                      03636 ; Notes   : Inferred core helper routine. Calls: main_core_service_2d80, main_core_service_30d8.
                      03637 ; ---------------------------------------------------------------------------
002CB0                03638 main_core_service_2ca8:
002CB0 C00D F015      03639     movff       ram_0x00D, ram_0x015
002CB4 C00E F016      03640     movff       ram_0x00E, ram_0x016
002CB8 C00F F017      03641     movff       ram_0x00F, ram_0x017
002CBC C010 F018      03642     movff       ram_0x010, ram_0x018
002CC0 0E18           03643     movlw       0x18
002CC2 D001           03644     bra         flow_main_core_service_2ca8_2cbe
002CC4                03645 flow_main_core_service_2ca8_2cbc:
002CC4 D861           03646     rcall       main_core_service_2d80
002CC6                03647 flow_main_core_service_2ca8_2cbe:
002CC6 2EE8           03648     decfsz      WREG, F, ACCESS
002CC8 D7FD           03649     bra         flow_main_core_service_2ca8_2cbc
002CCA 5015           03650     movf        ram_0x015, W, ACCESS
002CCC 6E1E           03651     movwf       ram_0x01E, ACCESS
002CCE 661E           03652     tstfsz      ram_0x01E, ACCESS
002CD0 D001           03653     bra         flow_main_core_service_2ca8_2ccc
002CD2 D011           03654     bra         flow_main_core_service_2ca8_2cee
002CD4                03655 flow_main_core_service_2ca8_2ccc:
002CD4 C011 F015      03656     movff       ram_0x011, ram_0x015
002CD8 C012 F016      03657     movff       ram_0x012, ram_0x016
002CDC C013 F017      03658     movff       ram_0x013, ram_0x017
002CE0 C014 F018      03659     movff       ram_0x014, ram_0x018
002CE4 0E18           03660     movlw       0x18
002CE6 D001           03661     bra         flow_main_core_service_2ca8_2ce2
002CE8                03662 flow_main_core_service_2ca8_2ce0:
002CE8 D84F           03663     rcall       main_core_service_2d80
002CEA                03664 flow_main_core_service_2ca8_2ce2:
002CEA 2EE8           03665     decfsz      WREG, F, ACCESS
002CEC D7FD           03666     bra         flow_main_core_service_2ca8_2ce0
002CEE 5015           03667     movf        ram_0x015, W, ACCESS
002CF0 6E1F           03668     movwf       ram_0x01F, ACCESS
002CF2 661F           03669     tstfsz      ram_0x01F, ACCESS
002CF4 D005           03670     bra         flow_main_core_service_2ca8_2cf8
002CF6                03671 flow_main_core_service_2ca8_2cee:
002CF6 6A0D           03672     clrf        ram_0x00D, ACCESS
002CF8 6A0E           03673     clrf        ram_0x00E, ACCESS
002CFA 6A0F           03674     clrf        ram_0x00F, ACCESS
gpasm-1.5.2 #1325 (Jan 30 2022) src/dlcp_fw/a   03/29/2026  18:21:48        PAGE 79


LOC    OBJECT CODE    LINE  SOURCE TEXT
  VALUE

002CFC 6A10           03675     clrf        ram_0x010, ACCESS
002CFE D043           03676     bra         flow_main_core_service_2ca8_2d7e
002D00                03677 flow_main_core_service_2ca8_2cf8:
002D00 501F           03678     movf        ram_0x01F, W, ACCESS
002D02 0F89           03679     addlw       0x89
002D04 5E1E           03680     subwf       ram_0x01E, F, ACCESS
002D06 C010 F01F      03681     movff       ram_0x010, ram_0x01F
002D0A 5014           03682     movf        ram_0x014, W, ACCESS
002D0C 1A1F           03683     xorwf       ram_0x01F, F, ACCESS
002D0E 0E80           03684     movlw       0x80
002D10 161F           03685     andwf       ram_0x01F, F, ACCESS
002D12 8E0F           03686     bsf         ram_0x00F, 7, ACCESS
002D14 6A10           03687     clrf        ram_0x010, ACCESS
002D16 8E13           03688     bsf         ram_0x013, 7, ACCESS
002D18 6A14           03689     clrf        ram_0x014, ACCESS
002D1A 0E20           03690     movlw       0x20
002D1C 6E1D           03691     movwf       ram_0x01D, ACCESS
002D1E                03692 flow_main_core_service_2ca8_2d16:
002D1E 90D8           03693     bcf         STATUS, 0, ACCESS
002D20 3619           03694     rlcf        ram_0x019, F, ACCESS
002D22 361A           03695     rlcf        ram_0x01A, F, ACCESS
002D24 361B           03696     rlcf        ram_0x01B, F, ACCESS
002D26 361C           03697     rlcf        ram_0x01C, F, ACCESS
002D28 5011           03698     movf        ram_0x011, W, ACCESS
002D2A 5C0D           03699     subwf       ram_0x00D, W, ACCESS
002D2C 5012           03700     movf        ram_0x012, W, ACCESS
002D2E 580E           03701     subwfb      ram_0x00E, W, ACCESS
002D30 5013           03702     movf        ram_0x013, W, ACCESS
002D32 580F           03703     subwfb      ram_0x00F, W, ACCESS
002D34 5014           03704     movf        ram_0x014, W, ACCESS
002D36 5810           03705     subwfb      ram_0x010, W, ACCESS
002D38 E309           03706     bnc         flow_main_core_service_2ca8_2d44
002D3A 5011           03707     movf        ram_0x011, W, ACCESS
002D3C 5E0D           03708     subwf       ram_0x00D, F, ACCESS
002D3E 5012           03709     movf        ram_0x012, W, ACCESS
002D40 5A0E           03710     subwfb      ram_0x00E, F, ACCESS
002D42 5013           03711     movf        ram_0x013, W, ACCESS
002D44 5A0F           03712     subwfb      ram_0x00F, F, ACCESS
002D46 5014           03713     movf        ram_0x014, W, ACCESS
002D48 5A10           03714     subwfb      ram_0x010, F, ACCESS
002D4A 8019           03715     bsf         ram_0x019, 0, ACCESS
002D4C                03716 flow_main_core_service_2ca8_2d44:
002D4C 90D8           03717     bcf         STATUS, 0, ACCESS
002D4E 360D           03718     rlcf        ram_0x00D, F, ACCESS
002D50 360E           03719     rlcf        ram_0x00E, F, ACCESS
002D52 360F           03720     rlcf        ram_0x00F, F, ACCESS
002D54 3610           03721     rlcf        ram_0x010, F, ACCESS
002D56 2E1D           03722     decfsz      ram_0x01D, F, ACCESS
002D58 D7E2           03723     bra         flow_main_core_service_2ca8_2d16
002D5A C019 F003      03724     movff       ram_0x019, ram_0x003
002D5E C01A F004      03725     movff       ram_0x01A, ram_0x004
002D62 C01B F005      03726     movff       ram_0x01B, ram_0x005
002D66 C01C F006      03727     movff       ram_0x01C, ram_0x006
gpasm-1.5.2 #1325 (Jan 30 2022) src/dlcp_fw/a   03/29/2026  18:21:48        PAGE 80


LOC    OBJECT CODE    LINE  SOURCE TEXT
  VALUE

002D6A C01E F007      03728     movff       ram_0x01E, ram_0x007
002D6E C01F F008      03729     movff       ram_0x01F, ram_0x008
002D72 EC7D F018      03730     call        main_core_service_30d8, 0x0
002D76 C003 F00D      03731     movff       ram_0x003, ram_0x00D
002D7A C004 F00E      03732     movff       ram_0x004, ram_0x00E
002D7E C005 F00F      03733     movff       ram_0x005, ram_0x00F
002D82 C006 F010      03734     movff       ram_0x006, ram_0x010
002D86                03735 flow_main_core_service_2ca8_2d7e:
002D86 0012           03736     return      0
                      03737 
                      03738 
                      03739 ; ---------------------------------------------------------------------------
                      03740 ; Function: main_core_service_2d80
                      03741 ; Address : 0x2D80
                      03742 ; Notes   : Inferred core helper routine.
                      03743 ; ---------------------------------------------------------------------------
002D88                03744 main_core_service_2d80:
002D88 90D8           03745     bcf         STATUS, 0, ACCESS
002D8A 3218           03746     rrcf        ram_0x018, F, ACCESS
002D8C 3217           03747     rrcf        ram_0x017, F, ACCESS
002D8E 3216           03748     rrcf        ram_0x016, F, ACCESS
002D90 3215           03749     rrcf        ram_0x015, F, ACCESS
002D92 0012           03750     return      0
                      03751 
                      03752 ; ---------------------------------------------------------------------------
                      03753 ; Function: adc_boot_gate
                      03754 ; Address : 0x2D8C
                      03755 ; Notes   : Inferred uart helper; touches adc,timer,uart. Calls: timer3_blocking_delay, main_i2c_service
                            _4966, mssp_hard_reset.
                      03756 ; ---------------------------------------------------------------------------
002D94                03757 adc_boot_gate:
002D94 9EF2           03758     bcf         INTCON, 7, ACCESS
002D96 948A           03759     bcf         LATB, 2, ACCESS
002D98 0100           03760     movlb       0x0
002D9A 6B88           03761     clrf        ram_0x088, BANKED
002D9C 6B89           03762     clrf        ram_0x089, BANKED
002D9E 82C2           03763     bsf         ADCON0, 1, ACCESS
002DA0                03764 adc_boot_gate_loop:
002DA0 6A04           03765     clrf        ram_0x004, ACCESS
002DA2 0E0A           03766     movlw       0x0A
002DA4 6E03           03767     movwf       ram_0x003, ACCESS
002DA6 EC80 F022      03768     call        timer3_blocking_delay, 0x0
002DAA B2C2           03769     btfsc       ADCON0, 1, ACCESS
002DAC D00B           03770     bra         flow_adc_boot_gate_2dbc
002DAE 50C4           03771     movf        ADRESH, W, ACCESS
002DB0 6E5D           03772     movwf       ram_0x05D, ACCESS
002DB2 6A5C           03773     clrf        ram_0x05C, ACCESS
002DB4 50C3           03774     movf        ADRESL, W, ACCESS
002DB6 245C           03775     addwf       ram_0x05C, W, ACCESS
002DB8 0100           03776     movlb       0x0
002DBA 6F88           03777     movwf       ram_0x088, BANKED
002DBC 0E00           03778     movlw       0x00
002DBE 205D           03779     addwfc      ram_0x05D, W, ACCESS
gpasm-1.5.2 #1325 (Jan 30 2022) src/dlcp_fw/a   03/29/2026  18:21:48        PAGE 81


LOC    OBJECT CODE    LINE  SOURCE TEXT
  VALUE

002DC0 6F89           03780     movwf       ram_0x089, BANKED
002DC2 82C2           03781     bsf         ADCON0, 1, ACCESS
002DC4                03782 flow_adc_boot_gate_2dbc:
002DC4 0E36           03783     movlw       0x36
002DC6 0100           03784     movlb       0x0
002DC8 5D88           03785     subwf       ram_0x088, W, BANKED
002DCA 0E02           03786     movlw       0x02
002DCC 5989           03787     subwfb      ram_0x089, W, BANKED
002DCE E3E8           03788     bnc         adc_boot_gate_loop
002DD0                03789 adc_boot_gate_exit:
002DD0 6A04           03790     clrf        ram_0x004, ACCESS
002DD2 0E46           03791     movlw       0x46
002DD4 6E03           03792     movwf       ram_0x003, ACCESS
002DD6 EC80 F022      03793     call        timer3_blocking_delay, 0x0
002DDA 6AB0           03794     clrf        SPBRGH, ACCESS
002DDC 0E7F           03795     movlw       0x7F
002DDE 6EAF           03796     movwf       SPBRG, ACCESS
002DE0 92D3           03797     bcf         OSCCON, 1, ACCESS
002DE2 988A           03798     bcf         LATB, 4, ACCESS
002DE4 9C89           03799     bcf         LATA, 6, ACCESS
002DE6 968A           03800     bcf         LATB, 3, ACCESS
002DE8 EC0C F025      03801     call        main_i2c_service_4966, 0x0
002DEC 8293           03802     bsf         TRISB, 1, ACCESS
002DEE 8093           03803     bsf         TRISB, 0, ACCESS
002DF0 6A04           03804     clrf        ram_0x004, ACCESS
002DF2 0E64           03805     movlw       0x64
002DF4 6E03           03806     movwf       ram_0x003, ACCESS
002DF6 EC80 F022      03807     call        timer3_blocking_delay, 0x0
002DFA 888A           03808     bsf         LATB, 4, ACCESS
002DFC 0E05           03809     movlw       0x05
002DFE 6E04           03810     movwf       ram_0x004, ACCESS
002E00 0EDC           03811     movlw       0xDC
002E02 6E03           03812     movwf       ram_0x003, ACCESS
002E04 EC80 F022      03813     call        timer3_blocking_delay, 0x0
002E08 8293           03814     bsf         TRISB, 1, ACCESS
002E0A 8093           03815     bsf         TRISB, 0, ACCESS
002E0C 6A04           03816     clrf        ram_0x004, ACCESS
002E0E 0E01           03817     movlw       0x01
002E10 6E03           03818     movwf       ram_0x003, ACCESS
002E12 EC80 F022      03819     call        timer3_blocking_delay, 0x0
002E16 0E80           03820     movlw       0x80
002E18 6E03           03821     movwf       ram_0x003, ACCESS
002E1A 0E08           03822     movlw       0x08
002E1C EC26 F024      03823     call        mssp_hard_reset, 0x0
002E20 8C89           03824     bsf         LATA, 6, ACCESS
002E22 0E00           03825     movlw       0x00
002E24 6A55           03826     clrf        i2c_coeff_0, ACCESS
002E26 6A56           03827     clrf        i2c_coeff_1, ACCESS
002E28 6A57           03828     clrf        i2c_coeff_2, ACCESS
002E2A 6A58           03829     clrf        i2c_coeff_3, ACCESS
002E2C ECB3 F022      03830     call        i2c_tas3108_coeff_write, 0x0
002E30 EC06 F023      03831     call        main_core_service_4574, 0x0
002E34 868A           03832     bsf         LATB, 3, ACCESS
gpasm-1.5.2 #1325 (Jan 30 2022) src/dlcp_fw/a   03/29/2026  18:21:48        PAGE 82


LOC    OBJECT CODE    LINE  SOURCE TEXT
  VALUE

002E36 ECFA F024      03833     call        main_core_service_4942, 0x0
002E3A EC8D F019      03834     call        main_i2c_service_32f8, 0x0
002E3E ECFA F024      03835     call        main_core_service_4942, 0x0
002E42 0100           03836     movlb       0x0
002E44 837E           03837     bsf         event_flags, 1, BANKED
002E46 877E           03838     bsf         event_flags, 3, BANKED
002E48 897E           03839     bsf         event_flags, 4, BANKED
002E4A 817F           03840     bsf         ram_0x07F, 0, BANKED
002E4C 837F           03841     bsf         ram_0x07F, 1, BANKED
002E4E 0E00           03842     movlw       0x00
002E50 EC77 F00C      03843     call        cmd_dispatch_gated, 0x0
002E54 0E01           03844     movlw       0x01
002E56 6E06           03845     movwf       ram_0x006, ACCESS
002E58 0E1B           03846     movlw       0x1B
002E5A ECA9 F023      03847     call        i2c_secondary_dev_write, 0x0
002E5E 9AF2           03848     bcf         INTCON, 5, ACCESS
002E60 9ED5           03849     bcf         T0CON, 7, ACCESS
002E62 0EA4           03850     movlw       0xA4
002E64 6ED7           03851     movwf       TMR0H, ACCESS
002E66 0E71           03852     movlw       0x71
002E68 6ED6           03853     movwf       TMR0L, ACCESS
002E6A 0100           03854     movlb       0x0
002E6C 6BA1           03855     clrf        ram_0x0A1, BANKED
002E6E 9594           03856     bcf         ram_0x094, 2, BANKED
002E70 8EF2           03857     bsf         INTCON, 7, ACCESS
002E72 EFE5 F024      03858     goto        flow_main_usb_service_490c_4918
                      03859 
                      03860 ; ---------------------------------------------------------------------------
                      03861 ; Function: flash_write (V3.1: preset B address remap prologue)
                      03862 ; Notes   : Remaps 0x56xx-0x5Fxx to 0x4Axx-0x53xx when preset B active.
                      03863 ; ---------------------------------------------------------------------------
002E76                03864 flash_write:
002E76 A45E           03865     btfss       active_flags, 2, ACCESS     ; preset B active?
002E78 D00B           03866     bra         flash_write_stock
002E7A 5006           03867     movf        ram_0x006, W, ACCESS
002E7C 1005           03868     iorwf       ram_0x005, W, ACCESS
002E7E E108           03869     bnz         flash_write_stock
002E80 0E56           03870     movlw       0x56
002E82 5C04           03871     subwf       ram_0x004, W, ACCESS
002E84 E305           03872     bnc         flash_write_stock
002E86 0E60           03873     movlw       0x60
002E88 5C04           03874     subwf       ram_0x004, W, ACCESS
002E8A E202           03875     bc          flash_write_stock
002E8C 0E0A           03876     movlw       0x0A
002E8E 5E04           03877     subwf       ram_0x004, F, ACCESS
002E90                03878 flash_write_stock:
002E90 6A10           03879     clrf        ram_0x010, ACCESS
002E92 C003 F014      03880     movff       ram_0x003, ram_0x014
002E96 C004 F015      03881     movff       ram_0x004, ram_0x015
002E9A C005 F016      03882     movff       ram_0x005, ram_0x016
002E9E C006 F017      03883     movff       ram_0x006, ram_0x017
002EA2 0E05           03884     movlw       0x05
002EA4 6E0B           03885     movwf       ram_0x00B, ACCESS
gpasm-1.5.2 #1325 (Jan 30 2022) src/dlcp_fw/a   03/29/2026  18:21:48        PAGE 83


LOC    OBJECT CODE    LINE  SOURCE TEXT
  VALUE

002EA6                03886 flow_flash_write_2e84:
002EA6 90D8           03887     bcf         STATUS, 0, ACCESS
002EA8 3206           03888     rrcf        ram_0x006, F, ACCESS
002EAA 3205           03889     rrcf        ram_0x005, F, ACCESS
002EAC 3204           03890     rrcf        ram_0x004, F, ACCESS
002EAE 3203           03891     rrcf        ram_0x003, F, ACCESS
002EB0 2E0B           03892     decfsz      ram_0x00B, F, ACCESS
002EB2 D7F9           03893     bra         flow_flash_write_2e84
002EB4 0E05           03894     movlw       0x05
002EB6                03895 flow_flash_write_2e94:
002EB6 90D8           03896     bcf         STATUS, 0, ACCESS
002EB8 3603           03897     rlcf        ram_0x003, F, ACCESS
002EBA 3604           03898     rlcf        ram_0x004, F, ACCESS
002EBC 3605           03899     rlcf        ram_0x005, F, ACCESS
002EBE 3606           03900     rlcf        ram_0x006, F, ACCESS
002EC0 2EE8           03901     decfsz      WREG, F, ACCESS
002EC2 D7F9           03902     bra         flow_flash_write_2e94
002EC4 0E20           03903     movlw       0x20
002EC6 2603           03904     addwf       ram_0x003, F, ACCESS
002EC8 0E00           03905     movlw       0x00
002ECA 2204           03906     addwfc      ram_0x004, F, ACCESS
002ECC 2205           03907     addwfc      ram_0x005, F, ACCESS
002ECE 2206           03908     addwfc      ram_0x006, F, ACCESS
002ED0 5014           03909     movf        ram_0x014, W, ACCESS
002ED2 5C03           03910     subwf       ram_0x003, W, ACCESS
002ED4 6E0F           03911     movwf       ram_0x00F, ACCESS
002ED6 D047           03912     bra         flow_flash_write_2f44
002ED8                03913 flow_flash_write_2eb6:
002ED8 C016 F013      03914     movff       ram_0x016, ram_0x013
002EDC C015 F012      03915     movff       ram_0x015, ram_0x012
002EE0 C014 F011      03916     movff       ram_0x014, ram_0x011
002EE4 D019           03917     bra         flow_flash_write_2ef6
002EE6                03918 flow_flash_write_2ec4:
002EE6 C009 FFD9      03919     movff       ram_0x009, FSR2L
002EEA C00A FFDA      03920     movff       ram_0x00A, FSR2H
002EEE 50DF           03921     movf        INDF2, W, ACCESS
002EF0 C011 FFF6      03922     movff       ram_0x011, TBLPTRL
002EF4 C012 FFF7      03923     movff       ram_0x012, TBLPTRH
002EF8 C013 FFF8      03924     movff       ram_0x013, TBLPTRU
002EFC 6EF5           03925     movwf       TABLAT, ACCESS
002EFE 000C           03926     tblwt*
002F00 4A09           03927     infsnz      ram_0x009, F, ACCESS
002F02 2A0A           03928     incf        ram_0x00A, F, ACCESS
002F04 2A11           03929     incf        ram_0x011, F, ACCESS
002F06 0E00           03930     movlw       0x00
002F08 2212           03931     addwfc      ram_0x012, F, ACCESS
002F0A 2213           03932     addwfc      ram_0x013, F, ACCESS
002F0C 0607           03933     decf        ram_0x007, F, ACCESS
002F0E A0D8           03934     btfss       STATUS, 0, ACCESS
002F10 0608           03935     decf        ram_0x008, F, ACCESS
002F12 5008           03936     movf        ram_0x008, W, ACCESS
002F14 1007           03937     iorwf       ram_0x007, W, ACCESS
002F16 E003           03938     bz          flow_flash_write_2efc
gpasm-1.5.2 #1325 (Jan 30 2022) src/dlcp_fw/a   03/29/2026  18:21:48        PAGE 84


LOC    OBJECT CODE    LINE  SOURCE TEXT
  VALUE

002F18                03939 flow_flash_write_2ef6:
002F18 060F           03940     decf        ram_0x00F, F, ACCESS
002F1A 280F           03941     incf        ram_0x00F, W, ACCESS
002F1C E1E4           03942     bnz         flow_flash_write_2ec4
002F1E                03943 flow_flash_write_2efc:
002F1E C013 F00E      03944     movff       ram_0x013, ram_0x00E
002F22 C012 F00D      03945     movff       ram_0x012, ram_0x00D
002F26 C011 F00C      03946     movff       ram_0x011, ram_0x00C
002F2A C016 F013      03947     movff       ram_0x016, ram_0x013
002F2E C015 F012      03948     movff       ram_0x015, ram_0x012
002F32 C014 F011      03949     movff       ram_0x014, ram_0x011
002F36 8EA6           03950     bsf         EECON1, 7, ACCESS
002F38 9CA6           03951     bcf         EECON1, 6, ACCESS
002F3A 84A6           03952     bsf         EECON1, 2, ACCESS
002F3C AEF2           03953     btfss       INTCON, 7, ACCESS
002F3E D003           03954     bra         flow_flash_write_2f24
002F40 9EF2           03955     bcf         INTCON, 7, ACCESS
002F42 0E01           03956     movlw       0x01
002F44 6E10           03957     movwf       ram_0x010, ACCESS
002F46                03958 flow_flash_write_2f24:
002F46 EC44 F022      03959     call        main_flash_service_4406, 0x0
002F4A 94A6           03960     bcf         EECON1, 2, ACCESS
002F4C 5010           03961     movf        ram_0x010, W, ACCESS
002F4E E002           03962     bz          flow_flash_write_2f32
002F50 8EF2           03963     bsf         INTCON, 7, ACCESS
002F52 6A10           03964     clrf        ram_0x010, ACCESS
002F54                03965 flow_flash_write_2f32:
002F54 0E20           03966     movlw       0x20
002F56 6E0F           03967     movwf       ram_0x00F, ACCESS
002F58 500C           03968     movf        ram_0x00C, W, ACCESS
002F5A 6E14           03969     movwf       ram_0x014, ACCESS
002F5C 500D           03970     movf        ram_0x00D, W, ACCESS
002F5E 6E15           03971     movwf       ram_0x015, ACCESS
002F60 500E           03972     movf        ram_0x00E, W, ACCESS
002F62 6E16           03973     movwf       ram_0x016, ACCESS
002F64 6A17           03974     clrf        ram_0x017, ACCESS
002F66                03975 flow_flash_write_2f44:
002F66 5008           03976     movf        ram_0x008, W, ACCESS
002F68 1007           03977     iorwf       ram_0x007, W, ACCESS
002F6A B4D8           03978     btfsc       STATUS, 2, ACCESS
002F6C 0012           03979     return      0
002F6E D7B4           03980     bra         flow_flash_write_2eb6
                      03981 
                      03982 
                      03983 ; ---------------------------------------------------------------------------
                      03984 ; Function: main_usb_service_2f4e
                      03985 ; Address : 0x2F4E
                      03986 ; Notes   : Inferred usb helper; touches usb. Calls: main_usb_service_475c, main_usb_service_483c, main_
                            usb_service_40d6.
                      03987 ; ---------------------------------------------------------------------------
002F70                03988 main_usb_service_2f4e:
002F70 ECFB F023      03989     call        main_usb_service_475c, 0x0
Message[1302]: RAM Bank undefined in this chunk of code. Ensure that bank bits are correct. Assuming bank 0 from now on.
gpasm-1.5.2 #1325 (Jan 30 2022) src/dlcp_fw/a   03/29/2026  18:21:48        PAGE 85


LOC    OBJECT CODE    LINE  SOURCE TEXT
  VALUE

002F74 67CD           03990     tstfsz      ram_0x0CD, BANKED
002F76 D001           03991     bra         flow_main_usb_service_2f4e_2f58
002F78 D060           03992     bra         flow_main_usb_service_2f4e_3018
002F7A                03993 flow_main_usb_service_2f4e_2f58:
002F7A B468           03994     btfsc       UIR, 2, ACCESS
002F7C EC6B F024      03995     call        main_usb_service_483c, 0x0
002F80 B26D           03996     btfsc       UCON, 1, ACCESS
002F82 D05B           03997     bra         flow_main_usb_service_2f4e_3018
002F84 B068           03998     btfsc       UIR, 0, ACCESS
002F86 ECAB F020      03999     call        main_usb_service_40d6, 0x0
002F8A B868           04000     btfsc       UIR, 4, ACCESS
002F8C ECDD F023      04001     call        main_usb_service_4720, 0x0
002F90 0E03           04002     movlw       0x03
002F92 0100           04003     movlb       0x0
002F94 5DCD           04004     subwf       ram_0x0CD, W, BANKED
002F96 E351           04005     bnc         flow_main_usb_service_2f4e_3018
002F98 6BC4           04006     clrf        ram_0x0C4, BANKED
002F9A                04007 flow_main_usb_service_2f4e_2f78:
002F9A A668           04008     btfss       UIR, 3, ACCESS
002F9C D04E           04009     bra         flow_main_usb_service_2f4e_3018
002F9E 506C           04010     movf        USTAT, W, ACCESS
002FA0 CF6C F006      04011     movff       USTAT, ram_0x006
002FA4 0E7C           04012     movlw       0x7C
002FA6 1606           04013     andwf       ram_0x006, F, ACCESS
002FA8 E13B           04014     bnz         flow_main_usb_service_2f4e_2ffe
002FAA B26C           04015     btfsc       USTAT, 1, ACCESS
002FAC D005           04016     bra         flow_main_usb_service_2f4e_2f96
002FAE 0E04           04017     movlw       0x04
002FB0 0100           04018     movlb       0x0
002FB2 6F7B           04019     movwf       ram_0x07B, BANKED
002FB4 0E00           04020     movlw       0x00
002FB6 D003           04021     bra         flow_main_usb_service_2f4e_2f9c
002FB8                04022 flow_main_usb_service_2f4e_2f96:
002FB8 0E04           04023     movlw       0x04
002FBA 0100           04024     movlb       0x0
002FBC 6F7B           04025     movwf       ram_0x07B, BANKED
002FBE                04026 flow_main_usb_service_2f4e_2f9c:
002FBE 0100           04027     movlb       0x0
002FC0 6F7A           04028     movwf       ram_0x07A, BANKED
002FC2 9668           04029     bcf         UIR, 3, ACCESS
002FC4 C07A FFD9      04030     movff       ram_0x07A, FSR2L
002FC8 C07B FFDA      04031     movff       ram_0x07B, FSR2H
002FCC 30DF           04032     rrcf        INDF2, W, ACCESS
002FCE 32E8           04033     rrcf        WREG, F, ACCESS
002FD0 0B0F           04034     andlw       0x0F
002FD2 0A0D           04035     xorlw       0x0D
002FD4 E12D           04036     bnz         flow_main_usb_service_2f4e_300e
002FD6 6B90           04037     clrf        ram_0x090, BANKED
002FD8                04038 flow_main_usb_service_2f4e_2fb6:
002FD8 EE20 F002      04039     lfsr        FSR2, 0x0002
002FDC 517A           04040     movf        ram_0x07A, W, BANKED
002FDE 26D9           04041     addwf       FSR2L, F, ACCESS
002FE0 517B           04042     movf        ram_0x07B, W, BANKED
gpasm-1.5.2 #1325 (Jan 30 2022) src/dlcp_fw/a   03/29/2026  18:21:48        PAGE 86


LOC    OBJECT CODE    LINE  SOURCE TEXT
  VALUE

002FE2 22DA           04043     addwfc      FSR2H, F, ACCESS
002FE4 CFDE F006      04044     movff       POSTINC2, ram_0x006
002FE8 CFDD F007      04045     movff       POSTDEC2, ram_0x007
002FEC C006 FFD9      04046     movff       ram_0x006, FSR2L
002FF0 C007 FFDA      04047     movff       ram_0x007, FSR2H
002FF4 5190           04048     movf        ram_0x090, W, BANKED
002FF6 0FCF           04049     addlw       0xCF
002FF8 6EE1           04050     movwf       FSR1L, ACCESS
002FFA 6AE2           04051     clrf        FSR1H, ACCESS
002FFC CFDF FFE7      04052     movff       INDF2, INDF1
003000 EE20 F002      04053     lfsr        FSR2, 0x0002
003004 517A           04054     movf        ram_0x07A, W, BANKED
003006 26D9           04055     addwf       FSR2L, F, ACCESS
003008 517B           04056     movf        ram_0x07B, W, BANKED
00300A 22DA           04057     addwfc      FSR2H, F, ACCESS
00300C 2ADE           04058     incf        POSTINC2, F, ACCESS
00300E 0E00           04059     movlw       0x00
003010 22DD           04060     addwfc      POSTDEC2, F, ACCESS
003012 2B90           04061     incf        ram_0x090, F, BANKED
003014 0E07           04062     movlw       0x07
003016 6590           04063     cpfsgt      ram_0x090, BANKED
003018 D7DF           04064     bra         flow_main_usb_service_2f4e_2fb6
00301A ECBA F021      04065     call        main_usb_service_42f4, 0x0
00301E D008           04066     bra         flow_main_usb_service_2f4e_300e
003020                04067 flow_main_usb_service_2f4e_2ffe:
003020 506C           04068     movf        USTAT, W, ACCESS
003022 0A04           04069     xorlw       0x04
003024 E104           04070     bnz         flow_main_usb_service_2f4e_300c
003026 9668           04071     bcf         UIR, 3, ACCESS
003028 EC4A F022      04072     call        main_usb_service_4412, 0x0
00302C D001           04073     bra         flow_main_usb_service_2f4e_300e
00302E                04074 flow_main_usb_service_2f4e_300c:
00302E 9668           04075     bcf         UIR, 3, ACCESS
003030                04076 flow_main_usb_service_2f4e_300e:
003030 0100           04077     movlb       0x0
003032 2BC4           04078     incf        ram_0x0C4, F, BANKED
003034 0E03           04079     movlw       0x03
003036 65C4           04080     cpfsgt      ram_0x0C4, BANKED
003038 D7B0           04081     bra         flow_main_usb_service_2f4e_2f78
00303A                04082 flow_main_usb_service_2f4e_3018:
00303A 0012           04083     return      0
                      04084 
                      04085 
                      04086 ; ---------------------------------------------------------------------------
                      04087 ; Function: main_core_service_301a
                      04088 ; Address : 0x301A
                      04089 ; Notes   : Inferred core helper routine. Calls: main_core_service_30cc.
                      04090 ; ---------------------------------------------------------------------------
00303C                04091 main_core_service_301a:
00303C C025 F029      04092     movff       ram_0x025, ram_0x029
003040 C026 F02A      04093     movff       ram_0x026, ram_0x02A
003044 C027 F02B      04094     movff       ram_0x027, ram_0x02B
003048 C028 F02C      04095     movff       ram_0x028, ram_0x02C
gpasm-1.5.2 #1325 (Jan 30 2022) src/dlcp_fw/a   03/29/2026  18:21:48        PAGE 87


LOC    OBJECT CODE    LINE  SOURCE TEXT
  VALUE

00304C 0E18           04096     movlw       0x18
00304E D001           04097     bra         flow_main_core_service_301a_3030
003050                04098 flow_main_core_service_301a_302e:
003050 D84E           04099     rcall       main_core_service_30cc
003052                04100 flow_main_core_service_301a_3030:
003052 2EE8           04101     decfsz      WREG, F, ACCESS
003054 D7FD           04102     bra         flow_main_core_service_301a_302e
003056 5029           04103     movf        ram_0x029, W, ACCESS
003058 6E2E           04104     movwf       ram_0x02E, ACCESS
00305A 662E           04105     tstfsz      ram_0x02E, ACCESS
00305C D005           04106     bra         flow_main_core_service_301a_3046
00305E                04107 flow_main_core_service_301a_303c:
00305E 6A25           04108     clrf        ram_0x025, ACCESS
003060 6A26           04109     clrf        ram_0x026, ACCESS
003062 6A27           04110     clrf        ram_0x027, ACCESS
003064 6A28           04111     clrf        ram_0x028, ACCESS
003066 D042           04112     bra         flow_main_core_service_301a_30ca
003068                04113 flow_main_core_service_301a_3046:
003068 C025 F029      04114     movff       ram_0x025, ram_0x029
00306C C026 F02A      04115     movff       ram_0x026, ram_0x02A
003070 C027 F02B      04116     movff       ram_0x027, ram_0x02B
003074 C028 F02C      04117     movff       ram_0x028, ram_0x02C
003078 0E20           04118     movlw       0x20
00307A D001           04119     bra         flow_main_core_service_301a_305c
00307C                04120 flow_main_core_service_301a_305a:
00307C D838           04121     rcall       main_core_service_30cc
00307E                04122 flow_main_core_service_301a_305c:
00307E 2EE8           04123     decfsz      WREG, F, ACCESS
003080 D7FD           04124     bra         flow_main_core_service_301a_305a
003082 5029           04125     movf        ram_0x029, W, ACCESS
003084 6E2D           04126     movwf       ram_0x02D, ACCESS
003086 8E27           04127     bsf         ram_0x027, 7, ACCESS
003088 6A28           04128     clrf        ram_0x028, ACCESS
00308A 0E96           04129     movlw       0x96
00308C 5E2E           04130     subwf       ram_0x02E, F, ACCESS
00308E AE2E           04131     btfss       ram_0x02E, 7, ACCESS
003090 D00F           04132     bra         flow_main_core_service_301a_308e
003092 502E           04133     movf        ram_0x02E, W, ACCESS
003094 0A80           04134     xorlw       0x80
003096 6E29           04135     movwf       ram_0x029, ACCESS
003098 0EE9           04136     movlw       0xE9
00309A 0A80           04137     xorlw       0x80
00309C 5C29           04138     subwf       ram_0x029, W, ACCESS
00309E E3DF           04139     bnc         flow_main_core_service_301a_303c
0030A0                04140 flow_main_core_service_301a_307e:
0030A0 90D8           04141     bcf         STATUS, 0, ACCESS
0030A2 3228           04142     rrcf        ram_0x028, F, ACCESS
0030A4 3227           04143     rrcf        ram_0x027, F, ACCESS
0030A6 3226           04144     rrcf        ram_0x026, F, ACCESS
0030A8 3225           04145     rrcf        ram_0x025, F, ACCESS
0030AA 3E2E           04146     incfsz      ram_0x02E, F, ACCESS
0030AC D7F9           04147     bra         flow_main_core_service_301a_307e
0030AE D00C           04148     bra         flow_main_core_service_301a_30a6
gpasm-1.5.2 #1325 (Jan 30 2022) src/dlcp_fw/a   03/29/2026  18:21:48        PAGE 88


LOC    OBJECT CODE    LINE  SOURCE TEXT
  VALUE

0030B0                04149 flow_main_core_service_301a_308e:
0030B0 0E1F           04150     movlw       0x1F
0030B2 642E           04151     cpfsgt      ram_0x02E, ACCESS
0030B4 D007           04152     bra         flow_main_core_service_301a_30a2
0030B6 D7D3           04153     bra         flow_main_core_service_301a_303c
0030B8                04154 flow_main_core_service_301a_3096:
0030B8 90D8           04155     bcf         STATUS, 0, ACCESS
0030BA 3625           04156     rlcf        ram_0x025, F, ACCESS
0030BC 3626           04157     rlcf        ram_0x026, F, ACCESS
0030BE 3627           04158     rlcf        ram_0x027, F, ACCESS
0030C0 3628           04159     rlcf        ram_0x028, F, ACCESS
0030C2 062E           04160     decf        ram_0x02E, F, ACCESS
0030C4                04161 flow_main_core_service_301a_30a2:
0030C4 662E           04162     tstfsz      ram_0x02E, ACCESS
0030C6 D7F8           04163     bra         flow_main_core_service_301a_3096
0030C8                04164 flow_main_core_service_301a_30a6:
0030C8 502D           04165     movf        ram_0x02D, W, ACCESS
0030CA E008           04166     bz          flow_main_core_service_301a_30ba
0030CC 1E28           04167     comf        ram_0x028, F, ACCESS
0030CE 1E27           04168     comf        ram_0x027, F, ACCESS
0030D0 1E26           04169     comf        ram_0x026, F, ACCESS
0030D2 6C25           04170     negf        ram_0x025, ACCESS
0030D4 0E00           04171     movlw       0x00
0030D6 2226           04172     addwfc      ram_0x026, F, ACCESS
0030D8 2227           04173     addwfc      ram_0x027, F, ACCESS
0030DA 2228           04174     addwfc      ram_0x028, F, ACCESS
0030DC                04175 flow_main_core_service_301a_30ba:
0030DC C025 F025      04176     movff       ram_0x025, ram_0x025
0030E0 C026 F026      04177     movff       ram_0x026, ram_0x026
0030E4 C027 F027      04178     movff       ram_0x027, ram_0x027
0030E8 C028 F028      04179     movff       ram_0x028, ram_0x028
0030EC                04180 flow_main_core_service_301a_30ca:
0030EC 0012           04181     return      0
                      04182 
                      04183 
                      04184 ; ---------------------------------------------------------------------------
                      04185 ; Function: main_core_service_30cc
                      04186 ; Address : 0x30CC
                      04187 ; Notes   : Inferred core helper routine.
                      04188 ; ---------------------------------------------------------------------------
0030EE                04189 main_core_service_30cc:
0030EE 90D8           04190     bcf         STATUS, 0, ACCESS
0030F0 322C           04191     rrcf        ram_0x02C, F, ACCESS
0030F2 322B           04192     rrcf        ram_0x02B, F, ACCESS
0030F4 322A           04193     rrcf        ram_0x02A, F, ACCESS
0030F6 3229           04194     rrcf        ram_0x029, F, ACCESS
0030F8 0012           04195     return      0
                      04196 
                      04197 
                      04198 ; ---------------------------------------------------------------------------
                      04199 ; Function: main_core_service_30d8
                      04200 ; Address : 0x30D8
                      04201 ; Notes   : Inferred core helper routine. Calls: main_core_service_3188.
gpasm-1.5.2 #1325 (Jan 30 2022) src/dlcp_fw/a   03/29/2026  18:21:48        PAGE 89


LOC    OBJECT CODE    LINE  SOURCE TEXT
  VALUE

                      04202 ; ---------------------------------------------------------------------------
0030FA                04203 main_core_service_30d8:
0030FA 5007           04204     movf        ram_0x007, W, ACCESS
0030FC E005           04205     bz          flow_main_core_service_30d8_30e6
0030FE 5006           04206     movf        ram_0x006, W, ACCESS
003100 1003           04207     iorwf       ram_0x003, W, ACCESS
003102 1004           04208     iorwf       ram_0x004, W, ACCESS
003104 1005           04209     iorwf       ram_0x005, W, ACCESS
003106 E107           04210     bnz         flow_main_core_service_30d8_30f4
003108                04211 flow_main_core_service_30d8_30e6:
003108 6A03           04212     clrf        ram_0x003, ACCESS
00310A 6A04           04213     clrf        ram_0x004, ACCESS
00310C 6A05           04214     clrf        ram_0x005, ACCESS
00310E 6A06           04215     clrf        ram_0x006, ACCESS
003110 D04B           04216     bra         flow_main_core_service_30d8_3186
003112                04217 flow_main_core_service_30d8_30f0:
003112 2A07           04218     incf        ram_0x007, F, ACCESS
003114 D84A           04219     rcall       main_core_service_3188
003116                04220 flow_main_core_service_30d8_30f4:
003116 6A09           04221     clrf        ram_0x009, ACCESS
003118 6A0A           04222     clrf        ram_0x00A, ACCESS
00311A 6A0B           04223     clrf        ram_0x00B, ACCESS
00311C 0EFE           04224     movlw       0xFE
00311E 1406           04225     andwf       ram_0x006, W, ACCESS
003120 6E0C           04226     movwf       ram_0x00C, ACCESS
003122 500C           04227     movf        ram_0x00C, W, ACCESS
003124 1009           04228     iorwf       ram_0x009, W, ACCESS
003126 100A           04229     iorwf       ram_0x00A, W, ACCESS
003128 100B           04230     iorwf       ram_0x00B, W, ACCESS
00312A E008           04231     bz          flow_main_core_service_30d8_311a
00312C D7F2           04232     bra         flow_main_core_service_30d8_30f0
00312E                04233 flow_main_core_service_30d8_310c:
00312E 2A07           04234     incf        ram_0x007, F, ACCESS
003130 2A03           04235     incf        ram_0x003, F, ACCESS
003132 0E00           04236     movlw       0x00
003134 2204           04237     addwfc      ram_0x004, F, ACCESS
003136 2205           04238     addwfc      ram_0x005, F, ACCESS
003138 2206           04239     addwfc      ram_0x006, F, ACCESS
00313A D837           04240     rcall       main_core_service_3188
00313C                04241 flow_main_core_service_30d8_311a:
00313C 6A09           04242     clrf        ram_0x009, ACCESS
00313E 6A0A           04243     clrf        ram_0x00A, ACCESS
003140 6A0B           04244     clrf        ram_0x00B, ACCESS
003142 5006           04245     movf        ram_0x006, W, ACCESS
003144 6E0C           04246     movwf       ram_0x00C, ACCESS
003146 500C           04247     movf        ram_0x00C, W, ACCESS
003148 1009           04248     iorwf       ram_0x009, W, ACCESS
00314A 100A           04249     iorwf       ram_0x00A, W, ACCESS
00314C 100B           04250     iorwf       ram_0x00B, W, ACCESS
00314E E007           04251     bz          flow_main_core_service_30d8_313c
003150 D7EE           04252     bra         flow_main_core_service_30d8_310c
003152                04253 flow_main_core_service_30d8_3130:
003152 0607           04254     decf        ram_0x007, F, ACCESS
gpasm-1.5.2 #1325 (Jan 30 2022) src/dlcp_fw/a   03/29/2026  18:21:48        PAGE 90


LOC    OBJECT CODE    LINE  SOURCE TEXT
  VALUE

003154 90D8           04255     bcf         STATUS, 0, ACCESS
003156 3603           04256     rlcf        ram_0x003, F, ACCESS
003158 3604           04257     rlcf        ram_0x004, F, ACCESS
00315A 3605           04258     rlcf        ram_0x005, F, ACCESS
00315C 3606           04259     rlcf        ram_0x006, F, ACCESS
00315E                04260 flow_main_core_service_30d8_313c:
00315E AE05           04261     btfss       ram_0x005, 7, ACCESS
003160 D7F8           04262     bra         flow_main_core_service_30d8_3130
003162 B007           04263     btfsc       ram_0x007, 0, ACCESS
003164 D002           04264     bra         flow_main_core_service_30d8_3148
003166 0E7F           04265     movlw       0x7F
003168 1605           04266     andwf       ram_0x005, F, ACCESS
00316A                04267 flow_main_core_service_30d8_3148:
00316A 90D8           04268     bcf         STATUS, 0, ACCESS
00316C 3207           04269     rrcf        ram_0x007, F, ACCESS
00316E C007 F009      04270     movff       ram_0x007, ram_0x009
003172 6A0A           04271     clrf        ram_0x00A, ACCESS
003174 6A0B           04272     clrf        ram_0x00B, ACCESS
003176 6A0C           04273     clrf        ram_0x00C, ACCESS
003178 C009 F00C      04274     movff       ram_0x009, ram_0x00C
00317C 6A0B           04275     clrf        ram_0x00B, ACCESS
00317E 6A0A           04276     clrf        ram_0x00A, ACCESS
003180 6A09           04277     clrf        ram_0x009, ACCESS
003182 5009           04278     movf        ram_0x009, W, ACCESS
003184 1203           04279     iorwf       ram_0x003, F, ACCESS
003186 500A           04280     movf        ram_0x00A, W, ACCESS
003188 1204           04281     iorwf       ram_0x004, F, ACCESS
00318A 500B           04282     movf        ram_0x00B, W, ACCESS
00318C 1205           04283     iorwf       ram_0x005, F, ACCESS
00318E 500C           04284     movf        ram_0x00C, W, ACCESS
003190 1206           04285     iorwf       ram_0x006, F, ACCESS
003192 5008           04286     movf        ram_0x008, W, ACCESS
003194 A4D8           04287     btfss       STATUS, 2, ACCESS
003196 8E06           04288     bsf         ram_0x006, 7, ACCESS
003198 C003 F003      04289     movff       ram_0x003, ram_0x003
00319C C004 F004      04290     movff       ram_0x004, ram_0x004
0031A0 C005 F005      04291     movff       ram_0x005, ram_0x005
0031A4 C006 F006      04292     movff       ram_0x006, ram_0x006
0031A8                04293 flow_main_core_service_30d8_3186:
0031A8 0012           04294     return      0
                      04295 
                      04296 
                      04297 ; ---------------------------------------------------------------------------
                      04298 ; Function: main_core_service_3188
                      04299 ; Address : 0x3188
                      04300 ; Notes   : Inferred core helper routine. Calls: main_core_service_496e, main_core_service_496c, main_co
                            re_service_4080.
                      04301 ; ---------------------------------------------------------------------------
0031AA                04302 main_core_service_3188:
0031AA 90D8           04303     bcf         STATUS, 0, ACCESS
0031AC 3206           04304     rrcf        ram_0x006, F, ACCESS
0031AE 3205           04305     rrcf        ram_0x005, F, ACCESS
0031B0 3204           04306     rrcf        ram_0x004, F, ACCESS
gpasm-1.5.2 #1325 (Jan 30 2022) src/dlcp_fw/a   03/29/2026  18:21:48        PAGE 91


LOC    OBJECT CODE    LINE  SOURCE TEXT
  VALUE

0031B2 3203           04307     rrcf        ram_0x003, F, ACCESS
0031B4 0012           04308     return      0
0031B6                04309 flow_main_core_service_3188_3194:
Message[1302]: RAM Bank undefined in this chunk of code. Ensure that bank bits are correct. Assuming bank 0 from now on.
0031B6 51CF           04310     movf        ram_0x0CF, W, BANKED
0031B8 0B1F           04311     andlw       0x1F
0031BA 6E03           04312     movwf       ram_0x003, ACCESS
0031BC 0403           04313     decf        ram_0x003, W, ACCESS
0031BE E156           04314     bnz         flow_main_core_service_3188_324a
0031C0 51D3           04315     movf        ram_0x0D3, W, BANKED
0031C2 E154           04316     bnz         flow_main_core_service_3188_324a
0031C4 51D0           04317     movf        ram_0x0D0, W, BANKED
0031C6 0A06           04318     xorlw       0x06
0031C8 E018           04319     bz          flow_main_core_service_3188_31d8
0031CA D01E           04320     bra         flow_main_core_service_3188_31e6
0031CC                04321 flow_main_core_service_3188_31aa:
0031CC 0E02           04322     movlw       0x02
Message[1302]: RAM Bank undefined in this chunk of code. Ensure that bank bits are correct. Assuming bank 0 from now on.
0031CE 6FC8           04323     movwf       ram_0x0C8, BANKED
0031D0 0E10           04324     movlw       0x10
0031D2 6F76           04325     movwf       ram_0x076, BANKED
0031D4 0E3E           04326     movlw       0x3E
0031D6 6F75           04327     movwf       ram_0x075, BANKED
0031D8 6BE8           04328     clrf        ram_0x0E8, BANKED
0031DA 0E09           04329     movlw       0x09
0031DC D00C           04330     bra         flow_main_core_service_3188_31d4
0031DE                04331 flow_main_core_service_3188_31bc:
0031DE 0E02           04332     movlw       0x02
Message[1302]: RAM Bank undefined in this chunk of code. Ensure that bank bits are correct. Assuming bank 0 from now on.
0031E0 6FC8           04333     movwf       ram_0x0C8, BANKED
0031E2 05EB           04334     decf        ram_0x0EB, W, BANKED
0031E4 E104           04335     bnz         flow_main_core_service_3188_31cc
0031E6 0E10           04336     movlw       0x10
0031E8 6F76           04337     movwf       ram_0x076, BANKED
0031EA 0E55           04338     movlw       0x55
0031EC 6F75           04339     movwf       ram_0x075, BANKED
0031EE                04340 flow_main_core_service_3188_31cc:
0031EE 05EB           04341     decf        ram_0x0EB, W, BANKED
0031F0 E10A           04342     bnz         flow_main_core_service_3188_31e4
0031F2 6BE8           04343     clrf        ram_0x0E8, BANKED
0031F4 0E1D           04344     movlw       0x1D
0031F6                04345 flow_main_core_service_3188_31d4:
0031F6 6FE7           04346     movwf       ram_0x0E7, BANKED
0031F8 D006           04347     bra         flow_main_core_service_3188_31e4
0031FA                04348 flow_main_core_service_3188_31d8:
Message[1302]: RAM Bank undefined in this chunk of code. Ensure that bank bits are correct. Assuming bank 0 from now on.
0031FA 51D2           04349     movf        ram_0x0D2, W, BANKED
0031FC 0A21           04350     xorlw       0x21
0031FE E0E6           04351     bz          flow_main_core_service_3188_31aa
003200 0A03           04352     xorlw       0x03
003202 E0ED           04353     bz          flow_main_core_service_3188_31bc
003204 0A01           04354     xorlw       0x01
003206                04355 flow_main_core_service_3188_31e4:
gpasm-1.5.2 #1325 (Jan 30 2022) src/dlcp_fw/a   03/29/2026  18:21:48        PAGE 92


LOC    OBJECT CODE    LINE  SOURCE TEXT
  VALUE

003206 83CE           04356     bsf         ram_0x0CE, 1, BANKED
003208                04357 flow_main_core_service_3188_31e6:
003208 39CF           04358     swapf       ram_0x0CF, W, BANKED
00320A 32E8           04359     rrcf        WREG, F, ACCESS
00320C 0B03           04360     andlw       0x03
00320E 6E03           04361     movwf       ram_0x003, ACCESS
003210 0403           04362     decf        ram_0x003, W, ACCESS
003212 E12C           04363     bnz         flow_main_core_service_3188_324a
003214 D01E           04364     bra         flow_main_core_service_3188_3230
003216                04365 flow_main_core_service_3188_31f4:
003216 EC10 F025      04366     call        main_core_service_496e, 0x0
00321A D028           04367     bra         flow_main_core_service_3188_324a
00321C                04368 flow_main_core_service_3188_31fa:
00321C EC0F F025      04369     call        main_core_service_496c, 0x0
003220 D025           04370     bra         flow_main_core_service_3188_324a
003222                04371 flow_main_core_service_3188_3200:
003222 0E02           04372     movlw       0x02
Message[1302]: RAM Bank undefined in this chunk of code. Ensure that bank bits are correct. Assuming bank 0 from now on.
003224 6FC8           04373     movwf       ram_0x0C8, BANKED
003226 6B76           04374     clrf        ram_0x076, BANKED
003228 0EEA           04375     movlw       0xEA
00322A                04376 flow_main_core_service_3188_3208:
00322A 6F75           04377     movwf       ram_0x075, BANKED
00322C 93CE           04378     bcf         ram_0x0CE, 1, BANKED
00322E 0E01           04379     movlw       0x01
003230 6FE7           04380     movwf       ram_0x0E7, BANKED
003232 D01C           04381     bra         flow_main_core_service_3188_324a
003234                04382 flow_main_core_service_3188_3212:
003234 0E02           04383     movlw       0x02
Message[1302]: RAM Bank undefined in this chunk of code. Ensure that bank bits are correct. Assuming bank 0 from now on.
003236 6FC8           04384     movwf       ram_0x0C8, BANKED
003238 C0D2 F0EA      04385     movff       ram_0x0D2, ram_0x0EA
00323C D017           04386     bra         flow_main_core_service_3188_324a
00323E                04387 flow_main_core_service_3188_321c:
00323E 0E02           04388     movlw       0x02
Message[1302]: RAM Bank undefined in this chunk of code. Ensure that bank bits are correct. Assuming bank 0 from now on.
003240 6FC8           04389     movwf       ram_0x0C8, BANKED
003242 6B76           04390     clrf        ram_0x076, BANKED
003244 0EE9           04391     movlw       0xE9
003246 D7F1           04392     bra         flow_main_core_service_3188_3208
003248                04393 flow_main_core_service_3188_3226:
003248 0E02           04394     movlw       0x02
Message[1302]: RAM Bank undefined in this chunk of code. Ensure that bank bits are correct. Assuming bank 0 from now on.
00324A 6FC8           04395     movwf       ram_0x0C8, BANKED
00324C C0D1 F0E9      04396     movff       ram_0x0D1, ram_0x0E9
003250 D00D           04397     bra         flow_main_core_service_3188_324a
003252                04398 flow_main_core_service_3188_3230:
Message[1302]: RAM Bank undefined in this chunk of code. Ensure that bank bits are correct. Assuming bank 0 from now on.
003252 51D0           04399     movf        ram_0x0D0, W, BANKED
003254 0A01           04400     xorlw       0x01
003256 E0DF           04401     bz          flow_main_core_service_3188_31f4
003258 0A03           04402     xorlw       0x03
00325A E0E3           04403     bz          flow_main_core_service_3188_3200
gpasm-1.5.2 #1325 (Jan 30 2022) src/dlcp_fw/a   03/29/2026  18:21:48        PAGE 93


LOC    OBJECT CODE    LINE  SOURCE TEXT
  VALUE

00325C 0A01           04404     xorlw       0x01
00325E E0EF           04405     bz          flow_main_core_service_3188_321c
003260 0A0A           04406     xorlw       0x0A
003262 E0DC           04407     bz          flow_main_core_service_3188_31fa
003264 0A03           04408     xorlw       0x03
003266 E0E6           04409     bz          flow_main_core_service_3188_3212
003268 0A01           04410     xorlw       0x01
00326A E0EE           04411     bz          flow_main_core_service_3188_3226
00326C                04412 flow_main_core_service_3188_324a:
00326C 0012           04413     return      0
00326E                04414 flow_main_core_service_3188_324c:
Message[1302]: RAM Bank undefined in this chunk of code. Ensure that bank bits are correct. Assuming bank 0 from now on.
00326E 67C8           04415     tstfsz      ram_0x0C8, BANKED
003270 D014           04416     bra         flow_main_core_service_3188_3278
003272 0E04           04417     movlw       0x04
003274 0104           04418     movlb       0x4
003276 6F08           04419     movwf       ram_0x008, BANKED
003278 8F08           04420     bsf         ram_0x008, 7, BANKED
00327A 0101           04421     movlb       0x1
00327C 6F16           04422     movwf       ram_0x016, BANKED
00327E 0100           04423     movlb       0x0
003280 0596           04424     decf        ram_0x096, W, BANKED
003282 E105           04425     bnz         flow_main_core_service_3188_326c
003284 0E01           04426     movlw       0x01
003286 EC80 F020      04427     call        main_core_service_4080, 0x0
Message[1302]: RAM Bank undefined in this chunk of code. Ensure that bank bits are correct. Assuming bank 0 from now on.
00328A 6B96           04428     clrf        ram_0x096, BANKED
00328C D045           04429     bra         flow_main_core_service_3188_32f6
00328E                04430 flow_main_core_service_3188_326c:
00328E 0E00           04431     movlw       0x00
003290 EC80 F020      04432     call        main_core_service_4080, 0x0
003294 0E01           04433     movlw       0x01
Message[1302]: RAM Bank undefined in this chunk of code. Ensure that bank bits are correct. Assuming bank 0 from now on.
003296 6F96           04434     movwf       ram_0x096, BANKED
003298 D03F           04435     bra         flow_main_core_service_3188_32f6
00329A                04436 flow_main_core_service_3188_3278:
Message[1302]: RAM Bank undefined in this chunk of code. Ensure that bank bits are correct. Assuming bank 0 from now on.
00329A AFCF           04437     btfss       ram_0x0CF, 7, BANKED
00329C D01C           04438     bra         flow_main_core_service_3188_32b4
00329E 0E01           04439     movlw       0x01
0032A0 6FC9           04440     movwf       ram_0x0C9, BANKED
0032A2 51E7           04441     movf        ram_0x0E7, W, BANKED
0032A4 5DD5           04442     subwf       ram_0x0D5, W, BANKED
0032A6 51E8           04443     movf        ram_0x0E8, W, BANKED
0032A8 59D6           04444     subwfb      ram_0x0D6, W, BANKED
0032AA E204           04445     bc          flow_main_core_service_3188_3292
0032AC C0D5 F0E7      04446     movff       ram_0x0D5, ram_0x0E7
0032B0 C0D6 F0E8      04447     movff       ram_0x0D6, ram_0x0E8
0032B4                04448 flow_main_core_service_3188_3292:
0032B4 EC0B F01B      04449     call        main_flash_service_35f0, 0x0
0032B8 0E48           04450     movlw       0x48
0032BA 0101           04451     movlb       0x1
0032BC 6F16           04452     movwf       ram_0x016, BANKED
gpasm-1.5.2 #1325 (Jan 30 2022) src/dlcp_fw/a   03/29/2026  18:21:48        PAGE 94


LOC    OBJECT CODE    LINE  SOURCE TEXT
  VALUE

0032BE 0E01           04453     movlw       0x01
0032C0 EC80 F020      04454     call        main_core_service_4080, 0x0
0032C4 0E00           04455     movlw       0x00
0032C6 EC80 F020      04456     call        main_core_service_4080, 0x0
0032CA 0104           04457     movlb       0x4
0032CC 0E04           04458     movlw       0x04
0032CE 6F0B           04459     movwf       ram_0x00B, BANKED
0032D0 0E24           04460     movlw       0x24
0032D2 6F0A           04461     movwf       ram_0x00A, BANKED
0032D4 D01E           04462     bra         flow_main_core_service_3188_32f0
0032D6                04463 flow_main_core_service_3188_32b4:
0032D6 0E02           04464     movlw       0x02
Message[1302]: RAM Bank undefined in this chunk of code. Ensure that bank bits are correct. Assuming bank 0 from now on.
0032D8 6FC9           04465     movwf       ram_0x0C9, BANKED
0032DA 0E04           04466     movlw       0x04
0032DC 0101           04467     movlb       0x1
0032DE 6F16           04468     movwf       ram_0x016, BANKED
0032E0 0100           04469     movlb       0x0
0032E2 51D6           04470     movf        ram_0x0D6, W, BANKED
0032E4 11D5           04471     iorwf       ram_0x0D5, W, BANKED
0032E6 E103           04472     bnz         flow_main_core_service_3188_32cc
0032E8 0E48           04473     movlw       0x48
0032EA 0101           04474     movlb       0x1
0032EC 6F16           04475     movwf       ram_0x016, BANKED
0032EE                04476 flow_main_core_service_3188_32cc:
0032EE 0100           04477     movlb       0x0
0032F0 0596           04478     decf        ram_0x096, W, BANKED
0032F2 E105           04479     bnz         flow_main_core_service_3188_32dc
0032F4 0E01           04480     movlw       0x01
0032F6 EC80 F020      04481     call        main_core_service_4080, 0x0
Message[1302]: RAM Bank undefined in this chunk of code. Ensure that bank bits are correct. Assuming bank 0 from now on.
0032FA 6B96           04482     clrf        ram_0x096, BANKED
0032FC D005           04483     bra         flow_main_core_service_3188_32e6
0032FE                04484 flow_main_core_service_3188_32dc:
0032FE 0E00           04485     movlw       0x00
003300 EC80 F020      04486     call        main_core_service_4080, 0x0
003304 0E01           04487     movlw       0x01
Message[1302]: RAM Bank undefined in this chunk of code. Ensure that bank bits are correct. Assuming bank 0 from now on.
003306 6F96           04488     movwf       ram_0x096, BANKED
003308                04489 flow_main_core_service_3188_32e6:
003308 51D6           04490     movf        ram_0x0D6, W, BANKED
00330A 11D5           04491     iorwf       ram_0x0D5, W, BANKED
00330C E105           04492     bnz         flow_main_core_service_3188_32f6
00330E 0104           04493     movlb       0x4
003310 6B09           04494     clrf        ram_0x009, BANKED
003312                04495 flow_main_core_service_3188_32f0:
003312 0E48           04496     movlw       0x48
003314 6F08           04497     movwf       ram_0x008, BANKED
003316 8F08           04498     bsf         ram_0x008, 7, BANKED
003318                04499 flow_main_core_service_3188_32f6:
003318 0012           04500     return      0
                      04501 
                      04502 
gpasm-1.5.2 #1325 (Jan 30 2022) src/dlcp_fw/a   03/29/2026  18:21:48        PAGE 95


LOC    OBJECT CODE    LINE  SOURCE TEXT
  VALUE

                      04503 ; ---------------------------------------------------------------------------
                      04504 ; Function: main_i2c_service_32f8
                      04505 ; Address : 0x32F8
                      04506 ; Notes   : Inferred i2c helper routine. Calls: i2c_wait_bus_idle, i2c_secondary_dev_write.
                      04507 ; ---------------------------------------------------------------------------
00331A                04508 main_i2c_service_32f8:
00331A ECB4 F024      04509     call        i2c_wait_bus_idle, 0x0
00331E 0E3F           04510     movlw       0x3F
003320 6E06           04511     movwf       ram_0x006, ACCESS
003322 0E01           04512     movlw       0x01
003324 ECA9 F023      04513     call        i2c_secondary_dev_write, 0x0
003328 0E30           04514     movlw       0x30
00332A 6E06           04515     movwf       ram_0x006, ACCESS
00332C 0E03           04516     movlw       0x03
00332E ECA9 F023      04517     call        i2c_secondary_dev_write, 0x0
003332 0E01           04518     movlw       0x01
003334 6E06           04519     movwf       ram_0x006, ACCESS
003336 0E04           04520     movlw       0x04
003338 ECA9 F023      04521     call        i2c_secondary_dev_write, 0x0
00333C 0E08           04522     movlw       0x08
00333E 6E06           04523     movwf       ram_0x006, ACCESS
003340 0E05           04524     movlw       0x05
003342 ECA9 F023      04525     call        i2c_secondary_dev_write, 0x0
003346 0E01           04526     movlw       0x01
003348 6E06           04527     movwf       ram_0x006, ACCESS
00334A 0E06           04528     movlw       0x06
00334C ECA9 F023      04529     call        i2c_secondary_dev_write, 0x0
003350 0E34           04530     movlw       0x34
003352 6E06           04531     movwf       ram_0x006, ACCESS
003354 0E07           04532     movlw       0x07
003356 ECA9 F023      04533     call        i2c_secondary_dev_write, 0x0
00335A 0E30           04534     movlw       0x30
00335C 6E06           04535     movwf       ram_0x006, ACCESS
00335E 0E08           04536     movlw       0x08
003360 ECA9 F023      04537     call        i2c_secondary_dev_write, 0x0
003364 0E08           04538     movlw       0x08
003366 6E06           04539     movwf       ram_0x006, ACCESS
003368 0E0D           04540     movlw       0x0D
00336A ECA9 F023      04541     call        i2c_secondary_dev_write, 0x0
00336E 0E08           04542     movlw       0x08
003370 6E06           04543     movwf       ram_0x006, ACCESS
003372 0E0E           04544     movlw       0x0E
003374 ECA9 F023      04545     call        i2c_secondary_dev_write, 0x0
003378 0E22           04546     movlw       0x22
00337A 6E06           04547     movwf       ram_0x006, ACCESS
00337C 0E0F           04548     movlw       0x0F
00337E ECA9 F023      04549     call        i2c_secondary_dev_write, 0x0
003382 6A06           04550     clrf        ram_0x006, ACCESS
003384 0E10           04551     movlw       0x10
003386 ECA9 F023      04552     call        i2c_secondary_dev_write, 0x0
00338A 6A06           04553     clrf        ram_0x006, ACCESS
00338C 0E11           04554     movlw       0x11
00338E ECA9 F023      04555     call        i2c_secondary_dev_write, 0x0
gpasm-1.5.2 #1325 (Jan 30 2022) src/dlcp_fw/a   03/29/2026  18:21:48        PAGE 96


LOC    OBJECT CODE    LINE  SOURCE TEXT
  VALUE

003392 0E01           04556     movlw       0x01
003394 6E06           04557     movwf       ram_0x006, ACCESS
003396 0E1C           04558     movlw       0x1C
003398 ECA9 F023      04559     call        i2c_secondary_dev_write, 0x0
00339C 0E01           04560     movlw       0x01
00339E 6E06           04561     movwf       ram_0x006, ACCESS
0033A0 0E1D           04562     movlw       0x1D
0033A2 ECA9 F023      04563     call        i2c_secondary_dev_write, 0x0
0033A6 0E02           04564     movlw       0x02
0033A8 6E06           04565     movwf       ram_0x006, ACCESS
0033AA 0E2D           04566     movlw       0x2D
0033AC ECA9 F023      04567     call        i2c_secondary_dev_write, 0x0
0033B0 0E20           04568     movlw       0x20
0033B2 6E06           04569     movwf       ram_0x006, ACCESS
0033B4 0E2E           04570     movlw       0x2E
0033B6 EFA9 F023      04571     goto        i2c_secondary_dev_write
                      04572 
                      04573 
                      04574 ; ---------------------------------------------------------------------------
                      04575 ; Function: main_core_service_3398
                      04576 ; Address : 0x3398
                      04577 ; Notes   : Inferred core helper routine. Calls: main_flash_service_3ce8, main_core_service_301a, main_c
                            ore_service_3e0a.
                      04578 ; ---------------------------------------------------------------------------
0033BA                04579 main_core_service_3398:
0033BA C02F F003      04580     movff       ram_0x02F, ram_0x003
0033BE C030 F004      04581     movff       ram_0x030, ram_0x004
0033C2 C031 F005      04582     movff       ram_0x031, ram_0x005
0033C6 C032 F006      04583     movff       ram_0x032, ram_0x006
0033CA 0E37           04584     movlw       0x37
0033CC 6E07           04585     movwf       ram_0x007, ACCESS
0033CE EC87 F01E      04586     call        main_flash_service_3ce8, 0x0
0033D2 5038           04587     movf        ram_0x038, W, ACCESS
0033D4 0A80           04588     xorlw       0x80
0033D6 6EF3           04589     movwf       PRODL, ACCESS
0033D8 0E80           04590     movlw       0x80
0033DA 5CF3           04591     subwf       PRODL, W, ACCESS
0033DC 0E00           04592     movlw       0x00
0033DE B4D8           04593     btfsc       STATUS, 2, ACCESS
0033E0 5C37           04594     subwf       ram_0x037, W, ACCESS
0033E2 E205           04595     bc          flow_main_core_service_3398_33cc
0033E4 6A2F           04596     clrf        ram_0x02F, ACCESS
0033E6 6A30           04597     clrf        ram_0x030, ACCESS
0033E8 6A31           04598     clrf        ram_0x031, ACCESS
0033EA 6A32           04599     clrf        ram_0x032, ACCESS
0033EC D032           04600     bra         flow_main_core_service_3398_3430
0033EE                04601 flow_main_core_service_3398_33cc:
0033EE 0E1D           04602     movlw       0x1D
0033F0 5C37           04603     subwf       ram_0x037, W, ACCESS
0033F2 0E00           04604     movlw       0x00
0033F4 5838           04605     subwfb      ram_0x038, W, ACCESS
0033F6 E309           04606     bnc         flow_main_core_service_3398_33e8
0033F8 C02F F02F      04607     movff       ram_0x02F, ram_0x02F
gpasm-1.5.2 #1325 (Jan 30 2022) src/dlcp_fw/a   03/29/2026  18:21:48        PAGE 97


LOC    OBJECT CODE    LINE  SOURCE TEXT
  VALUE

0033FC C030 F030      04608     movff       ram_0x030, ram_0x030
003400 C031 F031      04609     movff       ram_0x031, ram_0x031
003404 C032 F032      04610     movff       ram_0x032, ram_0x032
003408 D024           04611     bra         flow_main_core_service_3398_3430
00340A                04612 flow_main_core_service_3398_33e8:
00340A C02F F025      04613     movff       ram_0x02F, ram_0x025
00340E C030 F026      04614     movff       ram_0x030, ram_0x026
003412 C031 F027      04615     movff       ram_0x031, ram_0x027
003416 C032 F028      04616     movff       ram_0x032, ram_0x028
00341A EC1E F018      04617     call        main_core_service_301a, 0x0
00341E C025 F00D      04618     movff       ram_0x025, ram_0x00D
003422 C026 F00E      04619     movff       ram_0x026, ram_0x00E
003426 C027 F00F      04620     movff       ram_0x027, ram_0x00F
00342A C028 F010      04621     movff       ram_0x028, ram_0x010
00342E EC30 F01F      04622     call        main_core_service_3e0a, 0x0
003432 C00D F033      04623     movff       ram_0x00D, ram_0x033
003436 C00E F034      04624     movff       ram_0x00E, ram_0x034
00343A C00F F035      04625     movff       ram_0x00F, ram_0x035
00343E C010 F036      04626     movff       ram_0x010, ram_0x036
003442 C033 F02F      04627     movff       ram_0x033, ram_0x02F
003446 C034 F030      04628     movff       ram_0x034, ram_0x030
00344A C035 F031      04629     movff       ram_0x035, ram_0x031
00344E C036 F032      04630     movff       ram_0x036, ram_0x032
003452                04631 flow_main_core_service_3398_3430:
003452 0012           04632     return      0
                      04633 
                      04634 
                      04635 ; ---------------------------------------------------------------------------
                      04636 ; Function: main_core_service_3432
                      04637 ; Address : 0x3432
                      04638 ; Notes   : Inferred core helper routine.
                      04639 ; ---------------------------------------------------------------------------
003454                04640 main_core_service_3432:
Message[1302]: RAM Bank undefined in this chunk of code. Ensure that bank bits are correct. Assuming bank 0 from now on.
003454 05D1           04641     decf        ram_0x0D1, W, BANKED
003456 E10B           04642     bnz         flow_main_core_service_3432_344c
003458 51CF           04643     movf        ram_0x0CF, W, BANKED
00345A 0B1F           04644     andlw       0x1F
00345C E108           04645     bnz         flow_main_core_service_3432_344c
00345E 0E01           04646     movlw       0x01
003460 6FC8           04647     movwf       ram_0x0C8, BANKED
003462 51D0           04648     movf        ram_0x0D0, W, BANKED
003464 0A03           04649     xorlw       0x03
003466 E102           04650     bnz         flow_main_core_service_3432_344a
003468 81CE           04651     bsf         ram_0x0CE, 0, BANKED
00346A D001           04652     bra         flow_main_core_service_3432_344c
00346C                04653 flow_main_core_service_3432_344a:
Message[1302]: RAM Bank undefined in this chunk of code. Ensure that bank bits are correct. Assuming bank 0 from now on.
00346C 91CE           04654     bcf         ram_0x0CE, 0, BANKED
00346E                04655 flow_main_core_service_3432_344c:
00346E 67D1           04656     tstfsz      ram_0x0D1, BANKED
003470 D03B           04657     bra         flow_main_core_service_3432_34c6
003472 51CF           04658     movf        ram_0x0CF, W, BANKED
gpasm-1.5.2 #1325 (Jan 30 2022) src/dlcp_fw/a   03/29/2026  18:21:48        PAGE 98


LOC    OBJECT CODE    LINE  SOURCE TEXT
  VALUE

003474 0B1F           04659     andlw       0x1F
003476 0A02           04660     xorlw       0x02
003478 E137           04661     bnz         flow_main_core_service_3432_34c6
00347A 51D3           04662     movf        ram_0x0D3, W, BANKED
00347C 0B0F           04663     andlw       0x0F
00347E E034           04664     bz          flow_main_core_service_3432_34c6
003480 0E01           04665     movlw       0x01
003482 6FC8           04666     movwf       ram_0x0C8, BANKED
003484 51D3           04667     movf        ram_0x0D3, W, BANKED
003486 0B0F           04668     andlw       0x0F
003488 0D08           04669     mullw       0x08
00348A 0E04           04670     movlw       0x04
00348C 6E03           04671     movwf       ram_0x003, ACCESS
00348E 6E04           04672     movwf       ram_0x004, ACCESS
003490 50F3           04673     movf        PRODL, W, ACCESS
003492 2603           04674     addwf       ram_0x003, F, ACCESS
003494 50F4           04675     movf        PRODH, W, ACCESS
003496 2204           04676     addwfc      ram_0x004, F, ACCESS
003498 0E01           04677     movlw       0x01
00349A AFD3           04678     btfss       ram_0x0D3, 7, BANKED
00349C 0E00           04679     movlw       0x00
00349E 0D04           04680     mullw       0x04
0034A0 50F3           04681     movf        PRODL, W, ACCESS
0034A2 2403           04682     addwf       ram_0x003, W, ACCESS
0034A4 6F72           04683     movwf       ram_0x072, BANKED
0034A6 50F4           04684     movf        PRODH, W, ACCESS
0034A8 2004           04685     addwfc      ram_0x004, W, ACCESS
0034AA 6F73           04686     movwf       ram_0x073, BANKED
0034AC 51D0           04687     movf        ram_0x0D0, W, BANKED
0034AE 0A03           04688     xorlw       0x03
0034B0 E106           04689     bnz         flow_main_core_service_3432_349c
0034B2 C072 FFD9      04690     movff       ram_0x072, FSR2L
0034B6 C073 FFDA      04691     movff       ram_0x073, FSR2H
0034BA 0E04           04692     movlw       0x04
0034BC D00E           04693     bra         flow_main_core_service_3432_34b8
0034BE                04694 flow_main_core_service_3432_349c:
Message[1302]: RAM Bank undefined in this chunk of code. Ensure that bank bits are correct. Assuming bank 0 from now on.
0034BE AFD3           04695     btfss       ram_0x0D3, 7, BANKED
0034C0 D007           04696     bra         flow_main_core_service_3432_34ae
0034C2 C072 FFD9      04697     movff       ram_0x072, FSR2L
0034C6 C073 FFDA      04698     movff       ram_0x073, FSR2H
0034CA 0E40           04699     movlw       0x40
0034CC 6EDF           04700     movwf       INDF2, ACCESS
0034CE D00C           04701     bra         flow_main_core_service_3432_34c6
0034D0                04702 flow_main_core_service_3432_34ae:
0034D0 C072 FFD9      04703     movff       ram_0x072, FSR2L
0034D4 C073 FFDA      04704     movff       ram_0x073, FSR2H
0034D8 0E08           04705     movlw       0x08
0034DA                04706 flow_main_core_service_3432_34b8:
0034DA 6EDF           04707     movwf       INDF2, ACCESS
0034DC C072 FFD9      04708     movff       ram_0x072, FSR2L
0034E0 C073 FFDA      04709     movff       ram_0x073, FSR2H
0034E4 0E00           04710     movlw       0x00
gpasm-1.5.2 #1325 (Jan 30 2022) src/dlcp_fw/a   03/29/2026  18:21:48        PAGE 99


LOC    OBJECT CODE    LINE  SOURCE TEXT
  VALUE

0034E6 8EDB           04711     bsf         PLUSW2, 7, ACCESS
0034E8                04712 flow_main_core_service_3432_34c6:
0034E8 0012           04713     return      0
                      04714 
                      04715 
                      04716 ; ---------------------------------------------------------------------------
                      04717 ; Function: main_core_service_34c8
                      04718 ; Address : 0x34C8
                      04719 ; Notes   : Inferred core helper routine. Calls: main_adc_service_4124, main_core_service_427a.
                      04720 ; ---------------------------------------------------------------------------
0034EA                04721 main_core_service_34c8:
0034EA CFE8 F011      04722     movff       WREG, ram_0x011
0034EE C00A F00E      04723     movff       ram_0x00A, ram_0x00E
0034F2 C00B F00F      04724     movff       ram_0x00B, ram_0x00F
0034F6                04725 flow_main_core_service_34c8_34d4:
0034F6 C00E F003      04726     movff       ram_0x00E, ram_0x003
0034FA C00F F004      04727     movff       ram_0x00F, ram_0x004
0034FE C00C F005      04728     movff       ram_0x00C, ram_0x005
003502 C00D F006      04729     movff       ram_0x00D, ram_0x006
003506 ECD2 F020      04730     call        main_adc_service_4124, 0x0
00350A C003 F00E      04731     movff       ram_0x003, ram_0x00E
00350E C004 F00F      04732     movff       ram_0x004, ram_0x00F
003512 2A11           04733     incf        ram_0x011, F, ACCESS
003514 500F           04734     movf        ram_0x00F, W, ACCESS
003516 100E           04735     iorwf       ram_0x00E, W, ACCESS
003518 E1EE           04736     bnz         flow_main_core_service_34c8_34d4
00351A 5011           04737     movf        ram_0x011, W, ACCESS
00351C 6ED9           04738     movwf       FSR2L, ACCESS
00351E 6ADA           04739     clrf        FSR2H, ACCESS
003520 0E00           04740     movlw       0x00
003522 6ADF           04741     clrf        INDF2, ACCESS
003524 0611           04742     decf        ram_0x011, F, ACCESS
003526                04743 flow_main_core_service_34c8_3504:
003526 C00A F003      04744     movff       ram_0x00A, ram_0x003
00352A C00B F004      04745     movff       ram_0x00B, ram_0x004
00352E C00C F005      04746     movff       ram_0x00C, ram_0x005
003532 C00D F006      04747     movff       ram_0x00D, ram_0x006
003536 EC7D F021      04748     call        main_core_service_427a, 0x0
00353A 5003           04749     movf        ram_0x003, W, ACCESS
00353C 6E10           04750     movwf       ram_0x010, ACCESS
00353E C00A F003      04751     movff       ram_0x00A, ram_0x003
003542 C00B F004      04752     movff       ram_0x00B, ram_0x004
003546 C00C F005      04753     movff       ram_0x00C, ram_0x005
00354A C00D F006      04754     movff       ram_0x00D, ram_0x006
00354E ECD2 F020      04755     call        main_adc_service_4124, 0x0
003552 C003 F00A      04756     movff       ram_0x003, ram_0x00A
003556 C004 F00B      04757     movff       ram_0x004, ram_0x00B
00355A 0E09           04758     movlw       0x09
00355C 6410           04759     cpfsgt      ram_0x010, ACCESS
00355E D002           04760     bra         flow_main_core_service_34c8_3542
003560 0E07           04761     movlw       0x07
003562 2610           04762     addwf       ram_0x010, F, ACCESS
003564                04763 flow_main_core_service_34c8_3542:
gpasm-1.5.2 #1325 (Jan 30 2022) src/dlcp_fw/a   03/29/2026  18:21:48        PAGE 100


LOC    OBJECT CODE    LINE  SOURCE TEXT
  VALUE

003564 0E30           04764     movlw       0x30
003566 2610           04765     addwf       ram_0x010, F, ACCESS
003568 5011           04766     movf        ram_0x011, W, ACCESS
00356A 6ED9           04767     movwf       FSR2L, ACCESS
00356C 6ADA           04768     clrf        FSR2H, ACCESS
00356E C010 FFDF      04769     movff       ram_0x010, INDF2
003572 0611           04770     decf        ram_0x011, F, ACCESS
003574 500B           04771     movf        ram_0x00B, W, ACCESS
003576 100A           04772     iorwf       ram_0x00A, W, ACCESS
003578 E1D6           04773     bnz         flow_main_core_service_34c8_3504
00357A 2A11           04774     incf        ram_0x011, F, ACCESS
00357C 0012           04775     return      0
                      04776 
                      04777 
                      04778 ; ---------------------------------------------------------------------------
                      04779 ; Function: main_i2c_service_355c
                      04780 ; Address : 0x355C
                      04781 ; Notes   : Inferred i2c helper; touches adc,i2c,timer. Calls: eeprom_read_byte, flash_write_with_gie_of
                            f, main_flash_service_46de.
                      04782 ; ---------------------------------------------------------------------------
00357E                04783 main_i2c_service_355c:
00357E 6AF2           04784     clrf        INTCON, ACCESS
003580 6A9D           04785     clrf        PIE1, ACCESS
003582 6AA0           04786     clrf        PIE2, ACCESS
003584 6A9E           04787     clrf        PIR1, ACCESS
003586 6AA1           04788     clrf        PIR2, ACCESS
003588 6A80           04789     clrf        PORTA, ACCESS
00358A 6A81           04790     clrf        PORTB, ACCESS
00358C 6A82           04791     clrf        PORTC, ACCESS
00358E 0E07           04792     movlw       0x07
003590 6E92           04793     movwf       TRISA, ACCESS
003592 6A93           04794     clrf        TRISB, ACCESS
003594 0E87           04795     movlw       0x87
003596 6E94           04796     movwf       TRISC, ACCESS
003598 0E70           04797     movlw       0x70
00359A 6ED3           04798     movwf       OSCCON, ACCESS
00359C 0E38           04799     movlw       0x38
00359E 6EC6           04800     movwf       SSPCON1, ACCESS
0035A0 0E01           04801     movlw       0x01
0035A2 6EC2           04802     movwf       ADCON0, ACCESS
0035A4 0E0C           04803     movlw       0x0C
0035A6 6EC1           04804     movwf       ADCON1, ACCESS
0035A8 0EB5           04805     movlw       0xB5
0035AA 6EC0           04806     movwf       ADCON2, ACCESS
0035AC 0E07           04807     movlw       0x07
0035AE 6ED5           04808     movwf       T0CON, ACCESS
0035B0 0E80           04809     movlw       0x80
0035B2 6ECD           04810     movwf       T1CON, ACCESS
0035B4 0E77           04811     movlw       0x77
0035B6 6EC8           04812     movwf       SSPADD, ACCESS
0035B8 0E01           04813     movlw       0x01
0035BA 0100           04814     movlb       0x0
0035BC 6FFE           04815     movwf       ram_0x0FE, BANKED
gpasm-1.5.2 #1325 (Jan 30 2022) src/dlcp_fw/a   03/29/2026  18:21:48        PAGE 101


LOC    OBJECT CODE    LINE  SOURCE TEXT
  VALUE

0035BE 6A04           04816     clrf        ram_0x004, ACCESS
0035C0 0EFF           04817     movlw       0xFF
0035C2 6803           04818     setf        ram_0x003, ACCESS
0035C4 EC8F F024      04819     call        eeprom_read_byte, 0x0
0035C8 0A77           04820     xorlw       0x77
0035CA E009           04821     bz          flow_main_i2c_service_355c_35bc
0035CC 6A04           04822     clrf        ram_0x004, ACCESS
0035CE 0EFF           04823     movlw       0xFF
0035D0 6803           04824     setf        ram_0x003, ACCESS
0035D2 EC8F F024      04825     call        eeprom_read_byte, 0x0
0035D6 0A88           04826     xorlw       0x88
0035D8 E002           04827     bz          flow_main_i2c_service_355c_35bc
0035DA 0100           04828     movlb       0x0
0035DC 6BFE           04829     clrf        ram_0x0FE, BANKED
0035DE                04830 flow_main_i2c_service_355c_35bc:
0035DE 0100           04831     movlb       0x0
0035E0 51FE           04832     movf        ram_0x0FE, W, BANKED
0035E2 A4D8           04833     btfss       STATUS, 2, ACCESS
0035E4 EC9C F021      04834     call        flash_write_with_gie_off, 0x0
0035E8 6A08           04835     clrf        ram_0x008, ACCESS
0035EA 6807           04836     setf        ram_0x007, ACCESS
0035EC 0E02           04837     movlw       0x02
0035EE 6E09           04838     movwf       ram_0x009, ACCESS
0035F0 ECBC F023      04839     call        main_flash_service_46de, 0x0
0035F4 8C81           04840     bsf         PORTB, 6, ACCESS
0035F6 ECA6 F01C      04841     call        adaptive_baud_select, 0x0
0035FA 0E03           04842     movlw       0x03
0035FC 6E04           04843     movwf       ram_0x004, ACCESS
0035FE 0EE8           04844     movlw       0xE8
003600 6E03           04845     movwf       ram_0x003, ACCESS
003602 EC80 F022      04846     call        timer3_blocking_delay, 0x0
003606 EC48 F00F      04847     call        main_core_service_1e88, 0x0
00360A 8A9D           04848     bsf         PIE1, 5, ACCESS
00360C 865E           04849     bsf         active_flags, 3, ACCESS
00360E 0100           04850     movlb       0x0
003610 8F7E           04851     bsf         event_flags, 7, BANKED      ; V3.1: boot complete — enable bounded PEN waits
003612 EFCA F016      04852     goto        adc_boot_gate
                      04853 
                      04854 
                      04855 ; ---------------------------------------------------------------------------
                      04856 ; Function: main_flash_service_35f0
                      04857 ; Address : 0x35F0
                      04858 ; Notes   : Inferred flash helper; touches flash. Calls: main_flash_service_365c, main_flash_service_381
                            0, main_core_service_3672.
                      04859 ; ---------------------------------------------------------------------------
003616                04860 main_flash_service_35f0:
003616 0E08           04861     movlw       0x08
Message[1302]: RAM Bank undefined in this chunk of code. Ensure that bank bits are correct. Assuming bank 0 from now on.
003618 6F8F           04862     movwf       ram_0x08F, BANKED
00361A 5DE7           04863     subwf       ram_0x0E7, W, BANKED
00361C 0E00           04864     movlw       0x00
00361E 59E8           04865     subwfb      ram_0x0E8, W, BANKED
003620 E20A           04866     bc          flow_main_flash_service_35f0_3610
gpasm-1.5.2 #1325 (Jan 30 2022) src/dlcp_fw/a   03/29/2026  18:21:48        PAGE 102


LOC    OBJECT CODE    LINE  SOURCE TEXT
  VALUE

003622 C0E7 F08F      04867     movff       ram_0x0E7, ram_0x08F
003626 67CC           04868     tstfsz      ram_0x0CC, BANKED
003628 D002           04869     bra         flow_main_flash_service_35f0_3608
00362A 0E01           04870     movlw       0x01
00362C D003           04871     bra         flow_main_flash_service_35f0_360e
00362E                04872 flow_main_flash_service_35f0_3608:
Message[1302]: RAM Bank undefined in this chunk of code. Ensure that bank bits are correct. Assuming bank 0 from now on.
00362E 05CC           04873     decf        ram_0x0CC, W, BANKED
003630 E102           04874     bnz         flow_main_flash_service_35f0_3610
003632 0E02           04875     movlw       0x02
003634                04876 flow_main_flash_service_35f0_360e:
003634 6FCC           04877     movwf       ram_0x0CC, BANKED
003636                04878 flow_main_flash_service_35f0_3610:
003636 C08F F409      04879     movff       ram_0x08F, ram_0x409
00363A 518F           04880     movf        ram_0x08F, W, BANKED
00363C 5FE7           04881     subwf       ram_0x0E7, F, BANKED
00363E 0E00           04882     movlw       0x00
003640 5BE8           04883     subwfb      ram_0x0E8, F, BANKED
003642 0E04           04884     movlw       0x04
003644 0100           04885     movlb       0x0
003646 6F73           04886     movwf       ram_0x073, BANKED
003648 0E24           04887     movlw       0x24
00364A 6F72           04888     movwf       ram_0x072, BANKED
00364C B3CE           04889     btfsc       ram_0x0CE, 1, BANKED
00364E D00A           04890     bra         flow_main_flash_service_35f0_363e
003650 D015           04891     bra         flow_main_flash_service_35f0_3656
003652                04892 flow_main_flash_service_35f0_362c:
003652 D817           04893     rcall       main_flash_service_365c
003654 64F7           04894     cpfsgt      TBLPTRH, ACCESS
003656 D003           04895     bra         flow_main_flash_service_35f0_3638
003658 0008           04896     tblrd*
00365A 50F5           04897     movf        TABLAT, W, ACCESS
00365C D002           04898     bra         flow_main_flash_service_35f0_363c
00365E                04899 flow_main_flash_service_35f0_3638:
00365E EC1B F01C      04900     call        main_flash_service_3810, 0x0
003662                04901 flow_main_flash_service_35f0_363c:
003662 D81A           04902     rcall       main_core_service_3672
003664                04903 flow_main_flash_service_35f0_363e:
Message[1302]: RAM Bank undefined in this chunk of code. Ensure that bank bits are correct. Assuming bank 0 from now on.
003664 678F           04904     tstfsz      ram_0x08F, BANKED
003666 D7F5           04905     bra         flow_main_flash_service_35f0_362c
003668 D00B           04906     bra         flow_main_flash_service_35f0_365a
00366A                04907 flow_main_flash_service_35f0_3644:
00366A D80B           04908     rcall       main_flash_service_365c
00366C 64F7           04909     cpfsgt      TBLPTRH, ACCESS
00366E D003           04910     bra         flow_main_flash_service_35f0_3650
003670 0008           04911     tblrd*
003672 50F5           04912     movf        TABLAT, W, ACCESS
003674 D002           04913     bra         flow_main_flash_service_35f0_3654
003676                04914 flow_main_flash_service_35f0_3650:
003676 EC1B F01C      04915     call        main_flash_service_3810, 0x0
00367A                04916 flow_main_flash_service_35f0_3654:
00367A D80E           04917     rcall       main_core_service_3672
gpasm-1.5.2 #1325 (Jan 30 2022) src/dlcp_fw/a   03/29/2026  18:21:48        PAGE 103


LOC    OBJECT CODE    LINE  SOURCE TEXT
  VALUE

00367C                04918 flow_main_flash_service_35f0_3656:
Message[1302]: RAM Bank undefined in this chunk of code. Ensure that bank bits are correct. Assuming bank 0 from now on.
00367C 678F           04919     tstfsz      ram_0x08F, BANKED
00367E D7F5           04920     bra         flow_main_flash_service_35f0_3644
003680                04921 flow_main_flash_service_35f0_365a:
003680 0012           04922     return      0
                      04923 
                      04924 
                      04925 ; ---------------------------------------------------------------------------
                      04926 ; Function: main_flash_service_365c
                      04927 ; Address : 0x365C
                      04928 ; Notes   : Inferred flash helper; touches flash.
                      04929 ; ---------------------------------------------------------------------------
003682                04930 main_flash_service_365c:
003682 C075 FFF6      04931     movff       ram_0x075, TBLPTRL
003686 C076 FFF7      04932     movff       ram_0x076, TBLPTRH
00368A 6AF8           04933     clrf        TBLPTRU, ACCESS
00368C C072 FFD9      04934     movff       ram_0x072, FSR2L
003690 C073 FFDA      04935     movff       ram_0x073, FSR2H
003694 0E07           04936     movlw       0x07
003696 0012           04937     return      0
                      04938 
                      04939 
                      04940 ; ---------------------------------------------------------------------------
                      04941 ; Function: main_core_service_3672
                      04942 ; Address : 0x3672
                      04943 ; Notes   : Inferred core helper routine.
                      04944 ; ---------------------------------------------------------------------------
003698                04945 main_core_service_3672:
003698 6EDF           04946     movwf       INDF2, ACCESS
00369A 0100           04947     movlb       0x0
00369C 4B72           04948     infsnz      ram_0x072, F, BANKED
00369E 2B73           04949     incf        ram_0x073, F, BANKED
0036A0 4B75           04950     infsnz      ram_0x075, F, BANKED
0036A2 2B76           04951     incf        ram_0x076, F, BANKED
0036A4 078F           04952     decf        ram_0x08F, F, BANKED
0036A6 0012           04953     return      0
                      04954 
                      04955 
                      04956 ; ---------------------------------------------------------------------------
                      04957 ; Function: main_core_service_3682
                      04958 ; Address : 0x3682
                      04959 ; Notes   : Inferred core helper routine. Calls: main_flash_service_3796, main_usb_service_41fe, main_co
                            re_service_3710.
                      04960 ; ---------------------------------------------------------------------------
0036A8                04961 main_core_service_3682:
Message[1302]: RAM Bank undefined in this chunk of code. Ensure that bank bits are correct. Assuming bank 0 from now on.
0036A8 39CF           04962     swapf       ram_0x0CF, W, BANKED
0036AA 32E8           04963     rrcf        WREG, F, ACCESS
0036AC 0B03           04964     andlw       0x03
0036AE E142           04965     bnz         flow_main_core_service_3682_370e
0036B0 D02C           04966     bra         flow_main_core_service_3682_36e4
0036B2                04967 flow_main_core_service_3682_368c:
gpasm-1.5.2 #1325 (Jan 30 2022) src/dlcp_fw/a   03/29/2026  18:21:48        PAGE 104


LOC    OBJECT CODE    LINE  SOURCE TEXT
  VALUE

0036B2 0E01           04968     movlw       0x01
Message[1302]: RAM Bank undefined in this chunk of code. Ensure that bank bits are correct. Assuming bank 0 from now on.
0036B4 6FC8           04969     movwf       ram_0x0C8, BANKED
0036B6 0E04           04970     movlw       0x04
0036B8 6FCD           04971     movwf       ram_0x0CD, BANKED
0036BA D03C           04972     bra         flow_main_core_service_3682_370e
0036BC                04973 flow_main_core_service_3682_3696:
0036BC ECDE F01B      04974     call        main_flash_service_3796, 0x0
0036C0 D039           04975     bra         flow_main_core_service_3682_370e
0036C2                04976 flow_main_core_service_3682_369c:
0036C2 EC3F F021      04977     call        main_usb_service_41fe, 0x0
0036C6 D036           04978     bra         flow_main_core_service_3682_370e
0036C8                04979 flow_main_core_service_3682_36a2:
0036C8 0E01           04980     movlw       0x01
Message[1302]: RAM Bank undefined in this chunk of code. Ensure that bank bits are correct. Assuming bank 0 from now on.
0036CA 6FC8           04981     movwf       ram_0x0C8, BANKED
0036CC 6B76           04982     clrf        ram_0x076, BANKED
0036CE 0EEB           04983     movlw       0xEB
0036D0 6F75           04984     movwf       ram_0x075, BANKED
0036D2                04985 flow_main_core_service_3682_36ac:
0036D2 93CE           04986     bcf         ram_0x0CE, 1, BANKED
0036D4 0E01           04987     movlw       0x01
0036D6 6FE7           04988     movwf       ram_0x0E7, BANKED
0036D8 D02D           04989     bra         flow_main_core_service_3682_370e
0036DA                04990 flow_main_core_service_3682_36b4:
0036DA EC9B F01B      04991     call        main_core_service_3710, 0x0
0036DE D02A           04992     bra         flow_main_core_service_3682_370e
0036E0                04993 flow_main_core_service_3682_36ba:
0036E0 EC2A F01A      04994     call        main_core_service_3432, 0x0
0036E4 D027           04995     bra         flow_main_core_service_3682_370e
0036E6                04996 flow_main_core_service_3682_36c0:
0036E6 0E01           04997     movlw       0x01
Message[1302]: RAM Bank undefined in this chunk of code. Ensure that bank bits are correct. Assuming bank 0 from now on.
0036E8 6FC8           04998     movwf       ram_0x0C8, BANKED
0036EA 51D3           04999     movf        ram_0x0D3, W, BANKED
0036EC 0FEC           05000     addlw       0xEC
0036EE 6E05           05001     movwf       ram_0x005, ACCESS
0036F0 6B76           05002     clrf        ram_0x076, BANKED
0036F2 C005 F075      05003     movff       ram_0x005, ram_0x075
0036F6 D7ED           05004     bra         flow_main_core_service_3682_36ac
0036F8                05005 flow_main_core_service_3682_36d2:
0036F8 0E01           05006     movlw       0x01
Message[1302]: RAM Bank undefined in this chunk of code. Ensure that bank bits are correct. Assuming bank 0 from now on.
0036FA 6FC8           05007     movwf       ram_0x0C8, BANKED
0036FC 51D3           05008     movf        ram_0x0D3, W, BANKED
0036FE 0FEC           05009     addlw       0xEC
003700 6ED9           05010     movwf       FSR2L, ACCESS
003702 6ADA           05011     clrf        FSR2H, ACCESS
003704 C0D1 FFDF      05012     movff       ram_0x0D1, INDF2
003708 D015           05013     bra         flow_main_core_service_3682_370e
00370A                05014 flow_main_core_service_3682_36e4:
Message[1302]: RAM Bank undefined in this chunk of code. Ensure that bank bits are correct. Assuming bank 0 from now on.
00370A 51D0           05015     movf        ram_0x0D0, W, BANKED
gpasm-1.5.2 #1325 (Jan 30 2022) src/dlcp_fw/a   03/29/2026  18:21:48        PAGE 105


LOC    OBJECT CODE    LINE  SOURCE TEXT
  VALUE

00370C E0E6           05016     bz          flow_main_core_service_3682_36b4
00370E 0A01           05017     xorlw       0x01
003710 E0E7           05018     bz          flow_main_core_service_3682_36ba
003712 0A02           05019     xorlw       0x02
003714 E0E5           05020     bz          flow_main_core_service_3682_36ba
003716 0A06           05021     xorlw       0x06
003718 E0CC           05022     bz          flow_main_core_service_3682_368c
00371A 0A03           05023     xorlw       0x03
00371C E0CF           05024     bz          flow_main_core_service_3682_3696
00371E 0A01           05025     xorlw       0x01
003720 E009           05026     bz          flow_main_core_service_3682_370e
003722 0A0F           05027     xorlw       0x0F
003724 E0D1           05028     bz          flow_main_core_service_3682_36a2
003726 0A01           05029     xorlw       0x01
003728 E0CC           05030     bz          flow_main_core_service_3682_369c
00372A 0A03           05031     xorlw       0x03
00372C E0DC           05032     bz          flow_main_core_service_3682_36c0
00372E 0A01           05033     xorlw       0x01
003730 E0E3           05034     bz          flow_main_core_service_3682_36d2
003732 0A07           05035     xorlw       0x07
003734                05036 flow_main_core_service_3682_370e:
003734 0012           05037     return      0
                      05038 
                      05039 
                      05040 ; ---------------------------------------------------------------------------
                      05041 ; Function: main_core_service_3710
                      05042 ; Address : 0x3710
                      05043 ; Notes   : Inferred core helper routine.
                      05044 ; ---------------------------------------------------------------------------
003736                05045 main_core_service_3710:
003736 0104           05046     movlb       0x4
003738 6B24           05047     clrf        ram_0x024, BANKED
00373A 6B25           05048     clrf        ram_0x025, BANKED
00373C D02C           05049     bra         flow_main_core_service_3710_3770
00373E                05050 flow_main_core_service_3710_3718:
00373E 0E01           05051     movlw       0x01
Message[1302]: RAM Bank undefined in this chunk of code. Ensure that bank bits are correct. Assuming bank 0 from now on.
003740 6FC8           05052     movwf       ram_0x0C8, BANKED
003742 A1CE           05053     btfss       ram_0x0CE, 0, BANKED
003744 D030           05054     bra         flow_main_core_service_3710_3780
003746 0104           05055     movlb       0x4
003748 8324           05056     bsf         ram_0x024, 1, BANKED
00374A D02D           05057     bra         flow_main_core_service_3710_3780
00374C                05058 flow_main_core_service_3710_3726:
00374C 0E01           05059     movlw       0x01
Message[1302]: RAM Bank undefined in this chunk of code. Ensure that bank bits are correct. Assuming bank 0 from now on.
00374E 6FC8           05060     movwf       ram_0x0C8, BANKED
003750 D02A           05061     bra         flow_main_core_service_3710_3780
003752                05062 flow_main_core_service_3710_372c:
003752 0E01           05063     movlw       0x01
Message[1302]: RAM Bank undefined in this chunk of code. Ensure that bank bits are correct. Assuming bank 0 from now on.
003754 6FC8           05064     movwf       ram_0x0C8, BANKED
003756 51D3           05065     movf        ram_0x0D3, W, BANKED
gpasm-1.5.2 #1325 (Jan 30 2022) src/dlcp_fw/a   03/29/2026  18:21:48        PAGE 106


LOC    OBJECT CODE    LINE  SOURCE TEXT
  VALUE

003758 0B0F           05066     andlw       0x0F
00375A 0D08           05067     mullw       0x08
00375C 0E04           05068     movlw       0x04
00375E 6E03           05069     movwf       ram_0x003, ACCESS
003760 6E04           05070     movwf       ram_0x004, ACCESS
003762 50F3           05071     movf        PRODL, W, ACCESS
003764 2603           05072     addwf       ram_0x003, F, ACCESS
003766 50F4           05073     movf        PRODH, W, ACCESS
003768 2204           05074     addwfc      ram_0x004, F, ACCESS
00376A 0E01           05075     movlw       0x01
00376C AFD3           05076     btfss       ram_0x0D3, 7, BANKED
00376E 0E00           05077     movlw       0x00
003770 0D04           05078     mullw       0x04
003772 50F3           05079     movf        PRODL, W, ACCESS
003774 2403           05080     addwf       ram_0x003, W, ACCESS
003776 6F72           05081     movwf       ram_0x072, BANKED
003778 50F4           05082     movf        PRODH, W, ACCESS
00377A 2004           05083     addwfc      ram_0x004, W, ACCESS
00377C 6F73           05084     movwf       ram_0x073, BANKED
00377E C072 FFD9      05085     movff       ram_0x072, FSR2L
003782 C073 FFDA      05086     movff       ram_0x073, FSR2H
003786 50DF           05087     movf        INDF2, W, ACCESS
003788 6E03           05088     movwf       ram_0x003, ACCESS
00378A A403           05089     btfss       ram_0x003, 2, ACCESS
00378C D00C           05090     bra         flow_main_core_service_3710_3780
00378E 0E01           05091     movlw       0x01
003790 0104           05092     movlb       0x4
003792 6F24           05093     movwf       ram_0x024, BANKED
003794 D008           05094     bra         flow_main_core_service_3710_3780
003796                05095 flow_main_core_service_3710_3770:
003796 0100           05096     movlb       0x0
003798 51CF           05097     movf        ram_0x0CF, W, BANKED
00379A 0B1F           05098     andlw       0x1F
00379C E0D0           05099     bz          flow_main_core_service_3710_3718
00379E 0A01           05100     xorlw       0x01
0037A0 E0D5           05101     bz          flow_main_core_service_3710_3726
0037A2 0A03           05102     xorlw       0x03
0037A4 E0D6           05103     bz          flow_main_core_service_3710_372c
0037A6                05104 flow_main_core_service_3710_3780:
0037A6 0100           05105     movlb       0x0
0037A8 05C8           05106     decf        ram_0x0C8, W, BANKED
0037AA E107           05107     bnz         flow_main_core_service_3710_3794
0037AC 0E04           05108     movlw       0x04
0037AE 6F76           05109     movwf       ram_0x076, BANKED
0037B0 0E24           05110     movlw       0x24
0037B2 6F75           05111     movwf       ram_0x075, BANKED
0037B4 93CE           05112     bcf         ram_0x0CE, 1, BANKED
0037B6 0E02           05113     movlw       0x02
0037B8 6FE7           05114     movwf       ram_0x0E7, BANKED
0037BA                05115 flow_main_core_service_3710_3794:
0037BA 0012           05116     return      0
                      05117 
                      05118 
gpasm-1.5.2 #1325 (Jan 30 2022) src/dlcp_fw/a   03/29/2026  18:21:48        PAGE 107


LOC    OBJECT CODE    LINE  SOURCE TEXT
  VALUE

                      05119 ; ---------------------------------------------------------------------------
                      05120 ; Function: main_flash_service_3796
                      05121 ; Address : 0x3796
                      05122 ; Notes   : Inferred flash helper; touches flash. Calls: main_flash_service_3810.
                      05123 ; ---------------------------------------------------------------------------
0037BC                05124 main_flash_service_3796:
Message[1302]: RAM Bank undefined in this chunk of code. Ensure that bank bits are correct. Assuming bank 0 from now on.
0037BC 51CF           05125     movf        ram_0x0CF, W, BANKED
0037BE 0A80           05126     xorlw       0x80
0037C0 E031           05127     bz          flow_main_flash_service_3796_37fe
0037C2 D038           05128     bra         flow_main_flash_service_3796_380e
0037C4                05129 flow_main_flash_service_3796_379e:
0037C4 0E01           05130     movlw       0x01
Message[1302]: RAM Bank undefined in this chunk of code. Ensure that bank bits are correct. Assuming bank 0 from now on.
0037C6 6FC8           05131     movwf       ram_0x0C8, BANKED
0037C8 0E10           05132     movlw       0x10
0037CA 6F76           05133     movwf       ram_0x076, BANKED
0037CC 0E88           05134     movlw       0x88
0037CE 6F75           05135     movwf       ram_0x075, BANKED
0037D0 0E12           05136     movlw       0x12
0037D2 D00B           05137     bra         flow_main_flash_service_3796_37c4
0037D4                05138 flow_main_flash_service_3796_37ae:
Message[1302]: RAM Bank undefined in this chunk of code. Ensure that bank bits are correct. Assuming bank 0 from now on.
0037D4 67D1           05139     tstfsz      ram_0x0D1, BANKED
0037D6 D02D           05140     bra         flow_main_flash_service_3796_380c
0037D8 0E01           05141     movlw       0x01
0037DA 6FC8           05142     movwf       ram_0x0C8, BANKED
0037DC 0E10           05143     movlw       0x10
0037DE 6F76           05144     movwf       ram_0x076, BANKED
0037E0 0E2C           05145     movlw       0x2C
0037E2 6F75           05146     movwf       ram_0x075, BANKED
0037E4 0E00           05147     movlw       0x00
0037E6 6FE8           05148     movwf       ram_0x0E8, BANKED
0037E8 0E29           05149     movlw       0x29
0037EA                05150 flow_main_flash_service_3796_37c4:
0037EA 6FE7           05151     movwf       ram_0x0E7, BANKED
0037EC D022           05152     bra         flow_main_flash_service_3796_380c
0037EE                05153 flow_main_flash_service_3796_37c8:
0037EE 0E01           05154     movlw       0x01
Message[1302]: RAM Bank undefined in this chunk of code. Ensure that bank bits are correct. Assuming bank 0 from now on.
0037F0 6FC8           05155     movwf       ram_0x0C8, BANKED
0037F2 51D1           05156     movf        ram_0x0D1, W, BANKED
0037F4 0F29           05157     addlw       LOW(string_desc_ptr_table)          ; indexed TBLPTR -> string_desc_ptr_table
0037F6 6EF6           05158     movwf       TBLPTRL, ACCESS
0037F8 0E10           05159     movlw       HIGH(string_desc_ptr_table)
0037FA 6EF7           05160     movwf       TBLPTRH, ACCESS
0037FC 0009           05161     tblrd*+
0037FE CFF5 F075      05162     movff       TABLAT, ram_0x075
003802 6F76           05163     movwf       ram_0x076, BANKED
003804 C075 FFF6      05164     movff       ram_0x075, TBLPTRL
003808 C076 FFF7      05165     movff       ram_0x076, TBLPTRH
00380C 6AF8           05166     clrf        TBLPTRU, ACCESS
00380E 0E07           05167     movlw       0x07
gpasm-1.5.2 #1325 (Jan 30 2022) src/dlcp_fw/a   03/29/2026  18:21:48        PAGE 108


LOC    OBJECT CODE    LINE  SOURCE TEXT
  VALUE

003810 64F7           05168     cpfsgt      TBLPTRH, ACCESS
003812 D003           05169     bra         flow_main_flash_service_3796_37f4
003814 0008           05170     tblrd*
003816 50F5           05171     movf        TABLAT, W, ACCESS
003818 D001           05172     bra         flow_main_flash_service_3796_37f6
00381A                05173 flow_main_flash_service_3796_37f4:
00381A D80D           05174     rcall       main_flash_service_3810
00381C                05175 flow_main_flash_service_3796_37f6:
00381C 0100           05176     movlb       0x0
00381E 6FE7           05177     movwf       ram_0x0E7, BANKED
003820 6BE8           05178     clrf        ram_0x0E8, BANKED
003822 D007           05179     bra         flow_main_flash_service_3796_380c
003824                05180 flow_main_flash_service_3796_37fe:
Message[1302]: RAM Bank undefined in this chunk of code. Ensure that bank bits are correct. Assuming bank 0 from now on.
003824 51D2           05181     movf        ram_0x0D2, W, BANKED
003826 0A01           05182     xorlw       0x01
003828 E0CD           05183     bz          flow_main_flash_service_3796_379e
00382A 0A03           05184     xorlw       0x03
00382C E0D3           05185     bz          flow_main_flash_service_3796_37ae
00382E 0A01           05186     xorlw       0x01
003830 E0DE           05187     bz          flow_main_flash_service_3796_37c8
003832                05188 flow_main_flash_service_3796_380c:
003832 83CE           05189     bsf         ram_0x0CE, 1, BANKED
003834                05190 flow_main_flash_service_3796_380e:
003834 0012           05191     return      0
                      05192 
                      05193 
                      05194 ; ---------------------------------------------------------------------------
                      05195 ; Function: main_flash_service_3810
                      05196 ; Address : 0x3810
                      05197 ; Notes   : Inferred flash helper; touches flash.
                      05198 ; ---------------------------------------------------------------------------
003836                05199 main_flash_service_3810:
003836 CFF6 FFE1      05200     movff       TBLPTRL, FSR1L
00383A CFF7 FFE2      05201     movff       TBLPTRH, FSR1H
00383E 50E7           05202     movf        INDF1, W, ACCESS
003840 0012           05203     return      0
                      05204 
                      05205 
                      05206 ; ---------------------------------------------------------------------------
                      05207 ; Function: main_i2c_service_381c
                      05208 ; Address : 0x381C
                      05209 ; Notes   : Inferred i2c helper; touches i2c. Calls: flash_read, i2c_byte_tx.
                      05210 ; ---------------------------------------------------------------------------
003842                05211 main_i2c_service_381c:
003842 C013 F003      05212     movff       ram_0x013, ram_0x003
003846 C014 F004      05213     movff       ram_0x014, ram_0x004
00384A 6A05           05214     clrf        ram_0x005, ACCESS
00384C 6A06           05215     clrf        ram_0x006, ACCESS
00384E 6A08           05216     clrf        ram_0x008, ACCESS
003850 0E04           05217     movlw       0x04
003852 6E07           05218     movwf       ram_0x007, ACCESS
003854 6A0A           05219     clrf        ram_0x00A, ACCESS
gpasm-1.5.2 #1325 (Jan 30 2022) src/dlcp_fw/a   03/29/2026  18:21:48        PAGE 109


LOC    OBJECT CODE    LINE  SOURCE TEXT
  VALUE

003856 0E17           05220     movlw       0x17
003858 6E09           05221     movwf       ram_0x009, ACCESS
00385A EC47 F020      05222     call        flash_read, 0x0
00385E C018 F02F      05223     movff       ram_0x018, ram_0x02F
003862 C019 F031      05224     movff       ram_0x019, ram_0x031
003866 0E19           05225     movlw       0x19
003868 5C31           05226     subwf       ram_0x031, W, ACCESS
00386A E22D           05227     bc          flow_main_i2c_service_381c_38a0
00386C 0E04           05228     movlw       0x04
00386E 2413           05229     addwf       ram_0x013, W, ACCESS
003870 6E15           05230     movwf       ram_0x015, ACCESS
003872 0E00           05231     movlw       0x00
003874 2014           05232     addwfc      ram_0x014, W, ACCESS
003876 6E16           05233     movwf       ram_0x016, ACCESS
003878 C015 F003      05234     movff       ram_0x015, ram_0x003
00387C C016 F004      05235     movff       ram_0x016, ram_0x004
003880 6A05           05236     clrf        ram_0x005, ACCESS
003882 6A06           05237     clrf        ram_0x006, ACCESS
003884 C031 F007      05238     movff       ram_0x031, ram_0x007
003888 6A08           05239     clrf        ram_0x008, ACCESS
00388A 6A0A           05240     clrf        ram_0x00A, ACCESS
00388C 0E17           05241     movlw       0x17
00388E 6E09           05242     movwf       ram_0x009, ACCESS
003890 EC47 F020      05243     call        flash_read, 0x0
003894 80C5           05244     bsf         SSPCON2, 0, ACCESS
003896                05245 flow_main_i2c_service_381c_3870:
003896 B0C5           05246     btfsc       SSPCON2, 0, ACCESS
003898 D7FE           05247     bra         flow_main_i2c_service_381c_3870
00389A 0E68           05248     movlw       0x68
00389C EC5F F01F      05249     call        i2c_byte_tx, 0x0
0038A0 502F           05250     movf        ram_0x02F, W, ACCESS
0038A2 EC5F F01F      05251     call        i2c_byte_tx, 0x0
0038A6 6A30           05252     clrf        ram_0x030, ACCESS
0038A8 D008           05253     bra         flow_main_i2c_service_381c_3894
0038AA                05254 flow_main_i2c_service_381c_3884:
0038AA 5030           05255     movf        ram_0x030, W, ACCESS
0038AC 0F17           05256     addlw       0x17
0038AE 6ED9           05257     movwf       FSR2L, ACCESS
0038B0 6ADA           05258     clrf        FSR2H, ACCESS
0038B2 50DF           05259     movf        INDF2, W, ACCESS
0038B4 EC5F F01F      05260     call        i2c_byte_tx, 0x0
0038B8 2A30           05261     incf        ram_0x030, F, ACCESS
0038BA                05262 flow_main_i2c_service_381c_3894:
0038BA 5031           05263     movf        ram_0x031, W, ACCESS
0038BC 5C30           05264     subwf       ram_0x030, W, ACCESS
0038BE E3F5           05265     bnc         flow_main_i2c_service_381c_3884
0038C0 84C5           05266     bsf         SSPCON2, 2, ACCESS
0038C2                05267 flow_main_i2c_service_381c_389c:
0038C2 B4C5           05268     btfsc       SSPCON2, 2, ACCESS
0038C4 D7FE           05269     bra         flow_main_i2c_service_381c_389c
0038C6                05270 flow_main_i2c_service_381c_38a0:
0038C6 0012           05271     return      0
                      05272 
gpasm-1.5.2 #1325 (Jan 30 2022) src/dlcp_fw/a   03/29/2026  18:21:48        PAGE 110


LOC    OBJECT CODE    LINE  SOURCE TEXT
  VALUE

                      05273 
                      05274 ; ---------------------------------------------------------------------------
                      05275 ; Function: main_core_service_38a2
                      05276 ; Address : 0x38A2
                      05277 ; Notes   : Inferred core helper routine. Calls: main_core_service_3398, main_core_service_432e, main_co
                            re_service_3f1e.
                      05278 ; ---------------------------------------------------------------------------
0038C8                05279 main_core_service_38a2:
0038C8 C041 F039      05280     movff       ram_0x041, ram_0x039
0038CC C042 F03A      05281     movff       ram_0x042, ram_0x03A
0038D0 C043 F03B      05282     movff       ram_0x043, ram_0x03B
0038D4 C044 F03C      05283     movff       ram_0x044, ram_0x03C
0038D8 C041 F02F      05284     movff       ram_0x041, ram_0x02F
0038DC C042 F030      05285     movff       ram_0x042, ram_0x030
0038E0 C043 F031      05286     movff       ram_0x043, ram_0x031
0038E4 C044 F032      05287     movff       ram_0x044, ram_0x032
0038E8 ECDD F019      05288     call        main_core_service_3398, 0x0
0038EC C02F F03D      05289     movff       ram_0x02F, ram_0x03D
0038F0 C030 F03E      05290     movff       ram_0x030, ram_0x03E
0038F4 C031 F03F      05291     movff       ram_0x031, ram_0x03F
0038F8 C032 F040      05292     movff       ram_0x032, ram_0x040
0038FC ECD7 F021      05293     call        main_core_service_432e, 0x0
003900 C039 F045      05294     movff       ram_0x039, ram_0x045
003904 C03A F046      05295     movff       ram_0x03A, ram_0x046
003908 C03B F047      05296     movff       ram_0x03B, ram_0x047
00390C C03C F048      05297     movff       ram_0x03C, ram_0x048
003910 C045 F02F      05298     movff       ram_0x045, ram_0x02F
003914 C046 F030      05299     movff       ram_0x046, ram_0x030
003918 C047 F031      05300     movff       ram_0x047, ram_0x031
00391C C048 F032      05301     movff       ram_0x048, ram_0x032
003920 0E41           05302     movlw       0x41
003922 ECC2 F01F      05303     call        main_core_service_3f1e, 0x0
003926 C041 F02F      05304     movff       ram_0x041, ram_0x02F
00392A C042 F030      05305     movff       ram_0x042, ram_0x030
00392E C043 F031      05306     movff       ram_0x043, ram_0x031
003932 C044 F032      05307     movff       ram_0x044, ram_0x032
003936 ECDD F019      05308     call        main_core_service_3398, 0x0
00393A C02F F041      05309     movff       ram_0x02F, ram_0x041
00393E C030 F042      05310     movff       ram_0x030, ram_0x042
003942 C031 F043      05311     movff       ram_0x031, ram_0x043
003946 C032 F044      05312     movff       ram_0x032, ram_0x044
00394A 0012           05313     return      0
                      05314 
                      05315 ; ---------------------------------------------------------------------------
                      05316 ; Function: adaptive_baud_select
                      05317 ; Address : 0x3926
                      05318 ; Notes   : Inferred uart helper; touches adc,timer,uart. Calls: main_uart_service_4938.
                      05319 ; ---------------------------------------------------------------------------
00394C                05320 adaptive_baud_select:
00394C A482           05321     btfss       PORTC, 2, ACCESS
00394E D006           05322     bra         flow_adaptive_baud_select_3936
003950 848A           05323     bsf         LATB, 2, ACCESS
003952 6AB0           05324     clrf        SPBRGH, ACCESS
gpasm-1.5.2 #1325 (Jan 30 2022) src/dlcp_fw/a   03/29/2026  18:21:48        PAGE 111


LOC    OBJECT CODE    LINE  SOURCE TEXT
  VALUE

003954 0E3F           05325     movlw       0x3F
003956 6EAF           05326     movwf       SPBRG, ACCESS
003958 82D3           05327     bsf         OSCCON, 1, ACCESS
00395A D005           05328     bra         flow_adaptive_baud_select_3940
00395C                05329 flow_adaptive_baud_select_3936:
00395C 948A           05330     bcf         LATB, 2, ACCESS
00395E 6AB0           05331     clrf        SPBRGH, ACCESS
003960 0E7F           05332     movlw       0x7F
003962 6EAF           05333     movwf       SPBRG, ACCESS
003964 92D3           05334     bcf         OSCCON, 1, ACCESS
003966                05335 flow_adaptive_baud_select_3940:
003966 988A           05336     bcf         LATB, 4, ACCESS
003968 9A8A           05337     bcf         LATB, 5, ACCESS
00396A 968A           05338     bcf         LATB, 3, ACCESS
00396C 9C89           05339     bcf         LATA, 6, ACCESS
00396E 9689           05340     bcf         LATA, 3, ACCESS
003970 9889           05341     bcf         LATA, 4, ACCESS
003972 9A89           05342     bcf         LATA, 5, ACCESS
003974 9E8A           05343     bcf         LATB, 7, ACCESS
003976 ECF5 F024      05344     call        main_uart_service_4938, 0x0
00397A 8EF2           05345     bsf         INTCON, 7, ACCESS
00397C 8CF2           05346     bsf         INTCON, 6, ACCESS
Message[1302]: RAM Bank undefined in this chunk of code. Ensure that bank bits are correct. Assuming bank 0 from now on.
00397E 6B93           05347     clrf        ram_0x093, BANKED
003980 C093 F0AB      05348     movff       ram_0x093, ram_0x0AB
003984 98F0           05349     bcf         INTCON3, 4, ACCESS
003986 92F0           05350     bcf         INTCON3, 1, ACCESS
003988 94F2           05351     bcf         INTCON, 2, ACCESS
00398A 9ED5           05352     bcf         T0CON, 7, ACCESS
00398C 9AF2           05353     bcf         INTCON, 5, ACCESS
00398E 6BA4           05354     clrf        ram_0x0A4, BANKED
003990 6BB0           05355     clrf        ram_0x0B0, BANKED
003992 6BB6           05356     clrf        ram_0x0B6, BANKED
003994 6BBA           05357     clrf        ram_0x0BA, BANKED
003996 6B7E           05358     clrf        event_flags, BANKED
003998 6B7F           05359     clrf        ram_0x07F, BANKED
00399A 6BBD           05360     clrf        ram_0x0BD, BANKED
00399C 6A5E           05361     clrf        active_flags, ACCESS
00399E 6BBB           05362     clrf        ram_0x0BB, BANKED
0039A0 6BBC           05363     clrf        ram_0x0BC, BANKED
0039A2 6BA1           05364     clrf        ram_0x0A1, BANKED
0039A4 6B88           05365     clrf        ram_0x088, BANKED
0039A6 6B89           05366     clrf        ram_0x089, BANKED
0039A8 92C2           05367     bcf         ADCON0, 1, ACCESS
0039AA 6B94           05368     clrf        ram_0x094, BANKED
0039AC 0E20           05369     movlw       0x20
0039AE 0101           05370     movlb       0x1
0039B0 6F0F           05371     movwf       ram_0x00F, BANKED
0039B2 0E21           05372     movlw       0x21
0039B4 6F10           05373     movwf       ram_0x010, BANKED
0039B6 0E22           05374     movlw       0x22
0039B8 6F11           05375     movwf       ram_0x011, BANKED
0039BA 0E23           05376     movlw       0x23
gpasm-1.5.2 #1325 (Jan 30 2022) src/dlcp_fw/a   03/29/2026  18:21:48        PAGE 112


LOC    OBJECT CODE    LINE  SOURCE TEXT
  VALUE

0039BC 6F12           05377     movwf       ram_0x012, BANKED
0039BE 0E25           05378     movlw       0x25
0039C0 6F13           05379     movwf       ram_0x013, BANKED
0039C2 0E27           05380     movlw       0x27
0039C4 6F14           05381     movwf       ram_0x014, BANKED
0039C6 0E28           05382     movlw       0x28
0039C8 6F15           05383     movwf       ram_0x015, BANKED
0039CA 0C28           05384     retlw       0x28
                      05385 
                      05386 
                      05387 ; ---------------------------------------------------------------------------
                      05388 ; Function: main_i2c_service_39a6
                      05389 ; Address : 0x39A6
                      05390 ; Notes   : Inferred i2c helper routine. Calls: main_core_service_2abc, main_core_service_38a2, main_cor
                            e_service_301a.
                      05391 ; ---------------------------------------------------------------------------
0039CC                05392 main_i2c_service_39a6:
0039CC 6A16           05393     clrf        ram_0x016, ACCESS
0039CE 6A17           05394     clrf        ram_0x017, ACCESS
0039D0 6A18           05395     clrf        ram_0x018, ACCESS
0039D2 0E4B           05396     movlw       0x4B
0039D4 6E19           05397     movwf       ram_0x019, ACCESS
0039D6 C049 F012      05398     movff       ram_0x049, ram_0x012
0039DA C04A F013      05399     movff       ram_0x04A, ram_0x013
0039DE C04B F014      05400     movff       ram_0x04B, ram_0x014
0039E2 C04C F015      05401     movff       ram_0x04C, ram_0x015
0039E6 EC62 F015      05402     call        main_core_service_2abc, 0x0
0039EA C012 F041      05403     movff       ram_0x012, ram_0x041
0039EE C013 F042      05404     movff       ram_0x013, ram_0x042
0039F2 C014 F043      05405     movff       ram_0x014, ram_0x043
0039F6 C015 F044      05406     movff       ram_0x015, ram_0x044
0039FA EC64 F01C      05407     call        main_core_service_38a2, 0x0
0039FE C041 F04D      05408     movff       ram_0x041, ram_0x04D
003A02 C042 F04E      05409     movff       ram_0x042, ram_0x04E
003A06 C043 F04F      05410     movff       ram_0x043, ram_0x04F
003A0A C044 F050      05411     movff       ram_0x044, ram_0x050
003A0E C04D F025      05412     movff       ram_0x04D, ram_0x025
003A12 C04E F026      05413     movff       ram_0x04E, ram_0x026
003A16 C04F F027      05414     movff       ram_0x04F, ram_0x027
003A1A C050 F028      05415     movff       ram_0x050, ram_0x028
003A1E EC1E F018      05416     call        main_core_service_301a, 0x0
003A22 C025 F051      05417     movff       ram_0x025, ram_0x051
003A26 C026 F052      05418     movff       ram_0x026, ram_0x052
003A2A C027 F053      05419     movff       ram_0x027, ram_0x053
003A2E C028 F054      05420     movff       ram_0x028, ram_0x054
003A32 5054           05421     movf        ram_0x054, W, ACCESS
003A34 0B0F           05422     andlw       0x0F
003A36 EC5F F01F      05423     call        i2c_byte_tx, 0x0
003A3A 5053           05424     movf        ram_0x053, W, ACCESS
003A3C EC5F F01F      05425     call        i2c_byte_tx, 0x0
003A40 5052           05426     movf        ram_0x052, W, ACCESS
003A42 EC5F F01F      05427     call        i2c_byte_tx, 0x0
003A46 5051           05428     movf        ram_0x051, W, ACCESS
gpasm-1.5.2 #1325 (Jan 30 2022) src/dlcp_fw/a   03/29/2026  18:21:48        PAGE 113


LOC    OBJECT CODE    LINE  SOURCE TEXT
  VALUE

003A48 EF5F F01F      05429     goto        i2c_byte_tx
                      05430 
                      05431 
                      05432 ; ---------------------------------------------------------------------------
                      05433 ; Function: main_usb_service_3a26
                      05434 ; Address : 0x3A26
                      05435 ; Notes   : Inferred usb helper; touches usb. Calls: main_uart_service_495e, main_core_service_3c82, hid
                            _command_dispatch.
                      05436 ; ---------------------------------------------------------------------------
003A4C                05437 main_usb_service_3a26:
003A4C 0100           05438     movlb       0x0
003A4E 51CD           05439     movf        ram_0x0CD, W, BANKED
003A50 0A06           05440     xorlw       0x06
003A52 B4D8           05441     btfsc       STATUS, 2, ACCESS
003A54 B26D           05442     btfsc       UCON, 1, ACCESS
003A56 D004           05443     bra         flow_main_usb_service_3a26_3a3a
003A58 A65E           05444     btfss       active_flags, 3, ACCESS
003A5A D002           05445     bra         flow_main_usb_service_3a26_3a3a
003A5C B082           05446     btfsc       PORTC, 0, ACCESS
003A5E D003           05447     bra         flow_main_usb_service_3a26_3a40
003A60                05448 flow_main_usb_service_3a26_3a3a:
003A60 EC08 F025      05449     call        main_uart_service_495e, 0x0
003A64 D031           05450     bra         flow_main_usb_service_3a26_3aa2
003A66                05451 flow_main_usb_service_3a26_3a40:
Message[1302]: RAM Bank undefined in this chunk of code. Ensure that bank bits are correct. Assuming bank 0 from now on.
003A66 67C0           05452     tstfsz      ram_0x0C0, BANKED
003A68 D01D           05453     bra         flow_main_usb_service_3a26_3a7e
003A6A 0104           05454     movlb       0x4
003A6C BF0C           05455     btfsc       ram_0x00C, 7, BANKED
003A6E D02C           05456     bra         flow_main_usb_service_3a26_3aa2
003A70 0101           05457     movlb       0x1
003A72 0E01           05458     movlw       0x01
003A74 6E04           05459     movwf       ram_0x004, ACCESS
003A76 0E1A           05460     movlw       0x1A
003A78 6E03           05461     movwf       ram_0x003, ACCESS
003A7A 0E40           05462     movlw       0x40
003A7C 6E05           05463     movwf       ram_0x005, ACCESS
003A7E EC54 F01E      05464     call        main_core_service_3c82, 0x0
003A82 0E01           05465     movlw       0x01
003A84 0100           05466     movlb       0x0
003A86 6FC0           05467     movwf       ram_0x0C0, BANKED
003A88 6A59           05468     clrf        ram_0x059, ACCESS
003A8A                05469 flow_main_usb_service_3a26_3a64:
003A8A 0101           05470     movlb       0x1
003A8C 0E5A           05471     movlw       0x5A
003A8E 2459           05472     addwf       ram_0x059, W, ACCESS
003A90 6ED9           05473     movwf       FSR2L, ACCESS
003A92 6ADA           05474     clrf        FSR2H, ACCESS
003A94 0E01           05475     movlw       0x01
003A96 22DA           05476     addwfc      FSR2H, F, ACCESS
003A98 6ADF           05477     clrf        INDF2, ACCESS
003A9A 2A59           05478     incf        ram_0x059, F, ACCESS
003A9C 0E3F           05479     movlw       0x3F
gpasm-1.5.2 #1325 (Jan 30 2022) src/dlcp_fw/a   03/29/2026  18:21:48        PAGE 114


LOC    OBJECT CODE    LINE  SOURCE TEXT
  VALUE

003A9E 6459           05480     cpfsgt      ram_0x059, ACCESS
003AA0 D7F4           05481     bra         flow_main_usb_service_3a26_3a64
003AA2 D012           05482     bra         flow_main_usb_service_3a26_3aa2
003AA4                05483 flow_main_usb_service_3a26_3a7e:
003AA4 0101           05484     movlb       0x1
003AA6 511A           05485     movf        ram_0x01A, W, BANKED
003AA8 EC56 F008      05486     call        hid_command_dispatch, 0x0
003AAC 0104           05487     movlb       0x4
003AAE BF10           05488     btfsc       ram_0x010, 7, BANKED
003AB0 D00B           05489     bra         flow_main_usb_service_3a26_3aa2
003AB2 0101           05490     movlb       0x1
003AB4 0E01           05491     movlw       0x01
003AB6 6E04           05492     movwf       ram_0x004, ACCESS
003AB8 0E5A           05493     movlw       0x5A
003ABA 6E03           05494     movwf       ram_0x003, ACCESS
003ABC 0E40           05495     movlw       0x40
003ABE 6E05           05496     movwf       ram_0x005, ACCESS
003AC0 EC1B F020      05497     call        main_core_service_3fd0, 0x0
003AC4 0100           05498     movlb       0x0
003AC6 6BC0           05499     clrf        ram_0x0C0, BANKED
003AC8                05500 flow_main_usb_service_3a26_3aa2:
003AC8 0012           05501     return      0
                      05502 
                      05503 ; ---------------------------------------------------------------------------
                      05504 ; Function: uart_rx_with_framing
                      05505 ; Address : 0x3AA4
                      05506 ; Notes   : Inferred uart helper routine. Calls: main_timer_service_477a, rx_ring_has_data, rx_ring_read
                            .
                      05507 ; ---------------------------------------------------------------------------
003ACA                05508 uart_rx_with_framing:
003ACA 6A0E           05509     clrf        ram_0x00E, ACCESS
003ACC 6A0D           05510     clrf        ram_0x00D, ACCESS
003ACE 6A0F           05511     clrf        ram_0x00F, ACCESS
003AD0 6A0B           05512     clrf        ram_0x00B, ACCESS
003AD2 C005 F003      05513     movff       ram_0x005, ram_0x003
003AD6 C006 F004      05514     movff       ram_0x006, ram_0x004
003ADA EC0A F024      05515     call        main_timer_service_477a, 0x0
003ADE                05516 flow_uart_rx_with_framing_3ab8:
003ADE EC86 F024      05517     call        rx_ring_has_data, 0x0
003AE2 0900           05518     iorlw       0x00
003AE4 E023           05519     bz          flow_uart_rx_with_framing_3b06
003AE6 C00F F00A      05520     movff       ram_0x00F, ram_0x00A
003AEA EC49 F023      05521     call        rx_ring_read, 0x0
003AEE 6E0F           05522     movwf       ram_0x00F, ACCESS
003AF0 500D           05523     movf        ram_0x00D, W, ACCESS
003AF2 E00A           05524     bz          flow_uart_rx_with_framing_3ae2
003AF4 500E           05525     movf        ram_0x00E, W, ACCESS
003AF6 2407           05526     addwf       ram_0x007, W, ACCESS
003AF8 6ED9           05527     movwf       FSR2L, ACCESS
003AFA 0E00           05528     movlw       0x00
003AFC 2008           05529     addwfc      ram_0x008, W, ACCESS
003AFE 6EDA           05530     movwf       FSR2H, ACCESS
003B00 C00F FFDF      05531     movff       ram_0x00F, INDF2
gpasm-1.5.2 #1325 (Jan 30 2022) src/dlcp_fw/a   03/29/2026  18:21:48        PAGE 115


LOC    OBJECT CODE    LINE  SOURCE TEXT
  VALUE

003B04 2A0E           05532     incf        ram_0x00E, F, ACCESS
003B06 D005           05533     bra         flow_uart_rx_with_framing_3aec
003B08                05534 flow_uart_rx_with_framing_3ae2:
003B08 500F           05535     movf        ram_0x00F, W, ACCESS
003B0A 0A3A           05536     xorlw       0x3A
003B0C E102           05537     bnz         flow_uart_rx_with_framing_3aec
003B0E 0E01           05538     movlw       0x01
003B10 6E0D           05539     movwf       ram_0x00D, ACCESS
003B12                05540 flow_uart_rx_with_framing_3aec:
003B12 6A0C           05541     clrf        ram_0x00C, ACCESS
003B14 500D           05542     movf        ram_0x00D, W, ACCESS
003B16 E008           05543     bz          flow_uart_rx_with_framing_3b02
003B18 500A           05544     movf        ram_0x00A, W, ACCESS
003B1A 0A0D           05545     xorlw       0x0D
003B1C E105           05546     bnz         flow_uart_rx_with_framing_3b02
003B1E 500F           05547     movf        ram_0x00F, W, ACCESS
003B20 0A0A           05548     xorlw       0x0A
003B22 E102           05549     bnz         flow_uart_rx_with_framing_3b02
003B24 0E01           05550     movlw       0x01
003B26 6E0C           05551     movwf       ram_0x00C, ACCESS
003B28                05552 flow_uart_rx_with_framing_3b02:
003B28 C00C F00B      05553     movff       ram_0x00C, ram_0x00B
003B2C                05554 flow_uart_rx_with_framing_3b06:
003B2C ECDF F024      05555     call        main_usb_service_490c, 0x0
003B30 E205           05556     bc          flow_uart_rx_with_framing_3b16
003B32 5009           05557     movf        ram_0x009, W, ACCESS
003B34 5C0E           05558     subwf       ram_0x00E, W, ACCESS
003B36 E202           05559     bc          flow_uart_rx_with_framing_3b16
003B38 500B           05560     movf        ram_0x00B, W, ACCESS
003B3A E0D1           05561     bz          flow_uart_rx_with_framing_3ab8
003B3C                05562 flow_uart_rx_with_framing_3b16:
003B3C ECFF F024      05563     call        main_timer_service_494c, 0x0
003B40 500E           05564     movf        ram_0x00E, W, ACCESS
003B42 0012           05565     return      0
                      05566 
                      05567 ; ---------------------------------------------------------------------------
                      05568 ; Function: main_isr_dispatch
                      05569 ; Address : 0x3B1E
                      05570 ; Notes   : Inferred uart helper; touches timer,uart.
                      05571 ; ---------------------------------------------------------------------------
003B44                05572 main_isr_dispatch:
003B44 0006           05573     pop
003B46 AAA1           05574     btfss       PIR2, 5, ACCESS
003B48 D002           05575     bra         timer0_irq_handler
003B4A 9AA1           05576     bcf         PIR2, 5, ACCESS
003B4C 9AA0           05577     bcf         PIE2, 5, ACCESS
003B4E                05578 timer0_irq_handler:
003B4E A4F2           05579     btfss       INTCON, 2, ACCESS
003B50 D005           05580     bra         timer3_irq_handler
003B52 0100           05581     movlb       0x0
003B54 817E           05582     bsf         event_flags, 0, BANKED
003B56 94F2           05583     bcf         INTCON, 2, ACCESS
003B58 9AF2           05584     bcf         INTCON, 5, ACCESS
gpasm-1.5.2 #1325 (Jan 30 2022) src/dlcp_fw/a   03/29/2026  18:21:48        PAGE 116


LOC    OBJECT CODE    LINE  SOURCE TEXT
  VALUE

003B5A 9ED5           05585     bcf         T0CON, 7, ACCESS
003B5C                05586 timer3_irq_handler:
003B5C A2A1           05587     btfss       PIR2, 1, ACCESS
003B5E D011           05588     bra         uart_rx_irq_enqueue
003B60 90B1           05589     bcf         T3CON, 0, ACCESS
003B62 0EF8           05590     movlw       0xF8
003B64 6EB3           05591     movwf       TMR3H, ACCESS
003B66 0E30           05592     movlw       0x30
003B68 6EB2           05593     movwf       TMR3L, ACCESS
003B6A 80B1           05594     bsf         T3CON, 0, ACCESS
003B6C 92A1           05595     bcf         PIR2, 1, ACCESS
003B6E 0100           05596     movlb       0x0
003B70 518D           05597     movf        ram_0x08D, W, BANKED
003B72 118C           05598     iorwf       ram_0x08C, W, BANKED
003B74 E004           05599     bz          flow_main_isr_dispatch_3b58
003B76 078C           05600     decf        ram_0x08C, F, BANKED
003B78 A0D8           05601     btfss       STATUS, 0, ACCESS
003B7A 078D           05602     decf        ram_0x08D, F, BANKED
003B7C D002           05603     bra         uart_rx_irq_enqueue
003B7E                05604 flow_main_isr_dispatch_3b58:
003B7E 90B1           05605     bcf         T3CON, 0, ACCESS
003B80 92A0           05606     bcf         PIE2, 1, ACCESS
003B82                05607 uart_rx_irq_enqueue:
003B82 AA9E           05608     btfss       PIR1, 5, ACCESS
003B84 D016           05609     bra         flow_main_isr_dispatch_3b8c
003B86 0E00           05610     movlw       0x00
003B88 0100           05611     movlb       0x0
003B8A 25C7           05612     addwf       rx_ring_wr, W, BANKED
003B8C 6ED9           05613     movwf       FSR2L, ACCESS
003B8E 6ADA           05614     clrf        FSR2H, ACCESS
003B90 0E02           05615     movlw       0x02
003B92 22DA           05616     addwfc      FSR2H, F, ACCESS
003B94 CFAE FFDF      05617     movff       RCREG, INDF2
003B98 2BC7           05618     incf        rx_ring_wr, F, BANKED
003B9A 0EBF           05619     movlw       0xBF
003B9C 65C7           05620     cpfsgt      rx_ring_wr, BANKED
003B9E D001           05621     bra         uart_oerr_recover
Message[1302]: RAM Bank undefined in this chunk of code. Ensure that bank bits are correct. Assuming bank 0 from now on.
003BA0 6BC7           05622     clrf        rx_ring_wr, BANKED
003BA2                05623 uart_oerr_recover:
003BA2 A2AB           05624     btfss       RCSTA, 1, ACCESS
003BA4 D006           05625     bra         flow_main_isr_dispatch_3b8c
003BA6 98AB           05626     bcf         RCSTA, 4, ACCESS
003BA8 F000           05627     dw          0xF000
003BAA 88AB           05628     bsf         RCSTA, 4, ACCESS
003BAC 805E           05629     bsf         active_flags, 0, ACCESS
003BAE 0100           05630     movlb       0x0
003BB0 6B98           05631     clrf        rx_frame_position, BANKED
003BB2                05632 flow_main_isr_dispatch_3b8c:
003BB2 C002 FFDA      05633     movff       isr_save_fsr2h, FSR2H
003BB6 C001 FFD9      05634     movff       isr_save_fsr2l, FSR2L
003BBA 0011           05635     retfie      1
                      05636 
gpasm-1.5.2 #1325 (Jan 30 2022) src/dlcp_fw/a   03/29/2026  18:21:48        PAGE 117


LOC    OBJECT CODE    LINE  SOURCE TEXT
  VALUE

                      05637 ; ---------------------------------------------------------------------------
                      05638 ; Function: send_status_burst
                      05639 ; Address : 0x3B96
                      05640 ; Notes   : Inferred uart helper routine. Calls: uart_tx_byte_blocking, main_core_service_492e.
                      05641 ; ---------------------------------------------------------------------------
003BBC                05642 send_status_burst:
003BBC 0EBF           05643     movlw       0xBF
003BBE EC98 F024      05644     call        uart_tx_byte_blocking, 0x0
003BC2 0E05           05645     movlw       0x05
003BC4 EC98 F024      05646     call        uart_tx_byte_blocking, 0x0
003BC8 505F           05647     movf        ram_0x05F, W, ACCESS
003BCA EC98 F024      05648     call        uart_tx_byte_blocking, 0x0
003BCE ECF0 F024      05649     call        main_core_service_492e, 0x0
003BD2 0EBF           05650     movlw       0xBF
003BD4 EC98 F024      05651     call        uart_tx_byte_blocking, 0x0
003BD8 0E07           05652     movlw       0x07
003BDA EC98 F024      05653     call        uart_tx_byte_blocking, 0x0
003BDE 0100           05654     movlb       0x0
003BE0 516E           05655     movf        computed_volume, W, BANKED
003BE2 0F60           05656     addlw       0x60
003BE4 EC98 F024      05657     call        uart_tx_byte_blocking, 0x0
003BE8 ECF0 F024      05658     call        main_core_service_492e, 0x0
003BEC 0EBF           05659     movlw       0xBF
003BEE EC98 F024      05660     call        uart_tx_byte_blocking, 0x0
003BF2 0E03           05661     movlw       0x03
003BF4 EC98 F024      05662     call        uart_tx_byte_blocking, 0x0
003BF8 0E01           05663     movlw       0x01
003BFA A65E           05664     btfss       active_flags, 3, ACCESS
003BFC 0E00           05665     movlw       0x00
003BFE EC98 F024      05666     call        uart_tx_byte_blocking, 0x0
003C02 ECF0 F024      05667     call        main_core_service_492e, 0x0
003C06 0EBF           05668     movlw       0xBF
003C08 EC98 F024      05669     call        uart_tx_byte_blocking, 0x0
003C0C 0E06           05670     movlw       0x06
003C0E EC98 F024      05671     call        uart_tx_byte_blocking, 0x0
003C12 0100           05672     movlb       0x0
003C14 5199           05673     movf        input_select, W, BANKED
003C16 EC98 F024      05674     call        uart_tx_byte_blocking, 0x0
003C1A ECF0 F024      05675     call        main_core_service_492e, 0x0
003C1E 0EBF           05676     movlw       0xBF
003C20 EC98 F024      05677     call        uart_tx_byte_blocking, 0x0
003C24 0E1D           05678     movlw       0x1D
003C26 EC98 F024      05679     call        uart_tx_byte_blocking, 0x0
003C2A 0100           05680     movlb       0x0
003C2C 51B8           05681     movf        ram_0x0B8, W, BANKED
003C2E EF98 F024      05682     goto        uart_tx_byte_blocking
                      05683 
                      05684 ; ---------------------------------------------------------------------------
                      05685 ; Function: hw_standby_shutdown
                      05686 ; Address : 0x3C0C
                      05687 ; Notes   : Inferred uart helper; touches timer,uart. Calls: i2c_secondary_dev_write, timer3_blocking_de
                            lay.
                      05688 ; ---------------------------------------------------------------------------
gpasm-1.5.2 #1325 (Jan 30 2022) src/dlcp_fw/a   03/29/2026  18:21:48        PAGE 118


LOC    OBJECT CODE    LINE  SOURCE TEXT
  VALUE

003C32                05689 hw_standby_shutdown:
003C32 6A06           05690     clrf        ram_0x006, ACCESS
003C34 0E1B           05691     movlw       0x1B
003C36 ECA9 F023      05692     call        i2c_secondary_dev_write, 0x0
003C3A 6A06           05693     clrf        ram_0x006, ACCESS
003C3C 0E1C           05694     movlw       0x1C
003C3E ECA9 F023      05695     call        i2c_secondary_dev_write, 0x0
003C42 6A06           05696     clrf        ram_0x006, ACCESS
003C44 0E1D           05697     movlw       0x1D
003C46 ECA9 F023      05698     call        i2c_secondary_dev_write, 0x0
003C4A A482           05699     btfss       PORTC, 2, ACCESS
003C4C D006           05700     bra         flow_hw_standby_shutdown_3c34
003C4E 848A           05701     bsf         LATB, 2, ACCESS
003C50 6AB0           05702     clrf        SPBRGH, ACCESS
003C52 0E3F           05703     movlw       0x3F
003C54 6EAF           05704     movwf       SPBRG, ACCESS
003C56 82D3           05705     bsf         OSCCON, 1, ACCESS
003C58 D005           05706     bra         flow_hw_standby_shutdown_3c3e
003C5A                05707 flow_hw_standby_shutdown_3c34:
003C5A 948A           05708     bcf         LATB, 2, ACCESS
003C5C 6AB0           05709     clrf        SPBRGH, ACCESS
003C5E 0E7F           05710     movlw       0x7F
003C60 6EAF           05711     movwf       SPBRG, ACCESS
003C62 92D3           05712     bcf         OSCCON, 1, ACCESS
003C64                05713 flow_hw_standby_shutdown_3c3e:
003C64 988A           05714     bcf         LATB, 4, ACCESS
003C66 9C89           05715     bcf         LATA, 6, ACCESS
003C68 9689           05716     bcf         LATA, 3, ACCESS
003C6A 9889           05717     bcf         LATA, 4, ACCESS
003C6C 9A89           05718     bcf         LATA, 5, ACCESS
003C6E 0E28           05719     movlw       0x28
003C70 0100           05720     movlb       0x0
003C72 5D88           05721     subwf       ram_0x088, W, BANKED
003C74 0E02           05722     movlw       0x02
003C76 5989           05723     subwfb      ram_0x089, W, BANKED
003C78 E212           05724     bc          flow_hw_standby_shutdown_3c78
003C7A 6A08           05725     clrf        ram_0x008, ACCESS
003C7C 6A09           05726     clrf        ram_0x009, ACCESS
003C7E                05727 flow_hw_standby_shutdown_3c58:
003C7E C008 F006      05728     movff       ram_0x008, ram_0x006
003C82 0E1C           05729     movlw       0x1C
003C84 ECA9 F023      05730     call        i2c_secondary_dev_write, 0x0
003C88 0E01           05731     movlw       0x01
003C8A 1A08           05732     xorwf       ram_0x008, F, ACCESS
003C8C 6A04           05733     clrf        ram_0x004, ACCESS
003C8E 0EFA           05734     movlw       0xFA
003C90 6E03           05735     movwf       ram_0x003, ACCESS
003C92 EC80 F022      05736     call        timer3_blocking_delay, 0x0
003C96 2A09           05737     incf        ram_0x009, F, ACCESS
003C98 0E04           05738     movlw       0x04
003C9A 6409           05739     cpfsgt      ram_0x009, ACCESS
003C9C D7F0           05740     bra         flow_hw_standby_shutdown_3c58
003C9E                05741 flow_hw_standby_shutdown_3c78:
gpasm-1.5.2 #1325 (Jan 30 2022) src/dlcp_fw/a   03/29/2026  18:21:48        PAGE 119


LOC    OBJECT CODE    LINE  SOURCE TEXT
  VALUE

003C9E 968A           05742     bcf         LATB, 3, ACCESS
003CA0 9ED5           05743     bcf         T0CON, 7, ACCESS
003CA2 9AF2           05744     bcf         INTCON, 5, ACCESS
003CA4 EFD1 F024      05745     goto        usb_shutdown
                      05746 
                      05747 
                      05748 ; ---------------------------------------------------------------------------
                      05749 ; Function: main_core_service_3c82
                      05750 ; Address : 0x3C82
                      05751 ; Notes   : Inferred core helper routine.
                      05752 ; ---------------------------------------------------------------------------
003CA8                05753 main_core_service_3c82:
003CA8 0100           05754     movlb       0x0
003CAA 6BCA           05755     clrf        ram_0x0CA, BANKED
003CAC 0104           05756     movlb       0x4
003CAE BF0C           05757     btfsc       ram_0x00C, 7, BANKED
003CB0 D02D           05758     bra         flow_main_core_service_3c82_3ce6
003CB2 5005           05759     movf        ram_0x005, W, ACCESS
003CB4 5D0D           05760     subwf       ram_0x00D, W, BANKED
003CB6 A0D8           05761     btfss       STATUS, 0, ACCESS
003CB8 C40D F005      05762     movff       ram_0x40D, ram_0x005
003CBC 0100           05763     movlb       0x0
003CBE 6BCA           05764     clrf        ram_0x0CA, BANKED
003CC0 D010           05765     bra         flow_main_core_service_3c82_3cbc
003CC2                05766 flow_main_core_service_3c82_3c9c:
003CC2 0E2C           05767     movlw       0x2C
003CC4 0100           05768     movlb       0x0
003CC6 25CA           05769     addwf       ram_0x0CA, W, BANKED
003CC8 6ED9           05770     movwf       FSR2L, ACCESS
003CCA 6ADA           05771     clrf        FSR2H, ACCESS
003CCC 0E04           05772     movlw       0x04
003CCE 22DA           05773     addwfc      FSR2H, F, ACCESS
003CD0 51CA           05774     movf        ram_0x0CA, W, BANKED
003CD2 2403           05775     addwf       ram_0x003, W, ACCESS
003CD4 6EE1           05776     movwf       FSR1L, ACCESS
003CD6 0E00           05777     movlw       0x00
003CD8 2004           05778     addwfc      ram_0x004, W, ACCESS
003CDA 6EE2           05779     movwf       FSR1H, ACCESS
003CDC CFDF FFE7      05780     movff       INDF2, INDF1
003CE0 2BCA           05781     incf        ram_0x0CA, F, BANKED
003CE2                05782 flow_main_core_service_3c82_3cbc:
003CE2 5005           05783     movf        ram_0x005, W, ACCESS
003CE4 5DCA           05784     subwf       ram_0x0CA, W, BANKED
003CE6 E3ED           05785     bnc         flow_main_core_service_3c82_3c9c
003CE8 0E40           05786     movlw       0x40
003CEA 0104           05787     movlb       0x4
003CEC 6F0D           05788     movwf       ram_0x00D, BANKED
003CEE 170C           05789     andwf       ram_0x00C, F, BANKED
003CF0 0E01           05790     movlw       0x01
003CF2 BD0C           05791     btfsc       ram_0x00C, 6, BANKED
003CF4 0E00           05792     movlw       0x00
003CF6 6E06           05793     movwf       ram_0x006, ACCESS
003CF8 3A06           05794     swapf       ram_0x006, F, ACCESS
gpasm-1.5.2 #1325 (Jan 30 2022) src/dlcp_fw/a   03/29/2026  18:21:48        PAGE 120


LOC    OBJECT CODE    LINE  SOURCE TEXT
  VALUE

003CFA 4606           05795     rlncf       ram_0x006, F, ACCESS
003CFC 4606           05796     rlncf       ram_0x006, F, ACCESS
003CFE 510C           05797     movf        ram_0x00C, W, BANKED
003D00 1806           05798     xorwf       ram_0x006, W, ACCESS
003D02 0BBF           05799     andlw       0xBF
003D04 1806           05800     xorwf       ram_0x006, W, ACCESS
003D06 6F0C           05801     movwf       ram_0x00C, BANKED
003D08 870C           05802     bsf         ram_0x00C, 3, BANKED
003D0A 8F0C           05803     bsf         ram_0x00C, 7, BANKED
003D0C                05804 flow_main_core_service_3c82_3ce6:
003D0C 0012           05805     return      0
                      05806 
                      05807 
                      05808 ; ---------------------------------------------------------------------------
                      05809 ; Function: main_flash_service_3ce8
                      05810 ; Address : 0x3CE8
                      05811 ; Notes   : Inferred flash helper; touches flash.
                      05812 ; ---------------------------------------------------------------------------
003D0E                05813 main_flash_service_3ce8:
003D0E EE20 F003      05814     lfsr        FSR2, 0x0003
003D12 50DE           05815     movf        POSTINC2, W, ACCESS
003D14 10DE           05816     iorwf       POSTINC2, W, ACCESS
003D16 10DE           05817     iorwf       POSTINC2, W, ACCESS
003D18 10DE           05818     iorwf       POSTINC2, W, ACCESS
003D1A E107           05819     bnz         flow_main_flash_service_3ce8_3d04
003D1C 5007           05820     movf        ram_0x007, W, ACCESS
003D1E 6ED9           05821     movwf       FSR2L, ACCESS
003D20 6ADA           05822     clrf        FSR2H, ACCESS
003D22 0E00           05823     movlw       0x00
003D24 6EDE           05824     movwf       POSTINC2, ACCESS
003D26 6EDD           05825     movwf       POSTDEC2, ACCESS
003D28 D024           05826     bra         flow_main_flash_service_3ce8_3d4c
003D2A                05827 flow_main_flash_service_3ce8_3d04:
003D2A 5006           05828     movf        ram_0x006, W, ACCESS
003D2C 0B7F           05829     andlw       0x7F
003D2E 6E08           05830     movwf       ram_0x008, ACCESS
003D30 90D8           05831     bcf         STATUS, 0, ACCESS
003D32 3408           05832     rlcf        ram_0x008, W, ACCESS
003D34 6E09           05833     movwf       ram_0x009, ACCESS
003D36 6A0A           05834     clrf        ram_0x00A, ACCESS
003D38 360A           05835     rlcf        ram_0x00A, F, ACCESS
003D3A 5007           05836     movf        ram_0x007, W, ACCESS
003D3C 6ED9           05837     movwf       FSR2L, ACCESS
003D3E 6ADA           05838     clrf        FSR2H, ACCESS
003D40 C009 FFDE      05839     movff       ram_0x009, POSTINC2
003D44 C00A FFDD      05840     movff       ram_0x00A, POSTDEC2
003D48 5007           05841     movf        ram_0x007, W, ACCESS
003D4A 6ED9           05842     movwf       FSR2L, ACCESS
003D4C 6ADA           05843     clrf        FSR2H, ACCESS
003D4E 0E01           05844     movlw       0x01
003D50 AE05           05845     btfss       ram_0x005, 7, ACCESS
003D52 0E00           05846     movlw       0x00
003D54 12DE           05847     iorwf       POSTINC2, F, ACCESS
gpasm-1.5.2 #1325 (Jan 30 2022) src/dlcp_fw/a   03/29/2026  18:21:48        PAGE 121


LOC    OBJECT CODE    LINE  SOURCE TEXT
  VALUE

003D56 0E00           05848     movlw       0x00
003D58 12DD           05849     iorwf       POSTDEC2, F, ACCESS
003D5A 5007           05850     movf        ram_0x007, W, ACCESS
003D5C 6ED9           05851     movwf       FSR2L, ACCESS
003D5E 6ADA           05852     clrf        FSR2H, ACCESS
003D60 0E82           05853     movlw       0x82
003D62 26DE           05854     addwf       POSTINC2, F, ACCESS
003D64 0EFF           05855     movlw       0xFF
003D66 22DD           05856     addwfc      POSTDEC2, F, ACCESS
003D68 5006           05857     movf        ram_0x006, W, ACCESS
003D6A 0B80           05858     andlw       0x80
003D6C 093F           05859     iorlw       0x3F
003D6E 6E06           05860     movwf       ram_0x006, ACCESS
003D70 9E05           05861     bcf         ram_0x005, 7, ACCESS
003D72                05862 flow_main_flash_service_3ce8_3d4c:
003D72 0012           05863     return      0
003D74                05864 flow_main_flash_service_3ce8_3d4e:
003D74 EE03 F000      05865     lfsr        FSR0, 0x0300
003D78 0EC0           05866     movlw       0xC0
003D7A                05867 flow_main_flash_service_3ce8_3d54:
003D7A 6AEE           05868     clrf        POSTINC0, ACCESS
003D7C 06E8           05869     decf        WREG, F, ACCESS
003D7E E1FD           05870     bnz         flow_main_flash_service_3ce8_3d54
003D80 EE02 F000      05871     lfsr        FSR0, 0x0200
003D84 0EDE           05872     movlw       0xDE
003D86                05873 flow_main_flash_service_3ce8_3d60:
003D86 6AEE           05874     clrf        POSTINC0, ACCESS
003D88 06E8           05875     decf        WREG, F, ACCESS
003D8A E1FD           05876     bnz         flow_main_flash_service_3ce8_3d60
003D8C EE01 F000      05877     lfsr        FSR0, 0x0100
003D90 0EE5           05878     movlw       0xE5
003D92                05879 flow_main_flash_service_3ce8_3d6c:
003D92 6AEE           05880     clrf        POSTINC0, ACCESS
003D94 06E8           05881     decf        WREG, F, ACCESS
003D96 E1FD           05882     bnz         flow_main_flash_service_3ce8_3d6c
003D98 EE00 F060      05883     lfsr        FSR0, 0x0060
003D9C 0E8D           05884     movlw       0x8D
003D9E                05885 flow_main_flash_service_3ce8_3d78:
003D9E 6AEE           05886     clrf        POSTINC0, ACCESS
003DA0 06E8           05887     decf        WREG, F, ACCESS
003DA2 E1FD           05888     bnz         flow_main_flash_service_3ce8_3d78
003DA4 6A5F           05889     clrf        ram_0x05F, ACCESS
003DA6 6A5E           05890     clrf        active_flags, ACCESS
003DA8 0E80           05891     movlw       LOW(inline_data_table_47E6)         ; TBLPTR -> inline_data_table_47E6
003DAA 6EF6           05892     movwf       TBLPTRL, ACCESS
003DAC 0E48           05893     movlw       HIGH(inline_data_table_47E6)
003DAE 6EF7           05894     movwf       TBLPTRH, ACCESS
003DB0 0E00           05895     movlw       UPPER(inline_data_table_47E6)
003DB2 6EF8           05896     movwf       TBLPTRU, ACCESS
003DB4 EE01 F0E5      05897     lfsr        FSR0, 0x01E5
003DB8 EE10 F016      05898     lfsr        FSR1, 0x0016
003DBC                05899 flow_main_flash_service_3ce8_3d96:
003DBC 0009           05900     tblrd*+
gpasm-1.5.2 #1325 (Jan 30 2022) src/dlcp_fw/a   03/29/2026  18:21:48        PAGE 122


LOC    OBJECT CODE    LINE  SOURCE TEXT
  VALUE

003DBE CFF5 FFEE      05901     movff       TABLAT, POSTINC0
003DC2 50E5           05902     movf        POSTDEC1, W, ACCESS
003DC4 50E1           05903     movf        FSR1L, W, ACCESS
003DC6 E1FA           05904     bnz         flow_main_flash_service_3ce8_3d96
003DC8 0E00           05905     movlw       UPPER(0x0000)                       ; clear TBLPTRU to program space
003DCA 6EF8           05906     movwf       TBLPTRU, ACCESS
003DCC 0100           05907     movlb       0x0
003DCE EFBC F024      05908     goto        flow_i2c_wait_bus_idle_48c6
                      05909 
                      05910 ; ---------------------------------------------------------------------------
                      05911 ; Function: flash_erase (V3.1: preset B address remap prologue)
                      05912 ; Notes   : Remaps both start (ram_0x003-006) and end (ram_0x007-00A) addresses.
                      05913 ; ---------------------------------------------------------------------------
003DD2                05914 flash_erase:
003DD2 A45E           05915     btfss       active_flags, 2, ACCESS     ; preset B active?
003DD4 D016           05916     bra         flash_erase_stock
                      05917     ; Remap start address (ram_0x004 = TBLPTRH)
003DD6 5006           05918     movf        ram_0x006, W, ACCESS
003DD8 1005           05919     iorwf       ram_0x005, W, ACCESS
003DDA E108           05920     bnz         flash_erase_remap_end
003DDC 0E56           05921     movlw       0x56
003DDE 5C04           05922     subwf       ram_0x004, W, ACCESS
003DE0 E305           05923     bnc         flash_erase_remap_end
003DE2 0E60           05924     movlw       0x60
003DE4 5C04           05925     subwf       ram_0x004, W, ACCESS
003DE6 E202           05926     bc          flash_erase_remap_end
003DE8 0E0A           05927     movlw       0x0A
003DEA 5E04           05928     subwf       ram_0x004, F, ACCESS
003DEC                05929 flash_erase_remap_end:
                      05930     ; Remap end address (ram_0x008 = end TBLPTRH)
003DEC 500A           05931     movf        ram_0x00A, W, ACCESS
003DEE 1009           05932     iorwf       ram_0x009, W, ACCESS
003DF0 E108           05933     bnz         flash_erase_stock
003DF2 0E56           05934     movlw       0x56
003DF4 5C08           05935     subwf       ram_0x008, W, ACCESS
003DF6 E305           05936     bnc         flash_erase_stock
003DF8 0E60           05937     movlw       0x60
003DFA 5C08           05938     subwf       ram_0x008, W, ACCESS
003DFC E202           05939     bc          flash_erase_stock
003DFE 0E0A           05940     movlw       0x0A
003E00 5E08           05941     subwf       ram_0x008, F, ACCESS
003E02                05942 flash_erase_stock:
003E02 6A0B           05943     clrf        ram_0x00B, ACCESS
003E04 C003 F00C      05944     movff       ram_0x003, ram_0x00C
003E08 C004 F00D      05945     movff       ram_0x004, ram_0x00D
003E0C C005 F00E      05946     movff       ram_0x005, ram_0x00E
003E10 C006 F00F      05947     movff       ram_0x006, ram_0x00F
003E14 D01A           05948     bra         flow_flash_erase_3df4
003E16                05949 flow_flash_erase_3dc0:
003E16 C00E FFF8      05950     movff       ram_0x00E, TBLPTRU
003E1A C00D FFF7      05951     movff       ram_0x00D, TBLPTRH
003E1E C00C FFF6      05952     movff       ram_0x00C, TBLPTRL
003E22 8EA6           05953     bsf         EECON1, 7, ACCESS
gpasm-1.5.2 #1325 (Jan 30 2022) src/dlcp_fw/a   03/29/2026  18:21:48        PAGE 123


LOC    OBJECT CODE    LINE  SOURCE TEXT
  VALUE

003E24 9CA6           05954     bcf         EECON1, 6, ACCESS
003E26 84A6           05955     bsf         EECON1, 2, ACCESS
003E28 88A6           05956     bsf         EECON1, 4, ACCESS
003E2A AEF2           05957     btfss       INTCON, 7, ACCESS
003E2C D003           05958     bra         flow_flash_erase_3dde
003E2E 9EF2           05959     bcf         INTCON, 7, ACCESS
003E30 0E01           05960     movlw       0x01
003E32 6E0B           05961     movwf       ram_0x00B, ACCESS
003E34                05962 flow_flash_erase_3dde:
003E34 EC44 F022      05963     call        main_flash_service_4406, 0x0
003E38 500B           05964     movf        ram_0x00B, W, ACCESS
003E3A A4D8           05965     btfss       STATUS, 2, ACCESS
003E3C 8EF2           05966     bsf         INTCON, 7, ACCESS
003E3E 0E40           05967     movlw       0x40
003E40 260C           05968     addwf       ram_0x00C, F, ACCESS
003E42 0E00           05969     movlw       0x00
003E44 220D           05970     addwfc      ram_0x00D, F, ACCESS
003E46 220E           05971     addwfc      ram_0x00E, F, ACCESS
003E48 220F           05972     addwfc      ram_0x00F, F, ACCESS
003E4A                05973 flow_flash_erase_3df4:
003E4A 5007           05974     movf        ram_0x007, W, ACCESS
003E4C 5C0C           05975     subwf       ram_0x00C, W, ACCESS
003E4E 5008           05976     movf        ram_0x008, W, ACCESS
003E50 580D           05977     subwfb      ram_0x00D, W, ACCESS
003E52 5009           05978     movf        ram_0x009, W, ACCESS
003E54 580E           05979     subwfb      ram_0x00E, W, ACCESS
003E56 500A           05980     movf        ram_0x00A, W, ACCESS
003E58 580F           05981     subwfb      ram_0x00F, W, ACCESS
003E5A B0D8           05982     btfsc       STATUS, 0, ACCESS
003E5C 0012           05983     return      0
003E5E D7DB           05984     bra         flow_flash_erase_3dc0
                      05985 
                      05986 
                      05987 ; ---------------------------------------------------------------------------
                      05988 ; Function: main_core_service_3e0a
                      05989 ; Address : 0x3E0A
                      05990 ; Notes   : Inferred core helper routine. Calls: main_core_service_30d8.
                      05991 ; ---------------------------------------------------------------------------
003E60                05992 main_core_service_3e0a:
003E60 6A11           05993     clrf        ram_0x011, ACCESS
003E62 5010           05994     movf        ram_0x010, W, ACCESS
003E64 0A80           05995     xorlw       0x80
003E66 0F80           05996     addlw       0x80
003E68 E108           05997     bnz         flow_main_core_service_3e0a_3e24
003E6A 0E00           05998     movlw       0x00
003E6C 5C0F           05999     subwf       ram_0x00F, W, ACCESS
003E6E E105           06000     bnz         flow_main_core_service_3e0a_3e24
003E70 0E00           06001     movlw       0x00
003E72 5C0E           06002     subwf       ram_0x00E, W, ACCESS
003E74 E102           06003     bnz         flow_main_core_service_3e0a_3e24
003E76 0E00           06004     movlw       0x00
003E78 5C0D           06005     subwf       ram_0x00D, W, ACCESS
003E7A                06006 flow_main_core_service_3e0a_3e24:
gpasm-1.5.2 #1325 (Jan 30 2022) src/dlcp_fw/a   03/29/2026  18:21:48        PAGE 124


LOC    OBJECT CODE    LINE  SOURCE TEXT
  VALUE

003E7A E20A           06007     bc          flow_main_core_service_3e0a_3e3a
003E7C 1E10           06008     comf        ram_0x010, F, ACCESS
003E7E 1E0F           06009     comf        ram_0x00F, F, ACCESS
003E80 1E0E           06010     comf        ram_0x00E, F, ACCESS
003E82 6C0D           06011     negf        ram_0x00D, ACCESS
003E84 0E00           06012     movlw       0x00
003E86 220E           06013     addwfc      ram_0x00E, F, ACCESS
003E88 220F           06014     addwfc      ram_0x00F, F, ACCESS
003E8A 2210           06015     addwfc      ram_0x010, F, ACCESS
003E8C 0E01           06016     movlw       0x01
003E8E 6E11           06017     movwf       ram_0x011, ACCESS
003E90                06018 flow_main_core_service_3e0a_3e3a:
003E90 C00D F003      06019     movff       ram_0x00D, ram_0x003
003E94 C00E F004      06020     movff       ram_0x00E, ram_0x004
003E98 C00F F005      06021     movff       ram_0x00F, ram_0x005
003E9C C010 F006      06022     movff       ram_0x010, ram_0x006
003EA0 0E96           06023     movlw       0x96
003EA2 6E07           06024     movwf       ram_0x007, ACCESS
003EA4 C011 F008      06025     movff       ram_0x011, ram_0x008
003EA8 EC7D F018      06026     call        main_core_service_30d8, 0x0
003EAC C003 F00D      06027     movff       ram_0x003, ram_0x00D
003EB0 C004 F00E      06028     movff       ram_0x004, ram_0x00E
003EB4 C005 F00F      06029     movff       ram_0x005, ram_0x00F
003EB8 C006 F010      06030     movff       ram_0x006, ram_0x010
003EBC 0012           06031     return      0
                      06032 
                      06033 ; ---------------------------------------------------------------------------
                      06034 ; Function: i2c_byte_tx (V3.1 enhanced)
                      06035 ; Notes   : Stock structure preserved (mode check, BF wait).
                      06036 ;           V3.1 adds: bounded BF wait, ACKSTAT latch (Fix A).
                      06037 ;           i2c_wait_bus_idle is already bounded (separate enhancement).
                      06038 ; ---------------------------------------------------------------------------
003EBE                06039 i2c_byte_tx:
003EBE CFE8 F005      06040     movff       WREG, ram_0x005
003EC2 C005 FFC9      06041     movff       ram_0x005, SSPBUF
003EC6 BEC6           06042     btfsc       SSPCON1, 7, ACCESS
003EC8 D02F           06043     bra         flow_i2c_byte_tx_exit
003ECA CFC6 F004      06044     movff       SSPCON1, ram_0x004
003ECE 0E0F           06045     movlw       0x0F
003ED0 1604           06046     andwf       ram_0x004, F, ACCESS
003ED2 5004           06047     movf        ram_0x004, W, ACCESS
003ED4 0A08           06048     xorlw       0x08
003ED6 E00D           06049     bz          flow_i2c_byte_tx_master
003ED8 CFC6 F004      06050     movff       SSPCON1, ram_0x004
003EDC 0E0F           06051     movlw       0x0F
003EDE 1604           06052     andwf       ram_0x004, F, ACCESS
003EE0 5004           06053     movf        ram_0x004, W, ACCESS
003EE2 0A0B           06054     xorlw       0x0B
003EE4 E006           06055     bz          flow_i2c_byte_tx_master
003EE6 88C6           06056     bsf         SSPCON1, 4, ACCESS
003EE8                06057 flow_i2c_byte_tx_sspif:
003EE8 A69E           06058     btfss       PIR1, 3, ACCESS
003EEA D7FE           06059     bra         flow_i2c_byte_tx_sspif
gpasm-1.5.2 #1325 (Jan 30 2022) src/dlcp_fw/a   03/29/2026  18:21:48        PAGE 125


LOC    OBJECT CODE    LINE  SOURCE TEXT
  VALUE

003EEC A4C7           06060     btfss       SSPSTAT, 2, ACCESS
003EEE 50C7           06061     movf        SSPSTAT, W, ACCESS
003EF0 D01B           06062     bra         flow_i2c_byte_tx_exit
003EF2                06063 flow_i2c_byte_tx_master:
                      06064     ; Re-check mode (stock pattern preserved)
003EF2 CFC6 F004      06065     movff       SSPCON1, ram_0x004
003EF6 0E0F           06066     movlw       0x0F
003EF8 1604           06067     andwf       ram_0x004, F, ACCESS
003EFA 5004           06068     movf        ram_0x004, W, ACCESS
003EFC 0A08           06069     xorlw       0x08
003EFE E007           06070     bz          flow_i2c_byte_tx_bf
003F00 CFC6 F004      06071     movff       SSPCON1, ram_0x004
003F04 0E0F           06072     movlw       0x0F
003F06 1604           06073     andwf       ram_0x004, F, ACCESS
003F08 5004           06074     movf        ram_0x004, W, ACCESS
003F0A 0A0B           06075     xorlw       0x0B
003F0C E10D           06076     bnz         flow_i2c_byte_tx_exit
003F0E                06077 flow_i2c_byte_tx_bf:
                      06078     ; V3.1: bounded BF wait (stock was unbounded loop)
003F0E EC61 F025      06079     call        wait_bf_clear_bounded, 0x0
003F12 E20A           06080     bc          flow_i2c_byte_tx_exit
003F14 ECB4 F024      06081     call        i2c_wait_bus_idle, 0x0
                      06082     ; V3.1 Fix A: ACKSTAT check after successful master TX
                      06083     ; Save/restore BSR — callers may have any bank selected and stock
                      06084     ; i2c_byte_tx never touched BSR.
003F18 CFE0 F00E      06085     movff       BSR, ram_0x00E              ; save caller's BSR
003F1C 0100           06086     movlb       0x0
003F1E BCC5           06087     btfsc       SSPCON2, 6, ACCESS          ; ACKSTAT
003F20 857F           06088     bsf         dsp_fault_flags, 2, BANKED
003F22 C00E FFE0      06089     movff       ram_0x00E, BSR              ; restore caller's BSR
003F26 50C5           06090     movf        SSPCON2, W, ACCESS
003F28                06091 flow_i2c_byte_tx_exit:
003F28 0012           06092     return      0
                      06093 
                      06094 
                      06095 ; ---------------------------------------------------------------------------
                      06096 ; Function: main_core_service_3ec4
                      06097 ; Address : 0x3EC4
                      06098 ; Notes   : Inferred core helper routine. Calls: main_core_service_2abc.
                      06099 ; ---------------------------------------------------------------------------
003F2A                06100 main_core_service_3ec4:
003F2A CFE8 F02D      06101     movff       WREG, ram_0x02D
003F2E 502D           06102     movf        ram_0x02D, W, ACCESS
003F30 6ED9           06103     movwf       FSR2L, ACCESS
003F32 6ADA           06104     clrf        FSR2H, ACCESS
003F34 CFDE F012      06105     movff       POSTINC2, ram_0x012
003F38 CFDE F013      06106     movff       POSTINC2, ram_0x013
003F3C CFDE F014      06107     movff       POSTINC2, ram_0x014
003F40 CFDE F015      06108     movff       POSTINC2, ram_0x015
003F44 C025 F016      06109     movff       ram_0x025, ram_0x016
003F48 C026 F017      06110     movff       ram_0x026, ram_0x017
003F4C C027 F018      06111     movff       ram_0x027, ram_0x018
003F50 C028 F019      06112     movff       ram_0x028, ram_0x019
gpasm-1.5.2 #1325 (Jan 30 2022) src/dlcp_fw/a   03/29/2026  18:21:48        PAGE 126


LOC    OBJECT CODE    LINE  SOURCE TEXT
  VALUE

003F54 EC62 F015      06113     call        main_core_service_2abc, 0x0
003F58 C012 F029      06114     movff       ram_0x012, ram_0x029
003F5C C013 F02A      06115     movff       ram_0x013, ram_0x02A
003F60 C014 F02B      06116     movff       ram_0x014, ram_0x02B
003F64 C015 F02C      06117     movff       ram_0x015, ram_0x02C
003F68 502D           06118     movf        ram_0x02D, W, ACCESS
003F6A 6ED9           06119     movwf       FSR2L, ACCESS
003F6C 6ADA           06120     clrf        FSR2H, ACCESS
003F6E C029 FFDE      06121     movff       ram_0x029, POSTINC2
003F72 C02A FFDE      06122     movff       ram_0x02A, POSTINC2
003F76 C02B FFDE      06123     movff       ram_0x02B, POSTINC2
003F7A C02C FFDD      06124     movff       ram_0x02C, POSTDEC2
003F7E 06D9           06125     decf        FSR2L, F, ACCESS
003F80 06D9           06126     decf        FSR2L, F, ACCESS
003F82 0012           06127     return      0
                      06128 
                      06129 
                      06130 ; ---------------------------------------------------------------------------
                      06131 ; Function: main_core_service_3f1e
                      06132 ; Address : 0x3F1E
                      06133 ; Notes   : Inferred core helper routine. Calls: main_core_service_24c2.
                      06134 ; ---------------------------------------------------------------------------
003F84                06135 main_core_service_3f1e:
003F84 CFE8 F037      06136     movff       WREG, ram_0x037
003F88 5037           06137     movf        ram_0x037, W, ACCESS
003F8A 6ED9           06138     movwf       FSR2L, ACCESS
003F8C 6ADA           06139     clrf        FSR2H, ACCESS
003F8E CFDE F020      06140     movff       POSTINC2, ram_0x020
003F92 CFDE F021      06141     movff       POSTINC2, ram_0x021
003F96 CFDE F022      06142     movff       POSTINC2, ram_0x022
003F9A CFDE F023      06143     movff       POSTINC2, ram_0x023
003F9E C02F F024      06144     movff       ram_0x02F, ram_0x024
003FA2 C030 F025      06145     movff       ram_0x030, ram_0x025
003FA6 C031 F026      06146     movff       ram_0x031, ram_0x026
003FAA C032 F027      06147     movff       ram_0x032, ram_0x027
003FAE EC65 F012      06148     call        main_core_service_24c2, 0x0
003FB2 C020 F033      06149     movff       ram_0x020, ram_0x033
003FB6 C021 F034      06150     movff       ram_0x021, ram_0x034
003FBA C022 F035      06151     movff       ram_0x022, ram_0x035
003FBE C023 F036      06152     movff       ram_0x023, ram_0x036
003FC2 5037           06153     movf        ram_0x037, W, ACCESS
003FC4 6ED9           06154     movwf       FSR2L, ACCESS
003FC6 6ADA           06155     clrf        FSR2H, ACCESS
003FC8 C033 FFDE      06156     movff       ram_0x033, POSTINC2
003FCC C034 FFDE      06157     movff       ram_0x034, POSTINC2
003FD0 C035 FFDE      06158     movff       ram_0x035, POSTINC2
003FD4 C036 FFDD      06159     movff       ram_0x036, POSTDEC2
003FD8 06D9           06160     decf        FSR2L, F, ACCESS
003FDA 06D9           06161     decf        FSR2L, F, ACCESS
003FDC 0012           06162     return      0
                      06163 
                      06164 
                      06165 ; ---------------------------------------------------------------------------
gpasm-1.5.2 #1325 (Jan 30 2022) src/dlcp_fw/a   03/29/2026  18:21:48        PAGE 127


LOC    OBJECT CODE    LINE  SOURCE TEXT
  VALUE

                      06166 ; Function: intel_hex_checksum_update
                      06167 ; Address : 0x3F78
                      06168 ; Notes   : Accumulates and validates Intel HEX checksum bytes.
                      06169 ; ---------------------------------------------------------------------------
003FDE                06170 intel_hex_checksum_update:
003FDE CFE8 F005      06171     movff       WREG, ram_0x005
003FE2 6A04           06172     clrf        ram_0x004, ACCESS
003FE4 0E2F           06173     movlw       0x2F
003FE6 6405           06174     cpfsgt      ram_0x005, ACCESS
003FE8 D006           06175     bra         flow_intel_hex_checksum_updat_3f90
003FEA 0E3A           06176     movlw       0x3A
003FEC 5C05           06177     subwf       ram_0x005, W, ACCESS
003FEE E203           06178     bc          flow_intel_hex_checksum_updat_3f90
003FF0 5005           06179     movf        ram_0x005, W, ACCESS
003FF2 0FD0           06180     addlw       0xD0
003FF4 D008           06181     bra         flow_intel_hex_checksum_updat_3fa0
003FF6                06182 flow_intel_hex_checksum_updat_3f90:
003FF6 0E40           06183     movlw       0x40
003FF8 6405           06184     cpfsgt      ram_0x005, ACCESS
003FFA D006           06185     bra         flow_intel_hex_checksum_updat_3fa2
003FFC 0E47           06186     movlw       0x47
003FFE 5C05           06187     subwf       ram_0x005, W, ACCESS
004000 E203           06188     bc          flow_intel_hex_checksum_updat_3fa2
004002 5005           06189     movf        ram_0x005, W, ACCESS
004004 0FC9           06190     addlw       0xC9
004006                06191 flow_intel_hex_checksum_updat_3fa0:
004006 6E04           06192     movwf       ram_0x004, ACCESS
004008                06193 flow_intel_hex_checksum_updat_3fa2:
004008 3A04           06194     swapf       ram_0x004, F, ACCESS
00400A 0EF0           06195     movlw       0xF0
00400C 1604           06196     andwf       ram_0x004, F, ACCESS
00400E 0E2F           06197     movlw       0x2F
004010 6403           06198     cpfsgt      ram_0x003, ACCESS
004012 D006           06199     bra         flow_intel_hex_checksum_updat_3fba
004014 0E3A           06200     movlw       0x3A
004016 5C03           06201     subwf       ram_0x003, W, ACCESS
004018 E203           06202     bc          flow_intel_hex_checksum_updat_3fba
00401A 5003           06203     movf        ram_0x003, W, ACCESS
00401C 0FD0           06204     addlw       0xD0
00401E D008           06205     bra         flow_intel_hex_checksum_updat_3fca
004020                06206 flow_intel_hex_checksum_updat_3fba:
004020 0E40           06207     movlw       0x40
004022 6403           06208     cpfsgt      ram_0x003, ACCESS
004024 D006           06209     bra         flow_intel_hex_checksum_updat_3fcc
004026 0E47           06210     movlw       0x47
004028 5C03           06211     subwf       ram_0x003, W, ACCESS
00402A E203           06212     bc          flow_intel_hex_checksum_updat_3fcc
00402C 5003           06213     movf        ram_0x003, W, ACCESS
00402E 0FC9           06214     addlw       0xC9
004030                06215 flow_intel_hex_checksum_updat_3fca:
004030 2604           06216     addwf       ram_0x004, F, ACCESS
004032                06217 flow_intel_hex_checksum_updat_3fcc:
004032 5004           06218     movf        ram_0x004, W, ACCESS
gpasm-1.5.2 #1325 (Jan 30 2022) src/dlcp_fw/a   03/29/2026  18:21:48        PAGE 128


LOC    OBJECT CODE    LINE  SOURCE TEXT
  VALUE

004034 0012           06219     return      0
                      06220 
                      06221 
                      06222 ; ---------------------------------------------------------------------------
                      06223 ; Function: main_core_service_3fd0
                      06224 ; Address : 0x3FD0
                      06225 ; Notes   : Inferred core helper routine.
                      06226 ; ---------------------------------------------------------------------------
004036                06227 main_core_service_3fd0:
004036 0E40           06228     movlw       0x40
004038 6405           06229     cpfsgt      ram_0x005, ACCESS
00403A D001           06230     bra         flow_main_core_service_3fd0_3fd8
00403C 6E05           06231     movwf       ram_0x005, ACCESS
00403E                06232 flow_main_core_service_3fd0_3fd8:
00403E 6A07           06233     clrf        ram_0x007, ACCESS
004040 D00F           06234     bra         flow_main_core_service_3fd0_3ffa
004042                06235 flow_main_core_service_3fd0_3fdc:
004042 5007           06236     movf        ram_0x007, W, ACCESS
004044 2403           06237     addwf       ram_0x003, W, ACCESS
004046 6ED9           06238     movwf       FSR2L, ACCESS
004048 0E00           06239     movlw       0x00
00404A 2004           06240     addwfc      ram_0x004, W, ACCESS
00404C 6EDA           06241     movwf       FSR2H, ACCESS
00404E 0E6C           06242     movlw       0x6C
004050 2407           06243     addwf       ram_0x007, W, ACCESS
004052 6EE1           06244     movwf       FSR1L, ACCESS
004054 6AE2           06245     clrf        FSR1H, ACCESS
004056 0E04           06246     movlw       0x04
004058 22E2           06247     addwfc      FSR1H, F, ACCESS
00405A CFDF FFE7      06248     movff       INDF2, INDF1
00405E 2A07           06249     incf        ram_0x007, F, ACCESS
004060                06250 flow_main_core_service_3fd0_3ffa:
004060 5005           06251     movf        ram_0x005, W, ACCESS
004062 5C07           06252     subwf       ram_0x007, W, ACCESS
004064 E3EE           06253     bnc         flow_main_core_service_3fd0_3fdc
004066 C005 F411      06254     movff       ram_0x005, ram_0x411
00406A 0E40           06255     movlw       0x40
00406C 0104           06256     movlb       0x4
00406E 1710           06257     andwf       ram_0x010, F, BANKED
004070 0E01           06258     movlw       0x01
004072 BD10           06259     btfsc       ram_0x010, 6, BANKED
004074 0E00           06260     movlw       0x00
004076 6E06           06261     movwf       ram_0x006, ACCESS
004078 3A06           06262     swapf       ram_0x006, F, ACCESS
00407A 4606           06263     rlncf       ram_0x006, F, ACCESS
00407C 4606           06264     rlncf       ram_0x006, F, ACCESS
00407E 5110           06265     movf        ram_0x010, W, BANKED
004080 1806           06266     xorwf       ram_0x006, W, ACCESS
004082 0BBF           06267     andlw       0xBF
004084 1806           06268     xorwf       ram_0x006, W, ACCESS
004086 6F10           06269     movwf       ram_0x010, BANKED
004088 8710           06270     bsf         ram_0x010, 3, BANKED
00408A 8F10           06271     bsf         ram_0x010, 7, BANKED
gpasm-1.5.2 #1325 (Jan 30 2022) src/dlcp_fw/a   03/29/2026  18:21:48        PAGE 129


LOC    OBJECT CODE    LINE  SOURCE TEXT
  VALUE

00408C 0012           06272     return      0
                      06273 
                      06274 ; ---------------------------------------------------------------------------
                      06275 ; Function: flash_read (V3.1: preset B address remap prologue)
                      06276 ; Notes   : Remaps 0x56xx-0x5Fxx to 0x4Axx-0x53xx when preset B active.
                      06277 ; ---------------------------------------------------------------------------
00408E                06278 flash_read:
00408E A45E           06279     btfss       active_flags, 2, ACCESS     ; preset B active?
004090 D00B           06280     bra         flash_read_stock
004092 5006           06281     movf        ram_0x006, W, ACCESS        ; check TBLPTRU = 0
004094 1005           06282     iorwf       ram_0x005, W, ACCESS
004096 E108           06283     bnz         flash_read_stock
004098 0E56           06284     movlw       0x56
00409A 5C04           06285     subwf       ram_0x004, W, ACCESS        ; TBLPTRH >= 0x56?
00409C E305           06286     bnc         flash_read_stock
00409E 0E60           06287     movlw       0x60
0040A0 5C04           06288     subwf       ram_0x004, W, ACCESS        ; TBLPTRH < 0x60?
0040A2 E202           06289     bc          flash_read_stock
0040A4 0E0A           06290     movlw       0x0A
0040A6 5E04           06291     subwf       ram_0x004, F, ACCESS        ; remap: 0x56->0x4C etc.
0040A8                06292 flash_read_stock:
0040A8 C003 F00B      06293     movff       ram_0x003, ram_0x00B
0040AC C004 F00C      06294     movff       ram_0x004, ram_0x00C
0040B0 C005 F00D      06295     movff       ram_0x005, ram_0x00D
0040B4 C006 F00E      06296     movff       ram_0x006, ram_0x00E
0040B8 CFF8 F011      06297     movff       TBLPTRU, ram_0x011
0040BC CFF7 F010      06298     movff       TBLPTRH, ram_0x010
0040C0 CFF6 F00F      06299     movff       TBLPTRL, ram_0x00F
0040C4 C00D FFF8      06300     movff       ram_0x00D, TBLPTRU
0040C8 C00C FFF7      06301     movff       ram_0x00C, TBLPTRH
0040CC C00B FFF6      06302     movff       ram_0x00B, TBLPTRL
0040D0 D009           06303     bra         flow_flash_read_4064
0040D2                06304 flow_flash_read_4052:
0040D2 0009           06305     tblrd*+
0040D4 C009 FFD9      06306     movff       ram_0x009, FSR2L
0040D8 C00A FFDA      06307     movff       ram_0x00A, FSR2H
0040DC CFF5 FFDF      06308     movff       TABLAT, INDF2
0040E0 4A09           06309     infsnz      ram_0x009, F, ACCESS
0040E2 2A0A           06310     incf        ram_0x00A, F, ACCESS
0040E4                06311 flow_flash_read_4064:
0040E4 0607           06312     decf        ram_0x007, F, ACCESS
0040E6 A0D8           06313     btfss       STATUS, 0, ACCESS
0040E8 0608           06314     decf        ram_0x008, F, ACCESS
0040EA 2807           06315     incf        ram_0x007, W, ACCESS
0040EC B4D8           06316     btfsc       STATUS, 2, ACCESS
0040EE 2808           06317     incf        ram_0x008, W, ACCESS
0040F0 E1F0           06318     bnz         flow_flash_read_4052
0040F2 C011 FFF8      06319     movff       ram_0x011, TBLPTRU
0040F6 C010 FFF7      06320     movff       ram_0x010, TBLPTRH
0040FA C00F FFF6      06321     movff       ram_0x00F, TBLPTRL
0040FE 0012           06322     return      0
                      06323 
                      06324 
gpasm-1.5.2 #1325 (Jan 30 2022) src/dlcp_fw/a   03/29/2026  18:21:48        PAGE 130


LOC    OBJECT CODE    LINE  SOURCE TEXT
  VALUE

                      06325 ; ---------------------------------------------------------------------------
                      06326 ; Function: main_core_service_4080
                      06327 ; Address : 0x4080
                      06328 ; Notes   : Inferred core helper routine.
                      06329 ; ---------------------------------------------------------------------------
004100                06330 main_core_service_4080:
004100 CFE8 F003      06331     movff       WREG, ram_0x003
004104 0E08           06332     movlw       0x08
004106 0101           06333     movlb       0x1
004108 6F17           06334     movwf       ram_0x017, BANKED
00410A 0E04           06335     movlw       0x04
00410C 6F19           06336     movwf       ram_0x019, BANKED
00410E 0E1C           06337     movlw       0x1C
004110 6F18           06338     movwf       ram_0x018, BANKED
004112 6603           06339     tstfsz      ram_0x003, ACCESS
004114 D009           06340     bra         flow_main_core_service_4080_40a8
004116 0E04           06341     movlw       0x04
004118 6F19           06342     movwf       ram_0x019, BANKED
00411A 0E14           06343     movlw       0x14
00411C 6F18           06344     movwf       ram_0x018, BANKED
00411E 0E04           06345     movlw       0x04
004120 0100           06346     movlb       0x0
004122 6F79           06347     movwf       ram_0x079, BANKED
004124 0E00           06348     movlw       0x00
004126 D003           06349     bra         flow_main_core_service_4080_40ae
004128                06350 flow_main_core_service_4080_40a8:
004128 0E04           06351     movlw       0x04
00412A 0100           06352     movlb       0x0
00412C 6F79           06353     movwf       ram_0x079, BANKED
00412E                06354 flow_main_core_service_4080_40ae:
00412E 6F78           06355     movwf       ram_0x078, BANKED
004130 C078 FFD9      06356     movff       ram_0x078, FSR2L
004134 C079 FFDA      06357     movff       ram_0x079, FSR2H
004138 C116 FFDE      06358     movff       ram_0x116, POSTINC2
00413C C117 FFDE      06359     movff       ram_0x117, POSTINC2
004140 C118 FFDE      06360     movff       ram_0x118, POSTINC2
004144 C119 FFDE      06361     movff       ram_0x119, POSTINC2
004148 C078 FFD9      06362     movff       ram_0x078, FSR2L
00414C C079 FFDA      06363     movff       ram_0x079, FSR2H
004150 0100           06364     movlb       0x0
004152 8EDF           06365     bsf         INDF2, 7, ACCESS
004154 0012           06366     return      0
                      06367 
                      06368 
                      06369 ; ---------------------------------------------------------------------------
                      06370 ; Function: main_usb_service_40d6
                      06371 ; Address : 0x40D6
                      06372 ; Notes   : Inferred usb helper; touches usb. Calls: usb_disconnect_handler, main_core_service_4080.
                      06373 ; ---------------------------------------------------------------------------
004156                06374 main_usb_service_40d6:
004156 0E03           06375     movlw       0x03
004158 0100           06376     movlb       0x0
00415A 6FCD           06377     movwf       ram_0x0CD, BANKED
gpasm-1.5.2 #1325 (Jan 30 2022) src/dlcp_fw/a   03/29/2026  18:21:48        PAGE 131


LOC    OBJECT CODE    LINE  SOURCE TEXT
  VALUE

00415C 6A6B           06378     clrf        UEIE, ACCESS
00415E 6A68           06379     clrf        UIR, ACCESS
004160 0E7B           06380     movlw       0x7B
004162 6E69           06381     movwf       UIE, ACCESS
004164 6A6E           06382     clrf        UADDR, ACCESS
004166 6A71           06383     clrf        UEP1, ACCESS
004168 6A72           06384     clrf        UEP2, ACCESS
00416A 6A73           06385     clrf        UEP3, ACCESS
00416C 6A74           06386     clrf        UEP4, ACCESS
00416E 6A75           06387     clrf        UEP5, ACCESS
004170 6A76           06388     clrf        UEP6, ACCESS
004172 6A77           06389     clrf        UEP7, ACCESS
004174 0E16           06390     movlw       0x16
004176 6E70           06391     movwf       UEP0, ACCESS
004178 8C6D           06392     bsf         UCON, 6, ACCESS
00417A D003           06393     bra         flow_main_usb_service_40d6_4102
00417C                06394 flow_main_usb_service_40d6_40fc:
00417C 9668           06395     bcf         UIR, 3, ACCESS
00417E EC0A F025      06396     call        usb_disconnect_handler, 0x0
004182                06397 flow_main_usb_service_40d6_4102:
004182 B668           06398     btfsc       UIR, 3, ACCESS
004184 D7FB           06399     bra         flow_main_usb_service_40d6_40fc
004186 9C6D           06400     bcf         UCON, 6, ACCESS
004188 986D           06401     bcf         UCON, 4, ACCESS
00418A 0E04           06402     movlw       0x04
00418C 0101           06403     movlb       0x1
00418E 6F16           06404     movwf       ram_0x016, BANKED
004190 0E00           06405     movlw       0x00
004192 EC80 F020      06406     call        main_core_service_4080, 0x0
004196 0E01           06407     movlw       0x01
Message[1302]: RAM Bank undefined in this chunk of code. Ensure that bank bits are correct. Assuming bank 0 from now on.
004198 6F96           06408     movwf       ram_0x096, BANKED
00419A 6BCE           06409     clrf        ram_0x0CE, BANKED
00419C 6BEB           06410     clrf        ram_0x0EB, BANKED
00419E 0E00           06411     movlw       0x00
0041A0 EFD8 F024      06412     goto        main_core_service_48fe
                      06413 
                      06414 
                      06415 ; ---------------------------------------------------------------------------
                      06416 ; Function: main_adc_service_4124
                      06417 ; Address : 0x4124
                      06418 ; Notes   : Inferred adc helper; touches adc.
                      06419 ; ---------------------------------------------------------------------------
0041A4                06420 main_adc_service_4124:
0041A4 6A07           06421     clrf        ram_0x007, ACCESS
0041A6 6A08           06422     clrf        ram_0x008, ACCESS
0041A8 5006           06423     movf        ram_0x006, W, ACCESS
0041AA 1005           06424     iorwf       ram_0x005, W, ACCESS
0041AC E01B           06425     bz          flow_main_adc_service_4124_4164
0041AE 0E01           06426     movlw       0x01
0041B0 6E09           06427     movwf       ram_0x009, ACCESS
0041B2 D004           06428     bra         flow_main_adc_service_4124_413c
0041B4                06429 flow_main_adc_service_4124_4134:
gpasm-1.5.2 #1325 (Jan 30 2022) src/dlcp_fw/a   03/29/2026  18:21:48        PAGE 132


LOC    OBJECT CODE    LINE  SOURCE TEXT
  VALUE

0041B4 90D8           06430     bcf         STATUS, 0, ACCESS
0041B6 3605           06431     rlcf        ram_0x005, F, ACCESS
0041B8 3606           06432     rlcf        ram_0x006, F, ACCESS
0041BA 2A09           06433     incf        ram_0x009, F, ACCESS
0041BC                06434 flow_main_adc_service_4124_413c:
0041BC AE06           06435     btfss       ram_0x006, 7, ACCESS
0041BE D7FA           06436     bra         flow_main_adc_service_4124_4134
0041C0                06437 flow_main_adc_service_4124_4140:
0041C0 90D8           06438     bcf         STATUS, 0, ACCESS
0041C2 3607           06439     rlcf        ram_0x007, F, ACCESS
0041C4 3608           06440     rlcf        ram_0x008, F, ACCESS
0041C6 5005           06441     movf        ram_0x005, W, ACCESS
0041C8 5C03           06442     subwf       ram_0x003, W, ACCESS
0041CA 5006           06443     movf        ram_0x006, W, ACCESS
0041CC 5804           06444     subwfb      ram_0x004, W, ACCESS
0041CE E305           06445     bnc         flow_main_adc_service_4124_415a
0041D0 5005           06446     movf        ram_0x005, W, ACCESS
0041D2 5E03           06447     subwf       ram_0x003, F, ACCESS
0041D4 5006           06448     movf        ram_0x006, W, ACCESS
0041D6 5A04           06449     subwfb      ram_0x004, F, ACCESS
0041D8 8007           06450     bsf         ram_0x007, 0, ACCESS
0041DA                06451 flow_main_adc_service_4124_415a:
0041DA 90D8           06452     bcf         STATUS, 0, ACCESS
0041DC 3206           06453     rrcf        ram_0x006, F, ACCESS
0041DE 3205           06454     rrcf        ram_0x005, F, ACCESS
0041E0 2E09           06455     decfsz      ram_0x009, F, ACCESS
0041E2 D7EE           06456     bra         flow_main_adc_service_4124_4140
0041E4                06457 flow_main_adc_service_4124_4164:
0041E4 C007 F003      06458     movff       ram_0x007, ram_0x003
0041E8 C008 F004      06459     movff       ram_0x008, ram_0x004
0041EC 0012           06460     return      0
0041EE                06461 an0_hysteresis_monitor:
0041EE A65E           06462     btfss       active_flags, 3, ACCESS
0041F0 D021           06463     bra         flow_main_adc_service_4124_41b4
Message[1302]: RAM Bank undefined in this chunk of code. Ensure that bank bits are correct. Assuming bank 0 from now on.
0041F2 51A1           06464     movf        ram_0x0A1, W, BANKED
0041F4 0A64           06465     xorlw       0x64
0041F6 E11D           06466     bnz         flow_main_adc_service_4124_41b2
0041F8 B2C2           06467     btfsc       ADCON0, 1, ACCESS
0041FA D019           06468     bra         flow_main_adc_service_4124_41ae
0041FC 50C4           06469     movf        ADRESH, W, ACCESS
0041FE 6E04           06470     movwf       ram_0x004, ACCESS
004200 6A03           06471     clrf        ram_0x003, ACCESS
004202 50C3           06472     movf        ADRESL, W, ACCESS
004204 2403           06473     addwf       ram_0x003, W, ACCESS
004206 6F88           06474     movwf       ram_0x088, BANKED
004208 0E00           06475     movlw       0x00
00420A 2004           06476     addwfc      ram_0x004, W, ACCESS
00420C 6F89           06477     movwf       ram_0x089, BANKED
00420E 0E29           06478     movlw       0x29
004210 5D88           06479     subwf       ram_0x088, W, BANKED
004212 0E02           06480     movlw       0x02
004214 5989           06481     subwfb      ram_0x089, W, BANKED
gpasm-1.5.2 #1325 (Jan 30 2022) src/dlcp_fw/a   03/29/2026  18:21:48        PAGE 133


LOC    OBJECT CODE    LINE  SOURCE TEXT
  VALUE

004216 B0D8           06482     btfsc       STATUS, 0, ACCESS
004218 8594           06483     bsf         ram_0x094, 2, BANKED
00421A 82C2           06484     bsf         ADCON0, 1, ACCESS
00421C A594           06485     btfss       ram_0x094, 2, BANKED
00421E D007           06486     bra         flow_main_adc_service_4124_41ae
004220 0E28           06487     movlw       0x28
004222 5D88           06488     subwf       ram_0x088, W, BANKED
004224 0E02           06489     movlw       0x02
004226 5989           06490     subwfb      ram_0x089, W, BANKED
004228 E202           06491     bc          flow_main_adc_service_4124_41ae
00422A 965E           06492     bcf         active_flags, 3, ACCESS
00422C 857E           06493     bsf         event_flags, 2, BANKED
00422E                06494 flow_main_adc_service_4124_41ae:
00422E 6BA1           06495     clrf        ram_0x0A1, BANKED
004230 D001           06496     bra         flow_main_adc_service_4124_41b4
004232                06497 flow_main_adc_service_4124_41b2:
Message[1302]: RAM Bank undefined in this chunk of code. Ensure that bank bits are correct. Assuming bank 0 from now on.
004232 2BA1           06498     incf        ram_0x0A1, F, BANKED
004234                06499 flow_main_adc_service_4124_41b4:
004234 0012           06500     return      0
                      06501 
                      06502 
                      06503 ; ---------------------------------------------------------------------------
                      06504 ; Function: main_core_service_41b6
                      06505 ; Address : 0x41B6
                      06506 ; Notes   : Inferred core helper routine. Calls: main_core_service_34c8.
                      06507 ; ---------------------------------------------------------------------------
004236                06508 main_core_service_41b6:
004236 CFE8 F017      06509     movff       WREG, ram_0x017
00423A C017 F016      06510     movff       ram_0x017, ram_0x016
00423E 5013           06511     movf        ram_0x013, W, ACCESS
004240 0A80           06512     xorlw       0x80
004242 6EF3           06513     movwf       PRODL, ACCESS
004244 0E80           06514     movlw       0x80
004246 5CF3           06515     subwf       PRODL, W, ACCESS
004248 0E00           06516     movlw       0x00
00424A B4D8           06517     btfsc       STATUS, 2, ACCESS
00424C 5C12           06518     subwf       ram_0x012, W, ACCESS
00424E E20A           06519     bc          flow_main_core_service_41b6_41e4
004250 5017           06520     movf        ram_0x017, W, ACCESS
004252 6ED9           06521     movwf       FSR2L, ACCESS
004254 6ADA           06522     clrf        FSR2H, ACCESS
004256 0E2D           06523     movlw       0x2D
004258 6EDF           06524     movwf       INDF2, ACCESS
00425A 2A17           06525     incf        ram_0x017, F, ACCESS
00425C 6C12           06526     negf        ram_0x012, ACCESS
00425E 1E13           06527     comf        ram_0x013, F, ACCESS
004260 B0D8           06528     btfsc       STATUS, 0, ACCESS
004262 2A13           06529     incf        ram_0x013, F, ACCESS
004264                06530 flow_main_core_service_41b6_41e4:
004264 C012 F00A      06531     movff       ram_0x012, ram_0x00A
004268 C013 F00B      06532     movff       ram_0x013, ram_0x00B
00426C C014 F00C      06533     movff       ram_0x014, ram_0x00C
gpasm-1.5.2 #1325 (Jan 30 2022) src/dlcp_fw/a   03/29/2026  18:21:48        PAGE 134


LOC    OBJECT CODE    LINE  SOURCE TEXT
  VALUE

004270 C015 F00D      06534     movff       ram_0x015, ram_0x00D
004274 5017           06535     movf        ram_0x017, W, ACCESS
004276 EC75 F01A      06536     call        main_core_service_34c8, 0x0
00427A 5016           06537     movf        ram_0x016, W, ACCESS
00427C 0012           06538     return      0
                      06539 
                      06540 
                      06541 ; ---------------------------------------------------------------------------
                      06542 ; Function: main_usb_service_41fe
                      06543 ; Address : 0x41FE
                      06544 ; Notes   : Inferred usb helper; touches usb. Calls: main_core_service_48fe.
                      06545 ; ---------------------------------------------------------------------------
00427E                06546 main_usb_service_41fe:
00427E 0E01           06547     movlw       0x01
Message[1302]: RAM Bank undefined in this chunk of code. Ensure that bank bits are correct. Assuming bank 0 from now on.
004280 6FC8           06548     movwf       ram_0x0C8, BANKED
004282 6A71           06549     clrf        UEP1, ACCESS
004284 6A72           06550     clrf        UEP2, ACCESS
004286 6A73           06551     clrf        UEP3, ACCESS
004288 6A74           06552     clrf        UEP4, ACCESS
00428A 6A75           06553     clrf        UEP5, ACCESS
00428C 6A76           06554     clrf        UEP6, ACCESS
00428E 6A77           06555     clrf        UEP7, ACCESS
004290 6B91           06556     clrf        ram_0x091, BANKED
004292                06557 flow_main_usb_service_41fe_4212:
004292 5191           06558     movf        ram_0x091, W, BANKED
004294 0FEC           06559     addlw       0xEC
004296 6ED9           06560     movwf       FSR2L, ACCESS
004298 6ADA           06561     clrf        FSR2H, ACCESS
00429A 6ADF           06562     clrf        INDF2, ACCESS
00429C 2B91           06563     incf        ram_0x091, F, BANKED
00429E 5191           06564     movf        ram_0x091, W, BANKED
0042A0 E0F8           06565     bz          flow_main_usb_service_41fe_4212
0042A2 C0D1 F0EB      06566     movff       ram_0x0D1, ram_0x0EB
0042A6 51EB           06567     movf        ram_0x0EB, W, BANKED
0042A8 ECD8 F024      06568     call        main_core_service_48fe, 0x0
0042AC 0100           06569     movlb       0x0
0042AE 67D1           06570     tstfsz      ram_0x0D1, BANKED
0042B0 D002           06571     bra         flow_main_usb_service_41fe_4236
0042B2 0E05           06572     movlw       0x05
0042B4 D001           06573     bra         flow_main_usb_service_41fe_4238
0042B6                06574 flow_main_usb_service_41fe_4236:
0042B6 0E06           06575     movlw       0x06
0042B8                06576 flow_main_usb_service_41fe_4238:
Message[1302]: RAM Bank undefined in this chunk of code. Ensure that bank bits are correct. Assuming bank 0 from now on.
0042B8 6FCD           06577     movwf       ram_0x0CD, BANKED
0042BA 0012           06578     return      0
                      06579 
                      06580 ; ---------------------------------------------------------------------------
                      06581 ; Function: i2c_secondary_dev_random_read
                      06582 ; Address : 0x423C
                      06583 ; Notes   : Inferred i2c helper; touches i2c. Calls: i2c_wait_bus_idle, i2c_byte_tx, main_i2c_service_46
                            4c.
gpasm-1.5.2 #1325 (Jan 30 2022) src/dlcp_fw/a   03/29/2026  18:21:48        PAGE 135


LOC    OBJECT CODE    LINE  SOURCE TEXT
  VALUE

                      06584 ; ---------------------------------------------------------------------------
0042BC                06585 i2c_secondary_dev_random_read:
0042BC CFE8 F006      06586     movff       WREG, ram_0x006
0042C0 ECB4 F024      06587     call        i2c_wait_bus_idle, 0x0
0042C4 80C5           06588     bsf         SSPCON2, 0, ACCESS
0042C6                06589 flow_i2c_secondary_dev_random_4246:
0042C6 B0C5           06590     btfsc       SSPCON2, 0, ACCESS
0042C8 D7FE           06591     bra         flow_i2c_secondary_dev_random_4246
0042CA 0EE2           06592     movlw       0xE2
0042CC EC5F F01F      06593     call        i2c_byte_tx, 0x0
0042D0 5006           06594     movf        ram_0x006, W, ACCESS
0042D2 EC5F F01F      06595     call        i2c_byte_tx, 0x0
0042D6 82C5           06596     bsf         SSPCON2, 1, ACCESS
0042D8                06597 flow_i2c_secondary_dev_random_4258:
0042D8 B2C5           06598     btfsc       SSPCON2, 1, ACCESS
0042DA D7FE           06599     bra         flow_i2c_secondary_dev_random_4258
0042DC 0EE3           06600     movlw       0xE3
0042DE EC5F F01F      06601     call        i2c_byte_tx, 0x0
0042E2 EC72 F023      06602     call        main_i2c_service_464c, 0x0
0042E6 6E07           06603     movwf       ram_0x007, ACCESS
0042E8 8AC5           06604     bsf         SSPCON2, 5, ACCESS
0042EA 88C5           06605     bsf         SSPCON2, 4, ACCESS
0042EC                06606 flow_i2c_secondary_dev_random_426c:
0042EC B8C5           06607     btfsc       SSPCON2, 4, ACCESS
0042EE D7FE           06608     bra         flow_i2c_secondary_dev_random_426c
0042F0 84C5           06609     bsf         SSPCON2, 2, ACCESS
0042F2                06610 flow_i2c_secondary_dev_random_4272:
0042F2 B4C5           06611     btfsc       SSPCON2, 2, ACCESS
0042F4 D7FE           06612     bra         flow_i2c_secondary_dev_random_4272
0042F6 5007           06613     movf        ram_0x007, W, ACCESS
0042F8 0012           06614     return      0
                      06615 
                      06616 
                      06617 ; ---------------------------------------------------------------------------
                      06618 ; Function: main_core_service_427a
                      06619 ; Address : 0x427A
                      06620 ; Notes   : Inferred core helper routine.
                      06621 ; ---------------------------------------------------------------------------
0042FA                06622 main_core_service_427a:
0042FA 5006           06623     movf        ram_0x006, W, ACCESS
0042FC 1005           06624     iorwf       ram_0x005, W, ACCESS
0042FE E017           06625     bz          flow_main_core_service_427a_42ae
004300 0E01           06626     movlw       0x01
004302 6E07           06627     movwf       ram_0x007, ACCESS
004304 D004           06628     bra         flow_main_core_service_427a_428e
004306                06629 flow_main_core_service_427a_4286:
004306 90D8           06630     bcf         STATUS, 0, ACCESS
004308 3605           06631     rlcf        ram_0x005, F, ACCESS
00430A 3606           06632     rlcf        ram_0x006, F, ACCESS
00430C 2A07           06633     incf        ram_0x007, F, ACCESS
00430E                06634 flow_main_core_service_427a_428e:
00430E AE06           06635     btfss       ram_0x006, 7, ACCESS
004310 D7FA           06636     bra         flow_main_core_service_427a_4286
gpasm-1.5.2 #1325 (Jan 30 2022) src/dlcp_fw/a   03/29/2026  18:21:48        PAGE 136


LOC    OBJECT CODE    LINE  SOURCE TEXT
  VALUE

004312                06637 flow_main_core_service_427a_4292:
004312 5005           06638     movf        ram_0x005, W, ACCESS
004314 5C03           06639     subwf       ram_0x003, W, ACCESS
004316 5006           06640     movf        ram_0x006, W, ACCESS
004318 5804           06641     subwfb      ram_0x004, W, ACCESS
00431A E304           06642     bnc         flow_main_core_service_427a_42a4
00431C 5005           06643     movf        ram_0x005, W, ACCESS
00431E 5E03           06644     subwf       ram_0x003, F, ACCESS
004320 5006           06645     movf        ram_0x006, W, ACCESS
004322 5A04           06646     subwfb      ram_0x004, F, ACCESS
004324                06647 flow_main_core_service_427a_42a4:
004324 90D8           06648     bcf         STATUS, 0, ACCESS
004326 3206           06649     rrcf        ram_0x006, F, ACCESS
004328 3205           06650     rrcf        ram_0x005, F, ACCESS
00432A 2E07           06651     decfsz      ram_0x007, F, ACCESS
00432C D7F2           06652     bra         flow_main_core_service_427a_4292
00432E                06653 flow_main_core_service_427a_42ae:
00432E C003 F003      06654     movff       ram_0x003, ram_0x003
004332 C004 F004      06655     movff       ram_0x004, ram_0x004
004336 0012           06656     return      0
                      06657 
                      06658 ; ---------------------------------------------------------------------------
                      06659 ; Function: flash_write_with_gie_off
                      06660 ; Address : 0x42B8
                      06661 ; Notes   : Inferred flash helper; touches flash. Calls: main_flash_service_4406.
                      06662 ; ---------------------------------------------------------------------------
004338                06663 flash_write_with_gie_off:
004338 9EF2           06664     bcf         INTCON, 7, ACCESS
00433A 0E30           06665     movlw       UPPER(_CONFIG6H)
00433C 6EF8           06666     movwf       TBLPTRU, ACCESS
00433E 6AF7           06667     clrf        TBLPTRH, ACCESS
004340 0E0B           06668     movlw       LOW(_CONFIG6H)                      ; TBLPTR -> _CONFIG6H
004342 6EF6           06669     movwf       TBLPTRL, ACCESS
004344 0EA0           06670     movlw       0xA0
004346 6EF5           06671     movwf       TABLAT, ACCESS
004348 000C           06672     tblwt*
00434A 0EC4           06673     movlw       0xC4
00434C 6EA6           06674     movwf       EECON1, ACCESS
00434E EC44 F022      06675     call        main_flash_service_4406, 0x0
004352                06676 flow_flash_write_with_gie_off_42d2:
004352 B2A6           06677     btfsc       EECON1, 1, ACCESS
004354 D7FE           06678     bra         flow_flash_write_with_gie_off_42d2
004356 0E30           06679     movlw       UPPER(_CONFIG1L)
004358 6EF8           06680     movwf       TBLPTRU, ACCESS
00435A 6AF7           06681     clrf        TBLPTRH, ACCESS
00435C 6AF6           06682     clrf        TBLPTRL, ACCESS
00435E 0E3A           06683     movlw       0x3A
004360 6EF5           06684     movwf       TABLAT, ACCESS
004362 000C           06685     tblwt*
004364 0EC4           06686     movlw       0xC4
004366 6EA6           06687     movwf       EECON1, ACCESS
004368 EC44 F022      06688     call        main_flash_service_4406, 0x0
00436C                06689 flow_flash_write_with_gie_off_42ec:
gpasm-1.5.2 #1325 (Jan 30 2022) src/dlcp_fw/a   03/29/2026  18:21:48        PAGE 137


LOC    OBJECT CODE    LINE  SOURCE TEXT
  VALUE

00436C B2A6           06690     btfsc       EECON1, 1, ACCESS
00436E D7FE           06691     bra         flow_flash_write_with_gie_off_42ec
004370 94A6           06692     bcf         EECON1, 2, ACCESS
004372 0012           06693     return      0
                      06694 
                      06695 
                      06696 ; ---------------------------------------------------------------------------
                      06697 ; Function: main_usb_service_42f4
                      06698 ; Address : 0x42F4
                      06699 ; Notes   : Inferred usb helper; touches usb. Calls: main_core_service_3682, main_core_service_495a.
                      06700 ; ---------------------------------------------------------------------------
004374                06701 main_usb_service_42f4:
004374 0104           06702     movlb       0x4
004376 6B08           06703     clrf        ram_0x008, BANKED
004378 0100           06704     movlb       0x0
00437A 6BCC           06705     clrf        ram_0x0CC, BANKED
00437C 0104           06706     movlb       0x4
00437E AF00           06707     btfss       ram_0x000, 7, BANKED
004380 D003           06708     bra         flow_main_usb_service_42f4_4308
004382 6B00           06709     clrf        ram_0x000, BANKED
004384 0100           06710     movlb       0x0
004386 6B96           06711     clrf        ram_0x096, BANKED
004388                06712 flow_main_usb_service_42f4_4308:
004388 0104           06713     movlb       0x4
00438A AF04           06714     btfss       ram_0x004, 7, BANKED
00438C D004           06715     bra         flow_main_usb_service_42f4_4316
00438E 6B04           06716     clrf        ram_0x004, BANKED
004390 0E01           06717     movlw       0x01
004392 0100           06718     movlb       0x0
004394 6F96           06719     movwf       ram_0x096, BANKED
004396                06720 flow_main_usb_service_42f4_4316:
004396 0100           06721     movlb       0x0
004398 6BC9           06722     clrf        ram_0x0C9, BANKED
00439A 6BC8           06723     clrf        ram_0x0C8, BANKED
00439C 6BE7           06724     clrf        ram_0x0E7, BANKED
00439E 6BE8           06725     clrf        ram_0x0E8, BANKED
0043A0 986D           06726     bcf         UCON, 4, ACCESS
0043A2 EC54 F01B      06727     call        main_core_service_3682, 0x0
0043A6 EC06 F025      06728     call        main_core_service_495a, 0x0
0043AA EF37 F019      06729     goto        flow_main_core_service_3188_324c
                      06730 
                      06731 
                      06732 ; ---------------------------------------------------------------------------
                      06733 ; Function: main_core_service_432e
                      06734 ; Address : 0x432E
                      06735 ; Notes   : Inferred core helper routine. Calls: main_core_service_24c2.
                      06736 ; ---------------------------------------------------------------------------
0043AE                06737 main_core_service_432e:
0043AE 0E80           06738     movlw       0x80
0043B0 1A40           06739     xorwf       ram_0x040, F, ACCESS
0043B2 C039 F020      06740     movff       ram_0x039, ram_0x020
0043B6 C03A F021      06741     movff       ram_0x03A, ram_0x021
0043BA C03B F022      06742     movff       ram_0x03B, ram_0x022
gpasm-1.5.2 #1325 (Jan 30 2022) src/dlcp_fw/a   03/29/2026  18:21:48        PAGE 138


LOC    OBJECT CODE    LINE  SOURCE TEXT
  VALUE

0043BE C03C F023      06743     movff       ram_0x03C, ram_0x023
0043C2 C03D F024      06744     movff       ram_0x03D, ram_0x024
0043C6 C03E F025      06745     movff       ram_0x03E, ram_0x025
0043CA C03F F026      06746     movff       ram_0x03F, ram_0x026
0043CE C040 F027      06747     movff       ram_0x040, ram_0x027
0043D2 EC65 F012      06748     call        main_core_service_24c2, 0x0
0043D6 C020 F039      06749     movff       ram_0x020, ram_0x039
0043DA C021 F03A      06750     movff       ram_0x021, ram_0x03A
0043DE C022 F03B      06751     movff       ram_0x022, ram_0x03B
0043E2 C023 F03C      06752     movff       ram_0x023, ram_0x03C
0043E6 0012           06753     return      0
                      06754 
                      06755 ; ---------------------------------------------------------------------------
                      06756 ; Function: i2c_tas3108_reg1f_write (V3.1 enhanced)
                      06757 ; Notes   : Bounded SEN/PEN waits via i2c_wait_bus_idle + i2c_byte_tx.
                      06758 ; ---------------------------------------------------------------------------
0043E8                06759 i2c_tas3108_reg1f_write:
0043E8 CFE8 F006      06760     movff       WREG, ram_0x006
0043EC ECB4 F024      06761     call        i2c_wait_bus_idle, 0x0
0043F0 80C5           06762     bsf         SSPCON2, 0, ACCESS          ; SEN = START
0043F2 EC3E F025      06763     call        wait_sen_bounded, 0x0
0043F6 E215           06764     bc          i2c_reg1f_done
0043F8 0E68           06765     movlw       0x68
0043FA EC5F F01F      06766     call        i2c_byte_tx, 0x0
0043FE 0E1F           06767     movlw       0x1F
004400 EC5F F01F      06768     call        i2c_byte_tx, 0x0
004404 0E00           06769     movlw       0x00
004406 EC5F F01F      06770     call        i2c_byte_tx, 0x0
00440A 0E00           06771     movlw       0x00
00440C EC5F F01F      06772     call        i2c_byte_tx, 0x0
004410 0E00           06773     movlw       0x00
004412 EC5F F01F      06774     call        i2c_byte_tx, 0x0
004416 5006           06775     movf        ram_0x006, W, ACCESS
004418 EC5F F01F      06776     call        i2c_byte_tx, 0x0
00441C 84C5           06777     bsf         SSPCON2, 2, ACCESS          ; PEN = STOP
00441E EC48 F025      06778     call        wait_pen_bounded, 0x0
004422                06779 i2c_reg1f_done:
004422 0012           06780     return      0
                      06781 
                      06782 
                      06783 ; ---------------------------------------------------------------------------
                      06784 ; Function: main_uart_service_43a2
                      06785 ; Address : 0x43A2
                      06786 ; Notes   : Inferred uart helper routine. Calls: tblrd_lookup, uart_tx_byte_blocking.
                      06787 ; ---------------------------------------------------------------------------
004424                06788 main_uart_service_43a2:
004424 CFE8 F006      06789     movff       WREG, ram_0x006
004428 C006 F004      06790     movff       ram_0x006, ram_0x004
00442C 3A04           06791     swapf       ram_0x004, F, ACCESS
00442E 0E0F           06792     movlw       0x0F
004430 1604           06793     andwf       ram_0x004, F, ACCESS
004432 D80B           06794     rcall       tblrd_lookup
004434 EC98 F024      06795     call        uart_tx_byte_blocking, 0x0
gpasm-1.5.2 #1325 (Jan 30 2022) src/dlcp_fw/a   03/29/2026  18:21:48        PAGE 139


LOC    OBJECT CODE    LINE  SOURCE TEXT
  VALUE

004438 6E05           06796     movwf       ram_0x005, ACCESS
00443A C006 F004      06797     movff       ram_0x006, ram_0x004
00443E 0E0F           06798     movlw       0x0F
004440 D804           06799     rcall       tblrd_lookup
004442 EC98 F024      06800     call        uart_tx_byte_blocking, 0x0
004446 1A05           06801     xorwf       ram_0x005, F, ACCESS
004448 0012           06802     return      0
                      06803 
                      06804 ; ---------------------------------------------------------------------------
                      06805 ; Function: tblrd_lookup
                      06806 ; Address : 0x43C8
                      06807 ; Notes   : Inferred flash helper; touches flash.
                      06808 ; ---------------------------------------------------------------------------
00444A                06809 tblrd_lookup:
00444A 1604           06810     andwf       ram_0x004, F, ACCESS
00444C 5004           06811     movf        ram_0x004, W, ACCESS
00444E 0F19           06812     addlw       LOW(hex_lookup_table)               ; indexed TBLPTR -> hex_lookup_table
004450 6EF6           06813     movwf       TBLPTRL, ACCESS
004452 0E10           06814     movlw       HIGH(hex_lookup_table)
004454 6EF7           06815     movwf       TBLPTRH, ACCESS
004456 0008           06816     tblrd*
004458 50F5           06817     movf        TABLAT, W, ACCESS
00445A 0012           06818     return      0
                      06819 
                      06820 ; ---------------------------------------------------------------------------
                      06821 ; Function: eeprom_write_blocking
                      06822 ; Address : 0x43DA
                      06823 ; Notes   : Inferred flash helper; touches flash. Calls: main_flash_service_4406.
                      06824 ; ---------------------------------------------------------------------------
00445C                06825 eeprom_write_blocking:
00445C C003 FFA9      06826     movff       ram_0x003, EEADR
004460 C005 FFA8      06827     movff       ram_0x005, EEDATA
004464 9EA6           06828     bcf         EECON1, 7, ACCESS
004466 9CA6           06829     bcf         EECON1, 6, ACCESS
004468 84A6           06830     bsf         EECON1, 2, ACCESS
00446A 0E00           06831     movlw       0x00
00446C BEF2           06832     btfsc       INTCON, 7, ACCESS
00446E 0E01           06833     movlw       0x01
004470 6E06           06834     movwf       ram_0x006, ACCESS
004472 9EF2           06835     bcf         INTCON, 7, ACCESS
004474 D809           06836     rcall       main_flash_service_4406
004476                06837 flow_eeprom_write_blocking_43f4:
004476 B2A6           06838     btfsc       EECON1, 1, ACCESS
004478 D7FE           06839     bra         flow_eeprom_write_blocking_43f4
00447A B006           06840     btfsc       ram_0x006, 0, ACCESS
00447C D002           06841     bra         flow_eeprom_write_blocking_4400
00447E 9EF2           06842     bcf         INTCON, 7, ACCESS
004480 D001           06843     bra         flow_eeprom_write_blocking_4402
004482                06844 flow_eeprom_write_blocking_4400:
004482 8EF2           06845     bsf         INTCON, 7, ACCESS
004484                06846 flow_eeprom_write_blocking_4402:
004484 94A6           06847     bcf         EECON1, 2, ACCESS
004486 0012           06848     return      0
gpasm-1.5.2 #1325 (Jan 30 2022) src/dlcp_fw/a   03/29/2026  18:21:48        PAGE 140


LOC    OBJECT CODE    LINE  SOURCE TEXT
  VALUE

                      06849 
                      06850 
                      06851 ; ---------------------------------------------------------------------------
                      06852 ; Function: main_flash_service_4406
                      06853 ; Address : 0x4406
                      06854 ; Notes   : Inferred flash helper; touches flash.
                      06855 ; ---------------------------------------------------------------------------
004488                06856 main_flash_service_4406:
004488 0E55           06857     movlw       0x55
00448A 6EA7           06858     movwf       EECON2, ACCESS
00448C 0EAA           06859     movlw       0xAA
00448E 6EA7           06860     movwf       EECON2, ACCESS
004490 82A6           06861     bsf         EECON1, 1, ACCESS
004492 0CAA           06862     retlw       0xAA
                      06863 
                      06864 
                      06865 ; ---------------------------------------------------------------------------
                      06866 ; Function: main_usb_service_4412
                      06867 ; Address : 0x4412
                      06868 ; Notes   : Inferred usb helper; touches usb. Calls: main_flash_service_35f0.
                      06869 ; ---------------------------------------------------------------------------
004494                06870 main_usb_service_4412:
Message[1302]: RAM Bank undefined in this chunk of code. Ensure that bank bits are correct. Assuming bank 0 from now on.
004494 51CD           06871     movf        ram_0x0CD, W, BANKED
004496 0A04           06872     xorlw       0x04
004498 E107           06873     bnz         flow_main_usb_service_4412_4426
00449A C0D1 FF6E      06874     movff       ram_0x0D1, UADDR
00449E 506E           06875     movf        UADDR, W, ACCESS
0044A0 0E05           06876     movlw       0x05
0044A2 B4D8           06877     btfsc       STATUS, 2, ACCESS
0044A4 0E03           06878     movlw       0x03
0044A6 6FCD           06879     movwf       ram_0x0CD, BANKED
0044A8                06880 flow_main_usb_service_4412_4426:
0044A8 05C9           06881     decf        ram_0x0C9, W, BANKED
0044AA E10E           06882     bnz         flow_main_usb_service_4412_4446
0044AC EC0B F01B      06883     call        main_flash_service_35f0, 0x0
Message[1302]: RAM Bank undefined in this chunk of code. Ensure that bank bits are correct. Assuming bank 0 from now on.
0044B0 51CC           06884     movf        ram_0x0CC, W, BANKED
0044B2 0A02           06885     xorlw       0x02
0044B4 E103           06886     bnz         flow_main_usb_service_4412_443a
0044B6 0E04           06887     movlw       0x04
0044B8 0104           06888     movlb       0x4
0044BA D004           06889     bra         flow_main_usb_service_4412_4442
0044BC                06890 flow_main_usb_service_4412_443a:
0044BC 0104           06891     movlb       0x4
0044BE 0E48           06892     movlw       0x48
0044C0 BD08           06893     btfsc       ram_0x008, 6, BANKED
0044C2 0E08           06894     movlw       0x08
0044C4                06895 flow_main_usb_service_4412_4442:
0044C4 6F08           06896     movwf       ram_0x008, BANKED
0044C6 8F08           06897     bsf         ram_0x008, 7, BANKED
0044C8                06898 flow_main_usb_service_4412_4446:
0044C8 0012           06899     return      0
gpasm-1.5.2 #1325 (Jan 30 2022) src/dlcp_fw/a   03/29/2026  18:21:48        PAGE 141


LOC    OBJECT CODE    LINE  SOURCE TEXT
  VALUE

                      06900 
                      06901 
                      06902 ; ---------------------------------------------------------------------------
                      06903 ; Function: main_core_service_4448
                      06904 ; Address : 0x4448
                      06905 ; Notes   : Inferred core helper routine.
                      06906 ; ---------------------------------------------------------------------------
0044CA                06907 main_core_service_4448:
0044CA CFE8 F003      06908     movff       WREG, ram_0x003
0044CE D00F           06909     bra         flow_main_core_service_4448_446c
0044D0                06910 flow_main_core_service_4448_444e:
0044D0 0E01           06911     movlw       0x01
Message[1302]: RAM Bank undefined in this chunk of code. Ensure that bank bits are correct. Assuming bank 0 from now on.
0044D2 6FA0           06912     movwf       ram_0x0A0, BANKED
0044D4 6BB9           06913     clrf        ram_0x0B9, BANKED
0044D6 D013           06914     bra         flow_main_core_service_4448_447c
0044D8                06915 flow_main_core_service_4448_4456:
Message[1302]: RAM Bank undefined in this chunk of code. Ensure that bank bits are correct. Assuming bank 0 from now on.
0044D8 6BA0           06916     clrf        ram_0x0A0, BANKED
0044DA 0E01           06917     movlw       0x01
0044DC D006           06918     bra         flow_main_core_service_4448_4468
0044DE                06919 flow_main_core_service_4448_445c:
0044DE 0E02           06920     movlw       0x02
Message[1302]: RAM Bank undefined in this chunk of code. Ensure that bank bits are correct. Assuming bank 0 from now on.
0044E0 6FA0           06921     movwf       ram_0x0A0, BANKED
0044E2 D003           06922     bra         flow_main_core_service_4448_4468
0044E4                06923 flow_main_core_service_4448_4462:
0044E4 0E01           06924     movlw       0x01
Message[1302]: RAM Bank undefined in this chunk of code. Ensure that bank bits are correct. Assuming bank 0 from now on.
0044E6 6FA0           06925     movwf       ram_0x0A0, BANKED
0044E8 0E03           06926     movlw       0x03
0044EA                06927 flow_main_core_service_4448_4468:
0044EA 6FB9           06928     movwf       ram_0x0B9, BANKED
0044EC D008           06929     bra         flow_main_core_service_4448_447c
0044EE                06930 flow_main_core_service_4448_446c:
0044EE 5003           06931     movf        ram_0x003, W, ACCESS
0044F0 E0EF           06932     bz          flow_main_core_service_4448_444e
0044F2 0A01           06933     xorlw       0x01
0044F4 E0F1           06934     bz          flow_main_core_service_4448_4456
0044F6 0A03           06935     xorlw       0x03
0044F8 E0F2           06936     bz          flow_main_core_service_4448_445c
0044FA 0A01           06937     xorlw       0x01
0044FC E0F3           06938     bz          flow_main_core_service_4448_4462
0044FE                06939 flow_main_core_service_4448_447c:
0044FE 0012           06940     return      0
                      06941 
                      06942 ; ---------------------------------------------------------------------------
                      06943 ; Function: timer3_blocking_delay
                      06944 ; Address : 0x447E
                      06945 ; Notes   : Inferred timer helper; touches timer.
                      06946 ; ---------------------------------------------------------------------------
004500                06947 timer3_blocking_delay:
004500 92A0           06948     bcf         PIE2, 1, ACCESS
gpasm-1.5.2 #1325 (Jan 30 2022) src/dlcp_fw/a   03/29/2026  18:21:48        PAGE 142


LOC    OBJECT CODE    LINE  SOURCE TEXT
  VALUE

004502 0E98           06949     movlw       0x98
004504 6EB1           06950     movwf       T3CON, ACCESS
004506 80B1           06951     bsf         T3CON, 0, ACCESS
004508 D010           06952     bra         flow_timer3_blocking_delay_44a8
00450A                06953 flow_timer3_blocking_delay_4488:
00450A A2D3           06954     btfss       OSCCON, 1, ACCESS
00450C D004           06955     bra         flow_timer3_blocking_delay_4494
00450E 0EFC           06956     movlw       0xFC
004510 6EB3           06957     movwf       TMR3H, ACCESS
004512 0E18           06958     movlw       0x18
004514 D003           06959     bra         flow_timer3_blocking_delay_449a
004516                06960 flow_timer3_blocking_delay_4494:
004516 0EF8           06961     movlw       0xF8
004518 6EB3           06962     movwf       TMR3H, ACCESS
00451A 0E30           06963     movlw       0x30
00451C                06964 flow_timer3_blocking_delay_449a:
00451C 6EB2           06965     movwf       TMR3L, ACCESS
00451E 92A1           06966     bcf         PIR2, 1, ACCESS
004520                06967 flow_timer3_blocking_delay_449e:
004520 A2A1           06968     btfss       PIR2, 1, ACCESS
004522 D7FE           06969     bra         flow_timer3_blocking_delay_449e
004524 0603           06970     decf        ram_0x003, F, ACCESS
004526 A0D8           06971     btfss       STATUS, 0, ACCESS
004528 0604           06972     decf        ram_0x004, F, ACCESS
00452A                06973 flow_timer3_blocking_delay_44a8:
00452A 5004           06974     movf        ram_0x004, W, ACCESS
00452C 1003           06975     iorwf       ram_0x003, W, ACCESS
00452E E1ED           06976     bnz         flow_timer3_blocking_delay_4488
004530 90B1           06977     bcf         T3CON, 0, ACCESS
004532 0012           06978     return      0
                      06979 
                      06980 
                      06981 ; ---------------------------------------------------------------------------
                      06982 ; Function: main_uart_service_44b2
                      06983 ; Address : 0x44B2
                      06984 ; Notes   : Inferred uart helper routine. Calls: uart_tx_byte_blocking, uart_tx_block_from_buffer.
                      06985 ; ---------------------------------------------------------------------------
004534                06986 main_uart_service_44b2:
004534 CFE8 F01B      06987     movff       WREG, ram_0x01B
004538 0E0D           06988     movlw       0x0D
00453A EC98 F024      06989     call        uart_tx_byte_blocking, 0x0
00453E 0E0A           06990     movlw       0x0A
004540 EC98 F024      06991     call        uart_tx_byte_blocking, 0x0
004544 0E0C           06992     movlw       0x0C
004546 EC98 F024      06993     call        uart_tx_byte_blocking, 0x0
00454A 0E3A           06994     movlw       0x3A
00454C EC98 F024      06995     call        uart_tx_byte_blocking, 0x0
004550 6A19           06996     clrf        ram_0x019, ACCESS
004552 C01B F018      06997     movff       ram_0x01B, ram_0x018
004556 EC97 F023      06998     call        uart_tx_block_from_buffer, 0x0
00455A 0E0D           06999     movlw       0x0D
00455C EC98 F024      07000     call        uart_tx_byte_blocking, 0x0
004560 0E0A           07001     movlw       0x0A
gpasm-1.5.2 #1325 (Jan 30 2022) src/dlcp_fw/a   03/29/2026  18:21:48        PAGE 143


LOC    OBJECT CODE    LINE  SOURCE TEXT
  VALUE

004562 EF98 F024      07002     goto        uart_tx_byte_blocking
                      07003 
                      07004 ; ---------------------------------------------------------------------------
                      07005 ; Function: i2c_tas3108_coeff_write (V3.1 enhanced — Fix F: boot-gated PEN)
                      07006 ; Notes   : Bounded SEN wait. PEN wait is boot-gated: unbounded during boot
                      07007 ;           (safe — DSP always ACKs during init), bounded after boot complete.
                      07008 ; ---------------------------------------------------------------------------
004566                07009 i2c_tas3108_coeff_write:
004566 ECB4 F024      07010     call        i2c_wait_bus_idle, 0x0
00456A 80C5           07011     bsf         SSPCON2, 0, ACCESS          ; SEN = START
00456C EC3E F025      07012     call        wait_sen_bounded, 0x0
004570 E21D           07013     bc          coeff_write_pen_done
004572 0E68           07014     movlw       0x68
004574 EC5F F01F      07015     call        i2c_byte_tx, 0x0
004578 0E30           07016     movlw       0x30
00457A EC5F F01F      07017     call        i2c_byte_tx, 0x0
00457E C055 F049      07018     movff       i2c_coeff_0, ram_0x049
004582 C056 F04A      07019     movff       i2c_coeff_1, ram_0x04A
004586 C057 F04B      07020     movff       i2c_coeff_2, ram_0x04B
00458A C058 F04C      07021     movff       i2c_coeff_3, ram_0x04C
00458E ECE6 F01C      07022     call        main_i2c_service_39a6, 0x0
004592 84C5           07023     bsf         SSPCON2, 2, ACCESS          ; PEN = STOP
                      07024     ; Fix F: boot-gated PEN wait — bounded after boot, stock during boot
Message[1302]: RAM Bank undefined in this chunk of code. Ensure that bank bits are correct. Assuming bank 0 from now on.
004594 AF7E           07025     btfss       event_flags, 7, BANKED      ; boot complete?
004596 D007           07026     bra         coeff_write_pen_stock       ; no: stock unbounded (safe during DSP init)
004598 EC48 F025      07027     call        wait_pen_bounded, 0x0
00459C E201           07028     bc          coeff_write_pen_timeout
00459E D006           07029     bra         coeff_write_pen_done
0045A0                07030 coeff_write_pen_timeout:
                      07031     ; PEN stuck: flag fault and force NACK for retry. On real HW the
                      07032     ; watchdog would catch true hangs; in gpsim the test harness
                      07033     ; force-clears SSPCON2 after clearing the fault model.
Message[1302]: RAM Bank undefined in this chunk of code. Ensure that bank bits are correct. Assuming bank 0 from now on.
0045A0 8D7F           07034     bsf         dsp_fault_flags, 6, BANKED  ; flag DSP fault
0045A2 857F           07035     bsf         dsp_fault_flags, 2, BANKED  ; force NACK → volume_dsp_write retries
0045A4 D003           07036     bra         coeff_write_pen_done
0045A6                07037 coeff_write_pen_stock:
0045A6 A4C5           07038     btfss       SSPCON2, 2, ACCESS
0045A8 D001           07039     bra         coeff_write_pen_done
0045AA D7FD           07040     bra         coeff_write_pen_stock
0045AC                07041 coeff_write_pen_done:
0045AC 0012           07042     return      0
                      07043 
                      07044 
                      07045 ; ---------------------------------------------------------------------------
                      07046 ; Function: main_core_service_4516
                      07047 ; Address : 0x4516
                      07048 ; Notes   : Inferred core helper routine.
                      07049 ; ---------------------------------------------------------------------------
0045AE                07050 main_core_service_4516:
0045AE 665F           07051     tstfsz      ram_0x05F, ACCESS
0045B0 D00D           07052     bra         flow_main_core_service_4516_4534
gpasm-1.5.2 #1325 (Jan 30 2022) src/dlcp_fw/a   03/29/2026  18:21:48        PAGE 144


LOC    OBJECT CODE    LINE  SOURCE TEXT
  VALUE

0045B2                07053 flow_main_core_service_4516_451a:
0045B2 9689           07054     bcf         LATA, 3, ACCESS
0045B4 D001           07055     bra         flow_main_core_service_4516_4520
0045B6                07056 flow_main_core_service_4516_451e:
0045B6 8689           07057     bsf         LATA, 3, ACCESS
0045B8                07058 flow_main_core_service_4516_4520:
0045B8 9889           07059     bcf         LATA, 4, ACCESS
0045BA 9A89           07060     bcf         LATA, 5, ACCESS
0045BC D00F           07061     bra         flow_main_core_service_4516_4544
0045BE                07062 flow_main_core_service_4516_4526:
0045BE 9689           07063     bcf         LATA, 3, ACCESS
0045C0 9889           07064     bcf         LATA, 4, ACCESS
0045C2 D002           07065     bra         flow_main_core_service_4516_4530
0045C4                07066 flow_main_core_service_4516_452c:
0045C4 9689           07067     bcf         LATA, 3, ACCESS
0045C6 8889           07068     bsf         LATA, 4, ACCESS
0045C8                07069 flow_main_core_service_4516_4530:
0045C8 8A89           07070     bsf         LATA, 5, ACCESS
0045CA D008           07071     bra         flow_main_core_service_4516_4544
0045CC                07072 flow_main_core_service_4516_4534:
Message[1302]: RAM Bank undefined in this chunk of code. Ensure that bank bits are correct. Assuming bank 0 from now on.
0045CC 5193           07073     movf        ram_0x093, W, BANKED
0045CE E0F1           07074     bz          flow_main_core_service_4516_451a
0045D0 0A05           07075     xorlw       0x05
0045D2 E0F1           07076     bz          flow_main_core_service_4516_451e
0045D4 0A03           07077     xorlw       0x03
0045D6 E0F3           07078     bz          flow_main_core_service_4516_4526
0045D8 0A01           07079     xorlw       0x01
0045DA E0F4           07080     bz          flow_main_core_service_4516_452c
0045DC                07081 flow_main_core_service_4516_4544:
0045DC 0012           07082     return      0
                      07083 
                      07084 ; ---------------------------------------------------------------------------
                      07085 ; Function: uart_config
                      07086 ; Address : 0x4546
                      07087 ; Notes   : Inferred uart helper; touches timer,uart.
                      07088 ; ---------------------------------------------------------------------------
0045DE                07089 uart_config:
0045DE 9EAB           07090     bcf         RCSTA, 7, ACCESS
0045E0 9ED0           07091     bcf         RCON, 7, ACCESS
0045E2 0100           07092     movlb       0x0
0045E4 6BC6           07093     clrf        rx_ring_rd, BANKED
0045E6 6BC7           07094     clrf        rx_ring_wr, BANKED
0045E8 0E06           07095     movlw       0x06
0045EA 6EAC           07096     movwf       TXSTA, ACCESS
0045EC 0E80           07097     movlw       0x80
0045EE 6EAB           07098     movwf       RCSTA, ACCESS
0045F0 0E48           07099     movlw       0x48
0045F2 6EB8           07100     movwf       BAUDCON, ACCESS
0045F4 8E94           07101     bsf         TRISC, 7, ACCESS
0045F6 8C94           07102     bsf         TRISC, 6, ACCESS
0045F8 989D           07103     bcf         PIE1, 4, ACCESS
0045FA 989E           07104     bcf         PIR1, 4, ACCESS
gpasm-1.5.2 #1325 (Jan 30 2022) src/dlcp_fw/a   03/29/2026  18:21:48        PAGE 145


LOC    OBJECT CODE    LINE  SOURCE TEXT
  VALUE

0045FC 9A9E           07105     bcf         PIR1, 5, ACCESS
0045FE 9A9D           07106     bcf         PIE1, 5, ACCESS
004600 6AB0           07107     clrf        SPBRGH, ACCESS
004602 0E7F           07108     movlw       0x7F
004604 6EAF           07109     movwf       SPBRG, ACCESS
004606 8AAC           07110     bsf         TXSTA, 5, ACCESS
004608 88AB           07111     bsf         RCSTA, 4, ACCESS
00460A 0C7F           07112     retlw       0x7F
                      07113 
                      07114 
                      07115 ; ---------------------------------------------------------------------------
                      07116 ; Function: main_core_service_4574
                      07117 ; Address : 0x4574
                      07118 ; Notes   : Inferred core helper routine. Calls: main_i2c_service_381c.
                      07119 ; ---------------------------------------------------------------------------
00460C                07120 main_core_service_4574:
00460C 0E56           07121     movlw       0x56
00460E 6E33           07122     movwf       ram_0x033, ACCESS
004610 0E00           07123     movlw       0x00
004612 6A32           07124     clrf        ram_0x032, ACCESS
004614 6A34           07125     clrf        ram_0x034, ACCESS
004616                07126 flow_main_core_service_4574_457e:
004616 C032 F013      07127     movff       ram_0x032, ram_0x013
00461A C033 F014      07128     movff       ram_0x033, ram_0x014
00461E EC21 F01C      07129     call        main_i2c_service_381c, 0x0
004622 0E18           07130     movlw       0x18
004624 2632           07131     addwf       ram_0x032, F, ACCESS
004626 0E00           07132     movlw       0x00
004628 2233           07133     addwfc      ram_0x033, F, ACCESS
00462A 2A34           07134     incf        ram_0x034, F, ACCESS
00462C 0E5F           07135     movlw       0x5F
00462E 6434           07136     cpfsgt      ram_0x034, ACCESS
004630 D7F2           07137     bra         flow_main_core_service_4574_457e
004632 6E14           07138     movwf       ram_0x014, ACCESS
004634 6A13           07139     clrf        ram_0x013, ACCESS
004636 EF21 F01C      07140     goto        main_i2c_service_381c
                      07141 
                      07142 
                      07143 ; ---------------------------------------------------------------------------
                      07144 ; Function: main_usb_service_45a2
                      07145 ; Address : 0x45A2
                      07146 ; Notes   : Inferred usb helper; touches usb. Calls: main_core_service_2328, main_core_service_3fd0.
                      07147 ; ---------------------------------------------------------------------------
00463A                07148 main_usb_service_45a2:
00463A EC98 F011      07149     call        main_core_service_2328, 0x0
Message[1302]: RAM Bank undefined in this chunk of code. Ensure that bank bits are correct. Assuming bank 0 from now on.
00463E 51CD           07150     movf        ram_0x0CD, W, BANKED
004640 0A06           07151     xorlw       0x06
004642 B4D8           07152     btfsc       STATUS, 2, ACCESS
004644 B26D           07153     btfsc       UCON, 1, ACCESS
004646 D00E           07154     bra         flow_main_usb_service_45a2_45cc
004648 A082           07155     btfss       PORTC, 0, ACCESS
00464A D00C           07156     bra         flow_main_usb_service_45a2_45cc
gpasm-1.5.2 #1325 (Jan 30 2022) src/dlcp_fw/a   03/29/2026  18:21:48        PAGE 146


LOC    OBJECT CODE    LINE  SOURCE TEXT
  VALUE

00464C 0104           07157     movlb       0x4
00464E BF10           07158     btfsc       ram_0x010, 7, BANKED
004650 D009           07159     bra         flow_main_usb_service_45a2_45cc
004652 0101           07160     movlb       0x1
004654 0E01           07161     movlw       0x01
004656 6E04           07162     movwf       ram_0x004, ACCESS
004658 0E5A           07163     movlw       0x5A
00465A 6E03           07164     movwf       ram_0x003, ACCESS
00465C 0E40           07165     movlw       0x40
00465E 6E05           07166     movwf       ram_0x005, ACCESS
004660 EC1B F020      07167     call        main_core_service_3fd0, 0x0
004664                07168 flow_main_usb_service_45a2_45cc:
004664 0012           07169     return      0
                      07170 
                      07171 
                      07172 ; ---------------------------------------------------------------------------
                      07173 ; Function: main_core_service_45ce
                      07174 ; Address : 0x45CE
                      07175 ; Notes   : Inferred core helper routine. Calls: main_core_service_30d8.
                      07176 ; ---------------------------------------------------------------------------
004666                07177 main_core_service_45ce:
004666 CFE8 F011      07178     movff       WREG, ram_0x011
00466A 5011           07179     movf        ram_0x011, W, ACCESS
00466C 6E03           07180     movwf       ram_0x003, ACCESS
00466E 6A04           07181     clrf        ram_0x004, ACCESS
004670 6A05           07182     clrf        ram_0x005, ACCESS
004672 6A06           07183     clrf        ram_0x006, ACCESS
004674 0E96           07184     movlw       0x96
004676 6E07           07185     movwf       ram_0x007, ACCESS
004678 0E00           07186     movlw       0x00
00467A 6A08           07187     clrf        ram_0x008, ACCESS
00467C EC7D F018      07188     call        main_core_service_30d8, 0x0
004680 C003 F00D      07189     movff       ram_0x003, ram_0x00D
004684 C004 F00E      07190     movff       ram_0x004, ram_0x00E
004688 C005 F00F      07191     movff       ram_0x005, ram_0x00F
00468C C006 F010      07192     movff       ram_0x006, ram_0x010
004690 0012           07193     return      0
                      07194 
                      07195 ; ---------------------------------------------------------------------------
                      07196 ; Function: rx_ring_read
                      07197 ; Address : 0x45FA
                      07198 ; Notes   : Inferred core helper routine. Calls: rx_ring_has_data.
                      07199 ; ---------------------------------------------------------------------------
004692                07200 rx_ring_read:
004692 6A04           07201     clrf        ram_0x004, ACCESS
004694 EC86 F024      07202     call        rx_ring_has_data, 0x0
004698 0900           07203     iorlw       0x00
00469A E00E           07204     bz          flow_rx_ring_read_4620
00469C 0E00           07205     movlw       0x00
00469E 0100           07206     movlb       0x0
0046A0 25C6           07207     addwf       rx_ring_rd, W, BANKED
0046A2 6ED9           07208     movwf       FSR2L, ACCESS
0046A4 6ADA           07209     clrf        FSR2H, ACCESS
gpasm-1.5.2 #1325 (Jan 30 2022) src/dlcp_fw/a   03/29/2026  18:21:48        PAGE 147


LOC    OBJECT CODE    LINE  SOURCE TEXT
  VALUE

0046A6 0E02           07210     movlw       0x02
0046A8 22DA           07211     addwfc      FSR2H, F, ACCESS
0046AA 50DF           07212     movf        INDF2, W, ACCESS
0046AC 6E04           07213     movwf       ram_0x004, ACCESS
0046AE 2BC6           07214     incf        rx_ring_rd, F, BANKED
0046B0 0EBF           07215     movlw       0xBF
0046B2 65C6           07216     cpfsgt      rx_ring_rd, BANKED
0046B4 D001           07217     bra         flow_rx_ring_read_4620
Message[1302]: RAM Bank undefined in this chunk of code. Ensure that bank bits are correct. Assuming bank 0 from now on.
0046B6 6BC6           07218     clrf        rx_ring_rd, BANKED
0046B8                07219 flow_rx_ring_read_4620:
0046B8 5004           07220     movf        ram_0x004, W, ACCESS
0046BA 0012           07221     return      0
                      07222 
                      07223 
                      07224 ; ---------------------------------------------------------------------------
                      07225 ; Function: main_usb_service_4624
                      07226 ; Address : 0x4624
                      07227 ; Notes   : Inferred usb helper; touches usb.
                      07228 ; ---------------------------------------------------------------------------
0046BC                07229 main_usb_service_4624:
Message[1302]: RAM Bank undefined in this chunk of code. Ensure that bank bits are correct. Assuming bank 0 from now on.
0046BC 6BCA           07230     clrf        ram_0x0CA, BANKED
0046BE 0E1E           07231     movlw       0x1E
0046C0 6E71           07232     movwf       UEP1, ACCESS
0046C2 0E40           07233     movlw       0x40
0046C4 0104           07234     movlb       0x4
0046C6 6F0D           07235     movwf       ram_0x00D, BANKED
0046C8 0E04           07236     movlw       0x04
0046CA 6F0F           07237     movwf       ram_0x00F, BANKED
0046CC 0E2C           07238     movlw       0x2C
0046CE 6F0E           07239     movwf       ram_0x00E, BANKED
0046D0 0E08           07240     movlw       0x08
0046D2 6F0C           07241     movwf       ram_0x00C, BANKED
0046D4 8F0C           07242     bsf         ram_0x00C, 7, BANKED
0046D6 0E04           07243     movlw       0x04
0046D8 6F13           07244     movwf       ram_0x013, BANKED
0046DA 0E6C           07245     movlw       0x6C
0046DC 6F12           07246     movwf       ram_0x012, BANKED
0046DE 0E40           07247     movlw       0x40
0046E0 6F10           07248     movwf       ram_0x010, BANKED
0046E2 0C40           07249     retlw       0x40
                      07250 
                      07251 
                      07252 ; ---------------------------------------------------------------------------
                      07253 ; Function: main_i2c_service_464c
                      07254 ; Address : 0x464C
                      07255 ; Notes   : Inferred i2c helper; touches i2c.
                      07256 ; ---------------------------------------------------------------------------
0046E4                07257 main_i2c_service_464c:
0046E4 CFC6 F003      07258     movff       SSPCON1, ram_0x003
0046E8 0E0F           07259     movlw       0x0F
0046EA 1603           07260     andwf       ram_0x003, F, ACCESS
gpasm-1.5.2 #1325 (Jan 30 2022) src/dlcp_fw/a   03/29/2026  18:21:48        PAGE 148


LOC    OBJECT CODE    LINE  SOURCE TEXT
  VALUE

0046EC 5003           07261     movf        ram_0x003, W, ACCESS
0046EE 0A08           07262     xorlw       0x08
0046F0 E007           07263     bz          flow_main_i2c_service_464c_4668
0046F2 CFC6 F003      07264     movff       SSPCON1, ram_0x003
0046F6 0E0F           07265     movlw       0x0F
0046F8 1603           07266     andwf       ram_0x003, F, ACCESS
0046FA 5003           07267     movf        ram_0x003, W, ACCESS
0046FC 0A0B           07268     xorlw       0x0B
0046FE B4D8           07269     btfsc       STATUS, 2, ACCESS
004700                07270 flow_main_i2c_service_464c_4668:
004700 86C5           07271     bsf         SSPCON2, 3, ACCESS
004702                07272 flow_main_i2c_service_464c_466a:
004702 A0C7           07273     btfss       SSPSTAT, 0, ACCESS
004704 D7FE           07274     bra         flow_main_i2c_service_464c_466a
004706 50C9           07275     movf        SSPBUF, W, ACCESS
004708 0012           07276     return      0
                      07277 
                      07278 
                      07279 ; ---------------------------------------------------------------------------
                      07280 ; Function: main_core_service_4672
                      07281 ; Address : 0x4672
                      07282 ; Notes   : Inferred core helper routine. Calls: main_uart_service_44b2.
                      07283 ; ---------------------------------------------------------------------------
00470A                07284 main_core_service_4672:
00470A EE21 F0F4      07285     lfsr        FSR2, 0x01F4
00470E EE10 F01C      07286     lfsr        FSR1, 0x001C
004712 0E07           07287     movlw       0x07
004714                07288 flow_main_core_service_4672_467c:
004714 CFDE FFE6      07289     movff       POSTINC2, POSTINC1
004718 2EE8           07290     decfsz      WREG, F, ACCESS
00471A D7FC           07291     bra         flow_main_core_service_4672_467c
00471C 0E1C           07292     movlw       0x1C
00471E EC9A F022      07293     call        main_uart_service_44b2, 0x0
004722 0E1C           07294     movlw       0x1C
004724 EC9A F022      07295     call        main_uart_service_44b2, 0x0
004728 0E1C           07296     movlw       0x1C
00472A EF9A F022      07297     goto        main_uart_service_44b2
                      07298 
                      07299 
                      07300 ; ---------------------------------------------------------------------------
                      07301 ; Function: uart_tx_block_from_buffer
                      07302 ; Address : 0x4696
                      07303 ; Notes   : Transmits a buffered UART block one byte at a time.
                      07304 ; ---------------------------------------------------------------------------
00472E                07305 uart_tx_block_from_buffer:
00472E 6A1A           07306     clrf        ram_0x01A, ACCESS
004730 D004           07307     bra         flow_uart_tx_block_from_buffe_46a2
004732                07308 flow_uart_tx_block_from_buffe_469a:
004732 D807           07309     rcall       main_core_service_46aa
004734 EC98 F024      07310     call        uart_tx_byte_blocking, 0x0
004738 2A1A           07311     incf        ram_0x01A, F, ACCESS
00473A                07312 flow_uart_tx_block_from_buffe_46a2:
00473A D803           07313     rcall       main_core_service_46aa
gpasm-1.5.2 #1325 (Jan 30 2022) src/dlcp_fw/a   03/29/2026  18:21:48        PAGE 149


LOC    OBJECT CODE    LINE  SOURCE TEXT
  VALUE

00473C B4D8           07314     btfsc       STATUS, 2, ACCESS
00473E 0012           07315     return      0
004740 D7F8           07316     bra         flow_uart_tx_block_from_buffe_469a
                      07317 
                      07318 
                      07319 ; ---------------------------------------------------------------------------
                      07320 ; Function: main_core_service_46aa
                      07321 ; Address : 0x46AA
                      07322 ; Notes   : Inferred core helper routine.
                      07323 ; ---------------------------------------------------------------------------
004742                07324 main_core_service_46aa:
004742 501A           07325     movf        ram_0x01A, W, ACCESS
004744 2418           07326     addwf       ram_0x018, W, ACCESS
004746 6ED9           07327     movwf       FSR2L, ACCESS
004748 0E00           07328     movlw       0x00
00474A 2019           07329     addwfc      ram_0x019, W, ACCESS
00474C 6EDA           07330     movwf       FSR2H, ACCESS
00474E 50DF           07331     movf        INDF2, W, ACCESS
004750 0012           07332     return      0
                      07333 
                      07334 ; ---------------------------------------------------------------------------
                      07335 ; Function: i2c_secondary_dev_write (V3.1 enhanced)
                      07336 ; Notes   : Bounded SEN/PEN waits via wait helpers.
                      07337 ; ---------------------------------------------------------------------------
004752                07338 i2c_secondary_dev_write:
004752 CFE8 F007      07339     movff       WREG, ram_0x007
004756 80C5           07340     bsf         SSPCON2, 0, ACCESS          ; SEN = START
004758 EC3E F025      07341     call        wait_sen_bounded, 0x0
00475C E20C           07342     bc          i2c_secondary_done
00475E 0EE2           07343     movlw       0xE2
004760 EC5F F01F      07344     call        i2c_byte_tx, 0x0
004764 5007           07345     movf        ram_0x007, W, ACCESS
004766 EC5F F01F      07346     call        i2c_byte_tx, 0x0
00476A 5006           07347     movf        ram_0x006, W, ACCESS
00476C EC5F F01F      07348     call        i2c_byte_tx, 0x0
004770 84C5           07349     bsf         SSPCON2, 2, ACCESS          ; PEN = STOP
004772 EC48 F025      07350     call        wait_pen_bounded, 0x0
004776                07351 i2c_secondary_done:
004776 0012           07352     return      0
                      07353 
                      07354 
                      07355 ; ---------------------------------------------------------------------------
                      07356 ; Function: main_flash_service_46de
                      07357 ; Address : 0x46DE
                      07358 ; Notes   : Inferred flash helper routine. Calls: eeprom_read_byte, eeprom_write_blocking.
                      07359 ; ---------------------------------------------------------------------------
004778                07360 main_flash_service_46de:
004778 C007 F003      07361     movff       ram_0x007, ram_0x003
00477C C008 F004      07362     movff       ram_0x008, ram_0x004
004780 EC8F F024      07363     call        eeprom_read_byte, 0x0
004784 1809           07364     xorwf       ram_0x009, W, ACCESS
004786 E008           07365     bz          flow_main_flash_service_46de_46fe
004788 C007 F003      07366     movff       ram_0x007, ram_0x003
gpasm-1.5.2 #1325 (Jan 30 2022) src/dlcp_fw/a   03/29/2026  18:21:48        PAGE 150


LOC    OBJECT CODE    LINE  SOURCE TEXT
  VALUE

00478C C008 F004      07367     movff       ram_0x008, ram_0x004
004790 C009 F005      07368     movff       ram_0x009, ram_0x005
004794 EC2E F022      07369     call        eeprom_write_blocking, 0x0
004798                07370 flow_main_flash_service_46de_46fe:
004798 0012           07371     return      0
                      07372 
                      07373 
                      07374 ; ---------------------------------------------------------------------------
                      07375 ; Function: main_usb_service_4700
                      07376 ; Address : 0x4700
                      07377 ; Notes   : Inferred usb helper; touches usb. Calls: main_usb_service_4828, main_usb_service_40d6.
                      07378 ; ---------------------------------------------------------------------------
00479A                07379 main_usb_service_4700:
Message[1302]: RAM Bank undefined in this chunk of code. Ensure that bank bits are correct. Assuming bank 0 from now on.
00479A 0595           07380     decf        usb_reinit_pending, W, BANKED
00479C B4D8           07381     btfsc       STATUS, 2, ACCESS
00479E EC61 F024      07382     call        main_usb_service_4828, 0x0
0047A2 6A6D           07383     clrf        UCON, ACCESS
0047A4 0E15           07384     movlw       0x15
0047A6 6E6F           07385     movwf       UCFG, ACCESS
0047A8 6A69           07386     clrf        UIE, ACCESS
0047AA 866D           07387     bsf         UCON, 3, ACCESS
0047AC ECAB F020      07388     call        main_usb_service_40d6, 0x0
0047B0 0E01           07389     movlw       0x01
0047B2 0100           07390     movlb       0x0
0047B4 6FCD           07391     movwf       ram_0x0CD, BANKED
0047B6 6B95           07392     clrf        usb_reinit_pending, BANKED
0047B8 0012           07393     return      0
                      07394 
                      07395 
                      07396 ; ---------------------------------------------------------------------------
                      07397 ; Function: main_usb_service_4720
                      07398 ; Address : 0x4720
                      07399 ; Notes   : Inferred usb helper; touches timer,usb. Calls: main_core_service_496a.
                      07400 ; ---------------------------------------------------------------------------
0047BA                07401 main_usb_service_4720:
0047BA CF69 F092      07402     movff       UIE, ram_0x092
0047BE 0E04           07403     movlw       0x04
0047C0 6E69           07404     movwf       UIE, ACCESS
0047C2 9868           07405     bcf         UIR, 4, ACCESS
0047C4 826D           07406     bsf         UCON, 1, ACCESS
0047C6 9AA1           07407     bcf         PIR2, 5, ACCESS
0047C8 8AA0           07408     bsf         PIE2, 5, ACCESS
0047CA EC0E F025      07409     call        main_core_service_496a, 0x0
0047CE 9AA0           07410     bcf         PIE2, 5, ACCESS
0047D0 0100           07411     movlb       0x0
0047D2 5192           07412     movf        ram_0x092, W, BANKED
0047D4 1269           07413     iorwf       UIE, F, ACCESS
0047D6 0012           07414     return      0
                      07415 
                      07416 
                      07417 ; ---------------------------------------------------------------------------
                      07418 ; Function: ram_block_clear
gpasm-1.5.2 #1325 (Jan 30 2022) src/dlcp_fw/a   03/29/2026  18:21:48        PAGE 151


LOC    OBJECT CODE    LINE  SOURCE TEXT
  VALUE

                      07419 ; Address : 0x473E
                      07420 ; Notes   : Clears a RAM span from an FSR2 pointer and byte count.
                      07421 ; ---------------------------------------------------------------------------
0047D8                07422 ram_block_clear:
0047D8 6A06           07423     clrf        ram_0x006, ACCESS
0047DA D008           07424     bra         flow_ram_block_clear_4752
0047DC                07425 flow_ram_block_clear_4742:
0047DC 5006           07426     movf        ram_0x006, W, ACCESS
0047DE 2403           07427     addwf       ram_0x003, W, ACCESS
0047E0 6ED9           07428     movwf       FSR2L, ACCESS
0047E2 0E00           07429     movlw       0x00
0047E4 2004           07430     addwfc      ram_0x004, W, ACCESS
0047E6 6EDA           07431     movwf       FSR2H, ACCESS
0047E8 6ADF           07432     clrf        INDF2, ACCESS
0047EA 2A06           07433     incf        ram_0x006, F, ACCESS
0047EC                07434 flow_ram_block_clear_4752:
0047EC 5005           07435     movf        ram_0x005, W, ACCESS
0047EE 5C06           07436     subwf       ram_0x006, W, ACCESS
0047F0 B0D8           07437     btfsc       STATUS, 0, ACCESS
0047F2 0012           07438     return      0
0047F4 D7F3           07439     bra         flow_ram_block_clear_4742
                      07440 
                      07441 
                      07442 ; ---------------------------------------------------------------------------
                      07443 ; Function: main_usb_service_475c
                      07444 ; Address : 0x475C
                      07445 ; Notes   : Inferred usb helper; touches usb. Calls: main_usb_service_4700, usb_shutdown.
                      07446 ; ---------------------------------------------------------------------------
0047F6                07447 main_usb_service_475c:
0047F6 0100           07448     movlb       0x0
0047F8 0595           07449     decf        usb_reinit_pending, W, BANKED
0047FA E00B           07450     bz          flow_main_usb_service_475c_4778
0047FC A082           07451     btfss       PORTC, 0, ACCESS
0047FE D004           07452     bra         flow_main_usb_service_475c_476e
004800 A66D           07453     btfss       UCON, 3, ACCESS
004802 ECCD F023      07454     call        main_usb_service_4700, 0x0
004806 D005           07455     bra         flow_main_usb_service_475c_4778
004808                07456 flow_main_usb_service_475c_476e:
004808 A66D           07457     btfss       UCON, 3, ACCESS
00480A D003           07458     bra         flow_main_usb_service_475c_4778
00480C ECD1 F024      07459     call        usb_shutdown, 0x0
Message[1302]: RAM Bank undefined in this chunk of code. Ensure that bank bits are correct. Assuming bank 0 from now on.
004810 6B95           07460     clrf        usb_reinit_pending, BANKED
004812                07461 flow_main_usb_service_475c_4778:
004812 0012           07462     return      0
                      07463 
                      07464 
                      07465 ; ---------------------------------------------------------------------------
                      07466 ; Function: main_timer_service_477a
                      07467 ; Address : 0x477A
                      07468 ; Notes   : Inferred timer helper; touches timer.
                      07469 ; ---------------------------------------------------------------------------
004814                07470 main_timer_service_477a:
gpasm-1.5.2 #1325 (Jan 30 2022) src/dlcp_fw/a   03/29/2026  18:21:48        PAGE 152


LOC    OBJECT CODE    LINE  SOURCE TEXT
  VALUE

004814 0E98           07471     movlw       0x98
004816 6EB1           07472     movwf       T3CON, ACCESS
004818 0EF8           07473     movlw       0xF8
00481A 6EB3           07474     movwf       TMR3H, ACCESS
00481C 0E30           07475     movlw       0x30
00481E 6EB2           07476     movwf       TMR3L, ACCESS
004820 C003 F08C      07477     movff       ram_0x003, ram_0x08C
004824 C004 F08D      07478     movff       ram_0x004, ram_0x08D
004828 92A1           07479     bcf         PIR2, 1, ACCESS
00482A 80B1           07480     bsf         T3CON, 0, ACCESS
00482C 82A0           07481     bsf         PIE2, 1, ACCESS
00482E 0C30           07482     retlw       0x30
                      07483 
                      07484 ; ---------------------------------------------------------------------------
                      07485 ; Function: standby_event_dispatch
                      07486 ; Address : 0x4796
                      07487 ; Notes   : Inferred adc helper routine. Calls: adc_boot_gate, hw_standby_shutdown.
                      07488 ; ---------------------------------------------------------------------------
004830                07489 standby_event_dispatch:
004830 0100           07490     movlb       0x0
004832 A57E           07491     btfss       event_flags, 2, BANKED
004834 D008           07492     bra         flow_standby_event_dispatch_47ac
004836 A65E           07493     btfss       active_flags, 3, ACCESS
004838 D003           07494     bra         flow_standby_event_dispatch_47a6
00483A ECCA F016      07495     call        adc_boot_gate, 0x0
00483E D002           07496     bra         flow_standby_event_dispatch_47aa
004840                07497 flow_standby_event_dispatch_47a6:
004840 EC19 F01E      07498     call        hw_standby_shutdown, 0x0
004844                07499 flow_standby_event_dispatch_47aa:
Message[1302]: RAM Bank undefined in this chunk of code. Ensure that bank bits are correct. Assuming bank 0 from now on.
004844 957E           07500     bcf         event_flags, 2, BANKED
004846                07501 flow_standby_event_dispatch_47ac:
004846 0E01           07502     movlw       0x01
004848 EF77 F00C      07503     goto        cmd_dispatch_gated
                      07504 
                      07505 ; ---------------------------------------------------------------------------
                      07506 ; Function: mssp_hard_reset
                      07507 ; Address : 0x47B2
                      07508 ; Notes   : Inferred i2c helper; touches i2c.
                      07509 ; ---------------------------------------------------------------------------
00484C                07510 mssp_hard_reset:
00484C CFE8 F004      07511     movff       WREG, ram_0x004
004850 0E3F           07512     movlw       0x3F
004852 16C7           07513     andwf       SSPSTAT, F, ACCESS
004854 6AC6           07514     clrf        SSPCON1, ACCESS
004856 6AC5           07515     clrf        SSPCON2, ACCESS
004858 5004           07516     movf        ram_0x004, W, ACCESS
00485A 12C6           07517     iorwf       SSPCON1, F, ACCESS
00485C 5003           07518     movf        ram_0x003, W, ACCESS
00485E 12C7           07519     iorwf       SSPSTAT, F, ACCESS
004860 8293           07520     bsf         TRISB, 1, ACCESS
004862 8093           07521     bsf         TRISB, 0, ACCESS
004864 8AC6           07522     bsf         SSPCON1, 5, ACCESS
gpasm-1.5.2 #1325 (Jan 30 2022) src/dlcp_fw/a   03/29/2026  18:21:48        PAGE 153


LOC    OBJECT CODE    LINE  SOURCE TEXT
  VALUE

004866 0012           07523     return      0
                      07524 
                      07525 ; ---------------------------------------------------------------------------
                      07526 ; Function: periodic_service_loop
                      07527 ; Address : 0x47CE
                      07528 ; Notes   : Inferred core helper routine. Calls: main_usb_service_3a26, main_uart_service_1be6, main_i2c
                            _service_27f0.
                      07529 ; ---------------------------------------------------------------------------
004868                07530 periodic_service_loop:
004868 EC26 F01D      07531     call        main_usb_service_3a26, 0x0
00486C ECF3 F00D      07532     call        main_uart_service_1be6, 0x0
004870 ECFC F013      07533     call        main_i2c_service_27f0, 0x0
004874 EC18 F024      07534     call        standby_event_dispatch, 0x0
004878 EC32 F013      07535     call        main_core_service_265c, 0x0
00487C EFF7 F020      07536     goto        an0_hysteresis_monitor
                      07537 
                      07538 ; ---------------------------------------------------------------------------
                      07539 ; Inline Data Table (0x47E6-0x47FB)
                      07540 ; ---------------------------------------------------------------------------
004880                07541 inline_data_table_47E6:  ; UART status strings for FW update
004880 202D 4146 4C49 07542     dw  0x202D, 0x4146, 0x4C49, 0x0020, 0x5746, 0x555F, 0x6470, 0x3000
       0020 5746 555F 
       6470 3000      
004890 3030 3030 0030 07543     dw  0x3030, 0x3030, 0x0030
                      07544 
                      07545 ; ---------------------------------------------------------------------------
                      07546 ; Remaining Code (0x47FC-0x496F)
                      07547 ; ---------------------------------------------------------------------------
                      07548 
                      07549 ; ---------------------------------------------------------------------------
                      07550 ; Function: report_cmd29_status
                      07551 ; Address : 0x47FC
                      07552 ; Notes   : Inferred uart helper routine. Calls: uart_tx_byte_blocking.
                      07553 ; ---------------------------------------------------------------------------
004896                07554 report_cmd29_status:
004896 0EBF           07555     movlw       0xBF
004898 EC98 F024      07556     call        uart_tx_byte_blocking, 0x0
00489C 0E29           07557     movlw       0x29
00489E EC98 F024      07558     call        uart_tx_byte_blocking, 0x0
0048A2 0E01           07559     movlw       0x01
0048A4 A25E           07560     btfss       active_flags, 1, ACCESS
0048A6 0E00           07561     movlw       0x00
0048A8 EF98 F024      07562     goto        uart_tx_byte_blocking
                      07563 
                      07564 
                      07565 ; ---------------------------------------------------------------------------
                      07566 ; Function: main_usb_service_4812
                      07567 ; Address : 0x4812
                      07568 ; Notes   : Inferred usb helper routine. Calls: usb_disconnect_handler.
                      07569 ; ---------------------------------------------------------------------------
0048AC                07570 main_usb_service_4812:
0048AC D005           07571     bra         flow_main_usb_service_4812_481e
0048AE                07572 flow_main_usb_service_4812_4814:
gpasm-1.5.2 #1325 (Jan 30 2022) src/dlcp_fw/a   03/29/2026  18:21:48        PAGE 154


LOC    OBJECT CODE    LINE  SOURCE TEXT
  VALUE

0048AE EC0A F025      07573     call        usb_disconnect_handler, 0x0
0048B2 0603           07574     decf        ram_0x003, F, ACCESS
0048B4 A0D8           07575     btfss       STATUS, 0, ACCESS
0048B6 0604           07576     decf        ram_0x004, F, ACCESS
0048B8                07577 flow_main_usb_service_4812_481e:
0048B8 5004           07578     movf        ram_0x004, W, ACCESS
0048BA 1003           07579     iorwf       ram_0x003, W, ACCESS
0048BC B4D8           07580     btfsc       STATUS, 2, ACCESS
0048BE 0012           07581     return      0
0048C0 D7F6           07582     bra         flow_main_usb_service_4812_4814
                      07583 
                      07584 
                      07585 ; ---------------------------------------------------------------------------
                      07586 ; Function: main_usb_service_4828
                      07587 ; Address : 0x4828
                      07588 ; Notes   : Inferred usb helper; touches usb. Calls: main_usb_service_4812.
                      07589 ; ---------------------------------------------------------------------------
0048C2                07590 main_usb_service_4828:
0048C2 926D           07591     bcf         UCON, 1, ACCESS
0048C4 6A6D           07592     clrf        UCON, ACCESS
0048C6 0EFF           07593     movlw       0xFF
0048C8 6804           07594     setf        ram_0x004, ACCESS
0048CA 6803           07595     setf        ram_0x003, ACCESS
0048CC EC56 F024      07596     call        main_usb_service_4812, 0x0
0048D0 0100           07597     movlb       0x0
0048D2 6BCD           07598     clrf        ram_0x0CD, BANKED
0048D4 0012           07599     return      0
                      07600 
                      07601 
                      07602 ; ---------------------------------------------------------------------------
                      07603 ; Function: main_usb_service_483c
                      07604 ; Address : 0x483C
                      07605 ; Notes   : Inferred usb helper; touches usb. Calls: main_core_service_4924.
                      07606 ; ---------------------------------------------------------------------------
0048D6                07607 main_usb_service_483c:
0048D6 ECEB F024      07608     call        main_core_service_4924, 0x0
0048DA 926D           07609     bcf         UCON, 1, ACCESS
0048DC 9469           07610     bcf         UIE, 2, ACCESS
0048DE D001           07611     bra         flow_main_usb_service_483c_4848
0048E0                07612 flow_main_usb_service_483c_4846:
0048E0 9468           07613     bcf         UIR, 2, ACCESS
0048E2                07614 flow_main_usb_service_483c_4848:
0048E2 A468           07615     btfss       UIR, 2, ACCESS
0048E4 0012           07616     return      0
0048E6 D7FC           07617     bra         flow_main_usb_service_483c_4846
                      07618 
                      07619 
                      07620 ; ---------------------------------------------------------------------------
                      07621 ; Function: factory_reset_status_emit
                      07622 ; Address : 0x484E
                      07623 ; Notes   : Emits BF/18/01 factory-reset status frame over UART.
                      07624 ; ---------------------------------------------------------------------------
0048E8                07625 factory_reset_status_emit:
gpasm-1.5.2 #1325 (Jan 30 2022) src/dlcp_fw/a   03/29/2026  18:21:48        PAGE 155


LOC    OBJECT CODE    LINE  SOURCE TEXT
  VALUE

0048E8 0EBF           07626     movlw       0xBF
0048EA EC98 F024      07627     call        uart_tx_byte_blocking, 0x0
0048EE 0E18           07628     movlw       0x18
0048F0 EC98 F024      07629     call        uart_tx_byte_blocking, 0x0
0048F4 0E01           07630     movlw       0x01
0048F6 EF98 F024      07631     goto        uart_tx_byte_blocking
                      07632 
                      07633 
                      07634 ; ---------------------------------------------------------------------------
                      07635 ; Function: main_uart_service_4860
                      07636 ; Address : 0x4860
                      07637 ; Notes   : Inferred uart helper routine. Calls: rx_ring_read, rx_ring_has_data.
                      07638 ; ---------------------------------------------------------------------------
0048FA                07639 main_uart_service_4860:
0048FA D002           07640     bra         flow_main_uart_service_4860_4866
0048FC                07641 flow_main_uart_service_4860_4862:
0048FC EC49 F023      07642     call        rx_ring_read, 0x0
004900                07643 flow_main_uart_service_4860_4866:
004900 EC86 F024      07644     call        rx_ring_has_data, 0x0
004904 0900           07645     iorlw       0x00
004906 B4D8           07646     btfsc       STATUS, 2, ACCESS
004908 0012           07647     return      0
00490A D7F8           07648     bra         flow_main_uart_service_4860_4862
                      07649 
                      07650 
                      07651 ; ---------------------------------------------------------------------------
                      07652 ; Function: rx_ring_has_data
                      07653 ; Address : 0x4872
                      07654 ; Notes   : Checks whether RX ring has unread data (write index != read index).
                      07655 ; ---------------------------------------------------------------------------
00490C                07656 rx_ring_has_data:
00490C 0100           07657     movlb       0x0
00490E 51C7           07658     movf        rx_ring_wr, W, BANKED
004910 6AF3           07659     clrf        PRODL, ACCESS
004912 63C6           07660     cpfseq      rx_ring_rd, BANKED
004914 2AF3           07661     incf        PRODL, F, ACCESS
004916 CFF3 F003      07662     movff       PRODL, ram_0x003
00491A 5003           07663     movf        ram_0x003, W, ACCESS
00491C 0012           07664     return      0
                      07665 
                      07666 
                      07667 ; ---------------------------------------------------------------------------
                      07668 ; Function: eeprom_read_byte
                      07669 ; Address : 0x4884
                      07670 ; Notes   : Reads one byte from EEPROM via EEADR/EECON1.RD.
                      07671 ; ---------------------------------------------------------------------------
00491E                07672 eeprom_read_byte:
00491E C003 FFA9      07673     movff       ram_0x003, EEADR
004922 9CA6           07674     bcf         EECON1, 6, ACCESS
004924 9EA6           07675     bcf         EECON1, 7, ACCESS
004926 80A6           07676     bsf         EECON1, 0, ACCESS
004928 F000           07677     dw          0xF000
00492A F000           07678     dw          0xF000
gpasm-1.5.2 #1325 (Jan 30 2022) src/dlcp_fw/a   03/29/2026  18:21:48        PAGE 156


LOC    OBJECT CODE    LINE  SOURCE TEXT
  VALUE

00492C 50A8           07679     movf        EEDATA, W, ACCESS
00492E 0012           07680     return      0
                      07681 
                      07682 ; ---------------------------------------------------------------------------
                      07683 ; Function: uart_tx_byte_blocking (V3.1 enhanced)
                      07684 ; Notes   : Bounded TRMT wait, two-strike recovery.
                      07685 ; ---------------------------------------------------------------------------
004930                07686 uart_tx_byte_blocking:
004930 CFE8 F003      07687     movff       WREG, ram_0x003
004934 EC27 F025      07688     call        wait_trmt_bounded, 0x0
004938 E204           07689     bc          uart_tx_timeout
00493A C003 FFAD      07690     movff       ram_0x003, TXREG
00493E 5003           07691     movf        ram_0x003, W, ACCESS
004940 0012           07692     return      0
004942                07693 uart_tx_timeout:
004942 EC72 F025      07694     call        recover_uart, 0x0
004946 EC27 F025      07695     call        wait_trmt_bounded, 0x0
00494A E204           07696     bc          v31_hard_reset_jump2
00494C C003 FFAD      07697     movff       ram_0x003, TXREG
004950 5003           07698     movf        ram_0x003, W, ACCESS
004952 0012           07699     return      0
004954                07700 v31_hard_reset_jump2:
004954 EFC3 F024      07701     goto        hard_reset
                      07702 
                      07703 
                      07704 ; ---------------------------------------------------------------------------
                      07705 ; Function: main_timer_service_48a6
                      07706 ; Address : 0x48A6
                      07707 ; Notes   : Inferred timer helper; touches timer.
                      07708 ; ---------------------------------------------------------------------------
004958                07709 main_timer_service_48a6:
004958 0EA4           07710     movlw       0xA4
00495A 6ED7           07711     movwf       TMR0H, ACCESS
00495C 0E71           07712     movlw       0x71
00495E 6ED6           07713     movwf       TMR0L, ACCESS
004960 94F2           07714     bcf         INTCON, 2, ACCESS
004962 8AF2           07715     bsf         INTCON, 5, ACCESS
004964 8ED5           07716     bsf         T0CON, 7, ACCESS
004966 0C71           07717     retlw       0x71
                      07718 
                      07719 ; ---------------------------------------------------------------------------
                      07720 ; Function: i2c_wait_bus_idle (stock — unbounded spin)
                      07721 ; Notes   : Stock idle wait. Blocks until SSPCON2[4:0]==0 && R_nW==0.
                      07722 ;           Callers of coeff_write/reg1f_write have separate bus-busy guards.
                      07723 ; ---------------------------------------------------------------------------
004968                07724 i2c_wait_bus_idle:
004968 CFC5 F003      07725     movff       SSPCON2, ram_0x003
00496C 0E1F           07726     movlw       0x1F
00496E 1603           07727     andwf       ram_0x003, F, ACCESS
004970 B4D8           07728     btfsc       STATUS, 2, ACCESS
004972 B4C7           07729     btfsc       SSPSTAT, 2, ACCESS
004974 D7F9           07730     bra         i2c_wait_bus_idle
004976 0C1F           07731     retlw       0x1F
gpasm-1.5.2 #1325 (Jan 30 2022) src/dlcp_fw/a   03/29/2026  18:21:48        PAGE 157


LOC    OBJECT CODE    LINE  SOURCE TEXT
  VALUE

004978                07732 flow_i2c_wait_bus_idle_48c6:
004978 ECBF F01A      07733     call        main_i2c_service_355c, 0x0
00497C                07734 main_processing_loop:
00497C ECB8 F017      07735     call        main_usb_service_2f4e, 0x0
004980 EC34 F024      07736     call        periodic_service_loop, 0x0
004984 D7FB           07737     bra         main_processing_loop
                      07738 
                      07739 ; ---------------------------------------------------------------------------
                      07740 ; Function: hard_reset
                      07741 ; Address : 0x48D4
                      07742 ; Notes   : Inferred core helper routine.
                      07743 ; ---------------------------------------------------------------------------
004986                07744 hard_reset:
004986 6AF2           07745     clrf        INTCON, ACCESS
004988 F000           07746     dw          0xF000
00498A F000           07747     dw          0xF000
00498C 00FF           07748     reset
00498E F000           07749     dw          0xF000
004990 F000           07750     dw          0xF000
004992 0012           07751     return      0
                      07752 
                      07753 
                      07754 ; ---------------------------------------------------------------------------
                      07755 ; Function: main_i2c_service_48e2
                      07756 ; Address : 0x48E2
                      07757 ; Notes   : Inferred i2c helper routine. Calls: i2c_tas3108_reg1f_write.
                      07758 ; ---------------------------------------------------------------------------
004994                07759 main_i2c_service_48e2:
004994 0E02           07760     movlw       0x02
004996 ECF4 F021      07761     call        i2c_tas3108_reg1f_write, 0x0
00499A 9689           07762     bcf         LATA, 3, ACCESS
00499C 9889           07763     bcf         LATA, 4, ACCESS
00499E 9A89           07764     bcf         LATA, 5, ACCESS
0049A0 0012           07765     return      0
                      07766 
                      07767 ; ---------------------------------------------------------------------------
                      07768 ; Function: usb_shutdown
                      07769 ; Address : 0x48F0
                      07770 ; Notes   : Inferred usb helper; touches usb.
                      07771 ; ---------------------------------------------------------------------------
0049A2                07772 usb_shutdown:
0049A2 926D           07773     bcf         UCON, 1, ACCESS
0049A4 6A6D           07774     clrf        UCON, ACCESS
0049A6 0100           07775     movlb       0x0
0049A8 6BCD           07776     clrf        ram_0x0CD, BANKED
0049AA 0E01           07777     movlw       0x01
0049AC 6F95           07778     movwf       usb_reinit_pending, BANKED
0049AE 0C01           07779     retlw       0x01
                      07780 
                      07781 
                      07782 ; ---------------------------------------------------------------------------
                      07783 ; Function: main_core_service_48fe
                      07784 ; Address : 0x48FE
gpasm-1.5.2 #1325 (Jan 30 2022) src/dlcp_fw/a   03/29/2026  18:21:48        PAGE 158


LOC    OBJECT CODE    LINE  SOURCE TEXT
  VALUE

                      07785 ; Notes   : Inferred core helper routine. Calls: main_usb_service_4624.
                      07786 ; ---------------------------------------------------------------------------
0049B0                07787 main_core_service_48fe:
0049B0 CFE8 F003      07788     movff       WREG, ram_0x003
0049B4 0403           07789     decf        ram_0x003, W, ACCESS
0049B6 B4D8           07790     btfsc       STATUS, 2, ACCESS
0049B8 EC5E F023      07791     call        main_usb_service_4624, 0x0
0049BC 0012           07792     return      0
                      07793 
                      07794 
                      07795 ; ---------------------------------------------------------------------------
                      07796 ; Function: main_usb_service_490c
                      07797 ; Address : 0x490C
                      07798 ; Notes   : Inferred usb helper; touches timer,usb. Calls: main_usb_service_4828.
                      07799 ; ---------------------------------------------------------------------------
0049BE                07800 main_usb_service_490c:
0049BE A0B1           07801     btfss       T3CON, 0, ACCESS
0049C0 D002           07802     bra         flow_main_usb_service_490c_4914
0049C2 90D8           07803     bcf         STATUS, 0, ACCESS
0049C4 D001           07804     bra         flow_main_usb_service_490c_4916
0049C6                07805 flow_main_usb_service_490c_4914:
0049C6 80D8           07806     bsf         STATUS, 0, ACCESS
0049C8                07807 flow_main_usb_service_490c_4916:
0049C8 0012           07808     return      0
0049CA                07809 flow_main_usb_service_490c_4918:
0049CA B66D           07810     btfsc       UCON, 3, ACCESS
0049CC EC61 F024      07811     call        main_usb_service_4828, 0x0
Message[1302]: RAM Bank undefined in this chunk of code. Ensure that bank bits are correct. Assuming bank 0 from now on.
0049D0 6B95           07812     clrf        usb_reinit_pending, BANKED
0049D2 EFFB F023      07813     goto        main_usb_service_475c
                      07814 
                      07815 
                      07816 ; ---------------------------------------------------------------------------
                      07817 ; Function: main_core_service_4924
                      07818 ; Address : 0x4924
                      07819 ; Notes   : Inferred core helper routine.
                      07820 ; ---------------------------------------------------------------------------
0049D6                07821 main_core_service_4924:
0049D6 0E03           07822     movlw       0x03
0049D8 6E04           07823     movwf       ram_0x004, ACCESS
0049DA 6A03           07824     clrf        ram_0x003, ACCESS
0049DC EF5C F024      07825     goto        flow_main_usb_service_4812_481e
                      07826 
                      07827 
                      07828 ; ---------------------------------------------------------------------------
                      07829 ; Function: main_core_service_492e
                      07830 ; Address : 0x492E
                      07831 ; Notes   : Inferred core helper routine.
                      07832 ; ---------------------------------------------------------------------------
0049E0                07833 main_core_service_492e:
0049E0 6A04           07834     clrf        ram_0x004, ACCESS
0049E2 0E01           07835     movlw       0x01
0049E4 6E03           07836     movwf       ram_0x003, ACCESS
gpasm-1.5.2 #1325 (Jan 30 2022) src/dlcp_fw/a   03/29/2026  18:21:48        PAGE 159


LOC    OBJECT CODE    LINE  SOURCE TEXT
  VALUE

0049E6 EF80 F022      07837     goto        timer3_blocking_delay
                      07838 
                      07839 
                      07840 ; ---------------------------------------------------------------------------
                      07841 ; Function: main_uart_service_4938
                      07842 ; Address : 0x4938
                      07843 ; Notes   : Inferred uart helper routine. Calls: uart_config.
                      07844 ; ---------------------------------------------------------------------------
0049EA                07845 main_uart_service_4938:
0049EA ECEF F022      07846     call        uart_config, 0x0
0049EE 905E           07847     bcf         active_flags, 0, ACCESS
Message[1302]: RAM Bank undefined in this chunk of code. Ensure that bank bits are correct. Assuming bank 0 from now on.
0049F0 6B98           07848     clrf        rx_frame_position, BANKED
0049F2 0012           07849     return      0
                      07850 
                      07851 
                      07852 ; ---------------------------------------------------------------------------
                      07853 ; Function: main_core_service_4942
                      07854 ; Address : 0x4942
                      07855 ; Notes   : Inferred core helper routine.
                      07856 ; ---------------------------------------------------------------------------
0049F4                07857 main_core_service_4942:
0049F4 6A04           07858     clrf        ram_0x004, ACCESS
0049F6 0E02           07859     movlw       0x02
0049F8 6E03           07860     movwf       ram_0x003, ACCESS
0049FA EF80 F022      07861     goto        timer3_blocking_delay
                      07862 
                      07863 
                      07864 ; ---------------------------------------------------------------------------
                      07865 ; Function: main_timer_service_494c
                      07866 ; Address : 0x494C
                      07867 ; Notes   : Inferred timer helper; touches timer.
                      07868 ; ---------------------------------------------------------------------------
0049FE                07869 main_timer_service_494c:
0049FE 90B1           07870     bcf         T3CON, 0, ACCESS
004A00 92A1           07871     bcf         PIR2, 1, ACCESS
004A02 92A0           07872     bcf         PIE2, 1, ACCESS
004A04 0012           07873     return      0
                      07874 
                      07875 
                      07876 ; ---------------------------------------------------------------------------
                      07877 ; Function: main_core_service_4954
                      07878 ; Address : 0x4954
                      07879 ; Notes   : Inferred core helper routine.
                      07880 ; ---------------------------------------------------------------------------
004A06                07881 main_core_service_4954:
004A06 0E01           07882     movlw       0x01
004A08 EFF4 F021      07883     goto        i2c_tas3108_reg1f_write
                      07884 
                      07885 
                      07886 ; ---------------------------------------------------------------------------
                      07887 ; Function: main_core_service_495a
                      07888 ; Address : 0x495A
gpasm-1.5.2 #1325 (Jan 30 2022) src/dlcp_fw/a   03/29/2026  18:21:48        PAGE 160


LOC    OBJECT CODE    LINE  SOURCE TEXT
  VALUE

                      07889 ; Notes   : Inferred core helper routine.
                      07890 ; ---------------------------------------------------------------------------
004A0C                07891 main_core_service_495a:
004A0C EFDB F018      07892     goto        flow_main_core_service_3188_3194
                      07893 
                      07894 
                      07895 ; ---------------------------------------------------------------------------
                      07896 ; Function: main_uart_service_495e
                      07897 ; Address : 0x495E
                      07898 ; Notes   : Inferred uart helper; touches uart.
                      07899 ; ---------------------------------------------------------------------------
004A10                07900 main_uart_service_495e:
004A10 88AB           07901     bsf         RCSTA, 4, ACCESS
004A12 0012           07902     return      0
                      07903 
                      07904 ; ---------------------------------------------------------------------------
                      07905 ; Function: usb_disconnect_handler
                      07906 ; Address : 0x4962
                      07907 ; Notes   : Inferred core helper routine.
                      07908 ; ---------------------------------------------------------------------------
004A14                07909 usb_disconnect_handler:
004A14 0004           07910     clrwdt
004A16 0012           07911     return      0
                      07912 
                      07913 
                      07914 ; ---------------------------------------------------------------------------
                      07915 ; Function: main_i2c_service_4966
                      07916 ; Address : 0x4966
                      07917 ; Notes   : Inferred i2c helper; touches i2c.
                      07918 ; ---------------------------------------------------------------------------
004A18                07919 main_i2c_service_4966:
004A18 9AC6           07920     bcf         SSPCON1, 5, ACCESS
004A1A 0012           07921     return      0
                      07922 
                      07923 
                      07924 ; ---------------------------------------------------------------------------
                      07925 ; Function: main_core_service_496a
                      07926 ; Address : 0x496A
                      07927 ; Notes   : Inferred core helper routine.
                      07928 ; ---------------------------------------------------------------------------
004A1C                07929 main_core_service_496a:
004A1C 0012           07930     return      0
                      07931 
                      07932 
                      07933 ; ---------------------------------------------------------------------------
                      07934 ; Function: main_core_service_496c
                      07935 ; Address : 0x496C
                      07936 ; Notes   : Inferred core helper routine.
                      07937 ; ---------------------------------------------------------------------------
004A1E                07938 main_core_service_496c:
004A1E 0012           07939     return      0
                      07940 
                      07941 
gpasm-1.5.2 #1325 (Jan 30 2022) src/dlcp_fw/a   03/29/2026  18:21:48        PAGE 161


LOC    OBJECT CODE    LINE  SOURCE TEXT
  VALUE

                      07942 ; ---------------------------------------------------------------------------
                      07943 ; Function: main_core_service_496e
                      07944 ; Address : 0x496E
                      07945 ; Notes   : Inferred core helper routine.
                      07946 ; ---------------------------------------------------------------------------
004A20                07947 main_core_service_496e:
004A20 0012           07948     return      0
                      07949 
                      07950 
                      07951 ; ===========================================================================
                      07952 ; V3.1 New Functions (after last stock function, before preset tables)
                      07953 ; ===========================================================================
                      07954 
                      07955 ; ---------------------------------------------------------------------------
                      07956 ; Bounded Wait Helpers (shared 16-bit timeout infrastructure)
                      07957 ; ---------------------------------------------------------------------------
004A22                07958 wait_seed:
004A22 6A0B           07959     clrf        timeout_lo, ACCESS
004A24 0E10           07960     movlw       0x10
004A26 6E0C           07961     movwf       timeout_hi, ACCESS
004A28 90D8           07962     bcf         STATUS, 0, ACCESS           ; clear C
004A2A 0012           07963     return      0
                      07964 
004A2C                07965 wait_tick:
004A2C 2E0B           07966     decfsz      timeout_lo, F, ACCESS
004A2E 0012           07967     return      0
004A30 2E0C           07968     decfsz      timeout_hi, F, ACCESS
004A32 0012           07969     return      0
004A34 80D8           07970     bsf         STATUS, 0, ACCESS           ; C=1: timeout
004A36 0012           07971     return      0
                      07972 
004A38                07973 wait_sspif_bounded:
004A38 EC11 F025      07974     call        wait_seed, 0x0
004A3C                07975 wait_sspif_loop:
004A3C B69E           07976     btfsc       PIR1, 3, ACCESS             ; SSPIF?
004A3E D004           07977     bra         wait_sspif_done
004A40 EC16 F025      07978     call        wait_tick, 0x0
004A44 E3FB           07979     bnc         wait_sspif_loop
004A46 0012           07980     return      0                           ; C=1: timed out
004A48                07981 wait_sspif_done:
004A48 969E           07982     bcf         PIR1, 3, ACCESS             ; clear SSPIF
004A4A 90D8           07983     bcf         STATUS, 0, ACCESS           ; C=0: success
004A4C 0012           07984     return      0
                      07985 
004A4E                07986 wait_trmt_bounded:
004A4E EC11 F025      07987     call        wait_seed, 0x0
004A52                07988 wait_trmt_loop:
004A52 B2AC           07989     btfsc       TXSTA, 1, ACCESS            ; TRMT?
004A54 D004           07990     bra         wait_trmt_done
004A56 EC16 F025      07991     call        wait_tick, 0x0
004A5A E3FB           07992     bnc         wait_trmt_loop
004A5C 0012           07993     return      0
004A5E                07994 wait_trmt_done:
gpasm-1.5.2 #1325 (Jan 30 2022) src/dlcp_fw/a   03/29/2026  18:21:48        PAGE 162


LOC    OBJECT CODE    LINE  SOURCE TEXT
  VALUE

004A5E 90D8           07995     bcf         STATUS, 0, ACCESS
004A60 0012           07996     return      0
                      07997 
004A62                07998 wait_mssp_idle_bounded:
004A62 EC11 F025      07999     call        wait_seed, 0x0
004A66                08000 wait_mssp_idle_loop:
004A66 50C5           08001     movf        SSPCON2, W, ACCESS
004A68 0B1F           08002     andlw       0x1F
004A6A E104           08003     bnz         wait_mssp_idle_tick
004A6C B4C7           08004     btfsc       SSPSTAT, 2, ACCESS          ; R_NOT_W
004A6E D002           08005     bra         wait_mssp_idle_tick
004A70 90D8           08006     bcf         STATUS, 0, ACCESS
004A72 0012           08007     return      0
004A74                08008 wait_mssp_idle_tick:
004A74 EC16 F025      08009     call        wait_tick, 0x0
004A78 E3F6           08010     bnc         wait_mssp_idle_loop
004A7A 0012           08011     return      0
                      08012 
004A7C                08013 wait_sen_bounded:
004A7C EC11 F025      08014     call        wait_seed, 0x0
004A80                08015 wait_sen_loop:
004A80 A0C5           08016     btfss       SSPCON2, 0, ACCESS          ; SEN clear?
004A82 D004           08017     bra         wait_sen_done
004A84 EC16 F025      08018     call        wait_tick, 0x0
004A88 E3FB           08019     bnc         wait_sen_loop
004A8A 0012           08020     return      0
004A8C                08021 wait_sen_done:
004A8C 90D8           08022     bcf         STATUS, 0, ACCESS
004A8E 0012           08023     return      0
                      08024 
004A90                08025 wait_pen_bounded:
004A90 EC11 F025      08026     call        wait_seed, 0x0
004A94                08027 wait_pen_loop:
004A94 A4C5           08028     btfss       SSPCON2, 2, ACCESS          ; PEN clear?
004A96 D004           08029     bra         wait_pen_done
004A98 EC16 F025      08030     call        wait_tick, 0x0
004A9C E3FB           08031     bnc         wait_pen_loop
004A9E 0012           08032     return      0
004AA0                08033 wait_pen_done:
004AA0 90D8           08034     bcf         STATUS, 0, ACCESS
004AA2 0012           08035     return      0
                      08036 
                      08037 ; Extended PEN wait — larger timeout (~150k cycles) for post-boot PEN recovery.
                      08038 ; Uses standard seed but loops the entire bounded wait multiple times.
004AA4                08039 wait_pen_extended:
004AA4 0E20           08040     movlw       0x20                        ; outer loop: 32 repetitions
004AA6 6E0D           08041     movwf       ram_0x00D, ACCESS
004AA8                08042 wait_pen_ext_outer:
004AA8 EC11 F025      08043     call        wait_seed, 0x0
004AAC                08044 wait_pen_ext_inner:
004AAC A4C5           08045     btfss       SSPCON2, 2, ACCESS          ; PEN clear?
004AAE D007           08046     bra         wait_pen_ext_done
004AB0 EC16 F025      08047     call        wait_tick, 0x0
gpasm-1.5.2 #1325 (Jan 30 2022) src/dlcp_fw/a   03/29/2026  18:21:48        PAGE 163


LOC    OBJECT CODE    LINE  SOURCE TEXT
  VALUE

004AB4 E3FB           08048     bnc         wait_pen_ext_inner
004AB6 2E0D           08049     decfsz      ram_0x00D, F, ACCESS
004AB8 D7F7           08050     bra         wait_pen_ext_outer
004ABA 80D8           08051     bsf         STATUS, 0, ACCESS           ; C=1: timeout
004ABC 0012           08052     return      0
004ABE                08053 wait_pen_ext_done:
004ABE 90D8           08054     bcf         STATUS, 0, ACCESS           ; C=0: success
004AC0 0012           08055     return      0
                      08056 
004AC2                08057 wait_bf_clear_bounded:
004AC2 EC11 F025      08058     call        wait_seed, 0x0
004AC6                08059 wait_bf_clear_loop:
004AC6 A0C7           08060     btfss       SSPSTAT, 0, ACCESS          ; BF set?
004AC8 D004           08061     bra         wait_bf_clear_done          ; BF=0: buffer empty, done
004ACA EC16 F025      08062     call        wait_tick, 0x0
004ACE E3FB           08063     bnc         wait_bf_clear_loop
004AD0 0012           08064     return      0                           ; C=1: timed out
004AD2                08065 wait_bf_clear_done:
004AD2 90D8           08066     bcf         STATUS, 0, ACCESS
004AD4 0012           08067     return      0
                      08068 
                      08069 ; ---------------------------------------------------------------------------
                      08070 ; Recovery Helpers
                      08071 ; ---------------------------------------------------------------------------
004AD6                08072 recover_mssp:
004AD6 0E80           08073     movlw       0x80
004AD8 6EC6           08074     movwf       SSPCON1, ACCESS             ; pre-clear MSSP (V2.7 pattern)
004ADA 6E03           08075     movwf       ram_0x003, ACCESS           ; SSPSTAT restore value (SMP=1)
004ADC 0E28           08076     movlw       0x28                        ; SSPCON1 value (I2C master + SSPEN)
004ADE EC26 F024      08077     call        mssp_hard_reset, 0x0
004AE2 0012           08078     return      0
                      08079 
004AE4                08080 recover_uart:
004AE4 ECEF F022      08081     call        uart_config, 0x0
004AE8 0012           08082     return      0
                      08083 
                      08084 ; ---------------------------------------------------------------------------
                      08085 ; I2C Bus Clear (Fix C) — 9 SCL clocks + manual STOP
                      08086 ; ---------------------------------------------------------------------------
004AEA                08087 i2c_bus_clear:
004AEA 9AC6           08088     bcf         SSPCON1, 5, ACCESS          ; SSPEN off — release pins
004AEC 8293           08089     bsf         TRISB, 1, ACCESS            ; RB1 (SCL) input (pulled high)
004AEE 8093           08090     bsf         TRISB, 0, ACCESS            ; RB0 (SDA) input (pulled high)
004AF0 0E09           08091     movlw       0x09
004AF2 6E0B           08092     movwf       timeout_lo, ACCESS
004AF4                08093 i2c_bus_clear_clk:
004AF4 9293           08094     bcf         TRISB, 1, ACCESS            ; SCL low
004AF6 928A           08095     bcf         LATB, 1, ACCESS
004AF8 0000           08096     nop
004AFA 0000           08097     nop
004AFC 8293           08098     bsf         TRISB, 1, ACCESS            ; SCL high
004AFE 0000           08099     nop
004B00 0000           08100     nop
gpasm-1.5.2 #1325 (Jan 30 2022) src/dlcp_fw/a   03/29/2026  18:21:48        PAGE 164


LOC    OBJECT CODE    LINE  SOURCE TEXT
  VALUE

004B02 B081           08101     btfsc       PORTB, 0, ACCESS            ; SDA released?
004B04 D002           08102     bra         i2c_bus_clear_stop
004B06 2E0B           08103     decfsz      timeout_lo, F, ACCESS
004B08 D7F5           08104     bra         i2c_bus_clear_clk
004B0A                08105 i2c_bus_clear_stop:
004B0A 9093           08106     bcf         TRISB, 0, ACCESS            ; SDA output
004B0C 908A           08107     bcf         LATB, 0, ACCESS             ; SDA low
004B0E 0000           08108     nop
004B10 8293           08109     bsf         TRISB, 1, ACCESS            ; SCL high
004B12 0000           08110     nop
004B14 0000           08111     nop
004B16 8093           08112     bsf         TRISB, 0, ACCESS            ; SDA high = STOP
004B18 0E28           08113     movlw       0x28                        ; I2C master + SSPEN
004B1A 6EC6           08114     movwf       SSPCON1, ACCESS
004B1C 0012           08115     return      0
                      08116 
                      08117 ; ---------------------------------------------------------------------------
                      08118 ; DSP Ping (Fix D) — TAS3108 address probe
                      08119 ; ---------------------------------------------------------------------------
004B1E                08120 dsp_ping:
004B1E 80C5           08121     bsf         SSPCON2, 0, ACCESS          ; SEN = START
004B20 EC3E F025      08122     call        wait_sen_bounded, 0x0
004B24 E20B           08123     bc          dsp_ping_nack
004B26 0E68           08124     movlw       0x68                        ; TAS3108 write addr
004B28 EC5F F01F      08125     call        i2c_byte_tx, 0x0
004B2C 84C5           08126     bsf         SSPCON2, 2, ACCESS          ; PEN = STOP
004B2E EC48 F025      08127     call        wait_pen_bounded, 0x0
004B32 ACC5           08128     btfss       SSPCON2, 6, ACCESS          ; ACKSTAT?
Message[1302]: RAM Bank undefined in this chunk of code. Ensure that bank bits are correct. Assuming bank 0 from now on.
004B34 9D7F           08129     bcf         dsp_fault_flags, 6, BANKED  ; ACK: clear fault
004B36 BCC5           08130     btfsc       SSPCON2, 6, ACCESS
004B38 D001           08131     bra         dsp_ping_nack
004B3A 0012           08132     return      0
004B3C                08133 dsp_ping_nack:
Message[1302]: RAM Bank undefined in this chunk of code. Ensure that bank bits are correct. Assuming bank 0 from now on.
004B3C 8D7F           08134     bsf         dsp_fault_flags, 6, BANKED  ; NACK: set fault
004B3E 0012           08135     return      0
                      08136 
                      08137 ; ---------------------------------------------------------------------------
                      08138 ; Send DSP Fault Status (Fix E) — BF/08 frame to CONTROL
                      08139 ; ---------------------------------------------------------------------------
004B40                08140 send_dsp_fault_status:
004B40 0100           08141     movlb       0x00
004B42 517F           08142     movf        dsp_fault_flags, W, BANKED
004B44 0B44           08143     andlw       0x44                        ; bits 6 + 2
004B46 6E0D           08144     movwf       ram_0x00D, ACCESS           ; save in ram_0x00D (uart_tx clobbers ram_0x003)
004B48 0EBF           08145     movlw       0xBF
004B4A EC98 F024      08146     call        uart_tx_byte_blocking, 0x0
004B4E 0E08           08147     movlw       0x08
004B50 EC98 F024      08148     call        uart_tx_byte_blocking, 0x0
004B54 500D           08149     movf        ram_0x00D, W, ACCESS
004B56 EC98 F024      08150     call        uart_tx_byte_blocking, 0x0
004B5A 0012           08151     return      0
gpasm-1.5.2 #1325 (Jan 30 2022) src/dlcp_fw/a   03/29/2026  18:21:48        PAGE 165


LOC    OBJECT CODE    LINE  SOURCE TEXT
  VALUE

                      08152 
                      08153 ; ---------------------------------------------------------------------------
                      08154 ; Volume DSP Write (Fix B + B' + recovery)
                      08155 ; ---------------------------------------------------------------------------
004B5C                08156 volume_dsp_write:
004B5C 0100           08157     movlb       0x0
004B5E 957F           08158     bcf         dsp_fault_flags, 2, BANKED  ; clear ACKSTAT latch
004B60 ECB3 F022      08159     call        i2c_tas3108_coeff_write, 0x0
Message[1302]: RAM Bank undefined in this chunk of code. Ensure that bank bits are correct. Assuming bank 0 from now on.
004B64 B57F           08160     btfsc       dsp_fault_flags, 2, BANKED  ; NACKed?
004B66 D011           08161     bra         vol_write_nacked
                      08162     ; Success: DSP responded, clear all fault state
004B68 0100           08163     movlb       0x0
004B6A 977E           08164     bcf         event_flags, 3, BANKED      ; clear volume dirty
004B6C 8F7E           08165     bsf         event_flags, 7, BANKED      ; boot-complete gate
004B6E C06E F066      08166     movff       computed_volume, logical_volume
004B72 C06F F067      08167     movff       computed_volume_1, logical_volume_1
004B76 C070 F068      08168     movff       computed_volume_2, logical_volume_2
004B7A C071 F069      08169     movff       computed_volume_3, logical_volume_3
004B7E 9D7F           08170     bcf         dsp_fault_flags, 6, BANKED  ; clear DSP fault (write worked)
004B80 0EC7           08171     movlw       0xC7
004B82 177F           08172     andwf       dsp_fault_flags, F, BANKED  ; clear retry counter, preserve bits 7,6
004B84 ECA0 F025      08173     call        send_dsp_fault_status, 0x0
004B88 0012           08174     return      0
004B8A                08175 vol_write_nacked:
004B8A 0E08           08176     movlw       0x08
Message[1302]: RAM Bank undefined in this chunk of code. Ensure that bank bits are correct. Assuming bank 0 from now on.
004B8C 277F           08177     addwf       dsp_fault_flags, F, BANKED  ; bump retry [5:3]
004B8E 517F           08178     movf        dsp_fault_flags, W, BANKED
004B90 0B38           08179     andlw       0x38
004B92 0828           08180     sublw       0x28                        ; 5 retries?
004B94 E20E           08181     bc          vol_retry_ok
                      08182     ; Exhausted: bus-clear + ping only if bus is idle (PEN not pending).
                      08183     ; If PEN stuck from fault model, skip I2C recovery to avoid corruption.
004B96 B4C5           08184     btfsc       SSPCON2, 2, ACCESS          ; PEN pending?
004B98 D004           08185     bra         vol_exhausted_skip_i2c
004B9A EC75 F025      08186     call        i2c_bus_clear, 0x0
004B9E EC8F F025      08187     call        dsp_ping, 0x0
004BA2                08188 vol_exhausted_skip_i2c:
Message[1302]: RAM Bank undefined in this chunk of code. Ensure that bank bits are correct. Assuming bank 0 from now on.
004BA2 8D7F           08189     bsf         dsp_fault_flags, 6, BANKED  ; flag DSP fault
004BA4 ECA0 F025      08190     call        send_dsp_fault_status, 0x0
004BA8 0100           08191     movlb       0x0
004BAA 977E           08192     bcf         event_flags, 3, BANKED
004BAC 0EC7           08193     movlw       0xC7
004BAE 177F           08194     andwf       dsp_fault_flags, F, BANKED  ; clear retry, preserve bit6 (DSP fault)
004BB0 0012           08195     return      0
004BB2                08196 vol_retry_ok:
004BB2 0012           08197     return      0                           ; dirty bit stays: main loop retries
                      08198 
                      08199 ; ---------------------------------------------------------------------------
                      08200 ; Preset Select Handler (V2.4 — cmd=0x20)
                      08201 ; ---------------------------------------------------------------------------
gpasm-1.5.2 #1325 (Jan 30 2022) src/dlcp_fw/a   03/29/2026  18:21:48        PAGE 166


LOC    OBJECT CODE    LINE  SOURCE TEXT
  VALUE

004BB4                08202 preset_select_handler:
Message[1302]: RAM Bank undefined in this chunk of code. Ensure that bank bits are correct. Assuming bank 0 from now on.
004BB4 51A3           08203     movf        ram_0x0A3, W, BANKED        ; data byte: 0=A, 1=B
004BB6 0B01           08204     andlw       0x01
004BB8 B45E           08205     btfsc       active_flags, 2, ACCESS     ; current preset B?
004BBA 0A01           08206     xorlw       0x01                        ; invert to compare
004BBC B4D8           08207     btfsc       STATUS, 2, ACCESS           ; Z = no change
004BBE EF3A F00F      08208     goto        flow_main_uart_service_1be6_1e6c
004BC2 817E           08209     bsf         event_flags, 0, BANKED      ; cmd03 dirty
004BC4 745E           08210     btg         active_flags, 2, ACCESS     ; toggle preset B
004BC6 877E           08211     bsf         event_flags, 3, BANKED      ; trigger DSP re-apply
004BC8 EF3A F00F      08212     goto        flow_main_uart_service_1be6_1e6c
                      08213 
                      08214 ; ---------------------------------------------------------------------------
                      08215 ; DSP Preset Table B (clone of Preset A)
                      08216 ; ---------------------------------------------------------------------------
004C00                08217     org 0x4C00
004C00                08218 preset_table_b:
004C00 C801 0004 0000 08219     dw  0xC801, 0x0004, 0x0000, 0x0000, 0x0000, 0x0000, 0x0000, 0x0000
       0000 0000 0000 
       0000 0000      
004C10 0000 0000 0000 08220     dw  0x0000, 0x0000, 0x0000, 0x0000, 0x3701, 0x0014, 0x0000, 0x0000
       0000 3701 0014 
       0000 0000      
004C20 0000 0000 0000 08221     dw  0x0000, 0x0000, 0x0000, 0x0000, 0x0000, 0x0000, 0x0000, 0x0000
       0000 0000 0000 
       0000 0000      
004C30 3801 0014 0000 08222     dw  0x3801, 0x0014, 0x0000, 0x0000, 0x0000, 0x0000, 0x0000, 0x0000
       0000 0000 0000 
       0000 0000      
004C40 0000 0000 0000 08223     dw  0x0000, 0x0000, 0x0000, 0x0000, 0x3901, 0x0014, 0x0000, 0x0000
       0000 3901 0014 
       0000 0000      
004C50 0000 0000 0000 08224     dw  0x0000, 0x0000, 0x0000, 0x0000, 0x0000, 0x0000, 0x0000, 0x0000
       0000 0000 0000 
       0000 0000      
004C60 3A01 0014 0000 08225     dw  0x3A01, 0x0014, 0x0000, 0x0000, 0x0000, 0x0000, 0x0000, 0x0000
       0000 0000 0000 
       0000 0000      
004C70 0000 0000 0000 08226     dw  0x0000, 0x0000, 0x0000, 0x0000, 0x3B01, 0x0014, 0x0000, 0x0000
       0000 3B01 0014 
       0000 0000      
004C80 0000 0000 0000 08227     dw  0x0000, 0x0000, 0x0000, 0x0000, 0x0000, 0x0000, 0x0000, 0x0000
       0000 0000 0000 
       0000 0000      
004C90 3C01 0014 0000 08228     dw  0x3C01, 0x0014, 0x0000, 0x0000, 0x0000, 0x0000, 0x0000, 0x0000
       0000 0000 0000 
       0000 0000      
004CA0 0000 0000 0000 08229     dw  0x0000, 0x0000, 0x0000, 0x0000, 0x3D01, 0x0014, 0x0000, 0x0000
       0000 3D01 0014 
       0000 0000      
004CB0 0000 0000 0000 08230     dw  0x0000, 0x0000, 0x0000, 0x0000, 0x0000, 0x0000, 0x0000, 0x0000
       0000 0000 0000 
gpasm-1.5.2 #1325 (Jan 30 2022) src/dlcp_fw/a   03/29/2026  18:21:48        PAGE 167


LOC    OBJECT CODE    LINE  SOURCE TEXT
  VALUE

       0000 0000      
004CC0 3E01 0014 0000 08231     dw  0x3E01, 0x0014, 0x0000, 0x0000, 0x0000, 0x0000, 0x0000, 0x0000
       0000 0000 0000 
       0000 0000      
004CD0 0000 0000 0000 08232     dw  0x0000, 0x0000, 0x0000, 0x0000, 0x3F01, 0x0014, 0x0000, 0x0000
       0000 3F01 0014 
       0000 0000      
004CE0 0000 0000 0000 08233     dw  0x0000, 0x0000, 0x0000, 0x0000, 0x0000, 0x0000, 0x0000, 0x0000
       0000 0000 0000 
       0000 0000      
004CF0 4001 0014 0000 08234     dw  0x4001, 0x0014, 0x0000, 0x0000, 0x0000, 0x0000, 0x0000, 0x0000
       0000 0000 0000 
       0000 0000      
004D00 0000 0000 0000 08235     dw  0x0000, 0x0000, 0x0000, 0x0000, 0x4101, 0x0014, 0x0000, 0x0000
       0000 4101 0014 
       0000 0000      
004D10 0000 0000 0000 08236     dw  0x0000, 0x0000, 0x0000, 0x0000, 0x0000, 0x0000, 0x0000, 0x0000
       0000 0000 0000 
       0000 0000      
004D20 4201 0014 0000 08237     dw  0x4201, 0x0014, 0x0000, 0x0000, 0x0000, 0x0000, 0x0000, 0x0000
       0000 0000 0000 
       0000 0000      
004D30 0000 0000 0000 08238     dw  0x0000, 0x0000, 0x0000, 0x0000, 0x4301, 0x0014, 0x0000, 0x0000
       0000 4301 0014 
       0000 0000      
004D40 0000 0000 0000 08239     dw  0x0000, 0x0000, 0x0000, 0x0000, 0x0000, 0x0000, 0x0000, 0x0000
       0000 0000 0000 
       0000 0000      
004D50 4401 0014 0000 08240     dw  0x4401, 0x0014, 0x0000, 0x0000, 0x0000, 0x0000, 0x0000, 0x0000
       0000 0000 0000 
       0000 0000      
004D60 0000 0000 0000 08241     dw  0x0000, 0x0000, 0x0000, 0x0000, 0x4501, 0x0014, 0x0000, 0x0000
       0000 4501 0014 
       0000 0000      
004D70 0000 0000 0000 08242     dw  0x0000, 0x0000, 0x0000, 0x0000, 0x0000, 0x0000, 0x0000, 0x0000
       0000 0000 0000 
       0000 0000      
004D80 C901 0004 0000 08243     dw  0xC901, 0x0004, 0x0000, 0x0000, 0x0000, 0x0000, 0x0000, 0x0000
       0000 0000 0000 
       0000 0000      
004D90 0000 0000 0000 08244     dw  0x0000, 0x0000, 0x0000, 0x0000, 0x4601, 0x0014, 0x0000, 0x0000
       0000 4601 0014 
       0000 0000      
004DA0 0000 0000 0000 08245     dw  0x0000, 0x0000, 0x0000, 0x0000, 0x0000, 0x0000, 0x0000, 0x0000
       0000 0000 0000 
       0000 0000      
004DB0 4701 0014 0000 08246     dw  0x4701, 0x0014, 0x0000, 0x0000, 0x0000, 0x0000, 0x0000, 0x0000
       0000 0000 0000 
       0000 0000      
004DC0 0000 0000 0000 08247     dw  0x0000, 0x0000, 0x0000, 0x0000, 0x4801, 0x0014, 0x0000, 0x0000
       0000 4801 0014 
       0000 0000      
004DD0 0000 0000 0000 08248     dw  0x0000, 0x0000, 0x0000, 0x0000, 0x0000, 0x0000, 0x0000, 0x0000
gpasm-1.5.2 #1325 (Jan 30 2022) src/dlcp_fw/a   03/29/2026  18:21:48        PAGE 168


LOC    OBJECT CODE    LINE  SOURCE TEXT
  VALUE

       0000 0000 0000 
       0000 0000      
004DE0 4901 0014 0000 08249     dw  0x4901, 0x0014, 0x0000, 0x0000, 0x0000, 0x0000, 0x0000, 0x0000
       0000 0000 0000 
       0000 0000      
004DF0 0000 0000 0000 08250     dw  0x0000, 0x0000, 0x0000, 0x0000, 0x4A01, 0x0014, 0x0000, 0x0000
       0000 4A01 0014 
       0000 0000      
004E00 0000 0000 0000 08251     dw  0x0000, 0x0000, 0x0000, 0x0000, 0x0000, 0x0000, 0x0000, 0x0000
       0000 0000 0000 
       0000 0000      
004E10 4B01 0014 0000 08252     dw  0x4B01, 0x0014, 0x0000, 0x0000, 0x0000, 0x0000, 0x0000, 0x0000
       0000 0000 0000 
       0000 0000      
004E20 0000 0000 0000 08253     dw  0x0000, 0x0000, 0x0000, 0x0000, 0x4C01, 0x0014, 0x0000, 0x0000
       0000 4C01 0014 
       0000 0000      
004E30 0000 0000 0000 08254     dw  0x0000, 0x0000, 0x0000, 0x0000, 0x0000, 0x0000, 0x0000, 0x0000
       0000 0000 0000 
       0000 0000      
004E40 4D01 0014 0000 08255     dw  0x4D01, 0x0014, 0x0000, 0x0000, 0x0000, 0x0000, 0x0000, 0x0000
       0000 0000 0000 
       0000 0000      
004E50 0000 0000 0000 08256     dw  0x0000, 0x0000, 0x0000, 0x0000, 0x4E01, 0x0014, 0x0000, 0x0000
       0000 4E01 0014 
       0000 0000      
004E60 0000 0000 0000 08257     dw  0x0000, 0x0000, 0x0000, 0x0000, 0x0000, 0x0000, 0x0000, 0x0000
       0000 0000 0000 
       0000 0000      
004E70 4F01 0014 0000 08258     dw  0x4F01, 0x0014, 0x0000, 0x0000, 0x0000, 0x0000, 0x0000, 0x0000
       0000 0000 0000 
       0000 0000      
004E80 0000 0000 0000 08259     dw  0x0000, 0x0000, 0x0000, 0x0000, 0x5001, 0x0014, 0x0000, 0x0000
       0000 5001 0014 
       0000 0000      
004E90 0000 0000 0000 08260     dw  0x0000, 0x0000, 0x0000, 0x0000, 0x0000, 0x0000, 0x0000, 0x0000
       0000 0000 0000 
       0000 0000      
004EA0 5101 0014 0000 08261     dw  0x5101, 0x0014, 0x0000, 0x0000, 0x0000, 0x0000, 0x0000, 0x0000
       0000 0000 0000 
       0000 0000      
004EB0 0000 0000 0000 08262     dw  0x0000, 0x0000, 0x0000, 0x0000, 0x5201, 0x0014, 0x0000, 0x0000
       0000 5201 0014 
       0000 0000      
004EC0 0000 0000 0000 08263     dw  0x0000, 0x0000, 0x0000, 0x0000, 0x0000, 0x0000, 0x0000, 0x0000
       0000 0000 0000 
       0000 0000      
004ED0 5301 0014 0000 08264     dw  0x5301, 0x0014, 0x0000, 0x0000, 0x0000, 0x0000, 0x0000, 0x0000
       0000 0000 0000 
       0000 0000      
004EE0 0000 0000 0000 08265     dw  0x0000, 0x0000, 0x0000, 0x0000, 0x5401, 0x0014, 0x0000, 0x0000
       0000 5401 0014 
       0000 0000      
gpasm-1.5.2 #1325 (Jan 30 2022) src/dlcp_fw/a   03/29/2026  18:21:48        PAGE 169


LOC    OBJECT CODE    LINE  SOURCE TEXT
  VALUE

004EF0 0000 0000 0000 08266     dw  0x0000, 0x0000, 0x0000, 0x0000, 0x0000, 0x0000, 0x0000, 0x0000
       0000 0000 0000 
       0000 0000      
004F00 CA01 0004 0000 08267     dw  0xCA01, 0x0004, 0x0000, 0x0000, 0x0000, 0x0000, 0x0000, 0x0000
       0000 0000 0000 
       0000 0000      
004F10 0000 0000 0000 08268     dw  0x0000, 0x0000, 0x0000, 0x0000, 0x5501, 0x0014, 0x0000, 0x0000
       0000 5501 0014 
       0000 0000      
004F20 0000 0000 0000 08269     dw  0x0000, 0x0000, 0x0000, 0x0000, 0x0000, 0x0000, 0x0000, 0x0000
       0000 0000 0000 
       0000 0000      
004F30 5601 0014 0000 08270     dw  0x5601, 0x0014, 0x0000, 0x0000, 0x0000, 0x0000, 0x0000, 0x0000
       0000 0000 0000 
       0000 0000      
004F40 0000 0000 0000 08271     dw  0x0000, 0x0000, 0x0000, 0x0000, 0x5701, 0x0014, 0x0000, 0x0000
       0000 5701 0014 
       0000 0000      
004F50 0000 0000 0000 08272     dw  0x0000, 0x0000, 0x0000, 0x0000, 0x0000, 0x0000, 0x0000, 0x0000
       0000 0000 0000 
       0000 0000      
004F60 5801 0014 0000 08273     dw  0x5801, 0x0014, 0x0000, 0x0000, 0x0000, 0x0000, 0x0000, 0x0000
       0000 0000 0000 
       0000 0000      
004F70 0000 0000 0000 08274     dw  0x0000, 0x0000, 0x0000, 0x0000, 0x5901, 0x0014, 0x0000, 0x0000
       0000 5901 0014 
       0000 0000      
004F80 0000 0000 0000 08275     dw  0x0000, 0x0000, 0x0000, 0x0000, 0x0000, 0x0000, 0x0000, 0x0000
       0000 0000 0000 
       0000 0000      
004F90 5A01 0014 0000 08276     dw  0x5A01, 0x0014, 0x0000, 0x0000, 0x0000, 0x0000, 0x0000, 0x0000
       0000 0000 0000 
       0000 0000      
004FA0 0000 0000 0000 08277     dw  0x0000, 0x0000, 0x0000, 0x0000, 0x5B01, 0x0014, 0x0000, 0x0000
       0000 5B01 0014 
       0000 0000      
004FB0 0000 0000 0000 08278     dw  0x0000, 0x0000, 0x0000, 0x0000, 0x0000, 0x0000, 0x0000, 0x0000
       0000 0000 0000 
       0000 0000      
004FC0 5C01 0014 0000 08279     dw  0x5C01, 0x0014, 0x0000, 0x0000, 0x0000, 0x0000, 0x0000, 0x0000
       0000 0000 0000 
       0000 0000      
004FD0 0000 0000 0000 08280     dw  0x0000, 0x0000, 0x0000, 0x0000, 0x5D01, 0x0014, 0x0000, 0x0000
       0000 5D01 0014 
       0000 0000      
004FE0 0000 0000 0000 08281     dw  0x0000, 0x0000, 0x0000, 0x0000, 0x0000, 0x0000, 0x0000, 0x0000
       0000 0000 0000 
       0000 0000      
004FF0 5E01 0014 0000 08282     dw  0x5E01, 0x0014, 0x0000, 0x0000, 0x0000, 0x0000, 0x0000, 0x0000
       0000 0000 0000 
       0000 0000      
005000 0000 0000 0000 08283     dw  0x0000, 0x0000, 0x0000, 0x0000, 0x5F01, 0x0014, 0x0000, 0x0000
       0000 5F01 0014 
gpasm-1.5.2 #1325 (Jan 30 2022) src/dlcp_fw/a   03/29/2026  18:21:48        PAGE 170


LOC    OBJECT CODE    LINE  SOURCE TEXT
  VALUE

       0000 0000      
005010 0000 0000 0000 08284     dw  0x0000, 0x0000, 0x0000, 0x0000, 0x0000, 0x0000, 0x0000, 0x0000
       0000 0000 0000 
       0000 0000      
005020 6001 0014 0000 08285     dw  0x6001, 0x0014, 0x0000, 0x0000, 0x0000, 0x0000, 0x0000, 0x0000
       0000 0000 0000 
       0000 0000      
005030 0000 0000 0000 08286     dw  0x0000, 0x0000, 0x0000, 0x0000, 0x6101, 0x0014, 0x0000, 0x0000
       0000 6101 0014 
       0000 0000      
005040 0000 0000 0000 08287     dw  0x0000, 0x0000, 0x0000, 0x0000, 0x0000, 0x0000, 0x0000, 0x0000
       0000 0000 0000 
       0000 0000      
005050 6201 0014 0000 08288     dw  0x6201, 0x0014, 0x0000, 0x0000, 0x0000, 0x0000, 0x0000, 0x0000
       0000 0000 0000 
       0000 0000      
005060 0000 0000 0000 08289     dw  0x0000, 0x0000, 0x0000, 0x0000, 0x6301, 0x0014, 0x0000, 0x0000
       0000 6301 0014 
       0000 0000      
005070 0000 0000 0000 08290     dw  0x0000, 0x0000, 0x0000, 0x0000, 0x0000, 0x0000, 0x0000, 0x0000
       0000 0000 0000 
       0000 0000      
005080 CB01 0004 0000 08291     dw  0xCB01, 0x0004, 0x0000, 0x0000, 0x0000, 0x0000, 0x0000, 0x0000
       0000 0000 0000 
       0000 0000      
005090 0000 0000 0000 08292     dw  0x0000, 0x0000, 0x0000, 0x0000, 0x6401, 0x0014, 0x0000, 0x0000
       0000 6401 0014 
       0000 0000      
0050A0 0000 0000 0000 08293     dw  0x0000, 0x0000, 0x0000, 0x0000, 0x0000, 0x0000, 0x0000, 0x0000
       0000 0000 0000 
       0000 0000      
0050B0 6501 0014 0000 08294     dw  0x6501, 0x0014, 0x0000, 0x0000, 0x0000, 0x0000, 0x0000, 0x0000
       0000 0000 0000 
       0000 0000      
0050C0 0000 0000 0000 08295     dw  0x0000, 0x0000, 0x0000, 0x0000, 0x6601, 0x0014, 0x0000, 0x0000
       0000 6601 0014 
       0000 0000      
0050D0 0000 0000 0000 08296     dw  0x0000, 0x0000, 0x0000, 0x0000, 0x0000, 0x0000, 0x0000, 0x0000
       0000 0000 0000 
       0000 0000      
0050E0 6701 0014 0000 08297     dw  0x6701, 0x0014, 0x0000, 0x0000, 0x0000, 0x0000, 0x0000, 0x0000
       0000 0000 0000 
       0000 0000      
0050F0 0000 0000 0000 08298     dw  0x0000, 0x0000, 0x0000, 0x0000, 0x6801, 0x0014, 0x0000, 0x0000
       0000 6801 0014 
       0000 0000      
005100 0000 0000 0000 08299     dw  0x0000, 0x0000, 0x0000, 0x0000, 0x0000, 0x0000, 0x0000, 0x0000
       0000 0000 0000 
       0000 0000      
005110 6901 0014 0000 08300     dw  0x6901, 0x0014, 0x0000, 0x0000, 0x0000, 0x0000, 0x0000, 0x0000
       0000 0000 0000 
       0000 0000      
005120 0000 0000 0000 08301     dw  0x0000, 0x0000, 0x0000, 0x0000, 0x6A01, 0x0014, 0x0000, 0x0000
gpasm-1.5.2 #1325 (Jan 30 2022) src/dlcp_fw/a   03/29/2026  18:21:48        PAGE 171


LOC    OBJECT CODE    LINE  SOURCE TEXT
  VALUE

       0000 6A01 0014 
       0000 0000      
005130 0000 0000 0000 08302     dw  0x0000, 0x0000, 0x0000, 0x0000, 0x0000, 0x0000, 0x0000, 0x0000
       0000 0000 0000 
       0000 0000      
005140 6B01 0014 0000 08303     dw  0x6B01, 0x0014, 0x0000, 0x0000, 0x0000, 0x0000, 0x0000, 0x0000
       0000 0000 0000 
       0000 0000      
005150 0000 0000 0000 08304     dw  0x0000, 0x0000, 0x0000, 0x0000, 0x6C01, 0x0014, 0x0000, 0x0000
       0000 6C01 0014 
       0000 0000      
005160 0000 0000 0000 08305     dw  0x0000, 0x0000, 0x0000, 0x0000, 0x0000, 0x0000, 0x0000, 0x0000
       0000 0000 0000 
       0000 0000      
005170 6D01 0014 0000 08306     dw  0x6D01, 0x0014, 0x0000, 0x0000, 0x0000, 0x0000, 0x0000, 0x0000
       0000 0000 0000 
       0000 0000      
005180 0000 0000 0000 08307     dw  0x0000, 0x0000, 0x0000, 0x0000, 0x6E01, 0x0014, 0x0000, 0x0000
       0000 6E01 0014 
       0000 0000      
005190 0000 0000 0000 08308     dw  0x0000, 0x0000, 0x0000, 0x0000, 0x0000, 0x0000, 0x0000, 0x0000
       0000 0000 0000 
       0000 0000      
0051A0 6F01 0014 0000 08309     dw  0x6F01, 0x0014, 0x0000, 0x0000, 0x0000, 0x0000, 0x0000, 0x0000
       0000 0000 0000 
       0000 0000      
0051B0 0000 0000 0000 08310     dw  0x0000, 0x0000, 0x0000, 0x0000, 0x7001, 0x0014, 0x0000, 0x0000
       0000 7001 0014 
       0000 0000      
0051C0 0000 0000 0000 08311     dw  0x0000, 0x0000, 0x0000, 0x0000, 0x0000, 0x0000, 0x0000, 0x0000
       0000 0000 0000 
       0000 0000      
0051D0 7101 0014 0000 08312     dw  0x7101, 0x0014, 0x0000, 0x0000, 0x0000, 0x0000, 0x0000, 0x0000
       0000 0000 0000 
       0000 0000      
0051E0 0000 0000 0000 08313     dw  0x0000, 0x0000, 0x0000, 0x0000, 0x7201, 0x0014, 0x0000, 0x0000
       0000 7201 0014 
       0000 0000      
0051F0 0000 0000 0000 08314     dw  0x0000, 0x0000, 0x0000, 0x0000, 0x0000, 0x0000, 0x0000, 0x0000
       0000 0000 0000 
       0000 0000      
005200 CC01 0004 0000 08315     dw  0xCC01, 0x0004, 0x0000, 0x0000, 0x0000, 0x0000, 0x0000, 0x0000
       0000 0000 0000 
       0000 0000      
005210 0000 0000 0000 08316     dw  0x0000, 0x0000, 0x0000, 0x0000, 0x7301, 0x0014, 0x0000, 0x0000
       0000 7301 0014 
       0000 0000      
005220 0000 0000 0000 08317     dw  0x0000, 0x0000, 0x0000, 0x0000, 0x0000, 0x0000, 0x0000, 0x0000
       0000 0000 0000 
       0000 0000      
005230 7401 0014 0000 08318     dw  0x7401, 0x0014, 0x0000, 0x0000, 0x0000, 0x0000, 0x0000, 0x0000
       0000 0000 0000 
       0000 0000      
gpasm-1.5.2 #1325 (Jan 30 2022) src/dlcp_fw/a   03/29/2026  18:21:48        PAGE 172


LOC    OBJECT CODE    LINE  SOURCE TEXT
  VALUE

005240 0000 0000 0000 08319     dw  0x0000, 0x0000, 0x0000, 0x0000, 0x7501, 0x0014, 0x0000, 0x0000
       0000 7501 0014 
       0000 0000      
005250 0000 0000 0000 08320     dw  0x0000, 0x0000, 0x0000, 0x0000, 0x0000, 0x0000, 0x0000, 0x0000
       0000 0000 0000 
       0000 0000      
005260 7601 0014 0000 08321     dw  0x7601, 0x0014, 0x0000, 0x0000, 0x0000, 0x0000, 0x0000, 0x0000
       0000 0000 0000 
       0000 0000      
005270 0000 0000 0000 08322     dw  0x0000, 0x0000, 0x0000, 0x0000, 0x7701, 0x0014, 0x0000, 0x0000
       0000 7701 0014 
       0000 0000      
005280 0000 0000 0000 08323     dw  0x0000, 0x0000, 0x0000, 0x0000, 0x0000, 0x0000, 0x0000, 0x0000
       0000 0000 0000 
       0000 0000      
005290 7801 0014 0000 08324     dw  0x7801, 0x0014, 0x0000, 0x0000, 0x0000, 0x0000, 0x0000, 0x0000
       0000 0000 0000 
       0000 0000      
0052A0 0000 0000 0000 08325     dw  0x0000, 0x0000, 0x0000, 0x0000, 0x7901, 0x0014, 0x0000, 0x0000
       0000 7901 0014 
       0000 0000      
0052B0 0000 0000 0000 08326     dw  0x0000, 0x0000, 0x0000, 0x0000, 0x0000, 0x0000, 0x0000, 0x0000
       0000 0000 0000 
       0000 0000      
0052C0 7A01 0014 0000 08327     dw  0x7A01, 0x0014, 0x0000, 0x0000, 0x0000, 0x0000, 0x0000, 0x0000
       0000 0000 0000 
       0000 0000      
0052D0 0000 0000 0000 08328     dw  0x0000, 0x0000, 0x0000, 0x0000, 0x7B01, 0x0014, 0x0000, 0x0000
       0000 7B01 0014 
       0000 0000      
0052E0 0000 0000 0000 08329     dw  0x0000, 0x0000, 0x0000, 0x0000, 0x0000, 0x0000, 0x0000, 0x0000
       0000 0000 0000 
       0000 0000      
0052F0 7C01 0014 0000 08330     dw  0x7C01, 0x0014, 0x0000, 0x0000, 0x0000, 0x0000, 0x0000, 0x0000
       0000 0000 0000 
       0000 0000      
005300 0000 0000 0000 08331     dw  0x0000, 0x0000, 0x0000, 0x0000, 0x7D01, 0x0014, 0x0000, 0x0000
       0000 7D01 0014 
       0000 0000      
005310 0000 0000 0000 08332     dw  0x0000, 0x0000, 0x0000, 0x0000, 0x0000, 0x0000, 0x0000, 0x0000
       0000 0000 0000 
       0000 0000      
005320 7E01 0014 0000 08333     dw  0x7E01, 0x0014, 0x0000, 0x0000, 0x0000, 0x0000, 0x0000, 0x0000
       0000 0000 0000 
       0000 0000      
005330 0000 0000 0000 08334     dw  0x0000, 0x0000, 0x0000, 0x0000, 0x7F01, 0x0014, 0x0000, 0x0000
       0000 7F01 0014 
       0000 0000      
005340 0000 0000 0000 08335     dw  0x0000, 0x0000, 0x0000, 0x0000, 0x0000, 0x0000, 0x0000, 0x0000
       0000 0000 0000 
       0000 0000      
005350 8001 0014 0000 08336     dw  0x8001, 0x0014, 0x0000, 0x0000, 0x0000, 0x0000, 0x0000, 0x0000
       0000 0000 0000 
gpasm-1.5.2 #1325 (Jan 30 2022) src/dlcp_fw/a   03/29/2026  18:21:48        PAGE 173


LOC    OBJECT CODE    LINE  SOURCE TEXT
  VALUE

       0000 0000      
005360 0000 0000 0000 08337     dw  0x0000, 0x0000, 0x0000, 0x0000, 0x8101, 0x0014, 0x0000, 0x0000
       0000 8101 0014 
       0000 0000      
005370 0000 0000 0000 08338     dw  0x0000, 0x0000, 0x0000, 0x0000, 0x0000, 0x0000, 0x0000, 0x0000
       0000 0000 0000 
       0000 0000      
005380 CD01 0004 0000 08339     dw  0xCD01, 0x0004, 0x0000, 0x0000, 0x0000, 0x0000, 0x0000, 0x0000
       0000 0000 0000 
       0000 0000      
005390 0000 0000 0000 08340     dw  0x0000, 0x0000, 0x0000, 0x0000, 0x8201, 0x0014, 0x0000, 0x0000
       0000 8201 0014 
       0000 0000      
0053A0 0000 0000 0000 08341     dw  0x0000, 0x0000, 0x0000, 0x0000, 0x0000, 0x0000, 0x0000, 0x0000
       0000 0000 0000 
       0000 0000      
0053B0 8301 0014 0000 08342     dw  0x8301, 0x0014, 0x0000, 0x0000, 0x0000, 0x0000, 0x0000, 0x0000
       0000 0000 0000 
       0000 0000      
0053C0 0000 0000 0000 08343     dw  0x0000, 0x0000, 0x0000, 0x0000, 0x8401, 0x0014, 0x0000, 0x0000
       0000 8401 0014 
       0000 0000      
0053D0 0000 0000 0000 08344     dw  0x0000, 0x0000, 0x0000, 0x0000, 0x0000, 0x0000, 0x0000, 0x0000
       0000 0000 0000 
       0000 0000      
0053E0 8501 0014 0000 08345     dw  0x8501, 0x0014, 0x0000, 0x0000, 0x0000, 0x0000, 0x0000, 0x0000
       0000 0000 0000 
       0000 0000      
0053F0 0000 0000 0000 08346     dw  0x0000, 0x0000, 0x0000, 0x0000, 0x8601, 0x0014, 0x0000, 0x0000
       0000 8601 0014 
       0000 0000      
005400 0000 0000 0000 08347     dw  0x0000, 0x0000, 0x0000, 0x0000, 0x0000, 0x0000, 0x0000, 0x0000
       0000 0000 0000 
       0000 0000      
005410 8701 0014 0000 08348     dw  0x8701, 0x0014, 0x0000, 0x0000, 0x0000, 0x0000, 0x0000, 0x0000
       0000 0000 0000 
       0000 0000      
005420 0000 0000 0000 08349     dw  0x0000, 0x0000, 0x0000, 0x0000, 0x8801, 0x0014, 0x0000, 0x0000
       0000 8801 0014 
       0000 0000      
005430 0000 0000 0000 08350     dw  0x0000, 0x0000, 0x0000, 0x0000, 0x0000, 0x0000, 0x0000, 0x0000
       0000 0000 0000 
       0000 0000      
005440 8901 0014 0000 08351     dw  0x8901, 0x0014, 0x0000, 0x0000, 0x0000, 0x0000, 0x0000, 0x0000
       0000 0000 0000 
       0000 0000      
005450 0000 0000 0000 08352     dw  0x0000, 0x0000, 0x0000, 0x0000, 0x8A01, 0x0014, 0x0000, 0x0000
       0000 8A01 0014 
       0000 0000      
005460 0000 0000 0000 08353     dw  0x0000, 0x0000, 0x0000, 0x0000, 0x0000, 0x0000, 0x0000, 0x0000
       0000 0000 0000 
       0000 0000      
005470 8B01 0014 0000 08354     dw  0x8B01, 0x0014, 0x0000, 0x0000, 0x0000, 0x0000, 0x0000, 0x0000
gpasm-1.5.2 #1325 (Jan 30 2022) src/dlcp_fw/a   03/29/2026  18:21:48        PAGE 174


LOC    OBJECT CODE    LINE  SOURCE TEXT
  VALUE

       0000 0000 0000 
       0000 0000      
005480 0000 0000 0000 08355     dw  0x0000, 0x0000, 0x0000, 0x0000, 0x8C01, 0x0014, 0x0000, 0x0000
       0000 8C01 0014 
       0000 0000      
005490 0000 0000 0000 08356     dw  0x0000, 0x0000, 0x0000, 0x0000, 0x0000, 0x0000, 0x0000, 0x0000
       0000 0000 0000 
       0000 0000      
0054A0 8D01 0014 0000 08357     dw  0x8D01, 0x0014, 0x0000, 0x0000, 0x0000, 0x0000, 0x0000, 0x0000
       0000 0000 0000 
       0000 0000      
0054B0 0000 0000 0000 08358     dw  0x0000, 0x0000, 0x0000, 0x0000, 0x8E01, 0x0014, 0x0000, 0x0000
       0000 8E01 0014 
       0000 0000      
0054C0 0000 0000 0000 08359     dw  0x0000, 0x0000, 0x0000, 0x0000, 0x0000, 0x0000, 0x0000, 0x0000
       0000 0000 0000 
       0000 0000      
0054D0 8F01 0014 0000 08360     dw  0x8F01, 0x0014, 0x0000, 0x0000, 0x0000, 0x0000, 0x0000, 0x0000
       0000 0000 0000 
       0000 0000      
0054E0 0000 0000 0000 08361     dw  0x0000, 0x0000, 0x0000, 0x0000, 0x9001, 0x0014, 0x0000, 0x0000
       0000 9001 0014 
       0000 0000      
0054F0 0000 0000 0000 08362     dw  0x0000, 0x0000, 0x0000, 0x0000, 0x0000, 0x0000, 0x0000, 0x0000
       0000 0000 0000 
       0000 0000      
005500 D401 0004 0000 08363     dw  0xD401, 0x0004, 0x0000, 0x0100, 0x3101, 0x0010, 0x0000, 0x0000
       0100 3101 0010 
       0000 0000      
005510 0000 0000 0000 08364     dw  0x0000, 0x0000, 0x0000, 0x0000, 0x0000, 0x0000, 0x3101, 0x0010
       0000 0000 0000 
       3101 0010      
005520 8000 0000 0000 08365     dw  0x8000, 0x0000, 0x0000, 0x0000, 0x0000, 0x0000, 0x0000, 0x0000
       0000 0000 0000 
       0000 0000      
005530 3201 0010 0000 08366     dw  0x3201, 0x0010, 0x0000, 0x0000, 0x0000, 0x0000, 0x0000, 0x0000
       0000 0000 0000 
       0000 0000      
005540 0000 0000 3201 08367     dw  0x0000, 0x0000, 0x3201, 0x0010, 0x8000, 0x0000, 0x0000, 0x0000
       0010 8000 0000 
       0000 0000      
005550 0000 0000 0000 08368     dw  0x0000, 0x0000, 0x0000, 0x0000, 0x3301, 0x0010, 0x0000, 0x0000
       0000 3301 0010 
       0000 0000      
005560 0000 0000 0000 08369     dw  0x0000, 0x0000, 0x0000, 0x0000, 0x0000, 0x0000, 0x3301, 0x0010
       0000 0000 0000 
       3301 0010      
005570 8000 0000 0000 08370     dw  0x8000, 0x0000, 0x0000, 0x0000, 0x0000, 0x0000, 0x0000, 0x0000
       0000 0000 0000 
       0000 0000      
005580 3401 0010 0000 08371     dw  0x3401, 0x0010, 0x0000, 0x0000, 0x0000, 0x0000, 0x0000, 0x0000
       0000 0000 0000 
       0000 0000      
gpasm-1.5.2 #1325 (Jan 30 2022) src/dlcp_fw/a   03/29/2026  18:21:48        PAGE 175


LOC    OBJECT CODE    LINE  SOURCE TEXT
  VALUE

005590 0000 0000 3401 08372     dw  0x0000, 0x0000, 0x3401, 0x0010, 0x8000, 0x0000, 0x0000, 0x0000
       0010 8000 0000 
       0000 0000      
0055A0 0000 0000 0000 08373     dw  0x0000, 0x0000, 0x0000, 0x0000, 0x3501, 0x0010, 0x0000, 0x0000
       0000 3501 0010 
       0000 0000      
0055B0 0000 0000 0000 08374     dw  0x0000, 0x0000, 0x0000, 0x0000, 0x0000, 0x0000, 0x3501, 0x0010
       0000 0000 0000 
       3501 0010      
0055C0 8000 0000 0000 08375     dw  0x8000, 0x0000, 0x0000, 0x0000, 0x0000, 0x0000, 0x0000, 0x0000
       0000 0000 0000 
       0000 0000      
0055D0 3601 0010 0000 08376     dw  0x3601, 0x0010, 0x0000, 0x0000, 0x0000, 0x0000, 0x0000, 0x0000
       0000 0000 0000 
       0000 0000      
0055E0 0000 0000 3601 08377     dw  0x0000, 0x0000, 0x3601, 0x0010, 0x8000, 0x0000, 0x0000, 0x0000
       0010 8000 0000 
       0000 0000      
0055F0 0000 0000 0000 08378     dw  0x0000, 0x0000, 0x0000, 0x0000, 0xFFFF, 0xFFFF, 0xFFFF, 0xFFFF
       0000 FFFF FFFF 
       FFFF FFFF      
                      08379 
                      08380 ; ---------------------------------------------------------------------------
                      08381 ; Erased Flash Padding to Preset A
                      08382 ; ---------------------------------------------------------------------------
005600                08383     fill 0xFFFF, (0x5600 - $) / 2
                      08384 
                      08385 ; ---------------------------------------------------------------------------
                      08386 ; DSP Preset Table A (stock, pinned to flash ceiling)
                      08387 ; ---------------------------------------------------------------------------
005600                08388     org 0x5600
005600                08389 preset_table_a:
005600 C801 0004 0000 08390     dw  0xC801, 0x0004, 0x0000, 0x0000, 0x0000, 0x0000, 0x0000, 0x0000
       0000 0000 0000 
       0000 0000      
005610 0000 0000 0000 08391     dw  0x0000, 0x0000, 0x0000, 0x0000, 0x3701, 0x0014, 0x0000, 0x0000
       0000 3701 0014 
       0000 0000      
005620 0000 0000 0000 08392     dw  0x0000, 0x0000, 0x0000, 0x0000, 0x0000, 0x0000, 0x0000, 0x0000
       0000 0000 0000 
       0000 0000      
005630 3801 0014 0000 08393     dw  0x3801, 0x0014, 0x0000, 0x0000, 0x0000, 0x0000, 0x0000, 0x0000
       0000 0000 0000 
       0000 0000      
005640 0000 0000 0000 08394     dw  0x0000, 0x0000, 0x0000, 0x0000, 0x3901, 0x0014, 0x0000, 0x0000
       0000 3901 0014 
       0000 0000      
005650 0000 0000 0000 08395     dw  0x0000, 0x0000, 0x0000, 0x0000, 0x0000, 0x0000, 0x0000, 0x0000
       0000 0000 0000 
       0000 0000      
005660 3A01 0014 0000 08396     dw  0x3A01, 0x0014, 0x0000, 0x0000, 0x0000, 0x0000, 0x0000, 0x0000
       0000 0000 0000 
       0000 0000      
gpasm-1.5.2 #1325 (Jan 30 2022) src/dlcp_fw/a   03/29/2026  18:21:48        PAGE 176


LOC    OBJECT CODE    LINE  SOURCE TEXT
  VALUE

005670 0000 0000 0000 08397     dw  0x0000, 0x0000, 0x0000, 0x0000, 0x3B01, 0x0014, 0x0000, 0x0000
       0000 3B01 0014 
       0000 0000      
005680 0000 0000 0000 08398     dw  0x0000, 0x0000, 0x0000, 0x0000, 0x0000, 0x0000, 0x0000, 0x0000
       0000 0000 0000 
       0000 0000      
005690 3C01 0014 0000 08399     dw  0x3C01, 0x0014, 0x0000, 0x0000, 0x0000, 0x0000, 0x0000, 0x0000
       0000 0000 0000 
       0000 0000      
0056A0 0000 0000 0000 08400     dw  0x0000, 0x0000, 0x0000, 0x0000, 0x3D01, 0x0014, 0x0000, 0x0000
       0000 3D01 0014 
       0000 0000      
0056B0 0000 0000 0000 08401     dw  0x0000, 0x0000, 0x0000, 0x0000, 0x0000, 0x0000, 0x0000, 0x0000
       0000 0000 0000 
       0000 0000      
0056C0 3E01 0014 0000 08402     dw  0x3E01, 0x0014, 0x0000, 0x0000, 0x0000, 0x0000, 0x0000, 0x0000
       0000 0000 0000 
       0000 0000      
0056D0 0000 0000 0000 08403     dw  0x0000, 0x0000, 0x0000, 0x0000, 0x3F01, 0x0014, 0x0000, 0x0000
       0000 3F01 0014 
       0000 0000      
0056E0 0000 0000 0000 08404     dw  0x0000, 0x0000, 0x0000, 0x0000, 0x0000, 0x0000, 0x0000, 0x0000
       0000 0000 0000 
       0000 0000      
0056F0 4001 0014 0000 08405     dw  0x4001, 0x0014, 0x0000, 0x0000, 0x0000, 0x0000, 0x0000, 0x0000
       0000 0000 0000 
       0000 0000      
005700 0000 0000 0000 08406     dw  0x0000, 0x0000, 0x0000, 0x0000, 0x4101, 0x0014, 0x0000, 0x0000
       0000 4101 0014 
       0000 0000      
005710 0000 0000 0000 08407     dw  0x0000, 0x0000, 0x0000, 0x0000, 0x0000, 0x0000, 0x0000, 0x0000
       0000 0000 0000 
       0000 0000      
005720 4201 0014 0000 08408     dw  0x4201, 0x0014, 0x0000, 0x0000, 0x0000, 0x0000, 0x0000, 0x0000
       0000 0000 0000 
       0000 0000      
005730 0000 0000 0000 08409     dw  0x0000, 0x0000, 0x0000, 0x0000, 0x4301, 0x0014, 0x0000, 0x0000
       0000 4301 0014 
       0000 0000      
005740 0000 0000 0000 08410     dw  0x0000, 0x0000, 0x0000, 0x0000, 0x0000, 0x0000, 0x0000, 0x0000
       0000 0000 0000 
       0000 0000      
005750 4401 0014 0000 08411     dw  0x4401, 0x0014, 0x0000, 0x0000, 0x0000, 0x0000, 0x0000, 0x0000
       0000 0000 0000 
       0000 0000      
005760 0000 0000 0000 08412     dw  0x0000, 0x0000, 0x0000, 0x0000, 0x4501, 0x0014, 0x0000, 0x0000
       0000 4501 0014 
       0000 0000      
005770 0000 0000 0000 08413     dw  0x0000, 0x0000, 0x0000, 0x0000, 0x0000, 0x0000, 0x0000, 0x0000
       0000 0000 0000 
       0000 0000      
005780 C901 0004 0000 08414     dw  0xC901, 0x0004, 0x0000, 0x0000, 0x0000, 0x0000, 0x0000, 0x0000
       0000 0000 0000 
gpasm-1.5.2 #1325 (Jan 30 2022) src/dlcp_fw/a   03/29/2026  18:21:48        PAGE 177


LOC    OBJECT CODE    LINE  SOURCE TEXT
  VALUE

       0000 0000      
005790 0000 0000 0000 08415     dw  0x0000, 0x0000, 0x0000, 0x0000, 0x4601, 0x0014, 0x0000, 0x0000
       0000 4601 0014 
       0000 0000      
0057A0 0000 0000 0000 08416     dw  0x0000, 0x0000, 0x0000, 0x0000, 0x0000, 0x0000, 0x0000, 0x0000
       0000 0000 0000 
       0000 0000      
0057B0 4701 0014 0000 08417     dw  0x4701, 0x0014, 0x0000, 0x0000, 0x0000, 0x0000, 0x0000, 0x0000
       0000 0000 0000 
       0000 0000      
0057C0 0000 0000 0000 08418     dw  0x0000, 0x0000, 0x0000, 0x0000, 0x4801, 0x0014, 0x0000, 0x0000
       0000 4801 0014 
       0000 0000      
0057D0 0000 0000 0000 08419     dw  0x0000, 0x0000, 0x0000, 0x0000, 0x0000, 0x0000, 0x0000, 0x0000
       0000 0000 0000 
       0000 0000      
0057E0 4901 0014 0000 08420     dw  0x4901, 0x0014, 0x0000, 0x0000, 0x0000, 0x0000, 0x0000, 0x0000
       0000 0000 0000 
       0000 0000      
0057F0 0000 0000 0000 08421     dw  0x0000, 0x0000, 0x0000, 0x0000, 0x4A01, 0x0014, 0x0000, 0x0000
       0000 4A01 0014 
       0000 0000      
005800 0000 0000 0000 08422     dw  0x0000, 0x0000, 0x0000, 0x0000, 0x0000, 0x0000, 0x0000, 0x0000
       0000 0000 0000 
       0000 0000      
005810 4B01 0014 0000 08423     dw  0x4B01, 0x0014, 0x0000, 0x0000, 0x0000, 0x0000, 0x0000, 0x0000
       0000 0000 0000 
       0000 0000      
005820 0000 0000 0000 08424     dw  0x0000, 0x0000, 0x0000, 0x0000, 0x4C01, 0x0014, 0x0000, 0x0000
       0000 4C01 0014 
       0000 0000      
005830 0000 0000 0000 08425     dw  0x0000, 0x0000, 0x0000, 0x0000, 0x0000, 0x0000, 0x0000, 0x0000
       0000 0000 0000 
       0000 0000      
005840 4D01 0014 0000 08426     dw  0x4D01, 0x0014, 0x0000, 0x0000, 0x0000, 0x0000, 0x0000, 0x0000
       0000 0000 0000 
       0000 0000      
005850 0000 0000 0000 08427     dw  0x0000, 0x0000, 0x0000, 0x0000, 0x4E01, 0x0014, 0x0000, 0x0000
       0000 4E01 0014 
       0000 0000      
005860 0000 0000 0000 08428     dw  0x0000, 0x0000, 0x0000, 0x0000, 0x0000, 0x0000, 0x0000, 0x0000
       0000 0000 0000 
       0000 0000      
005870 4F01 0014 0000 08429     dw  0x4F01, 0x0014, 0x0000, 0x0000, 0x0000, 0x0000, 0x0000, 0x0000
       0000 0000 0000 
       0000 0000      
005880 0000 0000 0000 08430     dw  0x0000, 0x0000, 0x0000, 0x0000, 0x5001, 0x0014, 0x0000, 0x0000
       0000 5001 0014 
       0000 0000      
005890 0000 0000 0000 08431     dw  0x0000, 0x0000, 0x0000, 0x0000, 0x0000, 0x0000, 0x0000, 0x0000
       0000 0000 0000 
       0000 0000      
0058A0 5101 0014 0000 08432     dw  0x5101, 0x0014, 0x0000, 0x0000, 0x0000, 0x0000, 0x0000, 0x0000
gpasm-1.5.2 #1325 (Jan 30 2022) src/dlcp_fw/a   03/29/2026  18:21:48        PAGE 178


LOC    OBJECT CODE    LINE  SOURCE TEXT
  VALUE

       0000 0000 0000 
       0000 0000      
0058B0 0000 0000 0000 08433     dw  0x0000, 0x0000, 0x0000, 0x0000, 0x5201, 0x0014, 0x0000, 0x0000
       0000 5201 0014 
       0000 0000      
0058C0 0000 0000 0000 08434     dw  0x0000, 0x0000, 0x0000, 0x0000, 0x0000, 0x0000, 0x0000, 0x0000
       0000 0000 0000 
       0000 0000      
0058D0 5301 0014 0000 08435     dw  0x5301, 0x0014, 0x0000, 0x0000, 0x0000, 0x0000, 0x0000, 0x0000
       0000 0000 0000 
       0000 0000      
0058E0 0000 0000 0000 08436     dw  0x0000, 0x0000, 0x0000, 0x0000, 0x5401, 0x0014, 0x0000, 0x0000
       0000 5401 0014 
       0000 0000      
0058F0 0000 0000 0000 08437     dw  0x0000, 0x0000, 0x0000, 0x0000, 0x0000, 0x0000, 0x0000, 0x0000
       0000 0000 0000 
       0000 0000      
005900 CA01 0004 0000 08438     dw  0xCA01, 0x0004, 0x0000, 0x0000, 0x0000, 0x0000, 0x0000, 0x0000
       0000 0000 0000 
       0000 0000      
005910 0000 0000 0000 08439     dw  0x0000, 0x0000, 0x0000, 0x0000, 0x5501, 0x0014, 0x0000, 0x0000
       0000 5501 0014 
       0000 0000      
005920 0000 0000 0000 08440     dw  0x0000, 0x0000, 0x0000, 0x0000, 0x0000, 0x0000, 0x0000, 0x0000
       0000 0000 0000 
       0000 0000      
005930 5601 0014 0000 08441     dw  0x5601, 0x0014, 0x0000, 0x0000, 0x0000, 0x0000, 0x0000, 0x0000
       0000 0000 0000 
       0000 0000      
005940 0000 0000 0000 08442     dw  0x0000, 0x0000, 0x0000, 0x0000, 0x5701, 0x0014, 0x0000, 0x0000
       0000 5701 0014 
       0000 0000      
005950 0000 0000 0000 08443     dw  0x0000, 0x0000, 0x0000, 0x0000, 0x0000, 0x0000, 0x0000, 0x0000
       0000 0000 0000 
       0000 0000      
005960 5801 0014 0000 08444     dw  0x5801, 0x0014, 0x0000, 0x0000, 0x0000, 0x0000, 0x0000, 0x0000
       0000 0000 0000 
       0000 0000      
005970 0000 0000 0000 08445     dw  0x0000, 0x0000, 0x0000, 0x0000, 0x5901, 0x0014, 0x0000, 0x0000
       0000 5901 0014 
       0000 0000      
005980 0000 0000 0000 08446     dw  0x0000, 0x0000, 0x0000, 0x0000, 0x0000, 0x0000, 0x0000, 0x0000
       0000 0000 0000 
       0000 0000      
005990 5A01 0014 0000 08447     dw  0x5A01, 0x0014, 0x0000, 0x0000, 0x0000, 0x0000, 0x0000, 0x0000
       0000 0000 0000 
       0000 0000      
0059A0 0000 0000 0000 08448     dw  0x0000, 0x0000, 0x0000, 0x0000, 0x5B01, 0x0014, 0x0000, 0x0000
       0000 5B01 0014 
       0000 0000      
0059B0 0000 0000 0000 08449     dw  0x0000, 0x0000, 0x0000, 0x0000, 0x0000, 0x0000, 0x0000, 0x0000
       0000 0000 0000 
       0000 0000      
gpasm-1.5.2 #1325 (Jan 30 2022) src/dlcp_fw/a   03/29/2026  18:21:48        PAGE 179


LOC    OBJECT CODE    LINE  SOURCE TEXT
  VALUE

0059C0 5C01 0014 0000 08450     dw  0x5C01, 0x0014, 0x0000, 0x0000, 0x0000, 0x0000, 0x0000, 0x0000
       0000 0000 0000 
       0000 0000      
0059D0 0000 0000 0000 08451     dw  0x0000, 0x0000, 0x0000, 0x0000, 0x5D01, 0x0014, 0x0000, 0x0000
       0000 5D01 0014 
       0000 0000      
0059E0 0000 0000 0000 08452     dw  0x0000, 0x0000, 0x0000, 0x0000, 0x0000, 0x0000, 0x0000, 0x0000
       0000 0000 0000 
       0000 0000      
0059F0 5E01 0014 0000 08453     dw  0x5E01, 0x0014, 0x0000, 0x0000, 0x0000, 0x0000, 0x0000, 0x0000
       0000 0000 0000 
       0000 0000      
005A00 0000 0000 0000 08454     dw  0x0000, 0x0000, 0x0000, 0x0000, 0x5F01, 0x0014, 0x0000, 0x0000
       0000 5F01 0014 
       0000 0000      
005A10 0000 0000 0000 08455     dw  0x0000, 0x0000, 0x0000, 0x0000, 0x0000, 0x0000, 0x0000, 0x0000
       0000 0000 0000 
       0000 0000      
005A20 6001 0014 0000 08456     dw  0x6001, 0x0014, 0x0000, 0x0000, 0x0000, 0x0000, 0x0000, 0x0000
       0000 0000 0000 
       0000 0000      
005A30 0000 0000 0000 08457     dw  0x0000, 0x0000, 0x0000, 0x0000, 0x6101, 0x0014, 0x0000, 0x0000
       0000 6101 0014 
       0000 0000      
005A40 0000 0000 0000 08458     dw  0x0000, 0x0000, 0x0000, 0x0000, 0x0000, 0x0000, 0x0000, 0x0000
       0000 0000 0000 
       0000 0000      
005A50 6201 0014 0000 08459     dw  0x6201, 0x0014, 0x0000, 0x0000, 0x0000, 0x0000, 0x0000, 0x0000
       0000 0000 0000 
       0000 0000      
005A60 0000 0000 0000 08460     dw  0x0000, 0x0000, 0x0000, 0x0000, 0x6301, 0x0014, 0x0000, 0x0000
       0000 6301 0014 
       0000 0000      
005A70 0000 0000 0000 08461     dw  0x0000, 0x0000, 0x0000, 0x0000, 0x0000, 0x0000, 0x0000, 0x0000
       0000 0000 0000 
       0000 0000      
005A80 CB01 0004 0000 08462     dw  0xCB01, 0x0004, 0x0000, 0x0000, 0x0000, 0x0000, 0x0000, 0x0000
       0000 0000 0000 
       0000 0000      
005A90 0000 0000 0000 08463     dw  0x0000, 0x0000, 0x0000, 0x0000, 0x6401, 0x0014, 0x0000, 0x0000
       0000 6401 0014 
       0000 0000      
005AA0 0000 0000 0000 08464     dw  0x0000, 0x0000, 0x0000, 0x0000, 0x0000, 0x0000, 0x0000, 0x0000
       0000 0000 0000 
       0000 0000      
005AB0 6501 0014 0000 08465     dw  0x6501, 0x0014, 0x0000, 0x0000, 0x0000, 0x0000, 0x0000, 0x0000
       0000 0000 0000 
       0000 0000      
005AC0 0000 0000 0000 08466     dw  0x0000, 0x0000, 0x0000, 0x0000, 0x6601, 0x0014, 0x0000, 0x0000
       0000 6601 0014 
       0000 0000      
005AD0 0000 0000 0000 08467     dw  0x0000, 0x0000, 0x0000, 0x0000, 0x0000, 0x0000, 0x0000, 0x0000
       0000 0000 0000 
gpasm-1.5.2 #1325 (Jan 30 2022) src/dlcp_fw/a   03/29/2026  18:21:48        PAGE 180


LOC    OBJECT CODE    LINE  SOURCE TEXT
  VALUE

       0000 0000      
005AE0 6701 0014 0000 08468     dw  0x6701, 0x0014, 0x0000, 0x0000, 0x0000, 0x0000, 0x0000, 0x0000
       0000 0000 0000 
       0000 0000      
005AF0 0000 0000 0000 08469     dw  0x0000, 0x0000, 0x0000, 0x0000, 0x6801, 0x0014, 0x0000, 0x0000
       0000 6801 0014 
       0000 0000      
005B00 0000 0000 0000 08470     dw  0x0000, 0x0000, 0x0000, 0x0000, 0x0000, 0x0000, 0x0000, 0x0000
       0000 0000 0000 
       0000 0000      
005B10 6901 0014 0000 08471     dw  0x6901, 0x0014, 0x0000, 0x0000, 0x0000, 0x0000, 0x0000, 0x0000
       0000 0000 0000 
       0000 0000      
005B20 0000 0000 0000 08472     dw  0x0000, 0x0000, 0x0000, 0x0000, 0x6A01, 0x0014, 0x0000, 0x0000
       0000 6A01 0014 
       0000 0000      
005B30 0000 0000 0000 08473     dw  0x0000, 0x0000, 0x0000, 0x0000, 0x0000, 0x0000, 0x0000, 0x0000
       0000 0000 0000 
       0000 0000      
005B40 6B01 0014 0000 08474     dw  0x6B01, 0x0014, 0x0000, 0x0000, 0x0000, 0x0000, 0x0000, 0x0000
       0000 0000 0000 
       0000 0000      
005B50 0000 0000 0000 08475     dw  0x0000, 0x0000, 0x0000, 0x0000, 0x6C01, 0x0014, 0x0000, 0x0000
       0000 6C01 0014 
       0000 0000      
005B60 0000 0000 0000 08476     dw  0x0000, 0x0000, 0x0000, 0x0000, 0x0000, 0x0000, 0x0000, 0x0000
       0000 0000 0000 
       0000 0000      
005B70 6D01 0014 0000 08477     dw  0x6D01, 0x0014, 0x0000, 0x0000, 0x0000, 0x0000, 0x0000, 0x0000
       0000 0000 0000 
       0000 0000      
005B80 0000 0000 0000 08478     dw  0x0000, 0x0000, 0x0000, 0x0000, 0x6E01, 0x0014, 0x0000, 0x0000
       0000 6E01 0014 
       0000 0000      
005B90 0000 0000 0000 08479     dw  0x0000, 0x0000, 0x0000, 0x0000, 0x0000, 0x0000, 0x0000, 0x0000
       0000 0000 0000 
       0000 0000      
005BA0 6F01 0014 0000 08480     dw  0x6F01, 0x0014, 0x0000, 0x0000, 0x0000, 0x0000, 0x0000, 0x0000
       0000 0000 0000 
       0000 0000      
005BB0 0000 0000 0000 08481     dw  0x0000, 0x0000, 0x0000, 0x0000, 0x7001, 0x0014, 0x0000, 0x0000
       0000 7001 0014 
       0000 0000      
005BC0 0000 0000 0000 08482     dw  0x0000, 0x0000, 0x0000, 0x0000, 0x0000, 0x0000, 0x0000, 0x0000
       0000 0000 0000 
       0000 0000      
005BD0 7101 0014 0000 08483     dw  0x7101, 0x0014, 0x0000, 0x0000, 0x0000, 0x0000, 0x0000, 0x0000
       0000 0000 0000 
       0000 0000      
005BE0 0000 0000 0000 08484     dw  0x0000, 0x0000, 0x0000, 0x0000, 0x7201, 0x0014, 0x0000, 0x0000
       0000 7201 0014 
       0000 0000      
005BF0 0000 0000 0000 08485     dw  0x0000, 0x0000, 0x0000, 0x0000, 0x0000, 0x0000, 0x0000, 0x0000
gpasm-1.5.2 #1325 (Jan 30 2022) src/dlcp_fw/a   03/29/2026  18:21:48        PAGE 181


LOC    OBJECT CODE    LINE  SOURCE TEXT
  VALUE

       0000 0000 0000 
       0000 0000      
005C00 CC01 0004 0000 08486     dw  0xCC01, 0x0004, 0x0000, 0x0000, 0x0000, 0x0000, 0x0000, 0x0000
       0000 0000 0000 
       0000 0000      
005C10 0000 0000 0000 08487     dw  0x0000, 0x0000, 0x0000, 0x0000, 0x7301, 0x0014, 0x0000, 0x0000
       0000 7301 0014 
       0000 0000      
005C20 0000 0000 0000 08488     dw  0x0000, 0x0000, 0x0000, 0x0000, 0x0000, 0x0000, 0x0000, 0x0000
       0000 0000 0000 
       0000 0000      
005C30 7401 0014 0000 08489     dw  0x7401, 0x0014, 0x0000, 0x0000, 0x0000, 0x0000, 0x0000, 0x0000
       0000 0000 0000 
       0000 0000      
005C40 0000 0000 0000 08490     dw  0x0000, 0x0000, 0x0000, 0x0000, 0x7501, 0x0014, 0x0000, 0x0000
       0000 7501 0014 
       0000 0000      
005C50 0000 0000 0000 08491     dw  0x0000, 0x0000, 0x0000, 0x0000, 0x0000, 0x0000, 0x0000, 0x0000
       0000 0000 0000 
       0000 0000      
005C60 7601 0014 0000 08492     dw  0x7601, 0x0014, 0x0000, 0x0000, 0x0000, 0x0000, 0x0000, 0x0000
       0000 0000 0000 
       0000 0000      
005C70 0000 0000 0000 08493     dw  0x0000, 0x0000, 0x0000, 0x0000, 0x7701, 0x0014, 0x0000, 0x0000
       0000 7701 0014 
       0000 0000      
005C80 0000 0000 0000 08494     dw  0x0000, 0x0000, 0x0000, 0x0000, 0x0000, 0x0000, 0x0000, 0x0000
       0000 0000 0000 
       0000 0000      
005C90 7801 0014 0000 08495     dw  0x7801, 0x0014, 0x0000, 0x0000, 0x0000, 0x0000, 0x0000, 0x0000
       0000 0000 0000 
       0000 0000      
005CA0 0000 0000 0000 08496     dw  0x0000, 0x0000, 0x0000, 0x0000, 0x7901, 0x0014, 0x0000, 0x0000
       0000 7901 0014 
       0000 0000      
005CB0 0000 0000 0000 08497     dw  0x0000, 0x0000, 0x0000, 0x0000, 0x0000, 0x0000, 0x0000, 0x0000
       0000 0000 0000 
       0000 0000      
005CC0 7A01 0014 0000 08498     dw  0x7A01, 0x0014, 0x0000, 0x0000, 0x0000, 0x0000, 0x0000, 0x0000
       0000 0000 0000 
       0000 0000      
005CD0 0000 0000 0000 08499     dw  0x0000, 0x0000, 0x0000, 0x0000, 0x7B01, 0x0014, 0x0000, 0x0000
       0000 7B01 0014 
       0000 0000      
005CE0 0000 0000 0000 08500     dw  0x0000, 0x0000, 0x0000, 0x0000, 0x0000, 0x0000, 0x0000, 0x0000
       0000 0000 0000 
       0000 0000      
005CF0 7C01 0014 0000 08501     dw  0x7C01, 0x0014, 0x0000, 0x0000, 0x0000, 0x0000, 0x0000, 0x0000
       0000 0000 0000 
       0000 0000      
005D00 0000 0000 0000 08502     dw  0x0000, 0x0000, 0x0000, 0x0000, 0x7D01, 0x0014, 0x0000, 0x0000
       0000 7D01 0014 
       0000 0000      
gpasm-1.5.2 #1325 (Jan 30 2022) src/dlcp_fw/a   03/29/2026  18:21:48        PAGE 182


LOC    OBJECT CODE    LINE  SOURCE TEXT
  VALUE

005D10 0000 0000 0000 08503     dw  0x0000, 0x0000, 0x0000, 0x0000, 0x0000, 0x0000, 0x0000, 0x0000
       0000 0000 0000 
       0000 0000      
005D20 7E01 0014 0000 08504     dw  0x7E01, 0x0014, 0x0000, 0x0000, 0x0000, 0x0000, 0x0000, 0x0000
       0000 0000 0000 
       0000 0000      
005D30 0000 0000 0000 08505     dw  0x0000, 0x0000, 0x0000, 0x0000, 0x7F01, 0x0014, 0x0000, 0x0000
       0000 7F01 0014 
       0000 0000      
005D40 0000 0000 0000 08506     dw  0x0000, 0x0000, 0x0000, 0x0000, 0x0000, 0x0000, 0x0000, 0x0000
       0000 0000 0000 
       0000 0000      
005D50 8001 0014 0000 08507     dw  0x8001, 0x0014, 0x0000, 0x0000, 0x0000, 0x0000, 0x0000, 0x0000
       0000 0000 0000 
       0000 0000      
005D60 0000 0000 0000 08508     dw  0x0000, 0x0000, 0x0000, 0x0000, 0x8101, 0x0014, 0x0000, 0x0000
       0000 8101 0014 
       0000 0000      
005D70 0000 0000 0000 08509     dw  0x0000, 0x0000, 0x0000, 0x0000, 0x0000, 0x0000, 0x0000, 0x0000
       0000 0000 0000 
       0000 0000      
005D80 CD01 0004 0000 08510     dw  0xCD01, 0x0004, 0x0000, 0x0000, 0x0000, 0x0000, 0x0000, 0x0000
       0000 0000 0000 
       0000 0000      
005D90 0000 0000 0000 08511     dw  0x0000, 0x0000, 0x0000, 0x0000, 0x8201, 0x0014, 0x0000, 0x0000
       0000 8201 0014 
       0000 0000      
005DA0 0000 0000 0000 08512     dw  0x0000, 0x0000, 0x0000, 0x0000, 0x0000, 0x0000, 0x0000, 0x0000
       0000 0000 0000 
       0000 0000      
005DB0 8301 0014 0000 08513     dw  0x8301, 0x0014, 0x0000, 0x0000, 0x0000, 0x0000, 0x0000, 0x0000
       0000 0000 0000 
       0000 0000      
005DC0 0000 0000 0000 08514     dw  0x0000, 0x0000, 0x0000, 0x0000, 0x8401, 0x0014, 0x0000, 0x0000
       0000 8401 0014 
       0000 0000      
005DD0 0000 0000 0000 08515     dw  0x0000, 0x0000, 0x0000, 0x0000, 0x0000, 0x0000, 0x0000, 0x0000
       0000 0000 0000 
       0000 0000      
005DE0 8501 0014 0000 08516     dw  0x8501, 0x0014, 0x0000, 0x0000, 0x0000, 0x0000, 0x0000, 0x0000
       0000 0000 0000 
       0000 0000      
005DF0 0000 0000 0000 08517     dw  0x0000, 0x0000, 0x0000, 0x0000, 0x8601, 0x0014, 0x0000, 0x0000
       0000 8601 0014 
       0000 0000      
005E00 0000 0000 0000 08518     dw  0x0000, 0x0000, 0x0000, 0x0000, 0x0000, 0x0000, 0x0000, 0x0000
       0000 0000 0000 
       0000 0000      
005E10 8701 0014 0000 08519     dw  0x8701, 0x0014, 0x0000, 0x0000, 0x0000, 0x0000, 0x0000, 0x0000
       0000 0000 0000 
       0000 0000      
005E20 0000 0000 0000 08520     dw  0x0000, 0x0000, 0x0000, 0x0000, 0x8801, 0x0014, 0x0000, 0x0000
       0000 8801 0014 
gpasm-1.5.2 #1325 (Jan 30 2022) src/dlcp_fw/a   03/29/2026  18:21:48        PAGE 183


LOC    OBJECT CODE    LINE  SOURCE TEXT
  VALUE

       0000 0000      
005E30 0000 0000 0000 08521     dw  0x0000, 0x0000, 0x0000, 0x0000, 0x0000, 0x0000, 0x0000, 0x0000
       0000 0000 0000 
       0000 0000      
005E40 8901 0014 0000 08522     dw  0x8901, 0x0014, 0x0000, 0x0000, 0x0000, 0x0000, 0x0000, 0x0000
       0000 0000 0000 
       0000 0000      
005E50 0000 0000 0000 08523     dw  0x0000, 0x0000, 0x0000, 0x0000, 0x8A01, 0x0014, 0x0000, 0x0000
       0000 8A01 0014 
       0000 0000      
005E60 0000 0000 0000 08524     dw  0x0000, 0x0000, 0x0000, 0x0000, 0x0000, 0x0000, 0x0000, 0x0000
       0000 0000 0000 
       0000 0000      
005E70 8B01 0014 0000 08525     dw  0x8B01, 0x0014, 0x0000, 0x0000, 0x0000, 0x0000, 0x0000, 0x0000
       0000 0000 0000 
       0000 0000      
005E80 0000 0000 0000 08526     dw  0x0000, 0x0000, 0x0000, 0x0000, 0x8C01, 0x0014, 0x0000, 0x0000
       0000 8C01 0014 
       0000 0000      
005E90 0000 0000 0000 08527     dw  0x0000, 0x0000, 0x0000, 0x0000, 0x0000, 0x0000, 0x0000, 0x0000
       0000 0000 0000 
       0000 0000      
005EA0 8D01 0014 0000 08528     dw  0x8D01, 0x0014, 0x0000, 0x0000, 0x0000, 0x0000, 0x0000, 0x0000
       0000 0000 0000 
       0000 0000      
005EB0 0000 0000 0000 08529     dw  0x0000, 0x0000, 0x0000, 0x0000, 0x8E01, 0x0014, 0x0000, 0x0000
       0000 8E01 0014 
       0000 0000      
005EC0 0000 0000 0000 08530     dw  0x0000, 0x0000, 0x0000, 0x0000, 0x0000, 0x0000, 0x0000, 0x0000
       0000 0000 0000 
       0000 0000      
005ED0 8F01 0014 0000 08531     dw  0x8F01, 0x0014, 0x0000, 0x0000, 0x0000, 0x0000, 0x0000, 0x0000
       0000 0000 0000 
       0000 0000      
005EE0 0000 0000 0000 08532     dw  0x0000, 0x0000, 0x0000, 0x0000, 0x9001, 0x0014, 0x0000, 0x0000
       0000 9001 0014 
       0000 0000      
005EF0 0000 0000 0000 08533     dw  0x0000, 0x0000, 0x0000, 0x0000, 0x0000, 0x0000, 0x0000, 0x0000
       0000 0000 0000 
       0000 0000      
005F00 D401 0004 0000 08534     dw  0xD401, 0x0004, 0x0000, 0x0100, 0x3101, 0x0010, 0x0000, 0x0000
       0100 3101 0010 
       0000 0000      
005F10 0000 0000 0000 08535     dw  0x0000, 0x0000, 0x0000, 0x0000, 0x0000, 0x0000, 0x3101, 0x0010
       0000 0000 0000 
       3101 0010      
005F20 8000 0000 0000 08536     dw  0x8000, 0x0000, 0x0000, 0x0000, 0x0000, 0x0000, 0x0000, 0x0000
       0000 0000 0000 
       0000 0000      
005F30 3201 0010 0000 08537     dw  0x3201, 0x0010, 0x0000, 0x0000, 0x0000, 0x0000, 0x0000, 0x0000
       0000 0000 0000 
       0000 0000      
005F40 0000 0000 3201 08538     dw  0x0000, 0x0000, 0x3201, 0x0010, 0x8000, 0x0000, 0x0000, 0x0000
gpasm-1.5.2 #1325 (Jan 30 2022) src/dlcp_fw/a   03/29/2026  18:21:48        PAGE 184


LOC    OBJECT CODE    LINE  SOURCE TEXT
  VALUE

       0010 8000 0000 
       0000 0000      
005F50 0000 0000 0000 08539     dw  0x0000, 0x0000, 0x0000, 0x0000, 0x3301, 0x0010, 0x0000, 0x0000
       0000 3301 0010 
       0000 0000      
005F60 0000 0000 0000 08540     dw  0x0000, 0x0000, 0x0000, 0x0000, 0x0000, 0x0000, 0x3301, 0x0010
       0000 0000 0000 
       3301 0010      
005F70 8000 0000 0000 08541     dw  0x8000, 0x0000, 0x0000, 0x0000, 0x0000, 0x0000, 0x0000, 0x0000
       0000 0000 0000 
       0000 0000      
005F80 3401 0010 0000 08542     dw  0x3401, 0x0010, 0x0000, 0x0000, 0x0000, 0x0000, 0x0000, 0x0000
       0000 0000 0000 
       0000 0000      
005F90 0000 0000 3401 08543     dw  0x0000, 0x0000, 0x3401, 0x0010, 0x8000, 0x0000, 0x0000, 0x0000
       0010 8000 0000 
       0000 0000      
005FA0 0000 0000 0000 08544     dw  0x0000, 0x0000, 0x0000, 0x0000, 0x3501, 0x0010, 0x0000, 0x0000
       0000 3501 0010 
       0000 0000      
005FB0 0000 0000 0000 08545     dw  0x0000, 0x0000, 0x0000, 0x0000, 0x0000, 0x0000, 0x3501, 0x0010
       0000 0000 0000 
       3501 0010      
005FC0 8000 0000 0000 08546     dw  0x8000, 0x0000, 0x0000, 0x0000, 0x0000, 0x0000, 0x0000, 0x0000
       0000 0000 0000 
       0000 0000      
005FD0 3601 0010 0000 08547     dw  0x3601, 0x0010, 0x0000, 0x0000, 0x0000, 0x0000, 0x0000, 0x0000
       0000 0000 0000 
       0000 0000      
005FE0 0000 0000 3601 08548     dw  0x0000, 0x0000, 0x3601, 0x0010, 0x8000, 0x0000, 0x0000, 0x0000
       0010 8000 0000 
       0000 0000      
005FF0 0000 0000 0000 08549     dw  0x0000, 0x0000, 0x0000, 0x0000, 0xFFFF, 0xFFFF, 0xFFFF, 0xFFFF
       0000 FFFF FFFF 
       FFFF FFFF      
                      08550 
                      08551 ; ---------------------------------------------------------------------------
                      08552 ; EEPROM Data (V3.1: version updated at offset 0x82)
                      08553 ; ---------------------------------------------------------------------------
F00000                08554     org 0xF00000
F00000                08555 eeprom_data:
F00000 FF FF FF A0 01 08556     db  0xFF, 0xFF, 0xFF, 0xA0, 0x01, 0x00, 0x00, 0x00, 0x00, 0x00, 0x01, 0x01, 0x01, 0x03, 0x04, 0x01  
                            ; ................
       00 00 00 00 00 
       01 01 01 03 04 
       01             
F00010 00 00 00 00 01 08557     db  0x00, 0x00, 0x00, 0x00, 0x01, 0xFF, 0xFF, 0xFF, 0xFF, 0xFF, 0xFF, 0xFF, 0xFF, 0xFF, 0xFF, 0xFF  
                            ; ................
       FF FF FF FF FF 
       FF FF FF FF FF 
       FF             
F00020 FF FF FF FF FF 08558     db  0xFF, 0xFF, 0xFF, 0xFF, 0xFF, 0xFF, 0xFF, 0xFF, 0xFF, 0xFF, 0xFF, 0xFF, 0xFF, 0xFF, 0xFF, 0xFF  
                            ; ................
gpasm-1.5.2 #1325 (Jan 30 2022) src/dlcp_fw/a   03/29/2026  18:21:48        PAGE 185


LOC    OBJECT CODE    LINE  SOURCE TEXT
  VALUE

       FF FF FF FF FF 
       FF FF FF FF FF 
       FF             
F00030 FF FF FF FF FF 08559     db  0xFF, 0xFF, 0xFF, 0xFF, 0xFF, 0xFF, 0xFF, 0xFF, 0xFF, 0xFF, 0xFF, 0xFF, 0xFF, 0xFF, 0xFF, 0xFF  
                            ; ................
       FF FF FF FF FF 
       FF FF FF FF FF 
       FF             
F00040 03 FF FF FF FF 08560     db  0x03, 0xFF, 0xFF, 0xFF, 0xFF, 0xFF, 0xFF, 0xFF, 0xFF, 0xFF, 0xFF, 0xFF, 0xFF, 0xFF, 0xFF, 0xFF  
                            ; ................
       FF FF FF FF FF 
       FF FF FF FF FF 
       FF             
F00050 FF FF FF FF FF 08561     db  0xFF, 0xFF, 0xFF, 0xFF, 0xFF, 0xFF, 0xFF, 0xFF, 0xFF, 0xFF, 0xFF, 0xFF, 0xFF, 0xFF, 0xFF, 0xFF  
                            ; ................
       FF FF FF FF FF 
       FF FF FF FF FF 
       FF             
F00060 FF FF FF FF FF 08562     db  0xFF, 0xFF, 0xFF, 0xFF, 0xFF, 0xFF, 0xFF, 0xFF, 0xFF, 0xFF, 0xFF, 0xFF, 0xFF, 0xFF, 0xFF, 0xFF  
                            ; ................
       FF FF FF FF FF 
       FF FF FF FF FF 
       FF             
F00070 FF FF FF FF FF 08563     db  0xFF, 0xFF, 0xFF, 0xFF, 0xFF, 0xFF, 0xFF, 0xFF, 0xFF, 0xFF, 0xFF, 0xFF, 0xFF, 0xFF, 0xFF, 0xFF  
                            ; ................
       FF FF FF FF FF 
       FF FF FF FF FF 
       FF             
F00080 03 01 31 FF FF 08564     db  0x03, 0x01, 0x31, 0xFF, 0xFF, 0xFF, 0xFF, 0xFF, 0xFF, 0xFF, 0xFF, 0xFF, 0xFF, 0xFF, 0xFF, 0xFF  
                            ; V3.1 version
       FF FF FF FF FF 
       FF FF FF FF FF 
       FF             
F00090 FF FF FF FF FF 08565     db  0xFF, 0xFF, 0xFF, 0xFF, 0xFF, 0xFF, 0xFF, 0xFF, 0xFF, 0xFF, 0xFF, 0xFF, 0xFF, 0xFF, 0xFF, 0xFF  
                            ; ................
       FF FF FF FF FF 
       FF FF FF FF FF 
       FF             
F000A0 FF FF FF FF FF 08566     db  0xFF, 0xFF, 0xFF, 0xFF, 0xFF, 0xFF, 0xFF, 0xFF, 0xFF, 0xFF, 0xFF, 0xFF, 0xFF, 0xFF, 0xFF, 0xFF  
                            ; ................
       FF FF FF FF FF 
       FF FF FF FF FF 
       FF             
F000B0 FF FF FF FF FF 08567     db  0xFF, 0xFF, 0xFF, 0xFF, 0xFF, 0xFF, 0xFF, 0xFF, 0xFF, 0xFF, 0xFF, 0xFF, 0xFF, 0xFF, 0xFF, 0xFF  
                            ; ................
       FF FF FF FF FF 
       FF FF FF FF FF 
       FF             
F000C0 FF FF FF FF FF 08568     db  0xFF, 0xFF, 0xFF, 0xFF, 0xFF, 0xFF, 0xFF, 0xFF, 0xFF, 0xFF, 0xFF, 0xFF, 0xFF, 0xFF, 0xFF, 0xFF  
                            ; ................
       FF FF FF FF FF 
       FF FF FF FF FF 
       FF             
gpasm-1.5.2 #1325 (Jan 30 2022) src/dlcp_fw/a   03/29/2026  18:21:48        PAGE 186


LOC    OBJECT CODE    LINE  SOURCE TEXT
  VALUE

F000D0 FF FF FF FF FF 08569     db  0xFF, 0xFF, 0xFF, 0xFF, 0xFF, 0xFF, 0xFF, 0xFF, 0xFF, 0xFF, 0xFF, 0xFF, 0xFF, 0xFF, 0xFF, 0xFF  
                            ; ................
       FF FF FF FF FF 
       FF FF FF FF FF 
       FF             
F000E0 FF FF FF FF FF 08570     db  0xFF, 0xFF, 0xFF, 0xFF, 0xFF, 0xFF, 0xFF, 0xFF, 0xFF, 0xFF, 0xFF, 0xFF, 0xFF, 0xFF, 0xFF, 0xFF  
                            ; ................
       FF FF FF FF FF 
       FF FF FF FF FF 
       FF             
F000F0 FF FF FF FF FF 08571     db  0xFF, 0xFF, 0xFF, 0xFF, 0xFF, 0xFF, 0xFF, 0xFF, 0xFF, 0xFF, 0xFF, 0xFF, 0xFF, 0xFF, 0xFF, 0x02  
                            ; ................
       FF FF FF FF FF 
       FF FF FF FF FF 
       02             
                      08572 
                      08573     END
gpasm-1.5.2 #1325 (Jan 30 2022) src/dlcp_fw/a   03/29/2026  18:21:48        PAGE 187


SYMBOL TABLE
  LABEL                              TYPE        VALUE         VALUE          VALUE
                                                 (hex)         (dec)          (text)

A                                 CONSTANT      00000000              0
ABDEN                             CONSTANT      00000000              0
ABDOVF                            CONSTANT      00000007              7
ACCESS                            CONSTANT      00000000              0
ACKDT                             CONSTANT      00000005              5
ACKEN                             CONSTANT      00000004              4
ACKSTAT                           CONSTANT      00000006              6
ACQT0                             CONSTANT      00000003              3
ACQT1                             CONSTANT      00000004              4
ACQT2                             CONSTANT      00000005              5
ACTVIE                            CONSTANT      00000002              2
ACTVIF                            CONSTANT      00000002              2
ADCON0                            CONSTANT      00000FC2           4034
ADCON1                            CONSTANT      00000FC1           4033
ADCON2                            CONSTANT      00000FC0           4032
ADCS0                             CONSTANT      00000000              0
ADCS1                             CONSTANT      00000001              1
ADCS2                             CONSTANT      00000002              2
ADDEN                             CONSTANT      00000003              3
ADDR0                             CONSTANT      00000000              0
ADDR1                             CONSTANT      00000001              1
ADDR2                             CONSTANT      00000002              2
ADDR3                             CONSTANT      00000003              3
ADDR4                             CONSTANT      00000004              4
ADDR5                             CONSTANT      00000005              5
ADDR6                             CONSTANT      00000006              6
ADEN                              CONSTANT      00000003              3
ADFM                              CONSTANT      00000007              7
ADIE                              CONSTANT      00000006              6
ADIF                              CONSTANT      00000006              6
ADIP                              CONSTANT      00000006              6
ADON                              CONSTANT      00000000              0
ADRES                             CONSTANT      00000FC3           4035
ADRESH                            CONSTANT      00000FC4           4036
ADRESL                            CONSTANT      00000FC3           4035
AN0                               CONSTANT      00000000              0
AN1                               CONSTANT      00000001              1
AN2                               CONSTANT      00000002              2
AN3                               CONSTANT      00000003              3
AN4                               CONSTANT      00000005              5
BANKED                            CONSTANT      00000001              1
BAUDCON                           CONSTANT      00000FB8           4024
BAUDCTL                           CONSTANT      00000FB8           4024
BCLIE                             CONSTANT      00000003              3
BCLIF                             CONSTANT      00000003              3
BCLIP                             CONSTANT      00000003              3
BF                                CONSTANT      00000000              0
BGST                              CONSTANT      00000005              5
BOR                               CONSTANT      00000000              0
BRG16                             CONSTANT      00000003              3
BRGH                              CONSTANT      00000002              2
BSR                               CONSTANT      00000FE0           4064
gpasm-1.5.2 #1325 (Jan 30 2022) src/dlcp_fw/a   03/29/2026  18:21:48        PAGE 188


SYMBOL TABLE
  LABEL                              TYPE        VALUE         VALUE          VALUE
                                                 (hex)         (dec)          (text)

BTOEE                             CONSTANT      00000004              4
BTOEF                             CONSTANT      00000004              4
BTSEE                             CONSTANT      00000007              7
BTSEF                             CONSTANT      00000007              7
C                                 CONSTANT      00000000              0
C1INV                             CONSTANT      00000004              4
C1OUT                             CONSTANT      00000006              6
C2INV                             CONSTANT      00000005              5
C2OUT                             CONSTANT      00000007              7
CCP1                              CONSTANT      00000002              2
CCP1AS                            CONSTANT      00000FB6           4022
CCP1CON                           CONSTANT      00000FBD           4029
CCP1DEL                           CONSTANT      00000FB7           4023
CCP1IE                            CONSTANT      00000002              2
CCP1IF                            CONSTANT      00000002              2
CCP1IP                            CONSTANT      00000002              2
CCP1M0                            CONSTANT      00000000              0
CCP1M1                            CONSTANT      00000001              1
CCP1M2                            CONSTANT      00000002              2
CCP1M3                            CONSTANT      00000003              3
CCP2CON                           CONSTANT      00000FBA           4026
CCP2IE                            CONSTANT      00000000              0
CCP2IF                            CONSTANT      00000000              0
CCP2IP                            CONSTANT      00000000              0
CCP2M0                            CONSTANT      00000000              0
CCP2M1                            CONSTANT      00000001              1
CCP2M2                            CONSTANT      00000002              2
CCP2M3                            CONSTANT      00000003              3
CCPR1                             CONSTANT      00000FBE           4030
CCPR1H                            CONSTANT      00000FBF           4031
CCPR1L                            CONSTANT      00000FBE           4030
CCPR2                             CONSTANT      00000FBB           4027
CCPR2H                            CONSTANT      00000FBC           4028
CCPR2L                            CONSTANT      00000FBB           4027
CFGS                              CONSTANT      00000006              6
CHS0                              CONSTANT      00000002              2
CHS1                              CONSTANT      00000003              3
CHS2                              CONSTANT      00000004              4
CHS3                              CONSTANT      00000005              5
CIS                               CONSTANT      00000003              3
CK                                CONSTANT      00000006              6
CKE                               CONSTANT      00000006              6
CKP                               CONSTANT      00000004              4
CM0                               CONSTANT      00000000              0
CM1                               CONSTANT      00000001              1
CM2                               CONSTANT      00000002              2
CMCON                             CONSTANT      00000FB4           4020
CMIE                              CONSTANT      00000006              6
CMIF                              CONSTANT      00000006              6
CMIP                              CONSTANT      00000006              6
CRC5EE                            CONSTANT      00000001              1
CRC5EF                            CONSTANT      00000001              1
gpasm-1.5.2 #1325 (Jan 30 2022) src/dlcp_fw/a   03/29/2026  18:21:48        PAGE 189


SYMBOL TABLE
  LABEL                              TYPE        VALUE         VALUE          VALUE
                                                 (hex)         (dec)          (text)

CRC16EE                           CONSTANT      00000002              2
CRC16EF                           CONSTANT      00000002              2
CREN                              CONSTANT      00000004              4
CSRC                              CONSTANT      00000007              7
CVR0                              CONSTANT      00000000              0
CVR1                              CONSTANT      00000001              1
CVR2                              CONSTANT      00000002              2
CVR3                              CONSTANT      00000003              3
CVRCON                            CONSTANT      00000FB5           4021
CVREF                             CONSTANT      00000004              4
CVREN                             CONSTANT      00000007              7
CVROE                             CONSTANT      00000006              6
CVRR                              CONSTANT      00000005              5
CVRSS                             CONSTANT      00000004              4
D                                 CONSTANT      00000005              5
DATA_ADDRESS                      CONSTANT      00000005              5
DC                                CONSTANT      00000001              1
DC1B0                             CONSTANT      00000004              4
DC1B1                             CONSTANT      00000005              5
DC2B0                             CONSTANT      00000004              4
DC2B1                             CONSTANT      00000005              5
DDRA                              DEFINITION                               TRISA
DDRB                              DEFINITION                               TRISB
DDRC                              DEFINITION                               TRISC
DDRD                              DEFINITION                               TRISD
DDRE                              DEFINITION                               TRISE
DFN8EE                            CONSTANT      00000003              3
DFN8EF                            CONSTANT      00000003              3
DIR                               CONSTANT      00000002              2
DONE                              CONSTANT      00000001              1
D_A                               CONSTANT      00000005              5
D_NOT_A                           CONSTANT      00000005              5
ECCP1AS                           CONSTANT      00000FB6           4022
ECCP1DEL                          CONSTANT      00000FB7           4023
ECCPAS0                           CONSTANT      00000004              4
ECCPAS1                           CONSTANT      00000005              5
ECCPAS2                           CONSTANT      00000006              6
ECCPASE                           CONSTANT      00000007              7
EEADR                             CONSTANT      00000FA9           4009
EECON1                            CONSTANT      00000FA6           4006
EECON2                            CONSTANT      00000FA7           4007
EEDATA                            CONSTANT      00000FA8           4008
EEIE                              CONSTANT      00000004              4
EEIF                              CONSTANT      00000004              4
EEIP                              CONSTANT      00000004              4
EEPGD                             CONSTANT      00000007              7
ENDP0                             CONSTANT      00000003              3
ENDP1                             CONSTANT      00000004              4
ENDP2                             CONSTANT      00000005              5
ENDP3                             CONSTANT      00000006              6
EPCONDIS                          CONSTANT      00000003              3
EPHSHK                            CONSTANT      00000004              4
gpasm-1.5.2 #1325 (Jan 30 2022) src/dlcp_fw/a   03/29/2026  18:21:48        PAGE 190


SYMBOL TABLE
  LABEL                              TYPE        VALUE         VALUE          VALUE
                                                 (hex)         (dec)          (text)

EPINEN                            CONSTANT      00000001              1
EPOUTEN                           CONSTANT      00000002              2
EPSTALL                           CONSTANT      00000000              0
FAST                              CONSTANT      00000001              1
FERR                              CONSTANT      00000002              2
FLTS                              CONSTANT      00000002              2
FREE                              CONSTANT      00000004              4
FRM0                              CONSTANT      00000000              0
FRM1                              CONSTANT      00000001              1
FRM2                              CONSTANT      00000002              2
FRM3                              CONSTANT      00000003              3
FRM4                              CONSTANT      00000004              4
FRM5                              CONSTANT      00000005              5
FRM6                              CONSTANT      00000006              6
FRM7                              CONSTANT      00000007              7
FRM8                              CONSTANT      00000000              0
FRM9                              CONSTANT      00000001              1
FRM10                             CONSTANT      00000002              2
FSEN                              CONSTANT      00000002              2
FSR0                              CONSTANT      00000000              0
FSR0H                             CONSTANT      00000FEA           4074
FSR0L                             CONSTANT      00000FE9           4073
FSR1                              CONSTANT      00000001              1
FSR1H                             CONSTANT      00000FE2           4066
FSR1L                             CONSTANT      00000FE1           4065
FSR2                              CONSTANT      00000002              2
FSR2H                             CONSTANT      00000FDA           4058
FSR2L                             CONSTANT      00000FD9           4057
GCEN                              CONSTANT      00000007              7
GIE                               CONSTANT      00000007              7
GIEH                              CONSTANT      00000007              7
GIEL                              CONSTANT      00000006              6
GIE_GIEH                          CONSTANT      00000007              7
GO                                CONSTANT      00000001              1
GO_DONE                           CONSTANT      00000001              1
GO_NOT_DONE                       CONSTANT      00000001              1
HLVDCON                           CONSTANT      00000FD2           4050
HLVDEN                            CONSTANT      00000004              4
HLVDIE                            CONSTANT      00000002              2
HLVDIF                            CONSTANT      00000002              2
HLVDIN                            CONSTANT      00000005              5
HLVDIP                            CONSTANT      00000002              2
HLVDL0                            CONSTANT      00000000              0
HLVDL1                            CONSTANT      00000001              1
HLVDL2                            CONSTANT      00000002              2
HLVDL3                            CONSTANT      00000003              3
I2C_DAT                           CONSTANT      00000005              5
I2C_READ                          CONSTANT      00000002              2
I2C_START                         CONSTANT      00000003              3
I2C_STOP                          CONSTANT      00000004              4
IDLEIE                            CONSTANT      00000004              4
IDLEIF                            CONSTANT      00000004              4
gpasm-1.5.2 #1325 (Jan 30 2022) src/dlcp_fw/a   03/29/2026  18:21:48        PAGE 191


SYMBOL TABLE
  LABEL                              TYPE        VALUE         VALUE          VALUE
                                                 (hex)         (dec)          (text)

IDLEN                             CONSTANT      00000007              7
INDF0                             CONSTANT      00000FEF           4079
INDF1                             CONSTANT      00000FE7           4071
INDF2                             CONSTANT      00000FDF           4063
INT0                              CONSTANT      00000000              0
INT0E                             CONSTANT      00000004              4
INT0F                             CONSTANT      00000001              1
INT0IE                            CONSTANT      00000004              4
INT0IF                            CONSTANT      00000001              1
INT1                              CONSTANT      00000001              1
INT1E                             CONSTANT      00000003              3
INT1F                             CONSTANT      00000000              0
INT1IE                            CONSTANT      00000003              3
INT1IF                            CONSTANT      00000000              0
INT1IP                            CONSTANT      00000006              6
INT1P                             CONSTANT      00000006              6
INT2                              CONSTANT      00000002              2
INT2E                             CONSTANT      00000004              4
INT2F                             CONSTANT      00000001              1
INT2IE                            CONSTANT      00000004              4
INT2IF                            CONSTANT      00000001              1
INT2IP                            CONSTANT      00000007              7
INT2P                             CONSTANT      00000007              7
INTCON                            CONSTANT      00000FF2           4082
INTCON2                           CONSTANT      00000FF1           4081
INTCON3                           CONSTANT      00000FF0           4080
INTEDG0                           CONSTANT      00000006              6
INTEDG1                           CONSTANT      00000005              5
INTEDG2                           CONSTANT      00000004              4
INTSRC                            CONSTANT      00000007              7
IOFS                              CONSTANT      00000002              2
IPEN                              CONSTANT      00000007              7
IPR1                              CONSTANT      00000F9F           3999
IPR2                              CONSTANT      00000FA2           4002
IRCF0                             CONSTANT      00000004              4
IRCF1                             CONSTANT      00000005              5
IRCF2                             CONSTANT      00000006              6
IRVST                             CONSTANT      00000005              5
IVRST                             CONSTANT      00000005              5
LATA                              CONSTANT      00000F89           3977
LATA0                             CONSTANT      00000000              0
LATA1                             CONSTANT      00000001              1
LATA2                             CONSTANT      00000002              2
LATA3                             CONSTANT      00000003              3
LATA4                             CONSTANT      00000004              4
LATA5                             CONSTANT      00000005              5
LATA6                             CONSTANT      00000006              6
LATB                              CONSTANT      00000F8A           3978
LATB0                             CONSTANT      00000000              0
LATB1                             CONSTANT      00000001              1
LATB2                             CONSTANT      00000002              2
LATB3                             CONSTANT      00000003              3
gpasm-1.5.2 #1325 (Jan 30 2022) src/dlcp_fw/a   03/29/2026  18:21:48        PAGE 192


SYMBOL TABLE
  LABEL                              TYPE        VALUE         VALUE          VALUE
                                                 (hex)         (dec)          (text)

LATB4                             CONSTANT      00000004              4
LATB5                             CONSTANT      00000005              5
LATB6                             CONSTANT      00000006              6
LATB7                             CONSTANT      00000007              7
LATC                              CONSTANT      00000F8B           3979
LATC0                             CONSTANT      00000000              0
LATC1                             CONSTANT      00000001              1
LATC2                             CONSTANT      00000002              2
LATC6                             CONSTANT      00000006              6
LATC7                             CONSTANT      00000007              7
LVDCON                            CONSTANT      00000FD2           4050
LVDEN                             CONSTANT      00000004              4
LVDIE                             CONSTANT      00000002              2
LVDIF                             CONSTANT      00000002              2
LVDIN                             CONSTANT      00000005              5
LVDIP                             CONSTANT      00000002              2
LVDL0                             CONSTANT      00000000              0
LVDL1                             CONSTANT      00000001              1
LVDL2                             CONSTANT      00000002              2
LVDL3                             CONSTANT      00000003              3
LVV0                              CONSTANT      00000000              0
LVV1                              CONSTANT      00000001              1
LVV2                              CONSTANT      00000002              2
LVV3                              CONSTANT      00000003              3
N                                 CONSTANT      00000004              4
NOT_A                             CONSTANT      00000005              5
NOT_ADDRESS                       CONSTANT      00000005              5
NOT_BOR                           CONSTANT      00000000              0
NOT_DONE                          CONSTANT      00000001              1
NOT_IPEN                          CONSTANT      00000007              7
NOT_PD                            CONSTANT      00000002              2
NOT_POR                           CONSTANT      00000001              1
NOT_RBPU                          CONSTANT      00000007              7
NOT_RI                            CONSTANT      00000004              4
NOT_T1SYNC                        CONSTANT      00000002              2
NOT_T3SYNC                        CONSTANT      00000002              2
NOT_TO                            CONSTANT      00000003              3
NOT_W                             CONSTANT      00000002              2
NOT_WRITE                         CONSTANT      00000002              2
OERR                              CONSTANT      00000001              1
OSC2                              CONSTANT      00000006              6
OSCCON                            CONSTANT      00000FD3           4051
OSCFIE                            CONSTANT      00000007              7
OSCFIF                            CONSTANT      00000007              7
OSCFIP                            CONSTANT      00000007              7
OSCTUNE                           CONSTANT      00000F9B           3995
OSTS                              CONSTANT      00000003              3
OV                                CONSTANT      00000003              3
P                                 CONSTANT      00000004              4
P1A                               CONSTANT      00000002              2
PC                                CONSTANT      00000FF9           4089
PCFG0                             CONSTANT      00000000              0
gpasm-1.5.2 #1325 (Jan 30 2022) src/dlcp_fw/a   03/29/2026  18:21:48        PAGE 193


SYMBOL TABLE
  LABEL                              TYPE        VALUE         VALUE          VALUE
                                                 (hex)         (dec)          (text)

PCFG1                             CONSTANT      00000001              1
PCFG2                             CONSTANT      00000002              2
PCFG3                             CONSTANT      00000003              3
PCL                               CONSTANT      00000FF9           4089
PCLATH                            CONSTANT      00000FFA           4090
PCLATU                            CONSTANT      00000FFB           4091
PD                                CONSTANT      00000002              2
PEIE                              CONSTANT      00000006              6
PEIE_GIEL                         CONSTANT      00000006              6
PEN                               CONSTANT      00000002              2
PGC                               CONSTANT      00000006              6
PGD                               CONSTANT      00000007              7
PGM                               CONSTANT      00000005              5
PIDEE                             CONSTANT      00000000              0
PIDEF                             CONSTANT      00000000              0
PIE1                              CONSTANT      00000F9D           3997
PIE2                              CONSTANT      00000FA0           4000
PIR1                              CONSTANT      00000F9E           3998
PIR2                              CONSTANT      00000FA1           4001
PKTDIS                            CONSTANT      00000004              4
PLUSW0                            CONSTANT      00000FEB           4075
PLUSW1                            CONSTANT      00000FE3           4067
PLUSW2                            CONSTANT      00000FDB           4059
POR                               CONSTANT      00000001              1
PORTA                             CONSTANT      00000F80           3968
PORTB                             CONSTANT      00000F81           3969
PORTC                             CONSTANT      00000F82           3970
PORTE                             CONSTANT      00000F84           3972
POSTDEC0                          CONSTANT      00000FED           4077
POSTDEC1                          CONSTANT      00000FE5           4069
POSTDEC2                          CONSTANT      00000FDD           4061
POSTINC0                          CONSTANT      00000FEE           4078
POSTINC1                          CONSTANT      00000FE6           4070
POSTINC2                          CONSTANT      00000FDE           4062
PPB0                              CONSTANT      00000000              0
PPB1                              CONSTANT      00000001              1
PPBI                              CONSTANT      00000001              1
PPBRST                            CONSTANT      00000006              6
PR2                               CONSTANT      00000FCB           4043
PREINC0                           CONSTANT      00000FEC           4076
PREINC1                           CONSTANT      00000FE4           4068
PREINC2                           CONSTANT      00000FDC           4060
PROD                              CONSTANT      00000FF3           4083
PRODH                             CONSTANT      00000FF4           4084
PRODL                             CONSTANT      00000FF3           4083
PRSEN                             CONSTANT      00000007              7
PSA                               CONSTANT      00000003              3
PSSAC0                            CONSTANT      00000002              2
PSSAC1                            CONSTANT      00000003              3
R                                 CONSTANT      00000002              2
RA0                               CONSTANT      00000000              0
RA1                               CONSTANT      00000001              1
gpasm-1.5.2 #1325 (Jan 30 2022) src/dlcp_fw/a   03/29/2026  18:21:48        PAGE 194


SYMBOL TABLE
  LABEL                              TYPE        VALUE         VALUE          VALUE
                                                 (hex)         (dec)          (text)

RA2                               CONSTANT      00000002              2
RA3                               CONSTANT      00000003              3
RA4                               CONSTANT      00000004              4
RA5                               CONSTANT      00000005              5
RA6                               CONSTANT      00000006              6
RB0                               CONSTANT      00000000              0
RB1                               CONSTANT      00000001              1
RB2                               CONSTANT      00000002              2
RB3                               CONSTANT      00000003              3
RB4                               CONSTANT      00000004              4
RB5                               CONSTANT      00000005              5
RB6                               CONSTANT      00000006              6
RB7                               CONSTANT      00000007              7
RBIE                              CONSTANT      00000003              3
RBIF                              CONSTANT      00000000              0
RBIP                              CONSTANT      00000000              0
RBPU                              CONSTANT      00000007              7
RC0                               CONSTANT      00000000              0
RC1                               CONSTANT      00000001              1
RC2                               CONSTANT      00000002              2
RC4                               CONSTANT      00000004              4
RC5                               CONSTANT      00000005              5
RC6                               CONSTANT      00000006              6
RC7                               CONSTANT      00000007              7
RCEN                              CONSTANT      00000003              3
RCIDL                             CONSTANT      00000006              6
RCIE                              CONSTANT      00000005              5
RCIF                              CONSTANT      00000005              5
RCIP                              CONSTANT      00000005              5
RCMT                              CONSTANT      00000006              6
RCON                              CONSTANT      00000FD0           4048
RCREG                             CONSTANT      00000FAE           4014
RCSTA                             CONSTANT      00000FAB           4011
RD                                CONSTANT      00000000              0
RD16                              CONSTANT      00000007              7
RE3                               CONSTANT      00000003              3
READ_WRITE                        CONSTANT      00000002              2
RESUME                            CONSTANT      00000002              2
RI                                CONSTANT      00000004              4
RSEN                              CONSTANT      00000001              1
RX                                CONSTANT      00000007              7
RX9                               CONSTANT      00000006              6
RX9D                              CONSTANT      00000000              0
RXDTP                             CONSTANT      00000005              5
R_NOT_W                           CONSTANT      00000002              2
R_W                               CONSTANT      00000002              2
S                                 CONSTANT      00000003              3
SBOREN                            CONSTANT      00000006              6
SCKP                              CONSTANT      00000004              4
SCS0                              CONSTANT      00000000              0
SCS1                              CONSTANT      00000001              1
SE0                               CONSTANT      00000005              5
gpasm-1.5.2 #1325 (Jan 30 2022) src/dlcp_fw/a   03/29/2026  18:21:48        PAGE 195


SYMBOL TABLE
  LABEL                              TYPE        VALUE         VALUE          VALUE
                                                 (hex)         (dec)          (text)

SEN                               CONSTANT      00000000              0
SENDB                             CONSTANT      00000003              3
SMP                               CONSTANT      00000007              7
SOFIE                             CONSTANT      00000006              6
SOFIF                             CONSTANT      00000006              6
SPBRG                             CONSTANT      00000FAF           4015
SPBRGH                            CONSTANT      00000FB0           4016
SPEN                              CONSTANT      00000007              7
SREN                              CONSTANT      00000005              5
SSPADD                            CONSTANT      00000FC8           4040
SSPBUF                            CONSTANT      00000FC9           4041
SSPCON1                           CONSTANT      00000FC6           4038
SSPCON2                           CONSTANT      00000FC5           4037
SSPEN                             CONSTANT      00000005              5
SSPIE                             CONSTANT      00000003              3
SSPIF                             CONSTANT      00000003              3
SSPIP                             CONSTANT      00000003              3
SSPM0                             CONSTANT      00000000              0
SSPM1                             CONSTANT      00000001              1
SSPM2                             CONSTANT      00000002              2
SSPM3                             CONSTANT      00000003              3
SSPOV                             CONSTANT      00000006              6
SSPSTAT                           CONSTANT      00000FC7           4039
STALLIE                           CONSTANT      00000005              5
STALLIF                           CONSTANT      00000005              5
STATUS                            CONSTANT      00000FD8           4056
STKFUL                            CONSTANT      00000007              7
STKOVF                            CONSTANT      00000007              7
STKPTR                            CONSTANT      00000FFC           4092
STKPTR0                           CONSTANT      00000000              0
STKPTR1                           CONSTANT      00000001              1
STKPTR2                           CONSTANT      00000002              2
STKPTR3                           CONSTANT      00000003              3
STKPTR4                           CONSTANT      00000004              4
STKUNF                            CONSTANT      00000006              6
SUSPND                            CONSTANT      00000001              1
SWDTE                             CONSTANT      00000000              0
SWDTEN                            CONSTANT      00000000              0
SYNC                              CONSTANT      00000004              4
T08BIT                            CONSTANT      00000006              6
T0CKI                             CONSTANT      00000004              4
T0CON                             CONSTANT      00000FD5           4053
T0CS                              CONSTANT      00000005              5
T0IE                              CONSTANT      00000005              5
T0IF                              CONSTANT      00000002              2
T0IP                              CONSTANT      00000002              2
T0PS0                             CONSTANT      00000000              0
T0PS1                             CONSTANT      00000001              1
T0PS2                             CONSTANT      00000002              2
T0SE                              CONSTANT      00000004              4
T1CKPS0                           CONSTANT      00000004              4
T1CKPS1                           CONSTANT      00000005              5
gpasm-1.5.2 #1325 (Jan 30 2022) src/dlcp_fw/a   03/29/2026  18:21:48        PAGE 196


SYMBOL TABLE
  LABEL                              TYPE        VALUE         VALUE          VALUE
                                                 (hex)         (dec)          (text)

T1CON                             CONSTANT      00000FCD           4045
T1OSCEN                           CONSTANT      00000003              3
T1OSI                             CONSTANT      00000001              1
T1OSO                             CONSTANT      00000000              0
T1RUN                             CONSTANT      00000006              6
T1SYNC                            CONSTANT      00000002              2
T2CKPS0                           CONSTANT      00000000              0
T2CKPS1                           CONSTANT      00000001              1
T2CON                             CONSTANT      00000FCA           4042
T2OUTPS0                          CONSTANT      00000003              3
T2OUTPS1                          CONSTANT      00000004              4
T2OUTPS2                          CONSTANT      00000005              5
T2OUTPS3                          CONSTANT      00000006              6
T3CCP1                            CONSTANT      00000003              3
T3CCP2                            CONSTANT      00000006              6
T3CKPS0                           CONSTANT      00000004              4
T3CKPS1                           CONSTANT      00000005              5
T3CON                             CONSTANT      00000FB1           4017
T3NSYNC                           CONSTANT      00000002              2
T3SYNC                            CONSTANT      00000002              2
T13CKI                            CONSTANT      00000000              0
TABLAT                            CONSTANT      00000FF5           4085
TBLPTR                            CONSTANT      00000FF6           4086
TBLPTRH                           CONSTANT      00000FF7           4087
TBLPTRL                           CONSTANT      00000FF6           4086
TBLPTRU                           CONSTANT      00000FF8           4088
TMR0                              CONSTANT      00000FD6           4054
TMR0H                             CONSTANT      00000FD7           4055
TMR0IE                            CONSTANT      00000005              5
TMR0IF                            CONSTANT      00000002              2
TMR0IP                            CONSTANT      00000002              2
TMR0L                             CONSTANT      00000FD6           4054
TMR0ON                            CONSTANT      00000007              7
TMR1                              CONSTANT      00000FCE           4046
TMR1CS                            CONSTANT      00000001              1
TMR1H                             CONSTANT      00000FCF           4047
TMR1IE                            CONSTANT      00000000              0
TMR1IF                            CONSTANT      00000000              0
TMR1IP                            CONSTANT      00000000              0
TMR1L                             CONSTANT      00000FCE           4046
TMR1ON                            CONSTANT      00000000              0
TMR2                              CONSTANT      00000FCC           4044
TMR2IE                            CONSTANT      00000001              1
TMR2IF                            CONSTANT      00000001              1
TMR2IP                            CONSTANT      00000001              1
TMR2ON                            CONSTANT      00000002              2
TMR3                              CONSTANT      00000FB2           4018
TMR3CS                            CONSTANT      00000001              1
TMR3H                             CONSTANT      00000FB3           4019
TMR3IE                            CONSTANT      00000001              1
TMR3IF                            CONSTANT      00000001              1
TMR3IP                            CONSTANT      00000001              1
gpasm-1.5.2 #1325 (Jan 30 2022) src/dlcp_fw/a   03/29/2026  18:21:48        PAGE 197


SYMBOL TABLE
  LABEL                              TYPE        VALUE         VALUE          VALUE
                                                 (hex)         (dec)          (text)

TMR3L                             CONSTANT      00000FB2           4018
TMR3ON                            CONSTANT      00000000              0
TO                                CONSTANT      00000003              3
TOS                               CONSTANT      00000FFD           4093
TOSH                              CONSTANT      00000FFE           4094
TOSL                              CONSTANT      00000FFD           4093
TOSU                              CONSTANT      00000FFF           4095
TOUTPS0                           CONSTANT      00000003              3
TOUTPS1                           CONSTANT      00000004              4
TOUTPS2                           CONSTANT      00000005              5
TOUTPS3                           CONSTANT      00000006              6
TRISA                             CONSTANT      00000F92           3986
TRISA0                            CONSTANT      00000000              0
TRISA1                            CONSTANT      00000001              1
TRISA2                            CONSTANT      00000002              2
TRISA3                            CONSTANT      00000003              3
TRISA4                            CONSTANT      00000004              4
TRISA5                            CONSTANT      00000005              5
TRISA6                            CONSTANT      00000006              6
TRISB                             CONSTANT      00000F93           3987
TRISB0                            CONSTANT      00000000              0
TRISB1                            CONSTANT      00000001              1
TRISB2                            CONSTANT      00000002              2
TRISB3                            CONSTANT      00000003              3
TRISB4                            CONSTANT      00000004              4
TRISB5                            CONSTANT      00000005              5
TRISB6                            CONSTANT      00000006              6
TRISB7                            CONSTANT      00000007              7
TRISC                             CONSTANT      00000F94           3988
TRISC0                            CONSTANT      00000000              0
TRISC1                            CONSTANT      00000001              1
TRISC2                            CONSTANT      00000002              2
TRISC6                            CONSTANT      00000006              6
TRISC7                            CONSTANT      00000007              7
TRMT                              CONSTANT      00000001              1
TRNIE                             CONSTANT      00000003              3
TRNIF                             CONSTANT      00000003              3
TUN0                              CONSTANT      00000000              0
TUN1                              CONSTANT      00000001              1
TUN2                              CONSTANT      00000002              2
TUN3                              CONSTANT      00000003              3
TUN4                              CONSTANT      00000004              4
TX                                CONSTANT      00000006              6
TX9                               CONSTANT      00000006              6
TX9D                              CONSTANT      00000000              0
TXCKP                             CONSTANT      00000004              4
TXEN                              CONSTANT      00000005              5
TXIE                              CONSTANT      00000004              4
TXIF                              CONSTANT      00000004              4
TXIP                              CONSTANT      00000004              4
TXREG                             CONSTANT      00000FAD           4013
TXSTA                             CONSTANT      00000FAC           4012
gpasm-1.5.2 #1325 (Jan 30 2022) src/dlcp_fw/a   03/29/2026  18:21:48        PAGE 198


SYMBOL TABLE
  LABEL                              TYPE        VALUE         VALUE          VALUE
                                                 (hex)         (dec)          (text)

UA                                CONSTANT      00000001              1
UADDR                             CONSTANT      00000F6E           3950
UCFG                              CONSTANT      00000F6F           3951
UCON                              CONSTANT      00000F6D           3949
UEIE                              CONSTANT      00000F6B           3947
UEIR                              CONSTANT      00000F6A           3946
UEP0                              CONSTANT      00000F70           3952
UEP1                              CONSTANT      00000F71           3953
UEP2                              CONSTANT      00000F72           3954
UEP3                              CONSTANT      00000F73           3955
UEP4                              CONSTANT      00000F74           3956
UEP5                              CONSTANT      00000F75           3957
UEP6                              CONSTANT      00000F76           3958
UEP7                              CONSTANT      00000F77           3959
UEP8                              CONSTANT      00000F78           3960
UEP9                              CONSTANT      00000F79           3961
UEP10                             CONSTANT      00000F7A           3962
UEP11                             CONSTANT      00000F7B           3963
UEP12                             CONSTANT      00000F7C           3964
UEP13                             CONSTANT      00000F7D           3965
UEP14                             CONSTANT      00000F7E           3966
UEP15                             CONSTANT      00000F7F           3967
UERRIE                            CONSTANT      00000001              1
UERRIF                            CONSTANT      00000001              1
UFRM                              CONSTANT      00000F66           3942
UFRMH                             CONSTANT      00000F67           3943
UFRML                             CONSTANT      00000F66           3942
UIE                               CONSTANT      00000F69           3945
UIR                               CONSTANT      00000F68           3944
UOEMON                            CONSTANT      00000006              6
UPUEN                             CONSTANT      00000004              4
URSTIE                            CONSTANT      00000000              0
URSTIF                            CONSTANT      00000000              0
USBEN                             CONSTANT      00000003              3
USBIE                             CONSTANT      00000005              5
USBIF                             CONSTANT      00000005              5
USBIP                             CONSTANT      00000005              5
USTAT                             CONSTANT      00000F6C           3948
UTEYE                             CONSTANT      00000007              7
UTRDIS                            CONSTANT      00000003              3
VCFG0                             CONSTANT      00000004              4
VCFG1                             CONSTANT      00000005              5
VDIRMAG                           CONSTANT      00000007              7
VREFM                             CONSTANT      00000002              2
VREFP                             CONSTANT      00000003              3
W                                 CONSTANT      00000000              0
WCOL                              CONSTANT      00000007              7
WDTCON                            CONSTANT      00000FD1           4049
WR                                CONSTANT      00000001              1
WREG                              CONSTANT      00000FE8           4072
WREN                              CONSTANT      00000002              2
WRERR                             CONSTANT      00000003              3
gpasm-1.5.2 #1325 (Jan 30 2022) src/dlcp_fw/a   03/29/2026  18:21:48        PAGE 199


SYMBOL TABLE
  LABEL                              TYPE        VALUE         VALUE          VALUE
                                                 (hex)         (dec)          (text)

WUE                               CONSTANT      00000001              1
Z                                 CONSTANT      00000002              2
_BORV_0_2L                        CONSTANT      000000E7            231
_BORV_1_2L                        CONSTANT      000000EF            239
_BORV_2_2L                        CONSTANT      000000F7            247
_BORV_3_2L                        CONSTANT      000000FF            255
_BOR_OFF_2L                       CONSTANT      000000F9            249
_BOR_ON_2L                        CONSTANT      000000FF            255
_BOR_ON_ACTIVE_2L                 CONSTANT      000000FD            253
_BOR_SOFT_2L                      CONSTANT      000000FB            251
_CCP2MX_OFF_3H                    CONSTANT      000000FE            254
_CCP2MX_ON_3H                     CONSTANT      000000FF            255
_CONFIG1H                         CONSTANT      00300001        3145729
_CONFIG1L                         CONSTANT      00300000        3145728
_CONFIG2H                         CONSTANT      00300003        3145731
_CONFIG2L                         CONSTANT      00300002        3145730
_CONFIG3H                         CONSTANT      00300005        3145733
_CONFIG4L                         CONSTANT      00300006        3145734
_CONFIG5H                         CONSTANT      00300009        3145737
_CONFIG5L                         CONSTANT      00300008        3145736
_CONFIG6H                         CONSTANT      0030000B        3145739
_CONFIG6L                         CONSTANT      0030000A        3145738
_CONFIG7H                         CONSTANT      0030000D        3145741
_CONFIG7L                         CONSTANT      0030000C        3145740
_CP0_OFF_5L                       CONSTANT      000000FF            255
_CP0_ON_5L                        CONSTANT      000000FE            254
_CP1_OFF_5L                       CONSTANT      000000FF            255
_CP1_ON_5L                        CONSTANT      000000FD            253
_CP2_OFF_5L                       CONSTANT      000000FF            255
_CP2_ON_5L                        CONSTANT      000000FB            251
_CPB_OFF_5H                       CONSTANT      000000FF            255
_CPB_ON_5H                        CONSTANT      000000BF            191
_CPD_OFF_5H                       CONSTANT      000000FF            255
_CPD_ON_5H                        CONSTANT      0000007F            127
_CPUDIV_OSC1_PLL2_1L              CONSTANT      000000E7            231
_CPUDIV_OSC2_PLL3_1L              CONSTANT      000000EF            239
_CPUDIV_OSC3_PLL4_1L              CONSTANT      000000F7            247
_CPUDIV_OSC4_PLL6_1L              CONSTANT      000000FF            255
_DEBUG_OFF_4L                     CONSTANT      000000FF            255
_DEBUG_ON_4L                      CONSTANT      0000007F            127
_DEVID1                           CONSTANT      003FFFFE        4194302
_DEVID2                           CONSTANT      003FFFFF        4194303
_EBTR0_OFF_7L                     CONSTANT      000000FF            255
_EBTR0_ON_7L                      CONSTANT      000000FE            254
_EBTR1_OFF_7L                     CONSTANT      000000FF            255
_EBTR1_ON_7L                      CONSTANT      000000FD            253
_EBTR2_OFF_7L                     CONSTANT      000000FF            255
_EBTR2_ON_7L                      CONSTANT      000000FB            251
_EBTRB_OFF_7H                     CONSTANT      000000FF            255
_EBTRB_ON_7H                      CONSTANT      000000BF            191
_FCMEN_OFF_1H                     CONSTANT      000000BF            191
_FCMEN_ON_1H                      CONSTANT      000000FF            255
gpasm-1.5.2 #1325 (Jan 30 2022) src/dlcp_fw/a   03/29/2026  18:21:48        PAGE 200


SYMBOL TABLE
  LABEL                              TYPE        VALUE         VALUE          VALUE
                                                 (hex)         (dec)          (text)

_FOSC_ECIO_EC_1H                  CONSTANT      000000F4            244
_FOSC_ECPLLIO_EC_1H               CONSTANT      000000F6            246
_FOSC_ECPLL_EC_1H                 CONSTANT      000000F7            247
_FOSC_EC_EC_1H                    CONSTANT      000000F5            245
_FOSC_HSPLL_HS_1H                 CONSTANT      000000FE            254
_FOSC_HS_1H                       CONSTANT      000000FC            252
_FOSC_INTOSCIO_EC_1H              CONSTANT      000000F8            248
_FOSC_INTOSC_EC_1H                CONSTANT      000000F9            249
_FOSC_INTOSC_HS_1H                CONSTANT      000000FB            251
_FOSC_INTOSC_XT_1H                CONSTANT      000000FA            250
_FOSC_XTPLL_XT_1H                 CONSTANT      000000F2            242
_FOSC_XT_XT_1H                    CONSTANT      000000F0            240
_IDLOC0                           CONSTANT      00200000        2097152
_IDLOC1                           CONSTANT      00200001        2097153
_IDLOC2                           CONSTANT      00200002        2097154
_IDLOC3                           CONSTANT      00200003        2097155
_IDLOC4                           CONSTANT      00200004        2097156
_IDLOC5                           CONSTANT      00200005        2097157
_IDLOC6                           CONSTANT      00200006        2097158
_IDLOC7                           CONSTANT      00200007        2097159
_IESO_OFF_1H                      CONSTANT      0000007F            127
_IESO_ON_1H                       CONSTANT      000000FF            255
_LPT1OSC_OFF_3H                   CONSTANT      000000FB            251
_LPT1OSC_ON_3H                    CONSTANT      000000FF            255
_LVP_OFF_4L                       CONSTANT      000000FB            251
_LVP_ON_4L                        CONSTANT      000000FF            255
_MCLRE_OFF_3H                     CONSTANT      0000007F            127
_MCLRE_ON_3H                      CONSTANT      000000FF            255
_PBADEN_OFF_3H                    CONSTANT      000000FD            253
_PBADEN_ON_3H                     CONSTANT      000000FF            255
_PLLDIV_1_1L                      CONSTANT      000000F8            248
_PLLDIV_2_1L                      CONSTANT      000000F9            249
_PLLDIV_3_1L                      CONSTANT      000000FA            250
_PLLDIV_4_1L                      CONSTANT      000000FB            251
_PLLDIV_5_1L                      CONSTANT      000000FC            252
_PLLDIV_6_1L                      CONSTANT      000000FD            253
_PLLDIV_10_1L                     CONSTANT      000000FE            254
_PLLDIV_12_1L                     CONSTANT      000000FF            255
_PWRT_OFF_2L                      CONSTANT      000000FF            255
_PWRT_ON_2L                       CONSTANT      000000FE            254
_STVREN_OFF_4L                    CONSTANT      000000FE            254
_STVREN_ON_4L                     CONSTANT      000000FF            255
_USBDIV_1_1L                      CONSTANT      000000DF            223
_USBDIV_2_1L                      CONSTANT      000000FF            255
_VREGEN_OFF_2L                    CONSTANT      000000DF            223
_VREGEN_ON_2L                     CONSTANT      000000FF            255
_WDTPS_1_2H                       CONSTANT      000000E1            225
_WDTPS_2_2H                       CONSTANT      000000E3            227
_WDTPS_4_2H                       CONSTANT      000000E5            229
_WDTPS_8_2H                       CONSTANT      000000E7            231
_WDTPS_16_2H                      CONSTANT      000000E9            233
_WDTPS_32_2H                      CONSTANT      000000EB            235
gpasm-1.5.2 #1325 (Jan 30 2022) src/dlcp_fw/a   03/29/2026  18:21:48        PAGE 201


SYMBOL TABLE
  LABEL                              TYPE        VALUE         VALUE          VALUE
                                                 (hex)         (dec)          (text)

_WDTPS_64_2H                      CONSTANT      000000ED            237
_WDTPS_128_2H                     CONSTANT      000000EF            239
_WDTPS_256_2H                     CONSTANT      000000F1            241
_WDTPS_512_2H                     CONSTANT      000000F3            243
_WDTPS_1024_2H                    CONSTANT      000000F5            245
_WDTPS_2048_2H                    CONSTANT      000000F7            247
_WDTPS_4096_2H                    CONSTANT      000000F9            249
_WDTPS_8192_2H                    CONSTANT      000000FB            251
_WDTPS_16384_2H                   CONSTANT      000000FD            253
_WDTPS_32768_2H                   CONSTANT      000000FF            255
_WDT_OFF_2H                       CONSTANT      000000FE            254
_WDT_ON_2H                        CONSTANT      000000FF            255
_WRT0_OFF_6L                      CONSTANT      000000FF            255
_WRT0_ON_6L                       CONSTANT      000000FE            254
_WRT1_OFF_6L                      CONSTANT      000000FF            255
_WRT1_ON_6L                       CONSTANT      000000FD            253
_WRT2_OFF_6L                      CONSTANT      000000FF            255
_WRT2_ON_6L                       CONSTANT      000000FB            251
_WRTB_OFF_6H                      CONSTANT      000000FF            255
_WRTB_ON_6H                       CONSTANT      000000BF            191
_WRTC_OFF_6H                      CONSTANT      000000FF            255
_WRTC_ON_6H                       CONSTANT      000000DF            223
_WRTD_OFF_6H                      CONSTANT      000000FF            255
_WRTD_ON_6H                       CONSTANT      0000007F            127
_XINST_OFF_4L                     CONSTANT      000000BF            191
_XINST_ON_4L                      CONSTANT      000000FF            255
__16_BIT                          CONSTANT      00000001              1
__18F2455                         CONSTANT      00000001              1
__ACC_RAM_LOW_END                 CONSTANT      0000005F             95
__ACC_RAM_LOW_START               CONSTANT      00000000              0
__ACTIVE_BANK_ADDR                VARIABLE      FFFFFFFF             -1
__ASSUMED_BANK_ADDR               VARIABLE      FFFFFFFF             -1
__BANK_0                          CONSTANT      00000000              0
__BANK_1                          CONSTANT      00000100            256
__BANK_2                          CONSTANT      00000200            512
__BANK_3                          CONSTANT      00000300            768
__BANK_4                          CONSTANT      00000400           1024
__BANK_5                          CONSTANT      00000500           1280
__BANK_6                          CONSTANT      00000600           1536
__BANK_7                          CONSTANT      00000700           1792
__BANK_8                          CONSTANT      00000800           2048
__BANK_9                          CONSTANT      00000900           2304
__BANK_10                         CONSTANT      00000A00           2560
__BANK_11                         CONSTANT      00000B00           2816
__BANK_12                         CONSTANT      00000C00           3072
__BANK_13                         CONSTANT      00000D00           3328
__BANK_14                         CONSTANT      00000E00           3584
__BANK_15                         CONSTANT      00000F00           3840
__BANK_BITS                       CONSTANT      00000F00           3840
__BANK_FIRST                      CONSTANT      00000000              0
__BANK_INV                        CONSTANT      FFFFFFFF             -1
__BANK_LAST                       CONSTANT      00000F00           3840
gpasm-1.5.2 #1325 (Jan 30 2022) src/dlcp_fw/a   03/29/2026  18:21:48        PAGE 202


SYMBOL TABLE
  LABEL                              TYPE        VALUE         VALUE          VALUE
                                                 (hex)         (dec)          (text)

__BANK_MASK                       CONSTANT      000000FF            255
__BANK_SHIFT                      CONSTANT      00000008              8
__BANK_SIZE                       CONSTANT      00000100            256
__CODE_END                        CONSTANT      00005FFF          24575
__CODE_START                      CONSTANT      00000000              0
__COMMON_RAM_END                  CONSTANT      0000005F             95
__COMMON_RAM_START                CONSTANT      00000000              0
__CONFIG_END                      CONSTANT      0030000D        3145741
__CONFIG_START                    CONSTANT      00300000        3145728
__EEPROM_END                      CONSTANT      00F000FF       15728895
__EEPROM_START                    CONSTANT      00F00000       15728640
__EXTENDED                        CONSTANT      00000001              1
__GPUTILS_SVN_VERSION             CONSTANT      0000052D           1325
__GPUTILS_VERSION_MAJOR           CONSTANT      00000001              1
__GPUTILS_VERSION_MICRO           CONSTANT      00000002              2
__GPUTILS_VERSION_MINOR           CONSTANT      00000005              5
__IDLOCS_END                      CONSTANT      00200007        2097159
__IDLOCS_START                    CONSTANT      00200000        2097152
__NUM_BANKS                       CONSTANT      00000010             16
__VECTOR_INT_HIGH                 CONSTANT      00000008              8
__VECTOR_INT_LOW                  CONSTANT      00000018             24
__VECTOR_RESET                    CONSTANT      00000000              0
__WHILE_LOOP_COUNT_MAX            CONSTANT      000000FF            255
active_flags                      CONSTANT      0000005E             94
adaptive_baud_select              ADDRESS       0000394C          14668
adc_boot_gate                     ADDRESS       00002D94          11668
adc_boot_gate_exit                ADDRESS       00002DD0          11728
adc_boot_gate_loop                ADDRESS       00002DA0          11680
an0_hysteresis_monitor            ADDRESS       000041EE          16878
cmd03_mute_off_handler            ADDRESS       00001CE2           7394
cmd03_mute_on_handler             ADDRESS       00001CAC           7340
cmd03_subdispatch                 ADDRESS       00001CFC           7420
cmd04_status_response             ADDRESS       00001D0E           7438
cmd06_input_select_handler        ADDRESS       00001D14           7444
cmd_dispatch_gated                ADDRESS       000018EE           6382
cmd_dispatch_xor_chain            ADDRESS       00001E2E           7726
cmd_gate_reject                   ADDRESS       00001BE4           7140
coeff_write_pen_done              ADDRESS       000045AC          17836
coeff_write_pen_stock             ADDRESS       000045A6          17830
coeff_write_pen_timeout           ADDRESS       000045A0          17824
computed_volume                   CONSTANT      0000006E            110
computed_volume_1                 CONSTANT      0000006F            111
computed_volume_2                 CONSTANT      00000070            112
computed_volume_3                 CONSTANT      00000071            113
dsp_fault_flags                   CONSTANT      0000007F            127
dsp_ping                          ADDRESS       00004B1E          19230
dsp_ping_nack                     ADDRESS       00004B3C          19260
eeprom_data                       ADDRESS       00F00000       15728640
eeprom_read_byte                  ADDRESS       0000491E          18718
eeprom_write_blocking             ADDRESS       0000445C          17500
event_flags                       CONSTANT      0000007E            126
factory_reset_status_emit         ADDRESS       000048E8          18664
gpasm-1.5.2 #1325 (Jan 30 2022) src/dlcp_fw/a   03/29/2026  18:21:48        PAGE 203


SYMBOL TABLE
  LABEL                              TYPE        VALUE         VALUE          VALUE
                                                 (hex)         (dec)          (text)

flash_erase                       ADDRESS       00003DD2          15826
flash_erase_remap_end             ADDRESS       00003DEC          15852
flash_erase_stock                 ADDRESS       00003E02          15874
flash_read                        ADDRESS       0000408E          16526
flash_read_stock                  ADDRESS       000040A8          16552
flash_write                       ADDRESS       00002E76          11894
flash_write_stock                 ADDRESS       00002E90          11920
flash_write_with_gie_off          ADDRESS       00004338          17208
flow_adaptive_baud_select_3936    ADDRESS       0000395C          14684
flow_adaptive_baud_select_3940    ADDRESS       00003966          14694
flow_adc_boot_gate_2dbc           ADDRESS       00002DC4          11716
flow_app_entry_1014               ADDRESS       00001014           4116
flow_cmd_dispatch_gated_1a9c      ADDRESS       00001A9C           6812
flow_cmd_dispatch_gated_1a76      ADDRESS       00001A76           6774
flow_cmd_dispatch_gated_1ab6      ADDRESS       00001AB6           6838
flow_cmd_dispatch_gated_1ab8      ADDRESS       00001AB8           6840
flow_cmd_dispatch_gated_1aca      ADDRESS       00001ACA           6858
flow_cmd_dispatch_gated_1ada      ADDRESS       00001ADA           6874
flow_cmd_dispatch_gated_1ae0      ADDRESS       00001AE0           6880
flow_cmd_dispatch_gated_1afc      ADDRESS       00001AFC           6908
flow_cmd_dispatch_gated_1b02      ADDRESS       00001B02           6914
flow_cmd_dispatch_gated_1b1e      ADDRESS       00001B1E           6942
flow_cmd_dispatch_gated_1b8a      ADDRESS       00001B8A           7050
flow_cmd_dispatch_gated_1b24      ADDRESS       00001B24           6948
flow_cmd_dispatch_gated_1b40      ADDRESS       00001B40           6976
flow_cmd_dispatch_gated_1b46      ADDRESS       00001B46           6982
flow_cmd_dispatch_gated_1b62      ADDRESS       00001B62           7010
flow_cmd_dispatch_gated_1b68      ADDRESS       00001B68           7016
flow_cmd_dispatch_gated_1b84      ADDRESS       00001B84           7044
flow_cmd_dispatch_gated_1baa      ADDRESS       00001BAA           7082
flow_cmd_dispatch_gated_1bc8      ADDRESS       00001BC8           7112
flow_cmd_dispatch_gated_1bd6      ADDRESS       00001BD6           7126
flow_cmd_dispatch_gated_18fe      ADDRESS       000018FE           6398
flow_cmd_dispatch_gated_19a8      ADDRESS       000019A8           6568
flow_cmd_dispatch_gated_19be      ADDRESS       000019BE           6590
flow_cmd_dispatch_gated_19c4      ADDRESS       000019C4           6596
flow_cmd_dispatch_gated_19ca      ADDRESS       000019CA           6602
flow_cmd_dispatch_gated_19d0      ADDRESS       000019D0           6608
flow_cmd_dispatch_gated_19d6      ADDRESS       000019D6           6614
flow_cmd_dispatch_gated_19e6      ADDRESS       000019E6           6630
flow_cmd_dispatch_gated_194c      ADDRESS       0000194C           6476
flow_cmd_dispatch_gated_1918      ADDRESS       00001918           6424
flow_cmd_dispatch_gated_1932      ADDRESS       00001932           6450
flow_cmd_dispatch_gated_1966      ADDRESS       00001966           6502
flow_cmd_dispatch_gated_1970      ADDRESS       00001970           6512
flow_cmd_dispatch_gated_1990      ADDRESS       00001990           6544
flow_eeprom_write_blocking_43f4   ADDRESS       00004476          17526
flow_eeprom_write_blocking_4400   ADDRESS       00004482          17538
flow_eeprom_write_blocking_4402   ADDRESS       00004484          17540
flow_flash_erase_3dc0             ADDRESS       00003E16          15894
flow_flash_erase_3dde             ADDRESS       00003E34          15924
flow_flash_erase_3df4             ADDRESS       00003E4A          15946
gpasm-1.5.2 #1325 (Jan 30 2022) src/dlcp_fw/a   03/29/2026  18:21:48        PAGE 204


SYMBOL TABLE
  LABEL                              TYPE        VALUE         VALUE          VALUE
                                                 (hex)         (dec)          (text)

flow_flash_read_4052              ADDRESS       000040D2          16594
flow_flash_read_4064              ADDRESS       000040E4          16612
flow_flash_write_2e84             ADDRESS       00002EA6          11942
flow_flash_write_2e94             ADDRESS       00002EB6          11958
flow_flash_write_2eb6             ADDRESS       00002ED8          11992
flow_flash_write_2ec4             ADDRESS       00002EE6          12006
flow_flash_write_2ef6             ADDRESS       00002F18          12056
flow_flash_write_2efc             ADDRESS       00002F1E          12062
flow_flash_write_2f24             ADDRESS       00002F46          12102
flow_flash_write_2f32             ADDRESS       00002F54          12116
flow_flash_write_2f44             ADDRESS       00002F66          12134
flow_flash_write_with_gie_off_42d2  ADDRESS       00004352          17234
flow_flash_write_with_gie_off_42ec  ADDRESS       0000436C          17260
flow_fw_update_relay_15d8         ADDRESS       000015D8           5592
flow_fw_update_relay_15e4         ADDRESS       000015E4           5604
flow_fw_update_relay_16fa         ADDRESS       000016FA           5882
flow_fw_update_relay_17bc         ADDRESS       000017BC           6076
flow_fw_update_relay_18a0         ADDRESS       000018A0           6304
flow_fw_update_relay_18bc         ADDRESS       000018BC           6332
flow_fw_update_relay_18c0         ADDRESS       000018C0           6336
flow_fw_update_relay_18cc         ADDRESS       000018CC           6348
flow_fw_update_relay_18d0         ADDRESS       000018D0           6352
flow_fw_update_relay_18dc         ADDRESS       000018DC           6364
flow_fw_update_relay_162c         ADDRESS       0000162C           5676
flow_fw_update_relay_164c         ADDRESS       0000164C           5708
flow_fw_update_relay_165a         ADDRESS       0000165A           5722
flow_fw_update_relay_172a         ADDRESS       0000172A           5930
flow_fw_update_relay_179c         ADDRESS       0000179C           6044
flow_fw_update_relay_179e         ADDRESS       0000179E           6046
flow_fw_update_relay_182e         ADDRESS       0000182E           6190
flow_fw_update_relay_1606         ADDRESS       00001606           5638
flow_fw_update_relay_1610         ADDRESS       00001610           5648
flow_fw_update_relay_1612         ADDRESS       00001612           5650
flow_fw_update_relay_1634         ADDRESS       00001634           5684
flow_fw_update_relay_1640         ADDRESS       00001640           5696
flow_fw_update_relay_1662         ADDRESS       00001662           5730
flow_fw_update_relay_1792         ADDRESS       00001792           6034
flow_fw_update_relay_1796         ADDRESS       00001796           6038
flow_fw_update_relay_1884         ADDRESS       00001884           6276
flow_hid_command_dispatch_10ba    ADDRESS       000010BA           4282
flow_hid_command_dispatch_10ca    ADDRESS       000010CA           4298
flow_hid_command_dispatch_10d0    ADDRESS       000010D0           4304
flow_hid_command_dispatch_10e0    ADDRESS       000010E0           4320
flow_hid_command_dispatch_10fa    ADDRESS       000010FA           4346
flow_hid_command_dispatch_10fc    ADDRESS       000010FC           4348
flow_hid_command_dispatch_11a4    ADDRESS       000011A4           4516
flow_hid_command_dispatch_11b2    ADDRESS       000011B2           4530
flow_hid_command_dispatch_11c0    ADDRESS       000011C0           4544
flow_hid_command_dispatch_11ce    ADDRESS       000011CE           4558
flow_hid_command_dispatch_11ec    ADDRESS       000011EC           4588
flow_hid_command_dispatch_11ee    ADDRESS       000011EE           4590
flow_hid_command_dispatch_11fa    ADDRESS       000011FA           4602
gpasm-1.5.2 #1325 (Jan 30 2022) src/dlcp_fw/a   03/29/2026  18:21:48        PAGE 205


SYMBOL TABLE
  LABEL                              TYPE        VALUE         VALUE          VALUE
                                                 (hex)         (dec)          (text)

flow_hid_command_dispatch_11fe    ADDRESS       000011FE           4606
flow_hid_command_dispatch_12a2    ADDRESS       000012A2           4770
flow_hid_command_dispatch_12ac    ADDRESS       000012AC           4780
flow_hid_command_dispatch_12b6    ADDRESS       000012B6           4790
flow_hid_command_dispatch_12c0    ADDRESS       000012C0           4800
flow_hid_command_dispatch_12ca    ADDRESS       000012CA           4810
flow_hid_command_dispatch_12e0    ADDRESS       000012E0           4832
flow_hid_command_dispatch_13a2    ADDRESS       000013A2           5026
flow_hid_command_dispatch_13ba    ADDRESS       000013BA           5050
flow_hid_command_dispatch_13ca    ADDRESS       000013CA           5066
flow_hid_command_dispatch_13d0    ADDRESS       000013D0           5072
flow_hid_command_dispatch_14ce    ADDRESS       000014CE           5326
flow_hid_command_dispatch_14f0    ADDRESS       000014F0           5360
flow_hid_command_dispatch_14fa    ADDRESS       000014FA           5370
flow_hid_command_dispatch_14fc    ADDRESS       000014FC           5372
flow_hid_command_dispatch_15a8    ADDRESS       000015A8           5544
flow_hid_command_dispatch_15aa    ADDRESS       000015AA           5546
flow_hid_command_dispatch_111a    ADDRESS       0000111A           4378
flow_hid_command_dispatch_112a    ADDRESS       0000112A           4394
flow_hid_command_dispatch_112e    ADDRESS       0000112E           4398
flow_hid_command_dispatch_114a    ADDRESS       0000114A           4426
flow_hid_command_dispatch_115c    ADDRESS       0000115C           4444
flow_hid_command_dispatch_116a    ADDRESS       0000116A           4458
flow_hid_command_dispatch_118a    ADDRESS       0000118A           4490
flow_hid_command_dispatch_120a    ADDRESS       0000120A           4618
flow_hid_command_dispatch_120e    ADDRESS       0000120E           4622
flow_hid_command_dispatch_121a    ADDRESS       0000121A           4634
flow_hid_command_dispatch_121e    ADDRESS       0000121E           4638
flow_hid_command_dispatch_122a    ADDRESS       0000122A           4650
flow_hid_command_dispatch_122e    ADDRESS       0000122E           4654
flow_hid_command_dispatch_123a    ADDRESS       0000123A           4666
flow_hid_command_dispatch_123e    ADDRESS       0000123E           4670
flow_hid_command_dispatch_124a    ADDRESS       0000124A           4682
flow_hid_command_dispatch_124e    ADDRESS       0000124E           4686
flow_hid_command_dispatch_129c    ADDRESS       0000129C           4764
flow_hid_command_dispatch_138a    ADDRESS       0000138A           5002
flow_hid_command_dispatch_141a    ADDRESS       0000141A           5146
flow_hid_command_dispatch_150a    ADDRESS       0000150A           5386
flow_hid_command_dispatch_154c    ADDRESS       0000154C           5452
flow_hid_command_dispatch_156e    ADDRESS       0000156E           5486
flow_hid_command_dispatch_157a    ADDRESS       0000157A           5498
flow_hid_command_dispatch_158c    ADDRESS       0000158C           5516
flow_hid_command_dispatch_159e    ADDRESS       0000159E           5534
flow_hid_command_dispatch_1104    ADDRESS       00001104           4356
flow_hid_command_dispatch_1110    ADDRESS       00001110           4368
flow_hid_command_dispatch_1126    ADDRESS       00001126           4390
flow_hid_command_dispatch_1134    ADDRESS       00001134           4404
flow_hid_command_dispatch_1140    ADDRESS       00001140           4416
flow_hid_command_dispatch_1172    ADDRESS       00001172           4466
flow_hid_command_dispatch_1324    ADDRESS       00001324           4900
flow_hid_command_dispatch_1342    ADDRESS       00001342           4930
flow_hid_command_dispatch_1344    ADDRESS       00001344           4932
gpasm-1.5.2 #1325 (Jan 30 2022) src/dlcp_fw/a   03/29/2026  18:21:48        PAGE 206


SYMBOL TABLE
  LABEL                              TYPE        VALUE         VALUE          VALUE
                                                 (hex)         (dec)          (text)

flow_hid_command_dispatch_1374    ADDRESS       00001374           4980
flow_hid_command_dispatch_1378    ADDRESS       00001378           4984
flow_hid_command_dispatch_1384    ADDRESS       00001384           4996
flow_hid_command_dispatch_1392    ADDRESS       00001392           5010
flow_hid_command_dispatch_1398    ADDRESS       00001398           5016
flow_hid_command_dispatch_1402    ADDRESS       00001402           5122
flow_hid_command_dispatch_1504    ADDRESS       00001504           5380
flow_hid_command_dispatch_1524    ADDRESS       00001524           5412
flow_hid_command_dispatch_1532    ADDRESS       00001532           5426
flow_hid_command_dispatch_1562    ADDRESS       00001562           5474
flow_hid_command_dispatch_1568    ADDRESS       00001568           5480
flow_hid_command_dispatch_1574    ADDRESS       00001574           5492
flow_hid_command_dispatch_1580    ADDRESS       00001580           5504
flow_hid_command_dispatch_1586    ADDRESS       00001586           5510
flow_hid_command_dispatch_1592    ADDRESS       00001592           5522
flow_hid_command_dispatch_1598    ADDRESS       00001598           5528
flow_hw_standby_shutdown_3c3e     ADDRESS       00003C64          15460
flow_hw_standby_shutdown_3c34     ADDRESS       00003C5A          15450
flow_hw_standby_shutdown_3c58     ADDRESS       00003C7E          15486
flow_hw_standby_shutdown_3c78     ADDRESS       00003C9E          15518
flow_i2c_byte_tx_bf               ADDRESS       00003F0E          16142
flow_i2c_byte_tx_exit             ADDRESS       00003F28          16168
flow_i2c_byte_tx_master           ADDRESS       00003EF2          16114
flow_i2c_byte_tx_sspif            ADDRESS       00003EE8          16104
flow_i2c_secondary_dev_random_426c  ADDRESS       000042EC          17132
flow_i2c_secondary_dev_random_4246  ADDRESS       000042C6          17094
flow_i2c_secondary_dev_random_4258  ADDRESS       000042D8          17112
flow_i2c_secondary_dev_random_4272  ADDRESS       000042F2          17138
flow_i2c_wait_bus_idle_48c6       ADDRESS       00004978          18808
flow_intel_hex_checksum_updat_3f90  ADDRESS       00003FF6          16374
flow_intel_hex_checksum_updat_3fa0  ADDRESS       00004006          16390
flow_intel_hex_checksum_updat_3fa2  ADDRESS       00004008          16392
flow_intel_hex_checksum_updat_3fba  ADDRESS       00004020          16416
flow_intel_hex_checksum_updat_3fca  ADDRESS       00004030          16432
flow_intel_hex_checksum_updat_3fcc  ADDRESS       00004032          16434
flow_main_adc_service_4124_41ae   ADDRESS       0000422E          16942
flow_main_adc_service_4124_41b2   ADDRESS       00004232          16946
flow_main_adc_service_4124_41b4   ADDRESS       00004234          16948
flow_main_adc_service_4124_413c   ADDRESS       000041BC          16828
flow_main_adc_service_4124_415a   ADDRESS       000041DA          16858
flow_main_adc_service_4124_4134   ADDRESS       000041B4          16820
flow_main_adc_service_4124_4140   ADDRESS       000041C0          16832
flow_main_adc_service_4124_4164   ADDRESS       000041E4          16868
flow_main_core_service_1e88_1f6a  ADDRESS       00001F72           8050
flow_main_core_service_1e88_1f7e  ADDRESS       00001F86           8070
flow_main_core_service_1e88_1f8a  ADDRESS       00001F92           8082
flow_main_core_service_1e88_1f54  ADDRESS       00001F5C           8028
flow_main_core_service_1e88_1f60  ADDRESS       00001F68           8040
flow_main_core_service_1e88_1f72  ADDRESS       00001F7A           8058
flow_main_core_service_1e88_1f98  ADDRESS       00001FA0           8096
flow_main_core_service_1e88_1fa6  ADDRESS       00001FAE           8110
flow_main_core_service_1e88_1fb4  ADDRESS       00001FBC           8124
gpasm-1.5.2 #1325 (Jan 30 2022) src/dlcp_fw/a   03/29/2026  18:21:48        PAGE 207


SYMBOL TABLE
  LABEL                              TYPE        VALUE         VALUE          VALUE
                                                 (hex)         (dec)          (text)

flow_main_core_service_1e88_1fbc  ADDRESS       00001FC4           8132
flow_main_core_service_1e88_1fc6  ADDRESS       00001FCE           8142
flow_main_core_service_1e88_20c2  ADDRESS       000020CA           8394
flow_main_core_service_1e88_209c  ADDRESS       000020A4           8356
flow_main_core_service_1e88_2026  ADDRESS       0000202E           8238
flow_main_core_service_1e88_2030  ADDRESS       00002038           8248
flow_main_core_service_1e88_2070  ADDRESS       00002078           8312
flow_main_core_service_1e88_2078  ADDRESS       00002080           8320
flow_main_core_service_1e88_2080  ADDRESS       00002088           8328
flow_main_core_service_1e88_2088  ADDRESS       00002090           8336
flow_main_core_service_2abc_2ad0  ADDRESS       00002AD8          10968
flow_main_core_service_2abc_2ad2  ADDRESS       00002ADA          10970
flow_main_core_service_2abc_2ae0  ADDRESS       00002AE8          10984
flow_main_core_service_2abc_2af4  ADDRESS       00002AFC          11004
flow_main_core_service_2abc_2af6  ADDRESS       00002AFE          11006
flow_main_core_service_2abc_2b02  ADDRESS       00002B0A          11018
flow_main_core_service_2abc_2b0c  ADDRESS       00002B14          11028
flow_main_core_service_2abc_2b4a  ADDRESS       00002B52          11090
flow_main_core_service_2abc_2b8c  ADDRESS       00002B94          11156
flow_main_core_service_2abc_2b30  ADDRESS       00002B38          11064
flow_main_core_service_2abc_2b38  ADDRESS       00002B40          11072
flow_main_core_service_2abc_2b52  ADDRESS       00002B5A          11098
flow_main_core_service_2ca8_2cbc  ADDRESS       00002CC4          11460
flow_main_core_service_2ca8_2cbe  ADDRESS       00002CC6          11462
flow_main_core_service_2ca8_2ccc  ADDRESS       00002CD4          11476
flow_main_core_service_2ca8_2ce0  ADDRESS       00002CE8          11496
flow_main_core_service_2ca8_2ce2  ADDRESS       00002CEA          11498
flow_main_core_service_2ca8_2cee  ADDRESS       00002CF6          11510
flow_main_core_service_2ca8_2cf8  ADDRESS       00002D00          11520
flow_main_core_service_2ca8_2d7e  ADDRESS       00002D86          11654
flow_main_core_service_2ca8_2d16  ADDRESS       00002D1E          11550
flow_main_core_service_2ca8_2d44  ADDRESS       00002D4C          11596
flow_main_core_service_3c82_3c9c  ADDRESS       00003CC2          15554
flow_main_core_service_3c82_3cbc  ADDRESS       00003CE2          15586
flow_main_core_service_3c82_3ce6  ADDRESS       00003D0C          15628
flow_main_core_service_3e0a_3e3a  ADDRESS       00003E90          16016
flow_main_core_service_3e0a_3e24  ADDRESS       00003E7A          15994
flow_main_core_service_3fd0_3fd8  ADDRESS       0000403E          16446
flow_main_core_service_3fd0_3fdc  ADDRESS       00004042          16450
flow_main_core_service_3fd0_3ffa  ADDRESS       00004060          16480
flow_main_core_service_24c2_24d6  ADDRESS       000024DE           9438
flow_main_core_service_24c2_24d8  ADDRESS       000024E0           9440
flow_main_core_service_24c2_24f4  ADDRESS       000024FC           9468
flow_main_core_service_24c2_24f6  ADDRESS       000024FE           9470
flow_main_core_service_24c2_25a2  ADDRESS       000025AA           9642
flow_main_core_service_24c2_25c2  ADDRESS       000025CA           9674
flow_main_core_service_24c2_25ce  ADDRESS       000025D6           9686
flow_main_core_service_24c2_25d4  ADDRESS       000025DC           9692
flow_main_core_service_24c2_25ea  ADDRESS       000025F2           9714
flow_main_core_service_24c2_25f2  ADDRESS       000025FA           9722
flow_main_core_service_24c2_253c  ADDRESS       00002544           9540
flow_main_core_service_24c2_254e  ADDRESS       00002556           9558
gpasm-1.5.2 #1325 (Jan 30 2022) src/dlcp_fw/a   03/29/2026  18:21:48        PAGE 208


SYMBOL TABLE
  LABEL                              TYPE        VALUE         VALUE          VALUE
                                                 (hex)         (dec)          (text)

flow_main_core_service_24c2_259c  ADDRESS       000025A4           9636
flow_main_core_service_24c2_263c  ADDRESS       00002644           9796
flow_main_core_service_24c2_2514  ADDRESS       0000251C           9500
flow_main_core_service_24c2_2526  ADDRESS       0000252E           9518
flow_main_core_service_24c2_2568  ADDRESS       00002570           9584
flow_main_core_service_24c2_2588  ADDRESS       00002590           9616
flow_main_core_service_24c2_2594  ADDRESS       0000259C           9628
flow_main_core_service_24c2_2610  ADDRESS       00002618           9752
flow_main_core_service_30d8_30e6  ADDRESS       00003108          12552
flow_main_core_service_30d8_30f0  ADDRESS       00003112          12562
flow_main_core_service_30d8_30f4  ADDRESS       00003116          12566
flow_main_core_service_30d8_310c  ADDRESS       0000312E          12590
flow_main_core_service_30d8_311a  ADDRESS       0000313C          12604
flow_main_core_service_30d8_313c  ADDRESS       0000315E          12638
flow_main_core_service_30d8_3130  ADDRESS       00003152          12626
flow_main_core_service_30d8_3148  ADDRESS       0000316A          12650
flow_main_core_service_30d8_3186  ADDRESS       000031A8          12712
flow_main_core_service_34c8_34d4  ADDRESS       000034F6          13558
flow_main_core_service_34c8_3504  ADDRESS       00003526          13606
flow_main_core_service_34c8_3542  ADDRESS       00003564          13668
flow_main_core_service_41b6_41e4  ADDRESS       00004264          16996
flow_main_core_service_265c_26cc  ADDRESS       000026D4           9940
flow_main_core_service_265c_27bc  ADDRESS       000027C4          10180
flow_main_core_service_265c_27c4  ADDRESS       000027CC          10188
flow_main_core_service_265c_27ec  ADDRESS       000027F4          10228
flow_main_core_service_265c_27ee  ADDRESS       000027F6          10230
flow_main_core_service_265c_274c  ADDRESS       00002754          10068
flow_main_core_service_265c_278c  ADDRESS       00002794          10132
flow_main_core_service_265c_2728  ADDRESS       00002730          10032
flow_main_core_service_265c_2794  ADDRESS       0000279C          10140
flow_main_core_service_301a_30a2  ADDRESS       000030C4          12484
flow_main_core_service_301a_30a6  ADDRESS       000030C8          12488
flow_main_core_service_301a_30ba  ADDRESS       000030DC          12508
flow_main_core_service_301a_30ca  ADDRESS       000030EC          12524
flow_main_core_service_301a_302e  ADDRESS       00003050          12368
flow_main_core_service_301a_303c  ADDRESS       0000305E          12382
flow_main_core_service_301a_305a  ADDRESS       0000307C          12412
flow_main_core_service_301a_305c  ADDRESS       0000307E          12414
flow_main_core_service_301a_307e  ADDRESS       000030A0          12448
flow_main_core_service_301a_308e  ADDRESS       000030B0          12464
flow_main_core_service_301a_3030  ADDRESS       00003052          12370
flow_main_core_service_301a_3046  ADDRESS       00003068          12392
flow_main_core_service_301a_3096  ADDRESS       000030B8          12472
flow_main_core_service_427a_42a4  ADDRESS       00004324          17188
flow_main_core_service_427a_42ae  ADDRESS       0000432E          17198
flow_main_core_service_427a_428e  ADDRESS       0000430E          17166
flow_main_core_service_427a_4286  ADDRESS       00004306          17158
flow_main_core_service_427a_4292  ADDRESS       00004312          17170
flow_main_core_service_2328_24a6  ADDRESS       000024AE           9390
flow_main_core_service_2328_232e  ADDRESS       00002336           9014
flow_main_core_service_2328_234a  ADDRESS       00002352           9042
flow_main_core_service_2328_235c  ADDRESS       00002364           9060
gpasm-1.5.2 #1325 (Jan 30 2022) src/dlcp_fw/a   03/29/2026  18:21:48        PAGE 209


SYMBOL TABLE
  LABEL                              TYPE        VALUE         VALUE          VALUE
                                                 (hex)         (dec)          (text)

flow_main_core_service_2328_236c  ADDRESS       00002374           9076
flow_main_core_service_2328_240c  ADDRESS       00002414           9236
flow_main_core_service_2328_247c  ADDRESS       00002484           9348
flow_main_core_service_2328_2336  ADDRESS       0000233E           9022
flow_main_core_service_2328_2364  ADDRESS       0000236C           9068
flow_main_core_service_2328_2380  ADDRESS       00002388           9096
flow_main_core_service_2328_2460  ADDRESS       00002468           9320
flow_main_core_service_2328_2466  ADDRESS       0000246E           9326
flow_main_core_service_2328_2472  ADDRESS       0000247A           9338
flow_main_core_service_2328_2482  ADDRESS       0000248A           9354
flow_main_core_service_2328_2488  ADDRESS       00002490           9360
flow_main_core_service_3188_31aa  ADDRESS       000031CC          12748
flow_main_core_service_3188_31bc  ADDRESS       000031DE          12766
flow_main_core_service_3188_31cc  ADDRESS       000031EE          12782
flow_main_core_service_3188_31d4  ADDRESS       000031F6          12790
flow_main_core_service_3188_31d8  ADDRESS       000031FA          12794
flow_main_core_service_3188_31e4  ADDRESS       00003206          12806
flow_main_core_service_3188_31e6  ADDRESS       00003208          12808
flow_main_core_service_3188_31f4  ADDRESS       00003216          12822
flow_main_core_service_3188_31fa  ADDRESS       0000321C          12828
flow_main_core_service_3188_32b4  ADDRESS       000032D6          13014
flow_main_core_service_3188_32cc  ADDRESS       000032EE          13038
flow_main_core_service_3188_32dc  ADDRESS       000032FE          13054
flow_main_core_service_3188_32e6  ADDRESS       00003308          13064
flow_main_core_service_3188_32f0  ADDRESS       00003312          13074
flow_main_core_service_3188_32f6  ADDRESS       00003318          13080
flow_main_core_service_3188_321c  ADDRESS       0000323E          12862
flow_main_core_service_3188_324a  ADDRESS       0000326C          12908
flow_main_core_service_3188_324c  ADDRESS       0000326E          12910
flow_main_core_service_3188_326c  ADDRESS       0000328E          12942
flow_main_core_service_3188_3194  ADDRESS       000031B6          12726
flow_main_core_service_3188_3200  ADDRESS       00003222          12834
flow_main_core_service_3188_3208  ADDRESS       0000322A          12842
flow_main_core_service_3188_3212  ADDRESS       00003234          12852
flow_main_core_service_3188_3226  ADDRESS       00003248          12872
flow_main_core_service_3188_3230  ADDRESS       00003252          12882
flow_main_core_service_3188_3278  ADDRESS       0000329A          12954
flow_main_core_service_3188_3292  ADDRESS       000032B4          12980
flow_main_core_service_3398_33cc  ADDRESS       000033EE          13294
flow_main_core_service_3398_33e8  ADDRESS       0000340A          13322
flow_main_core_service_3398_3430  ADDRESS       00003452          13394
flow_main_core_service_3432_34ae  ADDRESS       000034D0          13520
flow_main_core_service_3432_34b8  ADDRESS       000034DA          13530
flow_main_core_service_3432_34c6  ADDRESS       000034E8          13544
flow_main_core_service_3432_344a  ADDRESS       0000346C          13420
flow_main_core_service_3432_344c  ADDRESS       0000346E          13422
flow_main_core_service_3432_349c  ADDRESS       000034BE          13502
flow_main_core_service_3682_36a2  ADDRESS       000036C8          14024
flow_main_core_service_3682_36ac  ADDRESS       000036D2          14034
flow_main_core_service_3682_36b4  ADDRESS       000036DA          14042
flow_main_core_service_3682_36ba  ADDRESS       000036E0          14048
flow_main_core_service_3682_36c0  ADDRESS       000036E6          14054
gpasm-1.5.2 #1325 (Jan 30 2022) src/dlcp_fw/a   03/29/2026  18:21:48        PAGE 210


SYMBOL TABLE
  LABEL                              TYPE        VALUE         VALUE          VALUE
                                                 (hex)         (dec)          (text)

flow_main_core_service_3682_36d2  ADDRESS       000036F8          14072
flow_main_core_service_3682_36e4  ADDRESS       0000370A          14090
flow_main_core_service_3682_368c  ADDRESS       000036B2          14002
flow_main_core_service_3682_369c  ADDRESS       000036C2          14018
flow_main_core_service_3682_370e  ADDRESS       00003734          14132
flow_main_core_service_3682_3696  ADDRESS       000036BC          14012
flow_main_core_service_3710_372c  ADDRESS       00003752          14162
flow_main_core_service_3710_3718  ADDRESS       0000373E          14142
flow_main_core_service_3710_3726  ADDRESS       0000374C          14156
flow_main_core_service_3710_3770  ADDRESS       00003796          14230
flow_main_core_service_3710_3780  ADDRESS       000037A6          14246
flow_main_core_service_3710_3794  ADDRESS       000037BA          14266
flow_main_core_service_4080_40a8  ADDRESS       00004128          16680
flow_main_core_service_4080_40ae  ADDRESS       0000412E          16686
flow_main_core_service_4448_444e  ADDRESS       000044D0          17616
flow_main_core_service_4448_445c  ADDRESS       000044DE          17630
flow_main_core_service_4448_446c  ADDRESS       000044EE          17646
flow_main_core_service_4448_447c  ADDRESS       000044FE          17662
flow_main_core_service_4448_4456  ADDRESS       000044D8          17624
flow_main_core_service_4448_4462  ADDRESS       000044E4          17636
flow_main_core_service_4448_4468  ADDRESS       000044EA          17642
flow_main_core_service_4516_451a  ADDRESS       000045B2          17842
flow_main_core_service_4516_451e  ADDRESS       000045B6          17846
flow_main_core_service_4516_452c  ADDRESS       000045C4          17860
flow_main_core_service_4516_4520  ADDRESS       000045B8          17848
flow_main_core_service_4516_4526  ADDRESS       000045BE          17854
flow_main_core_service_4516_4530  ADDRESS       000045C8          17864
flow_main_core_service_4516_4534  ADDRESS       000045CC          17868
flow_main_core_service_4516_4544  ADDRESS       000045DC          17884
flow_main_core_service_4574_457e  ADDRESS       00004616          17942
flow_main_core_service_4672_467c  ADDRESS       00004714          18196
flow_main_flash_service_2bb8_2bdc  ADDRESS       00002BE4          11236
flow_main_flash_service_2bb8_2bea  ADDRESS       00002BF2          11250
flow_main_flash_service_2bb8_2bee  ADDRESS       00002BF6          11254
flow_main_flash_service_2bb8_2bf6  ADDRESS       00002BFE          11262
flow_main_flash_service_2bb8_2ca6  ADDRESS       00002CAE          11438
flow_main_flash_service_3ce8_3d04  ADDRESS       00003D2A          15658
flow_main_flash_service_3ce8_3d4c  ADDRESS       00003D72          15730
flow_main_flash_service_3ce8_3d4e  ADDRESS       00003D74          15732
flow_main_flash_service_3ce8_3d6c  ADDRESS       00003D92          15762
flow_main_flash_service_3ce8_3d54  ADDRESS       00003D7A          15738
flow_main_flash_service_3ce8_3d60  ADDRESS       00003D86          15750
flow_main_flash_service_3ce8_3d78  ADDRESS       00003D9E          15774
flow_main_flash_service_3ce8_3d96  ADDRESS       00003DBC          15804
flow_main_flash_service_35f0_360e  ADDRESS       00003634          13876
flow_main_flash_service_35f0_362c  ADDRESS       00003652          13906
flow_main_flash_service_35f0_363c  ADDRESS       00003662          13922
flow_main_flash_service_35f0_363e  ADDRESS       00003664          13924
flow_main_flash_service_35f0_365a  ADDRESS       00003680          13952
flow_main_flash_service_35f0_3608  ADDRESS       0000362E          13870
flow_main_flash_service_35f0_3610  ADDRESS       00003636          13878
flow_main_flash_service_35f0_3638  ADDRESS       0000365E          13918
gpasm-1.5.2 #1325 (Jan 30 2022) src/dlcp_fw/a   03/29/2026  18:21:48        PAGE 211


SYMBOL TABLE
  LABEL                              TYPE        VALUE         VALUE          VALUE
                                                 (hex)         (dec)          (text)

flow_main_flash_service_35f0_3644  ADDRESS       0000366A          13930
flow_main_flash_service_35f0_3650  ADDRESS       00003676          13942
flow_main_flash_service_35f0_3654  ADDRESS       0000367A          13946
flow_main_flash_service_35f0_3656  ADDRESS       0000367C          13948
flow_main_flash_service_46de_46fe  ADDRESS       00004798          18328
flow_main_flash_service_3796_37ae  ADDRESS       000037D4          14292
flow_main_flash_service_3796_37c4  ADDRESS       000037EA          14314
flow_main_flash_service_3796_37c8  ADDRESS       000037EE          14318
flow_main_flash_service_3796_37f4  ADDRESS       0000381A          14362
flow_main_flash_service_3796_37f6  ADDRESS       0000381C          14364
flow_main_flash_service_3796_37fe  ADDRESS       00003824          14372
flow_main_flash_service_3796_379e  ADDRESS       000037C4          14276
flow_main_flash_service_3796_380c  ADDRESS       00003832          14386
flow_main_flash_service_3796_380e  ADDRESS       00003834          14388
flow_main_i2c_service_27f0_28a6   ADDRESS       000028AE          10414
flow_main_i2c_service_27f0_28aa   ADDRESS       000028B2          10418
flow_main_i2c_service_27f0_28ce   ADDRESS       000028D6          10454
flow_main_i2c_service_27f0_280c   ADDRESS       00002814          10260
flow_main_i2c_service_27f0_282e   ADDRESS       00002836          10294
flow_main_i2c_service_27f0_283a   ADDRESS       00002842          10306
flow_main_i2c_service_27f0_284e   ADDRESS       00002856          10326
flow_main_i2c_service_27f0_285a   ADDRESS       00002862          10338
flow_main_i2c_service_27f0_286e   ADDRESS       00002876          10358
flow_main_i2c_service_27f0_288a   ADDRESS       00002892          10386
flow_main_i2c_service_27f0_289e   ADDRESS       000028A6          10406
flow_main_i2c_service_27f0_290a   ADDRESS       00002912          10514
flow_main_i2c_service_27f0_291a   ADDRESS       00002922          10530
flow_main_i2c_service_27f0_292e   ADDRESS       00002936          10550
flow_main_i2c_service_27f0_295a   ADDRESS       00002962          10594
flow_main_i2c_service_27f0_295c   ADDRESS       00002964          10596
flow_main_i2c_service_27f0_296c   ADDRESS       00002974          10612
flow_main_i2c_service_27f0_297a   ADDRESS       00002982          10626
flow_main_i2c_service_27f0_297c   ADDRESS       00002984          10628
flow_main_i2c_service_27f0_2800   ADDRESS       00002808          10248
flow_main_i2c_service_27f0_2808   ADDRESS       00002810          10256
flow_main_i2c_service_27f0_2818   ADDRESS       00002820          10272
flow_main_i2c_service_27f0_2824   ADDRESS       0000282C          10284
flow_main_i2c_service_27f0_2844   ADDRESS       0000284C          10316
flow_main_i2c_service_27f0_2864   ADDRESS       0000286C          10348
flow_main_i2c_service_27f0_2876   ADDRESS       0000287E          10366
flow_main_i2c_service_27f0_2880   ADDRESS       00002888          10376
flow_main_i2c_service_27f0_2894   ADDRESS       0000289C          10396
flow_main_i2c_service_27f0_2902   ADDRESS       0000290A          10506
flow_main_i2c_service_27f0_2906   ADDRESS       0000290E          10510
flow_main_i2c_service_27f0_2912   ADDRESS       0000291A          10522
flow_main_i2c_service_27f0_2924   ADDRESS       0000292C          10540
flow_main_i2c_service_355c_35bc   ADDRESS       000035DE          13790
flow_main_i2c_service_381c_38a0   ADDRESS       000038C6          14534
flow_main_i2c_service_381c_389c   ADDRESS       000038C2          14530
flow_main_i2c_service_381c_3870   ADDRESS       00003896          14486
flow_main_i2c_service_381c_3884   ADDRESS       000038AA          14506
flow_main_i2c_service_381c_3894   ADDRESS       000038BA          14522
gpasm-1.5.2 #1325 (Jan 30 2022) src/dlcp_fw/a   03/29/2026  18:21:48        PAGE 212


SYMBOL TABLE
  LABEL                              TYPE        VALUE         VALUE          VALUE
                                                 (hex)         (dec)          (text)

flow_main_i2c_service_464c_466a   ADDRESS       00004702          18178
flow_main_i2c_service_464c_4668   ADDRESS       00004700          18176
flow_main_i2c_service_2100_21a0   ADDRESS       000021A8           8616
flow_main_i2c_service_2100_21aa   ADDRESS       000021B2           8626
flow_main_i2c_service_2100_21b4   ADDRESS       000021BC           8636
flow_main_i2c_service_2100_21be   ADDRESS       000021C6           8646
flow_main_i2c_service_2100_21c8   ADDRESS       000021D0           8656
flow_main_i2c_service_2100_21e0   ADDRESS       000021E8           8680
flow_main_i2c_service_2100_21ec   ADDRESS       000021F4           8692
flow_main_i2c_service_2100_21fe   ADDRESS       00002206           8710
flow_main_i2c_service_2100_22a8   ADDRESS       000022B0           8880
flow_main_i2c_service_2100_22c2   ADDRESS       000022CA           8906
flow_main_i2c_service_2100_22da   ADDRESS       000022E2           8930
flow_main_i2c_service_2100_22de   ADDRESS       000022E6           8934
flow_main_i2c_service_2100_22fc   ADDRESS       00002304           8964
flow_main_i2c_service_2100_217a   ADDRESS       00002182           8578
flow_main_i2c_service_2100_218c   ADDRESS       00002194           8596
flow_main_i2c_service_2100_226a   ADDRESS       00002272           8818
flow_main_i2c_service_2100_231a   ADDRESS       00002322           8994
flow_main_i2c_service_2100_2196   ADDRESS       0000219E           8606
flow_main_i2c_service_2100_2210   ADDRESS       00002218           8728
flow_main_i2c_service_2100_2222   ADDRESS       0000222A           8746
flow_main_i2c_service_2100_2234   ADDRESS       0000223C           8764
flow_main_i2c_service_2100_2246   ADDRESS       0000224E           8782
flow_main_i2c_service_2100_2258   ADDRESS       00002260           8800
flow_main_i2c_service_2100_2286   ADDRESS       0000228E           8846
flow_main_i2c_service_2100_2288   ADDRESS       00002290           8848
flow_main_isr_dispatch_3b8c       ADDRESS       00003BB2          15282
flow_main_isr_dispatch_3b58       ADDRESS       00003B7E          15230
flow_main_uart_service_1be6_1bea  ADDRESS       00001BEA           7146
flow_main_uart_service_1be6_1bf4  ADDRESS       00001BF4           7156
flow_main_uart_service_1be6_1c0e  ADDRESS       00001C0E           7182
flow_main_uart_service_1be6_1c1c  ADDRESS       00001C1C           7196
flow_main_uart_service_1be6_1c6e  ADDRESS       00001C6E           7278
flow_main_uart_service_1be6_1c42  ADDRESS       00001C42           7234
flow_main_uart_service_1be6_1c52  ADDRESS       00001C52           7250
flow_main_uart_service_1be6_1c62  ADDRESS       00001C62           7266
flow_main_uart_service_1be6_1ca2  ADDRESS       00001CA2           7330
flow_main_uart_service_1be6_1ca6  ADDRESS       00001CA6           7334
flow_main_uart_service_1be6_1cc2  ADDRESS       00001CC2           7362
flow_main_uart_service_1be6_1cc4  ADDRESS       00001CC4           7364
flow_main_uart_service_1be6_1cc8  ADDRESS       00001CC8           7368
flow_main_uart_service_1be6_1cca  ADDRESS       00001CCA           7370
flow_main_uart_service_1be6_1cd2  ADDRESS       00001CD2           7378
flow_main_uart_service_1be6_1cd4  ADDRESS       00001CD4           7380
flow_main_uart_service_1be6_1cd6  ADDRESS       00001CD6           7382
flow_main_uart_service_1be6_1d6c  ADDRESS       00001D6C           7532
flow_main_uart_service_1be6_1d8a  ADDRESS       00001D8A           7562
flow_main_uart_service_1be6_1d22  ADDRESS       00001D22           7458
flow_main_uart_service_1be6_1d68  ADDRESS       00001D68           7528
flow_main_uart_service_1be6_1d80  ADDRESS       00001D80           7552
flow_main_uart_service_1be6_1d96  ADDRESS       00001D96           7574
gpasm-1.5.2 #1325 (Jan 30 2022) src/dlcp_fw/a   03/29/2026  18:21:48        PAGE 213


SYMBOL TABLE
  LABEL                              TYPE        VALUE         VALUE          VALUE
                                                 (hex)         (dec)          (text)

flow_main_uart_service_1be6_1da8  ADDRESS       00001DA8           7592
flow_main_uart_service_1be6_1dba  ADDRESS       00001DBA           7610
flow_main_uart_service_1be6_1dcc  ADDRESS       00001DCC           7628
flow_main_uart_service_1be6_1dde  ADDRESS       00001DDE           7646
flow_main_uart_service_1be6_1df0  ADDRESS       00001DF0           7664
flow_main_uart_service_1be6_1e02  ADDRESS       00001E02           7682
flow_main_uart_service_1be6_1e1c  ADDRESS       00001E1C           7708
flow_main_uart_service_1be6_1e3c  ADDRESS       00001E3C           7740
flow_main_uart_service_1be6_1e6c  ADDRESS       00001E74           7796
flow_main_uart_service_1be6_1e7c  ADDRESS       00001E84           7812
flow_main_uart_service_1be6_1e14  ADDRESS       00001E14           7700
flow_main_uart_service_1be6_1e36  ADDRESS       00001E36           7734
flow_main_uart_service_1be6_1e42  ADDRESS       00001E42           7746
flow_main_uart_service_1be6_1e48  ADDRESS       00001E48           7752
flow_main_uart_service_1be6_1e78  ADDRESS       00001E80           7808
flow_main_uart_service_1be6_1e80  ADDRESS       00001E88           7816
flow_main_uart_service_4860_4862  ADDRESS       000048FC          18684
flow_main_uart_service_4860_4866  ADDRESS       00004900          18688
flow_main_usb_service_2f4e_2f9c   ADDRESS       00002FBE          12222
flow_main_usb_service_2f4e_2f58   ADDRESS       00002F7A          12154
flow_main_usb_service_2f4e_2f78   ADDRESS       00002F9A          12186
flow_main_usb_service_2f4e_2f96   ADDRESS       00002FB8          12216
flow_main_usb_service_2f4e_2fb6   ADDRESS       00002FD8          12248
flow_main_usb_service_2f4e_2ffe   ADDRESS       00003020          12320
flow_main_usb_service_2f4e_300c   ADDRESS       0000302E          12334
flow_main_usb_service_2f4e_300e   ADDRESS       00003030          12336
flow_main_usb_service_2f4e_3018   ADDRESS       0000303A          12346
flow_main_usb_service_3a26_3a3a   ADDRESS       00003A60          14944
flow_main_usb_service_3a26_3a7e   ADDRESS       00003AA4          15012
flow_main_usb_service_3a26_3a40   ADDRESS       00003A66          14950
flow_main_usb_service_3a26_3a64   ADDRESS       00003A8A          14986
flow_main_usb_service_3a26_3aa2   ADDRESS       00003AC8          15048
flow_main_usb_service_40d6_40fc   ADDRESS       0000417C          16764
flow_main_usb_service_40d6_4102   ADDRESS       00004182          16770
flow_main_usb_service_41fe_4212   ADDRESS       00004292          17042
flow_main_usb_service_41fe_4236   ADDRESS       000042B6          17078
flow_main_usb_service_41fe_4238   ADDRESS       000042B8          17080
flow_main_usb_service_42f4_4308   ADDRESS       00004388          17288
flow_main_usb_service_42f4_4316   ADDRESS       00004396          17302
flow_main_usb_service_45a2_45cc   ADDRESS       00004664          18020
flow_main_usb_service_475c_476e   ADDRESS       00004808          18440
flow_main_usb_service_475c_4778   ADDRESS       00004812          18450
flow_main_usb_service_483c_4846   ADDRESS       000048E0          18656
flow_main_usb_service_483c_4848   ADDRESS       000048E2          18658
flow_main_usb_service_490c_4914   ADDRESS       000049C6          18886
flow_main_usb_service_490c_4916   ADDRESS       000049C8          18888
flow_main_usb_service_490c_4918   ADDRESS       000049CA          18890
flow_main_usb_service_4412_443a   ADDRESS       000044BC          17596
flow_main_usb_service_4412_4426   ADDRESS       000044A8          17576
flow_main_usb_service_4412_4442   ADDRESS       000044C4          17604
flow_main_usb_service_4412_4446   ADDRESS       000044C8          17608
flow_main_usb_service_4812_481e   ADDRESS       000048B8          18616
gpasm-1.5.2 #1325 (Jan 30 2022) src/dlcp_fw/a   03/29/2026  18:21:48        PAGE 214


SYMBOL TABLE
  LABEL                              TYPE        VALUE         VALUE          VALUE
                                                 (hex)         (dec)          (text)

flow_main_usb_service_4812_4814   ADDRESS       000048AE          18606
flow_ram_block_clear_4742         ADDRESS       000047DC          18396
flow_ram_block_clear_4752         ADDRESS       000047EC          18412
flow_rx_ring_read_4620            ADDRESS       000046B8          18104
flow_standby_event_dispatch_47a6  ADDRESS       00004840          18496
flow_standby_event_dispatch_47aa  ADDRESS       00004844          18500
flow_standby_event_dispatch_47ac  ADDRESS       00004846          18502
flow_timer3_blocking_delay_44a8   ADDRESS       0000452A          17706
flow_timer3_blocking_delay_449a   ADDRESS       0000451C          17692
flow_timer3_blocking_delay_449e   ADDRESS       00004520          17696
flow_timer3_blocking_delay_4488   ADDRESS       0000450A          17674
flow_timer3_blocking_delay_4494   ADDRESS       00004516          17686
flow_uart_rx_with_framing_3ab8    ADDRESS       00003ADE          15070
flow_uart_rx_with_framing_3ae2    ADDRESS       00003B08          15112
flow_uart_rx_with_framing_3aec    ADDRESS       00003B12          15122
flow_uart_rx_with_framing_3b02    ADDRESS       00003B28          15144
flow_uart_rx_with_framing_3b06    ADDRESS       00003B2C          15148
flow_uart_rx_with_framing_3b16    ADDRESS       00003B3C          15164
flow_uart_tx_block_from_buffe_46a2  ADDRESS       0000473A          18234
flow_uart_tx_block_from_buffe_469a  ADDRESS       00004732          18226
fw_update_init_sequence           ADDRESS       00001456           5206
fw_update_relay                   ADDRESS       000015CE           5582
hard_reset                        ADDRESS       00004986          18822
hex_lookup_sentinel               ADDRESS       00001018           4120
hex_lookup_table                  CONSTANT      00001019           4121
hid_cmd_xor_dispatch              ADDRESS       00001552           5458
hid_command_dispatch              ADDRESS       000010AC           4268
hw_standby_shutdown               ADDRESS       00003C32          15410
i2c_bus_clear                     ADDRESS       00004AEA          19178
i2c_bus_clear_clk                 ADDRESS       00004AF4          19188
i2c_bus_clear_stop                ADDRESS       00004B0A          19210
i2c_byte_tx                       ADDRESS       00003EBE          16062
i2c_coeff_0                       CONSTANT      00000055             85
i2c_coeff_1                       CONSTANT      00000056             86
i2c_coeff_2                       CONSTANT      00000057             87
i2c_coeff_3                       CONSTANT      00000058             88
i2c_reg1f_done                    ADDRESS       00004422          17442
i2c_secondary_dev_random_read     ADDRESS       000042BC          17084
i2c_secondary_dev_write           ADDRESS       00004752          18258
i2c_secondary_done                ADDRESS       00004776          18294
i2c_tas3108_coeff_write           ADDRESS       00004566          17766
i2c_tas3108_reg1f_write           ADDRESS       000043E8          17384
i2c_wait_bus_idle                 ADDRESS       00004968          18792
inline_data_table_47E6            ADDRESS       00004880          18560
input_select                      CONSTANT      00000099            153
input_select_mirror               CONSTANT      000000B3            179
intel_hex_checksum_update         ADDRESS       00003FDE          16350
isr_save_fsr2h                    CONSTANT      00000002              2
isr_save_fsr2l                    CONSTANT      00000001              1
logical_volume                    CONSTANT      00000066            102
logical_volume_1                  CONSTANT      00000067            103
logical_volume_2                  CONSTANT      00000068            104
gpasm-1.5.2 #1325 (Jan 30 2022) src/dlcp_fw/a   03/29/2026  18:21:48        PAGE 215


SYMBOL TABLE
  LABEL                              TYPE        VALUE         VALUE          VALUE
                                                 (hex)         (dec)          (text)

logical_volume_3                  CONSTANT      00000069            105
main_adc_service_4124             ADDRESS       000041A4          16804
main_core_service_1e88            ADDRESS       00001E90           7824
main_core_service_2abc            ADDRESS       00002AC4          10948
main_core_service_2b8e            ADDRESS       00002B96          11158
main_core_service_2b9e            ADDRESS       00002BA6          11174
main_core_service_2bac            ADDRESS       00002BB4          11188
main_core_service_2ca8            ADDRESS       00002CB0          11440
main_core_service_2d80            ADDRESS       00002D88          11656
main_core_service_3c82            ADDRESS       00003CA8          15528
main_core_service_3e0a            ADDRESS       00003E60          15968
main_core_service_3ec4            ADDRESS       00003F2A          16170
main_core_service_3f1e            ADDRESS       00003F84          16260
main_core_service_3fd0            ADDRESS       00004036          16438
main_core_service_15b0            ADDRESS       000015B0           5552
main_core_service_15be            ADDRESS       000015BE           5566
main_core_service_24ac            ADDRESS       000024B4           9396
main_core_service_24c2            ADDRESS       000024CA           9418
main_core_service_30cc            ADDRESS       000030EE          12526
main_core_service_30d8            ADDRESS       000030FA          12538
main_core_service_34c8            ADDRESS       000034EA          13546
main_core_service_38a2            ADDRESS       000038C8          14536
main_core_service_41b6            ADDRESS       00004236          16950
main_core_service_45ce            ADDRESS       00004666          18022
main_core_service_46aa            ADDRESS       00004742          18242
main_core_service_48fe            ADDRESS       000049B0          18864
main_core_service_263e            ADDRESS       00002646           9798
main_core_service_265c            ADDRESS       00002664           9828
main_core_service_297e            ADDRESS       00002986          10630
main_core_service_301a            ADDRESS       0000303C          12348
main_core_service_427a            ADDRESS       000042FA          17146
main_core_service_432e            ADDRESS       000043AE          17326
main_core_service_492e            ADDRESS       000049E0          18912
main_core_service_495a            ADDRESS       00004A0C          18956
main_core_service_496a            ADDRESS       00004A1C          18972
main_core_service_496c            ADDRESS       00004A1E          18974
main_core_service_496e            ADDRESS       00004A20          18976
main_core_service_2328            ADDRESS       00002330           9008
main_core_service_2650            ADDRESS       00002658           9816
main_core_service_3188            ADDRESS       000031AA          12714
main_core_service_3398            ADDRESS       000033BA          13242
main_core_service_3432            ADDRESS       00003454          13396
main_core_service_3672            ADDRESS       00003698          13976
main_core_service_3682            ADDRESS       000036A8          13992
main_core_service_3710            ADDRESS       00003736          14134
main_core_service_4080            ADDRESS       00004100          16640
main_core_service_4448            ADDRESS       000044CA          17610
main_core_service_4516            ADDRESS       000045AE          17838
main_core_service_4574            ADDRESS       0000460C          17932
main_core_service_4672            ADDRESS       0000470A          18186
main_core_service_4924            ADDRESS       000049D6          18902
main_core_service_4942            ADDRESS       000049F4          18932
gpasm-1.5.2 #1325 (Jan 30 2022) src/dlcp_fw/a   03/29/2026  18:21:48        PAGE 216


SYMBOL TABLE
  LABEL                              TYPE        VALUE         VALUE          VALUE
                                                 (hex)         (dec)          (text)

main_core_service_4954            ADDRESS       00004A06          18950
main_flash_service_2bb8           ADDRESS       00002BC0          11200
main_flash_service_3ce8           ADDRESS       00003D0E          15630
main_flash_service_35f0           ADDRESS       00003616          13846
main_flash_service_46de           ADDRESS       00004778          18296
main_flash_service_365c           ADDRESS       00003682          13954
main_flash_service_3796           ADDRESS       000037BC          14268
main_flash_service_3810           ADDRESS       00003836          14390
main_flash_service_4406           ADDRESS       00004488          17544
main_i2c_service_27f0             ADDRESS       000027F8          10232
main_i2c_service_32f8             ADDRESS       0000331A          13082
main_i2c_service_39a6             ADDRESS       000039CC          14796
main_i2c_service_48e2             ADDRESS       00004994          18836
main_i2c_service_355c             ADDRESS       0000357E          13694
main_i2c_service_381c             ADDRESS       00003842          14402
main_i2c_service_464c             ADDRESS       000046E4          18148
main_i2c_service_2100             ADDRESS       00002108           8456
main_i2c_service_4966             ADDRESS       00004A18          18968
main_isr_dispatch                 ADDRESS       00003B44          15172
main_processing_loop              ADDRESS       0000497C          18812
main_timer_service_48a6           ADDRESS       00004958          18776
main_timer_service_477a           ADDRESS       00004814          18452
main_timer_service_494c           ADDRESS       000049FE          18942
main_uart_service_1be6            ADDRESS       00001BE6           7142
main_uart_service_43a2            ADDRESS       00004424          17444
main_uart_service_44b2            ADDRESS       00004534          17716
main_uart_service_495e            ADDRESS       00004A10          18960
main_uart_service_4860            ADDRESS       000048FA          18682
main_uart_service_4938            ADDRESS       000049EA          18922
main_usb_service_2f4e             ADDRESS       00002F70          12144
main_usb_service_3a26             ADDRESS       00003A4C          14924
main_usb_service_40d6             ADDRESS       00004156          16726
main_usb_service_41fe             ADDRESS       0000427E          17022
main_usb_service_42f4             ADDRESS       00004374          17268
main_usb_service_45a2             ADDRESS       0000463A          17978
main_usb_service_475c             ADDRESS       000047F6          18422
main_usb_service_483c             ADDRESS       000048D6          18646
main_usb_service_490c             ADDRESS       000049BE          18878
main_usb_service_4412             ADDRESS       00004494          17556
main_usb_service_4624             ADDRESS       000046BC          18108
main_usb_service_4700             ADDRESS       0000479A          18330
main_usb_service_4720             ADDRESS       000047BA          18362
main_usb_service_4812             ADDRESS       000048AC          18604
main_usb_service_4828             ADDRESS       000048C2          18626
mssp_hard_reset                   ADDRESS       0000484C          18508
nibble_to_hex_ascii               ADDRESS       000018DE           6366
parser_route_phase_handler        ADDRESS       00001C36           7222
periodic_service_loop             ADDRESS       00004868          18536
preset_select_handler             ADDRESS       00004BB4          19380
preset_table_a                    ADDRESS       00005600          22016
preset_table_b                    ADDRESS       00004C00          19456
ram_0x000                         CONSTANT      00000000              0
gpasm-1.5.2 #1325 (Jan 30 2022) src/dlcp_fw/a   03/29/2026  18:21:48        PAGE 217


SYMBOL TABLE
  LABEL                              TYPE        VALUE         VALUE          VALUE
                                                 (hex)         (dec)          (text)

ram_0x003                         CONSTANT      00000003              3
ram_0x004                         CONSTANT      00000004              4
ram_0x005                         CONSTANT      00000005              5
ram_0x006                         CONSTANT      00000006              6
ram_0x007                         CONSTANT      00000007              7
ram_0x008                         CONSTANT      00000008              8
ram_0x009                         CONSTANT      00000009              9
ram_0x00A                         CONSTANT      0000000A             10
ram_0x00B                         CONSTANT      0000000B             11
ram_0x00C                         CONSTANT      0000000C             12
ram_0x00D                         CONSTANT      0000000D             13
ram_0x00E                         CONSTANT      0000000E             14
ram_0x00F                         CONSTANT      0000000F             15
ram_0x010                         CONSTANT      00000010             16
ram_0x011                         CONSTANT      00000011             17
ram_0x012                         CONSTANT      00000012             18
ram_0x013                         CONSTANT      00000013             19
ram_0x014                         CONSTANT      00000014             20
ram_0x015                         CONSTANT      00000015             21
ram_0x016                         CONSTANT      00000016             22
ram_0x017                         CONSTANT      00000017             23
ram_0x018                         CONSTANT      00000018             24
ram_0x019                         CONSTANT      00000019             25
ram_0x01A                         CONSTANT      0000001A             26
ram_0x01B                         CONSTANT      0000001B             27
ram_0x01C                         CONSTANT      0000001C             28
ram_0x01D                         CONSTANT      0000001D             29
ram_0x01E                         CONSTANT      0000001E             30
ram_0x01F                         CONSTANT      0000001F             31
ram_0x020                         CONSTANT      00000020             32
ram_0x021                         CONSTANT      00000021             33
ram_0x022                         CONSTANT      00000022             34
ram_0x023                         CONSTANT      00000023             35
ram_0x024                         CONSTANT      00000024             36
ram_0x025                         CONSTANT      00000025             37
ram_0x026                         CONSTANT      00000026             38
ram_0x027                         CONSTANT      00000027             39
ram_0x028                         CONSTANT      00000028             40
ram_0x029                         CONSTANT      00000029             41
ram_0x02A                         CONSTANT      0000002A             42
ram_0x02B                         CONSTANT      0000002B             43
ram_0x02C                         CONSTANT      0000002C             44
ram_0x02D                         CONSTANT      0000002D             45
ram_0x02E                         CONSTANT      0000002E             46
ram_0x02F                         CONSTANT      0000002F             47
ram_0x030                         CONSTANT      00000030             48
ram_0x031                         CONSTANT      00000031             49
ram_0x032                         CONSTANT      00000032             50
ram_0x033                         CONSTANT      00000033             51
ram_0x034                         CONSTANT      00000034             52
ram_0x035                         CONSTANT      00000035             53
ram_0x036                         CONSTANT      00000036             54
gpasm-1.5.2 #1325 (Jan 30 2022) src/dlcp_fw/a   03/29/2026  18:21:48        PAGE 218


SYMBOL TABLE
  LABEL                              TYPE        VALUE         VALUE          VALUE
                                                 (hex)         (dec)          (text)

ram_0x037                         CONSTANT      00000037             55
ram_0x038                         CONSTANT      00000038             56
ram_0x039                         CONSTANT      00000039             57
ram_0x03A                         CONSTANT      0000003A             58
ram_0x03B                         CONSTANT      0000003B             59
ram_0x03C                         CONSTANT      0000003C             60
ram_0x03D                         CONSTANT      0000003D             61
ram_0x03E                         CONSTANT      0000003E             62
ram_0x03F                         CONSTANT      0000003F             63
ram_0x040                         CONSTANT      00000040             64
ram_0x041                         CONSTANT      00000041             65
ram_0x042                         CONSTANT      00000042             66
ram_0x043                         CONSTANT      00000043             67
ram_0x044                         CONSTANT      00000044             68
ram_0x045                         CONSTANT      00000045             69
ram_0x046                         CONSTANT      00000046             70
ram_0x047                         CONSTANT      00000047             71
ram_0x048                         CONSTANT      00000048             72
ram_0x049                         CONSTANT      00000049             73
ram_0x04A                         CONSTANT      0000004A             74
ram_0x04B                         CONSTANT      0000004B             75
ram_0x04C                         CONSTANT      0000004C             76
ram_0x04D                         CONSTANT      0000004D             77
ram_0x04E                         CONSTANT      0000004E             78
ram_0x04F                         CONSTANT      0000004F             79
ram_0x050                         CONSTANT      00000050             80
ram_0x051                         CONSTANT      00000051             81
ram_0x052                         CONSTANT      00000052             82
ram_0x053                         CONSTANT      00000053             83
ram_0x054                         CONSTANT      00000054             84
ram_0x059                         CONSTANT      00000059             89
ram_0x05A                         CONSTANT      0000005A             90
ram_0x05B                         CONSTANT      0000005B             91
ram_0x05C                         CONSTANT      0000005C             92
ram_0x05D                         CONSTANT      0000005D             93
ram_0x05F                         CONSTANT      0000005F             95
ram_0x060                         CONSTANT      00000060             96
ram_0x061                         CONSTANT      00000061             97
ram_0x062                         CONSTANT      00000062             98
ram_0x063                         CONSTANT      00000063             99
ram_0x064                         CONSTANT      00000064            100
ram_0x065                         CONSTANT      00000065            101
ram_0x06A                         CONSTANT      0000006A            106
ram_0x06B                         CONSTANT      0000006B            107
ram_0x06C                         CONSTANT      0000006C            108
ram_0x06D                         CONSTANT      0000006D            109
ram_0x072                         CONSTANT      00000072            114
ram_0x073                         CONSTANT      00000073            115
ram_0x075                         CONSTANT      00000075            117
ram_0x076                         CONSTANT      00000076            118
ram_0x078                         CONSTANT      00000078            120
ram_0x079                         CONSTANT      00000079            121
gpasm-1.5.2 #1325 (Jan 30 2022) src/dlcp_fw/a   03/29/2026  18:21:48        PAGE 219


SYMBOL TABLE
  LABEL                              TYPE        VALUE         VALUE          VALUE
                                                 (hex)         (dec)          (text)

ram_0x07A                         CONSTANT      0000007A            122
ram_0x07B                         CONSTANT      0000007B            123
ram_0x07C                         CONSTANT      0000007C            124
ram_0x07D                         CONSTANT      0000007D            125
ram_0x07F                         CONSTANT      0000007F            127
ram_0x080                         CONSTANT      00000080            128
ram_0x081                         CONSTANT      00000081            129
ram_0x082                         CONSTANT      00000082            130
ram_0x083                         CONSTANT      00000083            131
ram_0x084                         CONSTANT      00000084            132
ram_0x085                         CONSTANT      00000085            133
ram_0x086                         CONSTANT      00000086            134
ram_0x087                         CONSTANT      00000087            135
ram_0x088                         CONSTANT      00000088            136
ram_0x089                         CONSTANT      00000089            137
ram_0x08A                         CONSTANT      0000008A            138
ram_0x08B                         CONSTANT      0000008B            139
ram_0x08C                         CONSTANT      0000008C            140
ram_0x08D                         CONSTANT      0000008D            141
ram_0x08E                         CONSTANT      0000008E            142
ram_0x08F                         CONSTANT      0000008F            143
ram_0x090                         CONSTANT      00000090            144
ram_0x091                         CONSTANT      00000091            145
ram_0x092                         CONSTANT      00000092            146
ram_0x093                         CONSTANT      00000093            147
ram_0x094                         CONSTANT      00000094            148
ram_0x096                         CONSTANT      00000096            150
ram_0x097                         CONSTANT      00000097            151
ram_0x09A                         CONSTANT      0000009A            154
ram_0x09B                         CONSTANT      0000009B            155
ram_0x09C                         CONSTANT      0000009C            156
ram_0x09D                         CONSTANT      0000009D            157
ram_0x09E                         CONSTANT      0000009E            158
ram_0x09F                         CONSTANT      0000009F            159
ram_0x0A0                         CONSTANT      000000A0            160
ram_0x0A1                         CONSTANT      000000A1            161
ram_0x0A2                         CONSTANT      000000A2            162
ram_0x0A3                         CONSTANT      000000A3            163
ram_0x0A4                         CONSTANT      000000A4            164
ram_0x0A5                         CONSTANT      000000A5            165
ram_0x0A6                         CONSTANT      000000A6            166
ram_0x0A7                         CONSTANT      000000A7            167
ram_0x0A8                         CONSTANT      000000A8            168
ram_0x0A9                         CONSTANT      000000A9            169
ram_0x0AA                         CONSTANT      000000AA            170
ram_0x0AB                         CONSTANT      000000AB            171
ram_0x0AC                         CONSTANT      000000AC            172
ram_0x0AD                         CONSTANT      000000AD            173
ram_0x0AE                         CONSTANT      000000AE            174
ram_0x0AF                         CONSTANT      000000AF            175
ram_0x0B0                         CONSTANT      000000B0            176
ram_0x0B1                         CONSTANT      000000B1            177
gpasm-1.5.2 #1325 (Jan 30 2022) src/dlcp_fw/a   03/29/2026  18:21:48        PAGE 220


SYMBOL TABLE
  LABEL                              TYPE        VALUE         VALUE          VALUE
                                                 (hex)         (dec)          (text)

ram_0x0B2                         CONSTANT      000000B2            178
ram_0x0B4                         CONSTANT      000000B4            180
ram_0x0B5                         CONSTANT      000000B5            181
ram_0x0B6                         CONSTANT      000000B6            182
ram_0x0B7                         CONSTANT      000000B7            183
ram_0x0B8                         CONSTANT      000000B8            184
ram_0x0B9                         CONSTANT      000000B9            185
ram_0x0BA                         CONSTANT      000000BA            186
ram_0x0BB                         CONSTANT      000000BB            187
ram_0x0BC                         CONSTANT      000000BC            188
ram_0x0BD                         CONSTANT      000000BD            189
ram_0x0BE                         CONSTANT      000000BE            190
ram_0x0BF                         CONSTANT      000000BF            191
ram_0x0C0                         CONSTANT      000000C0            192
ram_0x0C1                         CONSTANT      000000C1            193
ram_0x0C2                         CONSTANT      000000C2            194
ram_0x0C3                         CONSTANT      000000C3            195
ram_0x0C4                         CONSTANT      000000C4            196
ram_0x0C5                         CONSTANT      000000C5            197
ram_0x0C8                         CONSTANT      000000C8            200
ram_0x0C9                         CONSTANT      000000C9            201
ram_0x0CA                         CONSTANT      000000CA            202
ram_0x0CB                         CONSTANT      000000CB            203
ram_0x0CC                         CONSTANT      000000CC            204
ram_0x0CD                         CONSTANT      000000CD            205
ram_0x0CE                         CONSTANT      000000CE            206
ram_0x0CF                         CONSTANT      000000CF            207
ram_0x0D0                         CONSTANT      000000D0            208
ram_0x0D1                         CONSTANT      000000D1            209
ram_0x0D2                         CONSTANT      000000D2            210
ram_0x0D3                         CONSTANT      000000D3            211
ram_0x0D5                         CONSTANT      000000D5            213
ram_0x0D6                         CONSTANT      000000D6            214
ram_0x0D7                         CONSTANT      000000D7            215
ram_0x0D8                         CONSTANT      000000D8            216
ram_0x0D9                         CONSTANT      000000D9            217
ram_0x0DA                         CONSTANT      000000DA            218
ram_0x0DB                         CONSTANT      000000DB            219
ram_0x0DC                         CONSTANT      000000DC            220
ram_0x0DD                         CONSTANT      000000DD            221
ram_0x0DE                         CONSTANT      000000DE            222
ram_0x0DF                         CONSTANT      000000DF            223
ram_0x0E0                         CONSTANT      000000E0            224
ram_0x0E1                         CONSTANT      000000E1            225
ram_0x0E2                         CONSTANT      000000E2            226
ram_0x0E3                         CONSTANT      000000E3            227
ram_0x0E4                         CONSTANT      000000E4            228
ram_0x0E5                         CONSTANT      000000E5            229
ram_0x0E6                         CONSTANT      000000E6            230
ram_0x0E7                         CONSTANT      000000E7            231
ram_0x0E8                         CONSTANT      000000E8            232
ram_0x0E9                         CONSTANT      000000E9            233
gpasm-1.5.2 #1325 (Jan 30 2022) src/dlcp_fw/a   03/29/2026  18:21:48        PAGE 221


SYMBOL TABLE
  LABEL                              TYPE        VALUE         VALUE          VALUE
                                                 (hex)         (dec)          (text)

ram_0x0EA                         CONSTANT      000000EA            234
ram_0x0EB                         CONSTANT      000000EB            235
ram_0x0ED                         CONSTANT      000000ED            237
ram_0x0EE                         CONSTANT      000000EE            238
ram_0x0EF                         CONSTANT      000000EF            239
ram_0x0F0                         CONSTANT      000000F0            240
ram_0x0F1                         CONSTANT      000000F1            241
ram_0x0F2                         CONSTANT      000000F2            242
ram_0x0F3                         CONSTANT      000000F3            243
ram_0x0F4                         CONSTANT      000000F4            244
ram_0x0F5                         CONSTANT      000000F5            245
ram_0x0F6                         CONSTANT      000000F6            246
ram_0x0F7                         CONSTANT      000000F7            247
ram_0x0F8                         CONSTANT      000000F8            248
ram_0x0F9                         CONSTANT      000000F9            249
ram_0x0FA                         CONSTANT      000000FA            250
ram_0x0FB                         CONSTANT      000000FB            251
ram_0x0FC                         CONSTANT      000000FC            252
ram_0x0FD                         CONSTANT      000000FD            253
ram_0x0FE                         CONSTANT      000000FE            254
ram_0x1A0                         CONSTANT      000001A0            416
ram_0x1C8                         CONSTANT      000001C8            456
ram_0x1D9                         CONSTANT      000001D9            473
ram_0x1DA                         CONSTANT      000001DA            474
ram_0x1DB                         CONSTANT      000001DB            475
ram_0x1DC                         CONSTANT      000001DC            476
ram_0x1DD                         CONSTANT      000001DD            477
ram_0x1DE                         CONSTANT      000001DE            478
ram_0x1DF                         CONSTANT      000001DF            479
ram_0x1E0                         CONSTANT      000001E0            480
ram_0x1E1                         CONSTANT      000001E1            481
ram_0x1E2                         CONSTANT      000001E2            482
ram_0x1E3                         CONSTANT      000001E3            483
ram_0x1E4                         CONSTANT      000001E4            484
ram_0x11B                         CONSTANT      0000011B            283
ram_0x11C                         CONSTANT      0000011C            284
ram_0x11D                         CONSTANT      0000011D            285
ram_0x11E                         CONSTANT      0000011E            286
ram_0x11F                         CONSTANT      0000011F            287
ram_0x12C                         CONSTANT      0000012C            300
ram_0x12D                         CONSTANT      0000012D            301
ram_0x12E                         CONSTANT      0000012E            302
ram_0x12F                         CONSTANT      0000012F            303
ram_0x15A                         CONSTANT      0000015A            346
ram_0x15B                         CONSTANT      0000015B            347
ram_0x15C                         CONSTANT      0000015C            348
ram_0x15D                         CONSTANT      0000015D            349
ram_0x15E                         CONSTANT      0000015E            350
ram_0x15F                         CONSTANT      0000015F            351
ram_0x16C                         CONSTANT      0000016C            364
ram_0x16D                         CONSTANT      0000016D            365
ram_0x16E                         CONSTANT      0000016E            366
gpasm-1.5.2 #1325 (Jan 30 2022) src/dlcp_fw/a   03/29/2026  18:21:48        PAGE 222


SYMBOL TABLE
  LABEL                              TYPE        VALUE         VALUE          VALUE
                                                 (hex)         (dec)          (text)

ram_0x16F                         CONSTANT      0000016F            367
ram_0x19D                         CONSTANT      0000019D            413
ram_0x19E                         CONSTANT      0000019E            414
ram_0x19F                         CONSTANT      0000019F            415
ram_0x40D                         CONSTANT      0000040D           1037
ram_0x116                         CONSTANT      00000116            278
ram_0x117                         CONSTANT      00000117            279
ram_0x118                         CONSTANT      00000118            280
ram_0x119                         CONSTANT      00000119            281
ram_0x120                         CONSTANT      00000120            288
ram_0x121                         CONSTANT      00000121            289
ram_0x122                         CONSTANT      00000122            290
ram_0x130                         CONSTANT      00000130            304
ram_0x131                         CONSTANT      00000131            305
ram_0x132                         CONSTANT      00000132            306
ram_0x133                         CONSTANT      00000133            307
ram_0x134                         CONSTANT      00000134            308
ram_0x135                         CONSTANT      00000135            309
ram_0x136                         CONSTANT      00000136            310
ram_0x138                         CONSTANT      00000138            312
ram_0x160                         CONSTANT      00000160            352
ram_0x161                         CONSTANT      00000161            353
ram_0x162                         CONSTANT      00000162            354
ram_0x163                         CONSTANT      00000163            355
ram_0x170                         CONSTANT      00000170            368
ram_0x171                         CONSTANT      00000171            369
ram_0x173                         CONSTANT      00000173            371
ram_0x174                         CONSTANT      00000174            372
ram_0x175                         CONSTANT      00000175            373
ram_0x176                         CONSTANT      00000176            374
ram_0x178                         CONSTANT      00000178            376
ram_0x409                         CONSTANT      00000409           1033
ram_0x411                         CONSTANT      00000411           1041
ram_block_clear                   ADDRESS       000047D8          18392
recover_mssp                      ADDRESS       00004AD6          19158
recover_uart                      ADDRESS       00004AE4          19172
report_cmd29_status               ADDRESS       00004896          18582
rx_frame_position                 CONSTANT      00000098            152
rx_ring_has_data                  ADDRESS       0000490C          18700
rx_ring_rd                        CONSTANT      000000C6            198
rx_ring_read                      ADDRESS       00004692          18066
rx_ring_wr                        CONSTANT      000000C7            199
saved_w                           CONSTANT      00000005              5
send_dsp_fault_status             ADDRESS       00004B40          19264
send_status_burst                 ADDRESS       00003BBC          15292
standby_event_dispatch            ADDRESS       00004830          18480
standby_request_handler           ADDRESS       00001C9A           7322
string_desc_ptr_table             CONSTANT      00001029           4137
tblrd_lookup                      ADDRESS       0000444A          17482
timeout_hi                        CONSTANT      0000000C             12
timeout_lo                        CONSTANT      0000000B             11
timer0_irq_handler                ADDRESS       00003B4E          15182
gpasm-1.5.2 #1325 (Jan 30 2022) src/dlcp_fw/a   03/29/2026  18:21:48        PAGE 223


SYMBOL TABLE
  LABEL                              TYPE        VALUE         VALUE          VALUE
                                                 (hex)         (dec)          (text)

timer3_blocking_delay             ADDRESS       00004500          17664
timer3_irq_handler                ADDRESS       00003B5C          15196
uart_config                       ADDRESS       000045DE          17886
uart_oerr_recover                 ADDRESS       00003BA2          15266
uart_rx_irq_enqueue               ADDRESS       00003B82          15234
uart_rx_with_framing              ADDRESS       00003ACA          15050
uart_tx_block_from_buffer         ADDRESS       0000472E          18222
uart_tx_byte_blocking             ADDRESS       00004930          18736
uart_tx_timeout                   ADDRESS       00004942          18754
usb_config_descriptor             ADDRESS       0000102C           4140
usb_data_pad                      ADDRESS       000010AA           4266
usb_device_descriptor             ADDRESS       00001088           4232
usb_disconnect_handler            ADDRESS       00004A14          18964
usb_ep1_in_descriptor             CONSTANT      00001047           4167
usb_ep1_out_descriptor            ADDRESS       0000104E           4174
usb_hid_descriptor                ADDRESS       0000103E           4158
usb_hid_report_descriptor         CONSTANT      00001055           4181
usb_interface_descriptor          CONSTANT      00001035           4149
usb_reinit_pending                CONSTANT      00000095            149
usb_shutdown                      ADDRESS       000049A2          18850
usb_string_desc_0                 ADDRESS       000010A6           4262
usb_string_desc_1                 ADDRESS       00001072           4210
usb_string_desc_2                 ADDRESS       0000109A           4250
v31_hard_reset_jump2              ADDRESS       00004954          18772
vol_exhausted_skip_i2c            ADDRESS       00004BA2          19362
vol_retry_ok                      ADDRESS       00004BB2          19378
vol_write_nacked                  ADDRESS       00004B8A          19338
volume_cmd_handler                ADDRESS       00001D2A           7466
volume_dsp_write                  ADDRESS       00004B5C          19292
wait_bf_clear_bounded             ADDRESS       00004AC2          19138
wait_bf_clear_done                ADDRESS       00004AD2          19154
wait_bf_clear_loop                ADDRESS       00004AC6          19142
wait_mssp_idle_bounded            ADDRESS       00004A62          19042
wait_mssp_idle_loop               ADDRESS       00004A66          19046
wait_mssp_idle_tick               ADDRESS       00004A74          19060
wait_pen_bounded                  ADDRESS       00004A90          19088
wait_pen_done                     ADDRESS       00004AA0          19104
wait_pen_ext_done                 ADDRESS       00004ABE          19134
wait_pen_ext_inner                ADDRESS       00004AAC          19116
wait_pen_ext_outer                ADDRESS       00004AA8          19112
wait_pen_extended                 ADDRESS       00004AA4          19108
wait_pen_loop                     ADDRESS       00004A94          19092
wait_seed                         ADDRESS       00004A22          18978
wait_sen_bounded                  ADDRESS       00004A7C          19068
wait_sen_done                     ADDRESS       00004A8C          19084
wait_sen_loop                     ADDRESS       00004A80          19072
wait_sspif_bounded                ADDRESS       00004A38          19000
wait_sspif_done                   ADDRESS       00004A48          19016
wait_sspif_loop                   ADDRESS       00004A3C          19004
wait_tick                         ADDRESS       00004A2C          18988
wait_trmt_bounded                 ADDRESS       00004A4E          19022
wait_trmt_done                    ADDRESS       00004A5E          19038
gpasm-1.5.2 #1325 (Jan 30 2022) src/dlcp_fw/a   03/29/2026  18:21:48        PAGE 224


SYMBOL TABLE
  LABEL                              TYPE        VALUE         VALUE          VALUE
                                                 (hex)         (dec)          (text)

wait_trmt_loop                    ADDRESS       00004A52          19026
wake_request_handler              ADDRESS       00001C7E           7294


MEMORY USAGE MAP ('X' = Used,  '-' = Unused)

1000 : XXXXXXXXXXXXXXXX XXXXXXXXXXXXXXXX XXXXXXXXXXXXXXXX XXXXXXXXXXXXXXXX
1040 : XXXXXXXXXXXXXXXX XXXXXXXXXXXXXXXX XXXXXXXXXXXXXXXX XXXXXXXXXXXXXXXX
1080 : XXXXXXXXXXXXXXXX XXXXXXXXXXXXXXXX XXXXXXXXXXXXXXXX XXXXXXXXXXXXXXXX
10C0 : XXXXXXXXXXXXXXXX XXXXXXXXXXXXXXXX XXXXXXXXXXXXXXXX XXXXXXXXXXXXXXXX
1100 : XXXXXXXXXXXXXXXX XXXXXXXXXXXXXXXX XXXXXXXXXXXXXXXX XXXXXXXXXXXXXXXX
1140 : XXXXXXXXXXXXXXXX XXXXXXXXXXXXXXXX XXXXXXXXXXXXXXXX XXXXXXXXXXXXXXXX
1180 : XXXXXXXXXXXXXXXX XXXXXXXXXXXXXXXX XXXXXXXXXXXXXXXX XXXXXXXXXXXXXXXX
11C0 : XXXXXXXXXXXXXXXX XXXXXXXXXXXXXXXX XXXXXXXXXXXXXXXX XXXXXXXXXXXXXXXX
1200 : XXXXXXXXXXXXXXXX XXXXXXXXXXXXXXXX XXXXXXXXXXXXXXXX XXXXXXXXXXXXXXXX
1240 : XXXXXXXXXXXXXXXX XXXXXXXXXXXXXXXX XXXXXXXXXXXXXXXX XXXXXXXXXXXXXXXX
1280 : XXXXXXXXXXXXXXXX XXXXXXXXXXXXXXXX XXXXXXXXXXXXXXXX XXXXXXXXXXXXXXXX
12C0 : XXXXXXXXXXXXXXXX XXXXXXXXXXXXXXXX XXXXXXXXXXXXXXXX XXXXXXXXXXXXXXXX
1300 : XXXXXXXXXXXXXXXX XXXXXXXXXXXXXXXX XXXXXXXXXXXXXXXX XXXXXXXXXXXXXXXX
1340 : XXXXXXXXXXXXXXXX XXXXXXXXXXXXXXXX XXXXXXXXXXXXXXXX XXXXXXXXXXXXXXXX
1380 : XXXXXXXXXXXXXXXX XXXXXXXXXXXXXXXX XXXXXXXXXXXXXXXX XXXXXXXXXXXXXXXX
13C0 : XXXXXXXXXXXXXXXX XXXXXXXXXXXXXXXX XXXXXXXXXXXXXXXX XXXXXXXXXXXXXXXX
1400 : XXXXXXXXXXXXXXXX XXXXXXXXXXXXXXXX XXXXXXXXXXXXXXXX XXXXXXXXXXXXXXXX
1440 : XXXXXXXXXXXXXXXX XXXXXXXXXXXXXXXX XXXXXXXXXXXXXXXX XXXXXXXXXXXXXXXX
1480 : XXXXXXXXXXXXXXXX XXXXXXXXXXXXXXXX XXXXXXXXXXXXXXXX XXXXXXXXXXXXXXXX
14C0 : XXXXXXXXXXXXXXXX XXXXXXXXXXXXXXXX XXXXXXXXXXXXXXXX XXXXXXXXXXXXXXXX
1500 : XXXXXXXXXXXXXXXX XXXXXXXXXXXXXXXX XXXXXXXXXXXXXXXX XXXXXXXXXXXXXXXX
1540 : XXXXXXXXXXXXXXXX XXXXXXXXXXXXXXXX XXXXXXXXXXXXXXXX XXXXXXXXXXXXXXXX
1580 : XXXXXXXXXXXXXXXX XXXXXXXXXXXXXXXX XXXXXXXXXXXXXXXX XXXXXXXXXXXXXXXX
15C0 : XXXXXXXXXXXXXXXX XXXXXXXXXXXXXXXX XXXXXXXXXXXXXXXX XXXXXXXXXXXXXXXX
1600 : XXXXXXXXXXXXXXXX XXXXXXXXXXXXXXXX XXXXXXXXXXXXXXXX XXXXXXXXXXXXXXXX
1640 : XXXXXXXXXXXXXXXX XXXXXXXXXXXXXXXX XXXXXXXXXXXXXXXX XXXXXXXXXXXXXXXX
1680 : XXXXXXXXXXXXXXXX XXXXXXXXXXXXXXXX XXXXXXXXXXXXXXXX XXXXXXXXXXXXXXXX
16C0 : XXXXXXXXXXXXXXXX XXXXXXXXXXXXXXXX XXXXXXXXXXXXXXXX XXXXXXXXXXXXXXXX
1700 : XXXXXXXXXXXXXXXX XXXXXXXXXXXXXXXX XXXXXXXXXXXXXXXX XXXXXXXXXXXXXXXX
1740 : XXXXXXXXXXXXXXXX XXXXXXXXXXXXXXXX XXXXXXXXXXXXXXXX XXXXXXXXXXXXXXXX
1780 : XXXXXXXXXXXXXXXX XXXXXXXXXXXXXXXX XXXXXXXXXXXXXXXX XXXXXXXXXXXXXXXX
17C0 : XXXXXXXXXXXXXXXX XXXXXXXXXXXXXXXX XXXXXXXXXXXXXXXX XXXXXXXXXXXXXXXX
1800 : XXXXXXXXXXXXXXXX XXXXXXXXXXXXXXXX XXXXXXXXXXXXXXXX XXXXXXXXXXXXXXXX
1840 : XXXXXXXXXXXXXXXX XXXXXXXXXXXXXXXX XXXXXXXXXXXXXXXX XXXXXXXXXXXXXXXX
1880 : XXXXXXXXXXXXXXXX XXXXXXXXXXXXXXXX XXXXXXXXXXXXXXXX XXXXXXXXXXXXXXXX
18C0 : XXXXXXXXXXXXXXXX XXXXXXXXXXXXXXXX XXXXXXXXXXXXXXXX XXXXXXXXXXXXXXXX
1900 : XXXXXXXXXXXXXXXX XXXXXXXXXXXXXXXX XXXXXXXXXXXXXXXX XXXXXXXXXXXXXXXX
1940 : XXXXXXXXXXXXXXXX XXXXXXXXXXXXXXXX XXXXXXXXXXXXXXXX XXXXXXXXXXXXXXXX
1980 : XXXXXXXXXXXXXXXX XXXXXXXXXXXXXXXX XXXXXXXXXXXXXXXX XXXXXXXXXXXXXXXX
19C0 : XXXXXXXXXXXXXXXX XXXXXXXXXXXXXXXX XXXXXXXXXXXXXXXX XXXXXXXXXXXXXXXX
1A00 : XXXXXXXXXXXXXXXX XXXXXXXXXXXXXXXX XXXXXXXXXXXXXXXX XXXXXXXXXXXXXXXX
1A40 : XXXXXXXXXXXXXXXX XXXXXXXXXXXXXXXX XXXXXXXXXXXXXXXX XXXXXXXXXXXXXXXX
1A80 : XXXXXXXXXXXXXXXX XXXXXXXXXXXXXXXX XXXXXXXXXXXXXXXX XXXXXXXXXXXXXXXX
1AC0 : XXXXXXXXXXXXXXXX XXXXXXXXXXXXXXXX XXXXXXXXXXXXXXXX XXXXXXXXXXXXXXXX
1B00 : XXXXXXXXXXXXXXXX XXXXXXXXXXXXXXXX XXXXXXXXXXXXXXXX XXXXXXXXXXXXXXXX
1B40 : XXXXXXXXXXXXXXXX XXXXXXXXXXXXXXXX XXXXXXXXXXXXXXXX XXXXXXXXXXXXXXXX
gpasm-1.5.2 #1325 (Jan 30 2022) src/dlcp_fw/a   03/29/2026  18:21:48        PAGE 225


MEMORY USAGE MAP ('X' = Used,  '-' = Unused)

1B80 : XXXXXXXXXXXXXXXX XXXXXXXXXXXXXXXX XXXXXXXXXXXXXXXX XXXXXXXXXXXXXXXX
1BC0 : XXXXXXXXXXXXXXXX XXXXXXXXXXXXXXXX XXXXXXXXXXXXXXXX XXXXXXXXXXXXXXXX
1C00 : XXXXXXXXXXXXXXXX XXXXXXXXXXXXXXXX XXXXXXXXXXXXXXXX XXXXXXXXXXXXXXXX
1C40 : XXXXXXXXXXXXXXXX XXXXXXXXXXXXXXXX XXXXXXXXXXXXXXXX XXXXXXXXXXXXXXXX
1C80 : XXXXXXXXXXXXXXXX XXXXXXXXXXXXXXXX XXXXXXXXXXXXXXXX XXXXXXXXXXXXXXXX
1CC0 : XXXXXXXXXXXXXXXX XXXXXXXXXXXXXXXX XXXXXXXXXXXXXXXX XXXXXXXXXXXXXXXX
1D00 : XXXXXXXXXXXXXXXX XXXXXXXXXXXXXXXX XXXXXXXXXXXXXXXX XXXXXXXXXXXXXXXX
1D40 : XXXXXXXXXXXXXXXX XXXXXXXXXXXXXXXX XXXXXXXXXXXXXXXX XXXXXXXXXXXXXXXX
1D80 : XXXXXXXXXXXXXXXX XXXXXXXXXXXXXXXX XXXXXXXXXXXXXXXX XXXXXXXXXXXXXXXX
1DC0 : XXXXXXXXXXXXXXXX XXXXXXXXXXXXXXXX XXXXXXXXXXXXXXXX XXXXXXXXXXXXXXXX
1E00 : XXXXXXXXXXXXXXXX XXXXXXXXXXXXXXXX XXXXXXXXXXXXXXXX XXXXXXXXXXXXXXXX
1E40 : XXXXXXXXXXXXXXXX XXXXXXXXXXXXXXXX XXXXXXXXXXXXXXXX XXXXXXXXXXXXXXXX
1E80 : XXXXXXXXXXXXXXXX XXXXXXXXXXXXXXXX XXXXXXXXXXXXXXXX XXXXXXXXXXXXXXXX
1EC0 : XXXXXXXXXXXXXXXX XXXXXXXXXXXXXXXX XXXXXXXXXXXXXXXX XXXXXXXXXXXXXXXX
1F00 : XXXXXXXXXXXXXXXX XXXXXXXXXXXXXXXX XXXXXXXXXXXXXXXX XXXXXXXXXXXXXXXX
1F40 : XXXXXXXXXXXXXXXX XXXXXXXXXXXXXXXX XXXXXXXXXXXXXXXX XXXXXXXXXXXXXXXX
1F80 : XXXXXXXXXXXXXXXX XXXXXXXXXXXXXXXX XXXXXXXXXXXXXXXX XXXXXXXXXXXXXXXX
1FC0 : XXXXXXXXXXXXXXXX XXXXXXXXXXXXXXXX XXXXXXXXXXXXXXXX XXXXXXXXXXXXXXXX
2000 : XXXXXXXXXXXXXXXX XXXXXXXXXXXXXXXX XXXXXXXXXXXXXXXX XXXXXXXXXXXXXXXX
2040 : XXXXXXXXXXXXXXXX XXXXXXXXXXXXXXXX XXXXXXXXXXXXXXXX XXXXXXXXXXXXXXXX
2080 : XXXXXXXXXXXXXXXX XXXXXXXXXXXXXXXX XXXXXXXXXXXXXXXX XXXXXXXXXXXXXXXX
20C0 : XXXXXXXXXXXXXXXX XXXXXXXXXXXXXXXX XXXXXXXXXXXXXXXX XXXXXXXXXXXXXXXX
2100 : XXXXXXXXXXXXXXXX XXXXXXXXXXXXXXXX XXXXXXXXXXXXXXXX XXXXXXXXXXXXXXXX
2140 : XXXXXXXXXXXXXXXX XXXXXXXXXXXXXXXX XXXXXXXXXXXXXXXX XXXXXXXXXXXXXXXX
2180 : XXXXXXXXXXXXXXXX XXXXXXXXXXXXXXXX XXXXXXXXXXXXXXXX XXXXXXXXXXXXXXXX
21C0 : XXXXXXXXXXXXXXXX XXXXXXXXXXXXXXXX XXXXXXXXXXXXXXXX XXXXXXXXXXXXXXXX
2200 : XXXXXXXXXXXXXXXX XXXXXXXXXXXXXXXX XXXXXXXXXXXXXXXX XXXXXXXXXXXXXXXX
2240 : XXXXXXXXXXXXXXXX XXXXXXXXXXXXXXXX XXXXXXXXXXXXXXXX XXXXXXXXXXXXXXXX
2280 : XXXXXXXXXXXXXXXX XXXXXXXXXXXXXXXX XXXXXXXXXXXXXXXX XXXXXXXXXXXXXXXX
22C0 : XXXXXXXXXXXXXXXX XXXXXXXXXXXXXXXX XXXXXXXXXXXXXXXX XXXXXXXXXXXXXXXX
2300 : XXXXXXXXXXXXXXXX XXXXXXXXXXXXXXXX XXXXXXXXXXXXXXXX XXXXXXXXXXXXXXXX
2340 : XXXXXXXXXXXXXXXX XXXXXXXXXXXXXXXX XXXXXXXXXXXXXXXX XXXXXXXXXXXXXXXX
2380 : XXXXXXXXXXXXXXXX XXXXXXXXXXXXXXXX XXXXXXXXXXXXXXXX XXXXXXXXXXXXXXXX
23C0 : XXXXXXXXXXXXXXXX XXXXXXXXXXXXXXXX XXXXXXXXXXXXXXXX XXXXXXXXXXXXXXXX
2400 : XXXXXXXXXXXXXXXX XXXXXXXXXXXXXXXX XXXXXXXXXXXXXXXX XXXXXXXXXXXXXXXX
2440 : XXXXXXXXXXXXXXXX XXXXXXXXXXXXXXXX XXXXXXXXXXXXXXXX XXXXXXXXXXXXXXXX
2480 : XXXXXXXXXXXXXXXX XXXXXXXXXXXXXXXX XXXXXXXXXXXXXXXX XXXXXXXXXXXXXXXX
24C0 : XXXXXXXXXXXXXXXX XXXXXXXXXXXXXXXX XXXXXXXXXXXXXXXX XXXXXXXXXXXXXXXX
2500 : XXXXXXXXXXXXXXXX XXXXXXXXXXXXXXXX XXXXXXXXXXXXXXXX XXXXXXXXXXXXXXXX
2540 : XXXXXXXXXXXXXXXX XXXXXXXXXXXXXXXX XXXXXXXXXXXXXXXX XXXXXXXXXXXXXXXX
2580 : XXXXXXXXXXXXXXXX XXXXXXXXXXXXXXXX XXXXXXXXXXXXXXXX XXXXXXXXXXXXXXXX
25C0 : XXXXXXXXXXXXXXXX XXXXXXXXXXXXXXXX XXXXXXXXXXXXXXXX XXXXXXXXXXXXXXXX
2600 : XXXXXXXXXXXXXXXX XXXXXXXXXXXXXXXX XXXXXXXXXXXXXXXX XXXXXXXXXXXXXXXX
2640 : XXXXXXXXXXXXXXXX XXXXXXXXXXXXXXXX XXXXXXXXXXXXXXXX XXXXXXXXXXXXXXXX
2680 : XXXXXXXXXXXXXXXX XXXXXXXXXXXXXXXX XXXXXXXXXXXXXXXX XXXXXXXXXXXXXXXX
26C0 : XXXXXXXXXXXXXXXX XXXXXXXXXXXXXXXX XXXXXXXXXXXXXXXX XXXXXXXXXXXXXXXX
2700 : XXXXXXXXXXXXXXXX XXXXXXXXXXXXXXXX XXXXXXXXXXXXXXXX XXXXXXXXXXXXXXXX
2740 : XXXXXXXXXXXXXXXX XXXXXXXXXXXXXXXX XXXXXXXXXXXXXXXX XXXXXXXXXXXXXXXX
2780 : XXXXXXXXXXXXXXXX XXXXXXXXXXXXXXXX XXXXXXXXXXXXXXXX XXXXXXXXXXXXXXXX
27C0 : XXXXXXXXXXXXXXXX XXXXXXXXXXXXXXXX XXXXXXXXXXXXXXXX XXXXXXXXXXXXXXXX
2800 : XXXXXXXXXXXXXXXX XXXXXXXXXXXXXXXX XXXXXXXXXXXXXXXX XXXXXXXXXXXXXXXX
2840 : XXXXXXXXXXXXXXXX XXXXXXXXXXXXXXXX XXXXXXXXXXXXXXXX XXXXXXXXXXXXXXXX
2880 : XXXXXXXXXXXXXXXX XXXXXXXXXXXXXXXX XXXXXXXXXXXXXXXX XXXXXXXXXXXXXXXX
28C0 : XXXXXXXXXXXXXXXX XXXXXXXXXXXXXXXX XXXXXXXXXXXXXXXX XXXXXXXXXXXXXXXX
gpasm-1.5.2 #1325 (Jan 30 2022) src/dlcp_fw/a   03/29/2026  18:21:48        PAGE 226


MEMORY USAGE MAP ('X' = Used,  '-' = Unused)

2900 : XXXXXXXXXXXXXXXX XXXXXXXXXXXXXXXX XXXXXXXXXXXXXXXX XXXXXXXXXXXXXXXX
2940 : XXXXXXXXXXXXXXXX XXXXXXXXXXXXXXXX XXXXXXXXXXXXXXXX XXXXXXXXXXXXXXXX
2980 : XXXXXXXXXXXXXXXX XXXXXXXXXXXXXXXX XXXXXXXXXXXXXXXX XXXXXXXXXXXXXXXX
29C0 : XXXXXXXXXXXXXXXX XXXXXXXXXXXXXXXX XXXXXXXXXXXXXXXX XXXXXXXXXXXXXXXX
2A00 : XXXXXXXXXXXXXXXX XXXXXXXXXXXXXXXX XXXXXXXXXXXXXXXX XXXXXXXXXXXXXXXX
2A40 : XXXXXXXXXXXXXXXX XXXXXXXXXXXXXXXX XXXXXXXXXXXXXXXX XXXXXXXXXXXXXXXX
2A80 : XXXXXXXXXXXXXXXX XXXXXXXXXXXXXXXX XXXXXXXXXXXXXXXX XXXXXXXXXXXXXXXX
2AC0 : XXXXXXXXXXXXXXXX XXXXXXXXXXXXXXXX XXXXXXXXXXXXXXXX XXXXXXXXXXXXXXXX
2B00 : XXXXXXXXXXXXXXXX XXXXXXXXXXXXXXXX XXXXXXXXXXXXXXXX XXXXXXXXXXXXXXXX
2B40 : XXXXXXXXXXXXXXXX XXXXXXXXXXXXXXXX XXXXXXXXXXXXXXXX XXXXXXXXXXXXXXXX
2B80 : XXXXXXXXXXXXXXXX XXXXXXXXXXXXXXXX XXXXXXXXXXXXXXXX XXXXXXXXXXXXXXXX
2BC0 : XXXXXXXXXXXXXXXX XXXXXXXXXXXXXXXX XXXXXXXXXXXXXXXX XXXXXXXXXXXXXXXX
2C00 : XXXXXXXXXXXXXXXX XXXXXXXXXXXXXXXX XXXXXXXXXXXXXXXX XXXXXXXXXXXXXXXX
2C40 : XXXXXXXXXXXXXXXX XXXXXXXXXXXXXXXX XXXXXXXXXXXXXXXX XXXXXXXXXXXXXXXX
2C80 : XXXXXXXXXXXXXXXX XXXXXXXXXXXXXXXX XXXXXXXXXXXXXXXX XXXXXXXXXXXXXXXX
2CC0 : XXXXXXXXXXXXXXXX XXXXXXXXXXXXXXXX XXXXXXXXXXXXXXXX XXXXXXXXXXXXXXXX
2D00 : XXXXXXXXXXXXXXXX XXXXXXXXXXXXXXXX XXXXXXXXXXXXXXXX XXXXXXXXXXXXXXXX
2D40 : XXXXXXXXXXXXXXXX XXXXXXXXXXXXXXXX XXXXXXXXXXXXXXXX XXXXXXXXXXXXXXXX
2D80 : XXXXXXXXXXXXXXXX XXXXXXXXXXXXXXXX XXXXXXXXXXXXXXXX XXXXXXXXXXXXXXXX
2DC0 : XXXXXXXXXXXXXXXX XXXXXXXXXXXXXXXX XXXXXXXXXXXXXXXX XXXXXXXXXXXXXXXX
2E00 : XXXXXXXXXXXXXXXX XXXXXXXXXXXXXXXX XXXXXXXXXXXXXXXX XXXXXXXXXXXXXXXX
2E40 : XXXXXXXXXXXXXXXX XXXXXXXXXXXXXXXX XXXXXXXXXXXXXXXX XXXXXXXXXXXXXXXX
2E80 : XXXXXXXXXXXXXXXX XXXXXXXXXXXXXXXX XXXXXXXXXXXXXXXX XXXXXXXXXXXXXXXX
2EC0 : XXXXXXXXXXXXXXXX XXXXXXXXXXXXXXXX XXXXXXXXXXXXXXXX XXXXXXXXXXXXXXXX
2F00 : XXXXXXXXXXXXXXXX XXXXXXXXXXXXXXXX XXXXXXXXXXXXXXXX XXXXXXXXXXXXXXXX
2F40 : XXXXXXXXXXXXXXXX XXXXXXXXXXXXXXXX XXXXXXXXXXXXXXXX XXXXXXXXXXXXXXXX
2F80 : XXXXXXXXXXXXXXXX XXXXXXXXXXXXXXXX XXXXXXXXXXXXXXXX XXXXXXXXXXXXXXXX
2FC0 : XXXXXXXXXXXXXXXX XXXXXXXXXXXXXXXX XXXXXXXXXXXXXXXX XXXXXXXXXXXXXXXX
3000 : XXXXXXXXXXXXXXXX XXXXXXXXXXXXXXXX XXXXXXXXXXXXXXXX XXXXXXXXXXXXXXXX
3040 : XXXXXXXXXXXXXXXX XXXXXXXXXXXXXXXX XXXXXXXXXXXXXXXX XXXXXXXXXXXXXXXX
3080 : XXXXXXXXXXXXXXXX XXXXXXXXXXXXXXXX XXXXXXXXXXXXXXXX XXXXXXXXXXXXXXXX
30C0 : XXXXXXXXXXXXXXXX XXXXXXXXXXXXXXXX XXXXXXXXXXXXXXXX XXXXXXXXXXXXXXXX
3100 : XXXXXXXXXXXXXXXX XXXXXXXXXXXXXXXX XXXXXXXXXXXXXXXX XXXXXXXXXXXXXXXX
3140 : XXXXXXXXXXXXXXXX XXXXXXXXXXXXXXXX XXXXXXXXXXXXXXXX XXXXXXXXXXXXXXXX
3180 : XXXXXXXXXXXXXXXX XXXXXXXXXXXXXXXX XXXXXXXXXXXXXXXX XXXXXXXXXXXXXXXX
31C0 : XXXXXXXXXXXXXXXX XXXXXXXXXXXXXXXX XXXXXXXXXXXXXXXX XXXXXXXXXXXXXXXX
3200 : XXXXXXXXXXXXXXXX XXXXXXXXXXXXXXXX XXXXXXXXXXXXXXXX XXXXXXXXXXXXXXXX
3240 : XXXXXXXXXXXXXXXX XXXXXXXXXXXXXXXX XXXXXXXXXXXXXXXX XXXXXXXXXXXXXXXX
3280 : XXXXXXXXXXXXXXXX XXXXXXXXXXXXXXXX XXXXXXXXXXXXXXXX XXXXXXXXXXXXXXXX
32C0 : XXXXXXXXXXXXXXXX XXXXXXXXXXXXXXXX XXXXXXXXXXXXXXXX XXXXXXXXXXXXXXXX
3300 : XXXXXXXXXXXXXXXX XXXXXXXXXXXXXXXX XXXXXXXXXXXXXXXX XXXXXXXXXXXXXXXX
3340 : XXXXXXXXXXXXXXXX XXXXXXXXXXXXXXXX XXXXXXXXXXXXXXXX XXXXXXXXXXXXXXXX
3380 : XXXXXXXXXXXXXXXX XXXXXXXXXXXXXXXX XXXXXXXXXXXXXXXX XXXXXXXXXXXXXXXX
33C0 : XXXXXXXXXXXXXXXX XXXXXXXXXXXXXXXX XXXXXXXXXXXXXXXX XXXXXXXXXXXXXXXX
3400 : XXXXXXXXXXXXXXXX XXXXXXXXXXXXXXXX XXXXXXXXXXXXXXXX XXXXXXXXXXXXXXXX
3440 : XXXXXXXXXXXXXXXX XXXXXXXXXXXXXXXX XXXXXXXXXXXXXXXX XXXXXXXXXXXXXXXX
3480 : XXXXXXXXXXXXXXXX XXXXXXXXXXXXXXXX XXXXXXXXXXXXXXXX XXXXXXXXXXXXXXXX
34C0 : XXXXXXXXXXXXXXXX XXXXXXXXXXXXXXXX XXXXXXXXXXXXXXXX XXXXXXXXXXXXXXXX
3500 : XXXXXXXXXXXXXXXX XXXXXXXXXXXXXXXX XXXXXXXXXXXXXXXX XXXXXXXXXXXXXXXX
3540 : XXXXXXXXXXXXXXXX XXXXXXXXXXXXXXXX XXXXXXXXXXXXXXXX XXXXXXXXXXXXXXXX
3580 : XXXXXXXXXXXXXXXX XXXXXXXXXXXXXXXX XXXXXXXXXXXXXXXX XXXXXXXXXXXXXXXX
35C0 : XXXXXXXXXXXXXXXX XXXXXXXXXXXXXXXX XXXXXXXXXXXXXXXX XXXXXXXXXXXXXXXX
3600 : XXXXXXXXXXXXXXXX XXXXXXXXXXXXXXXX XXXXXXXXXXXXXXXX XXXXXXXXXXXXXXXX
3640 : XXXXXXXXXXXXXXXX XXXXXXXXXXXXXXXX XXXXXXXXXXXXXXXX XXXXXXXXXXXXXXXX
gpasm-1.5.2 #1325 (Jan 30 2022) src/dlcp_fw/a   03/29/2026  18:21:48        PAGE 227


MEMORY USAGE MAP ('X' = Used,  '-' = Unused)

3680 : XXXXXXXXXXXXXXXX XXXXXXXXXXXXXXXX XXXXXXXXXXXXXXXX XXXXXXXXXXXXXXXX
36C0 : XXXXXXXXXXXXXXXX XXXXXXXXXXXXXXXX XXXXXXXXXXXXXXXX XXXXXXXXXXXXXXXX
3700 : XXXXXXXXXXXXXXXX XXXXXXXXXXXXXXXX XXXXXXXXXXXXXXXX XXXXXXXXXXXXXXXX
3740 : XXXXXXXXXXXXXXXX XXXXXXXXXXXXXXXX XXXXXXXXXXXXXXXX XXXXXXXXXXXXXXXX
3780 : XXXXXXXXXXXXXXXX XXXXXXXXXXXXXXXX XXXXXXXXXXXXXXXX XXXXXXXXXXXXXXXX
37C0 : XXXXXXXXXXXXXXXX XXXXXXXXXXXXXXXX XXXXXXXXXXXXXXXX XXXXXXXXXXXXXXXX
3800 : XXXXXXXXXXXXXXXX XXXXXXXXXXXXXXXX XXXXXXXXXXXXXXXX XXXXXXXXXXXXXXXX
3840 : XXXXXXXXXXXXXXXX XXXXXXXXXXXXXXXX XXXXXXXXXXXXXXXX XXXXXXXXXXXXXXXX
3880 : XXXXXXXXXXXXXXXX XXXXXXXXXXXXXXXX XXXXXXXXXXXXXXXX XXXXXXXXXXXXXXXX
38C0 : XXXXXXXXXXXXXXXX XXXXXXXXXXXXXXXX XXXXXXXXXXXXXXXX XXXXXXXXXXXXXXXX
3900 : XXXXXXXXXXXXXXXX XXXXXXXXXXXXXXXX XXXXXXXXXXXXXXXX XXXXXXXXXXXXXXXX
3940 : XXXXXXXXXXXXXXXX XXXXXXXXXXXXXXXX XXXXXXXXXXXXXXXX XXXXXXXXXXXXXXXX
3980 : XXXXXXXXXXXXXXXX XXXXXXXXXXXXXXXX XXXXXXXXXXXXXXXX XXXXXXXXXXXXXXXX
39C0 : XXXXXXXXXXXXXXXX XXXXXXXXXXXXXXXX XXXXXXXXXXXXXXXX XXXXXXXXXXXXXXXX
3A00 : XXXXXXXXXXXXXXXX XXXXXXXXXXXXXXXX XXXXXXXXXXXXXXXX XXXXXXXXXXXXXXXX
3A40 : XXXXXXXXXXXXXXXX XXXXXXXXXXXXXXXX XXXXXXXXXXXXXXXX XXXXXXXXXXXXXXXX
3A80 : XXXXXXXXXXXXXXXX XXXXXXXXXXXXXXXX XXXXXXXXXXXXXXXX XXXXXXXXXXXXXXXX
3AC0 : XXXXXXXXXXXXXXXX XXXXXXXXXXXXXXXX XXXXXXXXXXXXXXXX XXXXXXXXXXXXXXXX
3B00 : XXXXXXXXXXXXXXXX XXXXXXXXXXXXXXXX XXXXXXXXXXXXXXXX XXXXXXXXXXXXXXXX
3B40 : XXXXXXXXXXXXXXXX XXXXXXXXXXXXXXXX XXXXXXXXXXXXXXXX XXXXXXXXXXXXXXXX
3B80 : XXXXXXXXXXXXXXXX XXXXXXXXXXXXXXXX XXXXXXXXXXXXXXXX XXXXXXXXXXXXXXXX
3BC0 : XXXXXXXXXXXXXXXX XXXXXXXXXXXXXXXX XXXXXXXXXXXXXXXX XXXXXXXXXXXXXXXX
3C00 : XXXXXXXXXXXXXXXX XXXXXXXXXXXXXXXX XXXXXXXXXXXXXXXX XXXXXXXXXXXXXXXX
3C40 : XXXXXXXXXXXXXXXX XXXXXXXXXXXXXXXX XXXXXXXXXXXXXXXX XXXXXXXXXXXXXXXX
3C80 : XXXXXXXXXXXXXXXX XXXXXXXXXXXXXXXX XXXXXXXXXXXXXXXX XXXXXXXXXXXXXXXX
3CC0 : XXXXXXXXXXXXXXXX XXXXXXXXXXXXXXXX XXXXXXXXXXXXXXXX XXXXXXXXXXXXXXXX
3D00 : XXXXXXXXXXXXXXXX XXXXXXXXXXXXXXXX XXXXXXXXXXXXXXXX XXXXXXXXXXXXXXXX
3D40 : XXXXXXXXXXXXXXXX XXXXXXXXXXXXXXXX XXXXXXXXXXXXXXXX XXXXXXXXXXXXXXXX
3D80 : XXXXXXXXXXXXXXXX XXXXXXXXXXXXXXXX XXXXXXXXXXXXXXXX XXXXXXXXXXXXXXXX
3DC0 : XXXXXXXXXXXXXXXX XXXXXXXXXXXXXXXX XXXXXXXXXXXXXXXX XXXXXXXXXXXXXXXX
3E00 : XXXXXXXXXXXXXXXX XXXXXXXXXXXXXXXX XXXXXXXXXXXXXXXX XXXXXXXXXXXXXXXX
3E40 : XXXXXXXXXXXXXXXX XXXXXXXXXXXXXXXX XXXXXXXXXXXXXXXX XXXXXXXXXXXXXXXX
3E80 : XXXXXXXXXXXXXXXX XXXXXXXXXXXXXXXX XXXXXXXXXXXXXXXX XXXXXXXXXXXXXXXX
3EC0 : XXXXXXXXXXXXXXXX XXXXXXXXXXXXXXXX XXXXXXXXXXXXXXXX XXXXXXXXXXXXXXXX
3F00 : XXXXXXXXXXXXXXXX XXXXXXXXXXXXXXXX XXXXXXXXXXXXXXXX XXXXXXXXXXXXXXXX
3F40 : XXXXXXXXXXXXXXXX XXXXXXXXXXXXXXXX XXXXXXXXXXXXXXXX XXXXXXXXXXXXXXXX
3F80 : XXXXXXXXXXXXXXXX XXXXXXXXXXXXXXXX XXXXXXXXXXXXXXXX XXXXXXXXXXXXXXXX
3FC0 : XXXXXXXXXXXXXXXX XXXXXXXXXXXXXXXX XXXXXXXXXXXXXXXX XXXXXXXXXXXXXXXX
4000 : XXXXXXXXXXXXXXXX XXXXXXXXXXXXXXXX XXXXXXXXXXXXXXXX XXXXXXXXXXXXXXXX
4040 : XXXXXXXXXXXXXXXX XXXXXXXXXXXXXXXX XXXXXXXXXXXXXXXX XXXXXXXXXXXXXXXX
4080 : XXXXXXXXXXXXXXXX XXXXXXXXXXXXXXXX XXXXXXXXXXXXXXXX XXXXXXXXXXXXXXXX
40C0 : XXXXXXXXXXXXXXXX XXXXXXXXXXXXXXXX XXXXXXXXXXXXXXXX XXXXXXXXXXXXXXXX
4100 : XXXXXXXXXXXXXXXX XXXXXXXXXXXXXXXX XXXXXXXXXXXXXXXX XXXXXXXXXXXXXXXX
4140 : XXXXXXXXXXXXXXXX XXXXXXXXXXXXXXXX XXXXXXXXXXXXXXXX XXXXXXXXXXXXXXXX
4180 : XXXXXXXXXXXXXXXX XXXXXXXXXXXXXXXX XXXXXXXXXXXXXXXX XXXXXXXXXXXXXXXX
41C0 : XXXXXXXXXXXXXXXX XXXXXXXXXXXXXXXX XXXXXXXXXXXXXXXX XXXXXXXXXXXXXXXX
4200 : XXXXXXXXXXXXXXXX XXXXXXXXXXXXXXXX XXXXXXXXXXXXXXXX XXXXXXXXXXXXXXXX
4240 : XXXXXXXXXXXXXXXX XXXXXXXXXXXXXXXX XXXXXXXXXXXXXXXX XXXXXXXXXXXXXXXX
4280 : XXXXXXXXXXXXXXXX XXXXXXXXXXXXXXXX XXXXXXXXXXXXXXXX XXXXXXXXXXXXXXXX
42C0 : XXXXXXXXXXXXXXXX XXXXXXXXXXXXXXXX XXXXXXXXXXXXXXXX XXXXXXXXXXXXXXXX
4300 : XXXXXXXXXXXXXXXX XXXXXXXXXXXXXXXX XXXXXXXXXXXXXXXX XXXXXXXXXXXXXXXX
4340 : XXXXXXXXXXXXXXXX XXXXXXXXXXXXXXXX XXXXXXXXXXXXXXXX XXXXXXXXXXXXXXXX
4380 : XXXXXXXXXXXXXXXX XXXXXXXXXXXXXXXX XXXXXXXXXXXXXXXX XXXXXXXXXXXXXXXX
43C0 : XXXXXXXXXXXXXXXX XXXXXXXXXXXXXXXX XXXXXXXXXXXXXXXX XXXXXXXXXXXXXXXX
gpasm-1.5.2 #1325 (Jan 30 2022) src/dlcp_fw/a   03/29/2026  18:21:48        PAGE 228


MEMORY USAGE MAP ('X' = Used,  '-' = Unused)

4400 : XXXXXXXXXXXXXXXX XXXXXXXXXXXXXXXX XXXXXXXXXXXXXXXX XXXXXXXXXXXXXXXX
4440 : XXXXXXXXXXXXXXXX XXXXXXXXXXXXXXXX XXXXXXXXXXXXXXXX XXXXXXXXXXXXXXXX
4480 : XXXXXXXXXXXXXXXX XXXXXXXXXXXXXXXX XXXXXXXXXXXXXXXX XXXXXXXXXXXXXXXX
44C0 : XXXXXXXXXXXXXXXX XXXXXXXXXXXXXXXX XXXXXXXXXXXXXXXX XXXXXXXXXXXXXXXX
4500 : XXXXXXXXXXXXXXXX XXXXXXXXXXXXXXXX XXXXXXXXXXXXXXXX XXXXXXXXXXXXXXXX
4540 : XXXXXXXXXXXXXXXX XXXXXXXXXXXXXXXX XXXXXXXXXXXXXXXX XXXXXXXXXXXXXXXX
4580 : XXXXXXXXXXXXXXXX XXXXXXXXXXXXXXXX XXXXXXXXXXXXXXXX XXXXXXXXXXXXXXXX
45C0 : XXXXXXXXXXXXXXXX XXXXXXXXXXXXXXXX XXXXXXXXXXXXXXXX XXXXXXXXXXXXXXXX
4600 : XXXXXXXXXXXXXXXX XXXXXXXXXXXXXXXX XXXXXXXXXXXXXXXX XXXXXXXXXXXXXXXX
4640 : XXXXXXXXXXXXXXXX XXXXXXXXXXXXXXXX XXXXXXXXXXXXXXXX XXXXXXXXXXXXXXXX
4680 : XXXXXXXXXXXXXXXX XXXXXXXXXXXXXXXX XXXXXXXXXXXXXXXX XXXXXXXXXXXXXXXX
46C0 : XXXXXXXXXXXXXXXX XXXXXXXXXXXXXXXX XXXXXXXXXXXXXXXX XXXXXXXXXXXXXXXX
4700 : XXXXXXXXXXXXXXXX XXXXXXXXXXXXXXXX XXXXXXXXXXXXXXXX XXXXXXXXXXXXXXXX
4740 : XXXXXXXXXXXXXXXX XXXXXXXXXXXXXXXX XXXXXXXXXXXXXXXX XXXXXXXXXXXXXXXX
4780 : XXXXXXXXXXXXXXXX XXXXXXXXXXXXXXXX XXXXXXXXXXXXXXXX XXXXXXXXXXXXXXXX
47C0 : XXXXXXXXXXXXXXXX XXXXXXXXXXXXXXXX XXXXXXXXXXXXXXXX XXXXXXXXXXXXXXXX
4800 : XXXXXXXXXXXXXXXX XXXXXXXXXXXXXXXX XXXXXXXXXXXXXXXX XXXXXXXXXXXXXXXX
4840 : XXXXXXXXXXXXXXXX XXXXXXXXXXXXXXXX XXXXXXXXXXXXXXXX XXXXXXXXXXXXXXXX
4880 : XXXXXXXXXXXXXXXX XXXXXXXXXXXXXXXX XXXXXXXXXXXXXXXX XXXXXXXXXXXXXXXX
48C0 : XXXXXXXXXXXXXXXX XXXXXXXXXXXXXXXX XXXXXXXXXXXXXXXX XXXXXXXXXXXXXXXX
4900 : XXXXXXXXXXXXXXXX XXXXXXXXXXXXXXXX XXXXXXXXXXXXXXXX XXXXXXXXXXXXXXXX
4940 : XXXXXXXXXXXXXXXX XXXXXXXXXXXXXXXX XXXXXXXXXXXXXXXX XXXXXXXXXXXXXXXX
4980 : XXXXXXXXXXXXXXXX XXXXXXXXXXXXXXXX XXXXXXXXXXXXXXXX XXXXXXXXXXXXXXXX
49C0 : XXXXXXXXXXXXXXXX XXXXXXXXXXXXXXXX XXXXXXXXXXXXXXXX XXXXXXXXXXXXXXXX
4A00 : XXXXXXXXXXXXXXXX XXXXXXXXXXXXXXXX XXXXXXXXXXXXXXXX XXXXXXXXXXXXXXXX
4A40 : XXXXXXXXXXXXXXXX XXXXXXXXXXXXXXXX XXXXXXXXXXXXXXXX XXXXXXXXXXXXXXXX
4A80 : XXXXXXXXXXXXXXXX XXXXXXXXXXXXXXXX XXXXXXXXXXXXXXXX XXXXXXXXXXXXXXXX
4AC0 : XXXXXXXXXXXXXXXX XXXXXXXXXXXXXXXX XXXXXXXXXXXXXXXX XXXXXXXXXXXXXXXX
4B00 : XXXXXXXXXXXXXXXX XXXXXXXXXXXXXXXX XXXXXXXXXXXXXXXX XXXXXXXXXXXXXXXX
4B40 : XXXXXXXXXXXXXXXX XXXXXXXXXXXXXXXX XXXXXXXXXXXXXXXX XXXXXXXXXXXXXXXX
4B80 : XXXXXXXXXXXXXXXX XXXXXXXXXXXXXXXX XXXXXXXXXXXXXXXX XXXXXXXXXXXXXXXX
4BC0 : XXXXXXXXXXXX---- ---------------- ---------------- ----------------
4C00 : XXXXXXXXXXXXXXXX XXXXXXXXXXXXXXXX XXXXXXXXXXXXXXXX XXXXXXXXXXXXXXXX
4C40 : XXXXXXXXXXXXXXXX XXXXXXXXXXXXXXXX XXXXXXXXXXXXXXXX XXXXXXXXXXXXXXXX
4C80 : XXXXXXXXXXXXXXXX XXXXXXXXXXXXXXXX XXXXXXXXXXXXXXXX XXXXXXXXXXXXXXXX
4CC0 : XXXXXXXXXXXXXXXX XXXXXXXXXXXXXXXX XXXXXXXXXXXXXXXX XXXXXXXXXXXXXXXX
4D00 : XXXXXXXXXXXXXXXX XXXXXXXXXXXXXXXX XXXXXXXXXXXXXXXX XXXXXXXXXXXXXXXX
4D40 : XXXXXXXXXXXXXXXX XXXXXXXXXXXXXXXX XXXXXXXXXXXXXXXX XXXXXXXXXXXXXXXX
4D80 : XXXXXXXXXXXXXXXX XXXXXXXXXXXXXXXX XXXXXXXXXXXXXXXX XXXXXXXXXXXXXXXX
4DC0 : XXXXXXXXXXXXXXXX XXXXXXXXXXXXXXXX XXXXXXXXXXXXXXXX XXXXXXXXXXXXXXXX
4E00 : XXXXXXXXXXXXXXXX XXXXXXXXXXXXXXXX XXXXXXXXXXXXXXXX XXXXXXXXXXXXXXXX
4E40 : XXXXXXXXXXXXXXXX XXXXXXXXXXXXXXXX XXXXXXXXXXXXXXXX XXXXXXXXXXXXXXXX
4E80 : XXXXXXXXXXXXXXXX XXXXXXXXXXXXXXXX XXXXXXXXXXXXXXXX XXXXXXXXXXXXXXXX
4EC0 : XXXXXXXXXXXXXXXX XXXXXXXXXXXXXXXX XXXXXXXXXXXXXXXX XXXXXXXXXXXXXXXX
4F00 : XXXXXXXXXXXXXXXX XXXXXXXXXXXXXXXX XXXXXXXXXXXXXXXX XXXXXXXXXXXXXXXX
4F40 : XXXXXXXXXXXXXXXX XXXXXXXXXXXXXXXX XXXXXXXXXXXXXXXX XXXXXXXXXXXXXXXX
4F80 : XXXXXXXXXXXXXXXX XXXXXXXXXXXXXXXX XXXXXXXXXXXXXXXX XXXXXXXXXXXXXXXX
4FC0 : XXXXXXXXXXXXXXXX XXXXXXXXXXXXXXXX XXXXXXXXXXXXXXXX XXXXXXXXXXXXXXXX
5000 : XXXXXXXXXXXXXXXX XXXXXXXXXXXXXXXX XXXXXXXXXXXXXXXX XXXXXXXXXXXXXXXX
5040 : XXXXXXXXXXXXXXXX XXXXXXXXXXXXXXXX XXXXXXXXXXXXXXXX XXXXXXXXXXXXXXXX
5080 : XXXXXXXXXXXXXXXX XXXXXXXXXXXXXXXX XXXXXXXXXXXXXXXX XXXXXXXXXXXXXXXX
50C0 : XXXXXXXXXXXXXXXX XXXXXXXXXXXXXXXX XXXXXXXXXXXXXXXX XXXXXXXXXXXXXXXX
5100 : XXXXXXXXXXXXXXXX XXXXXXXXXXXXXXXX XXXXXXXXXXXXXXXX XXXXXXXXXXXXXXXX
5140 : XXXXXXXXXXXXXXXX XXXXXXXXXXXXXXXX XXXXXXXXXXXXXXXX XXXXXXXXXXXXXXXX
gpasm-1.5.2 #1325 (Jan 30 2022) src/dlcp_fw/a   03/29/2026  18:21:48        PAGE 229


MEMORY USAGE MAP ('X' = Used,  '-' = Unused)

5180 : XXXXXXXXXXXXXXXX XXXXXXXXXXXXXXXX XXXXXXXXXXXXXXXX XXXXXXXXXXXXXXXX
51C0 : XXXXXXXXXXXXXXXX XXXXXXXXXXXXXXXX XXXXXXXXXXXXXXXX XXXXXXXXXXXXXXXX
5200 : XXXXXXXXXXXXXXXX XXXXXXXXXXXXXXXX XXXXXXXXXXXXXXXX XXXXXXXXXXXXXXXX
5240 : XXXXXXXXXXXXXXXX XXXXXXXXXXXXXXXX XXXXXXXXXXXXXXXX XXXXXXXXXXXXXXXX
5280 : XXXXXXXXXXXXXXXX XXXXXXXXXXXXXXXX XXXXXXXXXXXXXXXX XXXXXXXXXXXXXXXX
52C0 : XXXXXXXXXXXXXXXX XXXXXXXXXXXXXXXX XXXXXXXXXXXXXXXX XXXXXXXXXXXXXXXX
5300 : XXXXXXXXXXXXXXXX XXXXXXXXXXXXXXXX XXXXXXXXXXXXXXXX XXXXXXXXXXXXXXXX
5340 : XXXXXXXXXXXXXXXX XXXXXXXXXXXXXXXX XXXXXXXXXXXXXXXX XXXXXXXXXXXXXXXX
5380 : XXXXXXXXXXXXXXXX XXXXXXXXXXXXXXXX XXXXXXXXXXXXXXXX XXXXXXXXXXXXXXXX
53C0 : XXXXXXXXXXXXXXXX XXXXXXXXXXXXXXXX XXXXXXXXXXXXXXXX XXXXXXXXXXXXXXXX
5400 : XXXXXXXXXXXXXXXX XXXXXXXXXXXXXXXX XXXXXXXXXXXXXXXX XXXXXXXXXXXXXXXX
5440 : XXXXXXXXXXXXXXXX XXXXXXXXXXXXXXXX XXXXXXXXXXXXXXXX XXXXXXXXXXXXXXXX
5480 : XXXXXXXXXXXXXXXX XXXXXXXXXXXXXXXX XXXXXXXXXXXXXXXX XXXXXXXXXXXXXXXX
54C0 : XXXXXXXXXXXXXXXX XXXXXXXXXXXXXXXX XXXXXXXXXXXXXXXX XXXXXXXXXXXXXXXX
5500 : XXXXXXXXXXXXXXXX XXXXXXXXXXXXXXXX XXXXXXXXXXXXXXXX XXXXXXXXXXXXXXXX
5540 : XXXXXXXXXXXXXXXX XXXXXXXXXXXXXXXX XXXXXXXXXXXXXXXX XXXXXXXXXXXXXXXX
5580 : XXXXXXXXXXXXXXXX XXXXXXXXXXXXXXXX XXXXXXXXXXXXXXXX XXXXXXXXXXXXXXXX
55C0 : XXXXXXXXXXXXXXXX XXXXXXXXXXXXXXXX XXXXXXXXXXXXXXXX XXXXXXXXXXXXXXXX
5600 : XXXXXXXXXXXXXXXX XXXXXXXXXXXXXXXX XXXXXXXXXXXXXXXX XXXXXXXXXXXXXXXX
5640 : XXXXXXXXXXXXXXXX XXXXXXXXXXXXXXXX XXXXXXXXXXXXXXXX XXXXXXXXXXXXXXXX
5680 : XXXXXXXXXXXXXXXX XXXXXXXXXXXXXXXX XXXXXXXXXXXXXXXX XXXXXXXXXXXXXXXX
56C0 : XXXXXXXXXXXXXXXX XXXXXXXXXXXXXXXX XXXXXXXXXXXXXXXX XXXXXXXXXXXXXXXX
5700 : XXXXXXXXXXXXXXXX XXXXXXXXXXXXXXXX XXXXXXXXXXXXXXXX XXXXXXXXXXXXXXXX
5740 : XXXXXXXXXXXXXXXX XXXXXXXXXXXXXXXX XXXXXXXXXXXXXXXX XXXXXXXXXXXXXXXX
5780 : XXXXXXXXXXXXXXXX XXXXXXXXXXXXXXXX XXXXXXXXXXXXXXXX XXXXXXXXXXXXXXXX
57C0 : XXXXXXXXXXXXXXXX XXXXXXXXXXXXXXXX XXXXXXXXXXXXXXXX XXXXXXXXXXXXXXXX
5800 : XXXXXXXXXXXXXXXX XXXXXXXXXXXXXXXX XXXXXXXXXXXXXXXX XXXXXXXXXXXXXXXX
5840 : XXXXXXXXXXXXXXXX XXXXXXXXXXXXXXXX XXXXXXXXXXXXXXXX XXXXXXXXXXXXXXXX
5880 : XXXXXXXXXXXXXXXX XXXXXXXXXXXXXXXX XXXXXXXXXXXXXXXX XXXXXXXXXXXXXXXX
58C0 : XXXXXXXXXXXXXXXX XXXXXXXXXXXXXXXX XXXXXXXXXXXXXXXX XXXXXXXXXXXXXXXX
5900 : XXXXXXXXXXXXXXXX XXXXXXXXXXXXXXXX XXXXXXXXXXXXXXXX XXXXXXXXXXXXXXXX
5940 : XXXXXXXXXXXXXXXX XXXXXXXXXXXXXXXX XXXXXXXXXXXXXXXX XXXXXXXXXXXXXXXX
5980 : XXXXXXXXXXXXXXXX XXXXXXXXXXXXXXXX XXXXXXXXXXXXXXXX XXXXXXXXXXXXXXXX
59C0 : XXXXXXXXXXXXXXXX XXXXXXXXXXXXXXXX XXXXXXXXXXXXXXXX XXXXXXXXXXXXXXXX
5A00 : XXXXXXXXXXXXXXXX XXXXXXXXXXXXXXXX XXXXXXXXXXXXXXXX XXXXXXXXXXXXXXXX
5A40 : XXXXXXXXXXXXXXXX XXXXXXXXXXXXXXXX XXXXXXXXXXXXXXXX XXXXXXXXXXXXXXXX
5A80 : XXXXXXXXXXXXXXXX XXXXXXXXXXXXXXXX XXXXXXXXXXXXXXXX XXXXXXXXXXXXXXXX
5AC0 : XXXXXXXXXXXXXXXX XXXXXXXXXXXXXXXX XXXXXXXXXXXXXXXX XXXXXXXXXXXXXXXX
5B00 : XXXXXXXXXXXXXXXX XXXXXXXXXXXXXXXX XXXXXXXXXXXXXXXX XXXXXXXXXXXXXXXX
5B40 : XXXXXXXXXXXXXXXX XXXXXXXXXXXXXXXX XXXXXXXXXXXXXXXX XXXXXXXXXXXXXXXX
5B80 : XXXXXXXXXXXXXXXX XXXXXXXXXXXXXXXX XXXXXXXXXXXXXXXX XXXXXXXXXXXXXXXX
5BC0 : XXXXXXXXXXXXXXXX XXXXXXXXXXXXXXXX XXXXXXXXXXXXXXXX XXXXXXXXXXXXXXXX
5C00 : XXXXXXXXXXXXXXXX XXXXXXXXXXXXXXXX XXXXXXXXXXXXXXXX XXXXXXXXXXXXXXXX
5C40 : XXXXXXXXXXXXXXXX XXXXXXXXXXXXXXXX XXXXXXXXXXXXXXXX XXXXXXXXXXXXXXXX
5C80 : XXXXXXXXXXXXXXXX XXXXXXXXXXXXXXXX XXXXXXXXXXXXXXXX XXXXXXXXXXXXXXXX
5CC0 : XXXXXXXXXXXXXXXX XXXXXXXXXXXXXXXX XXXXXXXXXXXXXXXX XXXXXXXXXXXXXXXX
5D00 : XXXXXXXXXXXXXXXX XXXXXXXXXXXXXXXX XXXXXXXXXXXXXXXX XXXXXXXXXXXXXXXX
5D40 : XXXXXXXXXXXXXXXX XXXXXXXXXXXXXXXX XXXXXXXXXXXXXXXX XXXXXXXXXXXXXXXX
5D80 : XXXXXXXXXXXXXXXX XXXXXXXXXXXXXXXX XXXXXXXXXXXXXXXX XXXXXXXXXXXXXXXX
5DC0 : XXXXXXXXXXXXXXXX XXXXXXXXXXXXXXXX XXXXXXXXXXXXXXXX XXXXXXXXXXXXXXXX
5E00 : XXXXXXXXXXXXXXXX XXXXXXXXXXXXXXXX XXXXXXXXXXXXXXXX XXXXXXXXXXXXXXXX
5E40 : XXXXXXXXXXXXXXXX XXXXXXXXXXXXXXXX XXXXXXXXXXXXXXXX XXXXXXXXXXXXXXXX
5E80 : XXXXXXXXXXXXXXXX XXXXXXXXXXXXXXXX XXXXXXXXXXXXXXXX XXXXXXXXXXXXXXXX
5EC0 : XXXXXXXXXXXXXXXX XXXXXXXXXXXXXXXX XXXXXXXXXXXXXXXX XXXXXXXXXXXXXXXX
gpasm-1.5.2 #1325 (Jan 30 2022) src/dlcp_fw/a   03/29/2026  18:21:48        PAGE 230


MEMORY USAGE MAP ('X' = Used,  '-' = Unused)

5F00 : XXXXXXXXXXXXXXXX XXXXXXXXXXXXXXXX XXXXXXXXXXXXXXXX XXXXXXXXXXXXXXXX
5F40 : XXXXXXXXXXXXXXXX XXXXXXXXXXXXXXXX XXXXXXXXXXXXXXXX XXXXXXXXXXXXXXXX
5F80 : XXXXXXXXXXXXXXXX XXXXXXXXXXXXXXXX XXXXXXXXXXXXXXXX XXXXXXXXXXXXXXXX
5FC0 : XXXXXXXXXXXXXXXX XXXXXXXXXXXXXXXX XXXXXXXXXXXXXXXX XXXXXXXXXXXXXXXX
0000 : XXXXXXXXXXXXXX-- ---------------- ---------------- ----------------
0000 : XXXXXXXXXXXXXXXX XXXXXXXXXXXXXXXX XXXXXXXXXXXXXXXX XXXXXXXXXXXXXXXX
0040 : XXXXXXXXXXXXXXXX XXXXXXXXXXXXXXXX XXXXXXXXXXXXXXXX XXXXXXXXXXXXXXXX
0080 : XXXXXXXXXXXXXXXX XXXXXXXXXXXXXXXX XXXXXXXXXXXXXXXX XXXXXXXXXXXXXXXX
00C0 : XXXXXXXXXXXXXXXX XXXXXXXXXXXXXXXX XXXXXXXXXXXXXXXX XXXXXXXXXXXXXXXX

All other memory blocks unused.

Program Memory Bytes Used: 20698
Program Memory Bytes Free:  3878


Errors   :     0
Warnings :    13 reported,     0 suppressed
Messages :   163 reported,     0 suppressed

